
2023 0924 EMS01.elf:     file format elf32-littlearm

Sections:
Idx Name          Size      VMA       LMA       File off  Algn
  0 .text         00003e38  00000000  00000000  00010000  2**2
                  CONTENTS, ALLOC, LOAD, READONLY, CODE
  1 .relocate     00000070  20000000  00003e38  00020000  2**2
                  CONTENTS, ALLOC, LOAD, DATA
  2 .bss          000054e0  20000070  00003ea8  00020070  2**2
                  ALLOC
  3 .stack        00002000  20005550  00009388  00020070  2**0
                  ALLOC
  4 .ARM.attributes 00000028  00000000  00000000  00020070  2**0
                  CONTENTS, READONLY
  5 .comment      00000059  00000000  00000000  00020098  2**0
                  CONTENTS, READONLY
  6 .debug_info   0008cced  00000000  00000000  000200f1  2**0
                  CONTENTS, READONLY, DEBUGGING
  7 .debug_abbrev 00008aaa  00000000  00000000  000acdde  2**0
                  CONTENTS, READONLY, DEBUGGING
  8 .debug_loc    00009dac  00000000  00000000  000b5888  2**0
                  CONTENTS, READONLY, DEBUGGING
  9 .debug_aranges 00000ab8  00000000  00000000  000bf634  2**0
                  CONTENTS, READONLY, DEBUGGING
 10 .debug_ranges 00000ba8  00000000  00000000  000c00ec  2**0
                  CONTENTS, READONLY, DEBUGGING
 11 .debug_macro  0001d520  00000000  00000000  000c0c94  2**0
                  CONTENTS, READONLY, DEBUGGING
 12 .debug_line   000215f2  00000000  00000000  000de1b4  2**0
                  CONTENTS, READONLY, DEBUGGING
 13 .debug_str    00061cfc  00000000  00000000  000ff7a6  2**0
                  CONTENTS, READONLY, DEBUGGING
 14 .debug_frame  00001c0c  00000000  00000000  001614a4  2**2
                  CONTENTS, READONLY, DEBUGGING

Disassembly of section .text:

00000000 <exception_table>:
       0:	50 75 00 20 31 2d 00 00 2d 2d 00 00 2d 2d 00 00     Pu. 1-..--..--..
	...
      2c:	2d 2d 00 00 00 00 00 00 00 00 00 00 2d 2d 00 00     --..........--..
      3c:	2d 2d 00 00 2d 2d 00 00 2d 2d 00 00 65 1e 00 00     --..--..--..e...
      4c:	2d 2d 00 00 35 18 00 00 2d 2d 00 00 2d 2d 00 00     --..5...--..--..
      5c:	f5 22 00 00 05 23 00 00 15 23 00 00 25 23 00 00     ."...#...#..%#..
	...
      74:	31 1a 00 00 41 1a 00 00 51 1a 00 00 61 1a 00 00     1...A...Q...a...
      84:	71 1a 00 00 81 1a 00 00 00 00 00 00 00 00 00 00     q...............
      94:	2d 2d 00 00 2d 2d 00 00 2d 2d 00 00 2d 2d 00 00     --..--..--..--..

000000a4 <__do_global_dtors_aux>:
      a4:	b510      	push	{r4, lr}
      a6:	4c06      	ldr	r4, [pc, #24]	; (c0 <__do_global_dtors_aux+0x1c>)
      a8:	7823      	ldrb	r3, [r4, #0]
      aa:	2b00      	cmp	r3, #0
      ac:	d107      	bne.n	be <__do_global_dtors_aux+0x1a>
      ae:	4b05      	ldr	r3, [pc, #20]	; (c4 <__do_global_dtors_aux+0x20>)
      b0:	2b00      	cmp	r3, #0
      b2:	d002      	beq.n	ba <__do_global_dtors_aux+0x16>
      b4:	4804      	ldr	r0, [pc, #16]	; (c8 <__do_global_dtors_aux+0x24>)
      b6:	e000      	b.n	ba <__do_global_dtors_aux+0x16>
      b8:	bf00      	nop
      ba:	2301      	movs	r3, #1
      bc:	7023      	strb	r3, [r4, #0]
      be:	bd10      	pop	{r4, pc}
      c0:	20000070 	.word	0x20000070
      c4:	00000000 	.word	0x00000000
      c8:	00003e38 	.word	0x00003e38

000000cc <frame_dummy>:
      cc:	4b08      	ldr	r3, [pc, #32]	; (f0 <frame_dummy+0x24>)
      ce:	b510      	push	{r4, lr}
      d0:	2b00      	cmp	r3, #0
      d2:	d003      	beq.n	dc <frame_dummy+0x10>
      d4:	4907      	ldr	r1, [pc, #28]	; (f4 <frame_dummy+0x28>)
      d6:	4808      	ldr	r0, [pc, #32]	; (f8 <frame_dummy+0x2c>)
      d8:	e000      	b.n	dc <frame_dummy+0x10>
      da:	bf00      	nop
      dc:	4807      	ldr	r0, [pc, #28]	; (fc <frame_dummy+0x30>)
      de:	6803      	ldr	r3, [r0, #0]
      e0:	2b00      	cmp	r3, #0
      e2:	d100      	bne.n	e6 <frame_dummy+0x1a>
      e4:	bd10      	pop	{r4, pc}
      e6:	4b06      	ldr	r3, [pc, #24]	; (100 <frame_dummy+0x34>)
      e8:	2b00      	cmp	r3, #0
      ea:	d0fb      	beq.n	e4 <frame_dummy+0x18>
      ec:	4798      	blx	r3
      ee:	e7f9      	b.n	e4 <frame_dummy+0x18>
      f0:	00000000 	.word	0x00000000
      f4:	20000074 	.word	0x20000074
      f8:	00003e38 	.word	0x00003e38
      fc:	00003e38 	.word	0x00003e38
     100:	00000000 	.word	0x00000000

00000104 <nvm_set_config>:
     104:	b510      	push	{r4, lr}
     106:	4a1e      	ldr	r2, [pc, #120]	; (180 <nvm_set_config+0x7c>)
     108:	69d3      	ldr	r3, [r2, #28]
     10a:	2104      	movs	r1, #4
     10c:	430b      	orrs	r3, r1
     10e:	61d3      	str	r3, [r2, #28]
     110:	4b1c      	ldr	r3, [pc, #112]	; (184 <nvm_set_config+0x80>)
     112:	2220      	movs	r2, #32
     114:	32ff      	adds	r2, #255	; 0xff
     116:	831a      	strh	r2, [r3, #24]
     118:	7d1a      	ldrb	r2, [r3, #20]
     11a:	2305      	movs	r3, #5
     11c:	07d2      	lsls	r2, r2, #31
     11e:	d401      	bmi.n	124 <nvm_set_config+0x20>
     120:	0018      	movs	r0, r3
     122:	bd10      	pop	{r4, pc}
     124:	7803      	ldrb	r3, [r0, #0]
     126:	021b      	lsls	r3, r3, #8
     128:	22c0      	movs	r2, #192	; 0xc0
     12a:	0092      	lsls	r2, r2, #2
     12c:	4013      	ands	r3, r2
     12e:	7841      	ldrb	r1, [r0, #1]
     130:	01c9      	lsls	r1, r1, #7
     132:	22ff      	movs	r2, #255	; 0xff
     134:	400a      	ands	r2, r1
     136:	4313      	orrs	r3, r2
     138:	7881      	ldrb	r1, [r0, #2]
     13a:	0049      	lsls	r1, r1, #1
     13c:	221e      	movs	r2, #30
     13e:	400a      	ands	r2, r1
     140:	4313      	orrs	r3, r2
     142:	78c2      	ldrb	r2, [r0, #3]
     144:	0492      	lsls	r2, r2, #18
     146:	2180      	movs	r1, #128	; 0x80
     148:	02c9      	lsls	r1, r1, #11
     14a:	400a      	ands	r2, r1
     14c:	4313      	orrs	r3, r2
     14e:	7902      	ldrb	r2, [r0, #4]
     150:	0412      	lsls	r2, r2, #16
     152:	21c0      	movs	r1, #192	; 0xc0
     154:	0289      	lsls	r1, r1, #10
     156:	400a      	ands	r2, r1
     158:	4313      	orrs	r3, r2
     15a:	4a0a      	ldr	r2, [pc, #40]	; (184 <nvm_set_config+0x80>)
     15c:	6053      	str	r3, [r2, #4]
     15e:	6893      	ldr	r3, [r2, #8]
     160:	035b      	lsls	r3, r3, #13
     162:	0f5b      	lsrs	r3, r3, #29
     164:	4908      	ldr	r1, [pc, #32]	; (188 <nvm_set_config+0x84>)
     166:	2408      	movs	r4, #8
     168:	409c      	lsls	r4, r3
     16a:	800c      	strh	r4, [r1, #0]
     16c:	6893      	ldr	r3, [r2, #8]
     16e:	804b      	strh	r3, [r1, #2]
     170:	7843      	ldrb	r3, [r0, #1]
     172:	710b      	strb	r3, [r1, #4]
     174:	8b13      	ldrh	r3, [r2, #24]
     176:	05db      	lsls	r3, r3, #23
     178:	0fdb      	lsrs	r3, r3, #31
     17a:	011b      	lsls	r3, r3, #4
     17c:	e7d0      	b.n	120 <nvm_set_config+0x1c>
     17e:	46c0      	nop			; (mov r8, r8)
     180:	40000400 	.word	0x40000400
     184:	41004000 	.word	0x41004000
     188:	2000008c 	.word	0x2000008c

0000018c <_i2c_master_wait_for_sync>:
     18c:	6802      	ldr	r2, [r0, #0]
     18e:	8a13      	ldrh	r3, [r2, #16]
     190:	b21b      	sxth	r3, r3
     192:	2b00      	cmp	r3, #0
     194:	dbfb      	blt.n	18e <_i2c_master_wait_for_sync+0x2>
     196:	4770      	bx	lr

00000198 <_i2c_master_address_response>:
     198:	6803      	ldr	r3, [r0, #0]
     19a:	7b9a      	ldrb	r2, [r3, #14]
     19c:	0792      	lsls	r2, r2, #30
     19e:	d507      	bpl.n	1b0 <_i2c_master_address_response+0x18>
     1a0:	2202      	movs	r2, #2
     1a2:	739a      	strb	r2, [r3, #14]
     1a4:	8a1b      	ldrh	r3, [r3, #16]
     1a6:	079b      	lsls	r3, r3, #30
     1a8:	2041      	movs	r0, #65	; 0x41
     1aa:	17db      	asrs	r3, r3, #31
     1ac:	4018      	ands	r0, r3
     1ae:	4770      	bx	lr
     1b0:	8a1a      	ldrh	r2, [r3, #16]
     1b2:	0752      	lsls	r2, r2, #29
     1b4:	d506      	bpl.n	1c4 <_i2c_master_address_response+0x2c>
     1b6:	6859      	ldr	r1, [r3, #4]
     1b8:	22c0      	movs	r2, #192	; 0xc0
     1ba:	0292      	lsls	r2, r2, #10
     1bc:	430a      	orrs	r2, r1
     1be:	605a      	str	r2, [r3, #4]
     1c0:	2018      	movs	r0, #24
     1c2:	e7f4      	b.n	1ae <_i2c_master_address_response+0x16>
     1c4:	2000      	movs	r0, #0
     1c6:	e7f2      	b.n	1ae <_i2c_master_address_response+0x16>

000001c8 <_i2c_master_wait_for_bus>:
     1c8:	b530      	push	{r4, r5, lr}
     1ca:	6802      	ldr	r2, [r0, #0]
     1cc:	2300      	movs	r3, #0
     1ce:	2401      	movs	r4, #1
     1d0:	2502      	movs	r5, #2
     1d2:	7b91      	ldrb	r1, [r2, #14]
     1d4:	4221      	tst	r1, r4
     1d6:	d10b      	bne.n	1f0 <_i2c_master_wait_for_bus+0x28>
     1d8:	7b91      	ldrb	r1, [r2, #14]
     1da:	4229      	tst	r1, r5
     1dc:	d106      	bne.n	1ec <_i2c_master_wait_for_bus+0x24>
     1de:	3301      	adds	r3, #1
     1e0:	b29b      	uxth	r3, r3
     1e2:	8901      	ldrh	r1, [r0, #8]
     1e4:	4299      	cmp	r1, r3
     1e6:	d8f4      	bhi.n	1d2 <_i2c_master_wait_for_bus+0xa>
     1e8:	2012      	movs	r0, #18
     1ea:	e002      	b.n	1f2 <_i2c_master_wait_for_bus+0x2a>
     1ec:	2000      	movs	r0, #0
     1ee:	e000      	b.n	1f2 <_i2c_master_wait_for_bus+0x2a>
     1f0:	2000      	movs	r0, #0
     1f2:	bd30      	pop	{r4, r5, pc}

000001f4 <_i2c_master_read_packet>:
     1f4:	b5f0      	push	{r4, r5, r6, r7, lr}
     1f6:	46de      	mov	lr, fp
     1f8:	4657      	mov	r7, sl
     1fa:	464e      	mov	r6, r9
     1fc:	4645      	mov	r5, r8
     1fe:	b5e0      	push	{r5, r6, r7, lr}
     200:	b083      	sub	sp, #12
     202:	0006      	movs	r6, r0
     204:	4689      	mov	r9, r1
     206:	6805      	ldr	r5, [r0, #0]
     208:	884c      	ldrh	r4, [r1, #2]
     20a:	880b      	ldrh	r3, [r1, #0]
     20c:	005b      	lsls	r3, r3, #1
     20e:	2201      	movs	r2, #1
     210:	4313      	orrs	r3, r2
     212:	b2db      	uxtb	r3, r3
     214:	752b      	strb	r3, [r5, #20]
     216:	4b32      	ldr	r3, [pc, #200]	; (2e0 <_i2c_master_read_packet+0xec>)
     218:	4798      	blx	r3
     21a:	9001      	str	r0, [sp, #4]
     21c:	686b      	ldr	r3, [r5, #4]
     21e:	4a31      	ldr	r2, [pc, #196]	; (2e4 <_i2c_master_read_packet+0xf0>)
     220:	4013      	ands	r3, r2
     222:	606b      	str	r3, [r5, #4]
     224:	2800      	cmp	r0, #0
     226:	d007      	beq.n	238 <_i2c_master_read_packet+0x44>
     228:	9801      	ldr	r0, [sp, #4]
     22a:	b003      	add	sp, #12
     22c:	bc3c      	pop	{r2, r3, r4, r5}
     22e:	4690      	mov	r8, r2
     230:	4699      	mov	r9, r3
     232:	46a2      	mov	sl, r4
     234:	46ab      	mov	fp, r5
     236:	bdf0      	pop	{r4, r5, r6, r7, pc}
     238:	0030      	movs	r0, r6
     23a:	4b2b      	ldr	r3, [pc, #172]	; (2e8 <_i2c_master_read_packet+0xf4>)
     23c:	4798      	blx	r3
     23e:	9001      	str	r0, [sp, #4]
     240:	2800      	cmp	r0, #0
     242:	d1f1      	bne.n	228 <_i2c_master_read_packet+0x34>
     244:	3c01      	subs	r4, #1
     246:	b2a4      	uxth	r4, r4
     248:	4680      	mov	r8, r0
     24a:	4b28      	ldr	r3, [pc, #160]	; (2ec <_i2c_master_read_packet+0xf8>)
     24c:	469a      	mov	sl, r3
     24e:	4b28      	ldr	r3, [pc, #160]	; (2f0 <_i2c_master_read_packet+0xfc>)
     250:	469b      	mov	fp, r3
     252:	e011      	b.n	278 <_i2c_master_read_packet+0x84>
     254:	0030      	movs	r0, r6
     256:	47d8      	blx	fp
     258:	4643      	mov	r3, r8
     25a:	1c5f      	adds	r7, r3, #1
     25c:	b2bf      	uxth	r7, r7
     25e:	7e2b      	ldrb	r3, [r5, #24]
     260:	464a      	mov	r2, r9
     262:	6852      	ldr	r2, [r2, #4]
     264:	4641      	mov	r1, r8
     266:	5453      	strb	r3, [r2, r1]
     268:	0030      	movs	r0, r6
     26a:	4b1d      	ldr	r3, [pc, #116]	; (2e0 <_i2c_master_read_packet+0xec>)
     26c:	4798      	blx	r3
     26e:	3c01      	subs	r4, #1
     270:	b2a4      	uxth	r4, r4
     272:	2800      	cmp	r0, #0
     274:	d112      	bne.n	29c <_i2c_master_read_packet+0xa8>
     276:	46b8      	mov	r8, r7
     278:	4554      	cmp	r4, sl
     27a:	d011      	beq.n	2a0 <_i2c_master_read_packet+0xac>
     27c:	8a2b      	ldrh	r3, [r5, #16]
     27e:	069b      	lsls	r3, r3, #26
     280:	d52b      	bpl.n	2da <_i2c_master_read_packet+0xe6>
     282:	7af3      	ldrb	r3, [r6, #11]
     284:	2b00      	cmp	r3, #0
     286:	d0e5      	beq.n	254 <_i2c_master_read_packet+0x60>
     288:	2c00      	cmp	r4, #0
     28a:	d1e3      	bne.n	254 <_i2c_master_read_packet+0x60>
     28c:	686a      	ldr	r2, [r5, #4]
     28e:	2380      	movs	r3, #128	; 0x80
     290:	02db      	lsls	r3, r3, #11
     292:	4313      	orrs	r3, r2
     294:	606b      	str	r3, [r5, #4]
     296:	3c01      	subs	r4, #1
     298:	b2a4      	uxth	r4, r4
     29a:	e7ed      	b.n	278 <_i2c_master_read_packet+0x84>
     29c:	46b8      	mov	r8, r7
     29e:	9001      	str	r0, [sp, #4]
     2a0:	7ab3      	ldrb	r3, [r6, #10]
     2a2:	2b00      	cmp	r3, #0
     2a4:	d010      	beq.n	2c8 <_i2c_master_read_packet+0xd4>
     2a6:	0030      	movs	r0, r6
     2a8:	4b11      	ldr	r3, [pc, #68]	; (2f0 <_i2c_master_read_packet+0xfc>)
     2aa:	4798      	blx	r3
     2ac:	686a      	ldr	r2, [r5, #4]
     2ae:	23c0      	movs	r3, #192	; 0xc0
     2b0:	029b      	lsls	r3, r3, #10
     2b2:	4313      	orrs	r3, r2
     2b4:	606b      	str	r3, [r5, #4]
     2b6:	0030      	movs	r0, r6
     2b8:	4b0d      	ldr	r3, [pc, #52]	; (2f0 <_i2c_master_read_packet+0xfc>)
     2ba:	4798      	blx	r3
     2bc:	7e2a      	ldrb	r2, [r5, #24]
     2be:	464b      	mov	r3, r9
     2c0:	685b      	ldr	r3, [r3, #4]
     2c2:	4641      	mov	r1, r8
     2c4:	545a      	strb	r2, [r3, r1]
     2c6:	e7af      	b.n	228 <_i2c_master_read_packet+0x34>
     2c8:	0030      	movs	r0, r6
     2ca:	4b09      	ldr	r3, [pc, #36]	; (2f0 <_i2c_master_read_packet+0xfc>)
     2cc:	4798      	blx	r3
     2ce:	686a      	ldr	r2, [r5, #4]
     2d0:	2380      	movs	r3, #128	; 0x80
     2d2:	025b      	lsls	r3, r3, #9
     2d4:	4313      	orrs	r3, r2
     2d6:	606b      	str	r3, [r5, #4]
     2d8:	e7ed      	b.n	2b6 <_i2c_master_read_packet+0xc2>
     2da:	2341      	movs	r3, #65	; 0x41
     2dc:	9301      	str	r3, [sp, #4]
     2de:	e7a3      	b.n	228 <_i2c_master_read_packet+0x34>
     2e0:	000001c9 	.word	0x000001c9
     2e4:	fffbffff 	.word	0xfffbffff
     2e8:	00000199 	.word	0x00000199
     2ec:	0000ffff 	.word	0x0000ffff
     2f0:	0000018d 	.word	0x0000018d

000002f4 <_i2c_master_write_packet>:
     2f4:	b5f0      	push	{r4, r5, r6, r7, lr}
     2f6:	46de      	mov	lr, fp
     2f8:	4657      	mov	r7, sl
     2fa:	464e      	mov	r6, r9
     2fc:	4645      	mov	r5, r8
     2fe:	b5e0      	push	{r5, r6, r7, lr}
     300:	b083      	sub	sp, #12
     302:	0006      	movs	r6, r0
     304:	000f      	movs	r7, r1
     306:	6805      	ldr	r5, [r0, #0]
     308:	884c      	ldrh	r4, [r1, #2]
     30a:	4b24      	ldr	r3, [pc, #144]	; (39c <_i2c_master_write_packet+0xa8>)
     30c:	4798      	blx	r3
     30e:	883b      	ldrh	r3, [r7, #0]
     310:	005b      	lsls	r3, r3, #1
     312:	b2db      	uxtb	r3, r3
     314:	752b      	strb	r3, [r5, #20]
     316:	0030      	movs	r0, r6
     318:	4b21      	ldr	r3, [pc, #132]	; (3a0 <_i2c_master_write_packet+0xac>)
     31a:	4798      	blx	r3
     31c:	9001      	str	r0, [sp, #4]
     31e:	2800      	cmp	r0, #0
     320:	d007      	beq.n	332 <_i2c_master_write_packet+0x3e>
     322:	9801      	ldr	r0, [sp, #4]
     324:	b003      	add	sp, #12
     326:	bc3c      	pop	{r2, r3, r4, r5}
     328:	4690      	mov	r8, r2
     32a:	4699      	mov	r9, r3
     32c:	46a2      	mov	sl, r4
     32e:	46ab      	mov	fp, r5
     330:	bdf0      	pop	{r4, r5, r6, r7, pc}
     332:	0030      	movs	r0, r6
     334:	4b1b      	ldr	r3, [pc, #108]	; (3a4 <_i2c_master_write_packet+0xb0>)
     336:	4798      	blx	r3
     338:	1e03      	subs	r3, r0, #0
     33a:	9001      	str	r0, [sp, #4]
     33c:	d1f1      	bne.n	322 <_i2c_master_write_packet+0x2e>
     33e:	46a0      	mov	r8, r4
     340:	2400      	movs	r4, #0
     342:	3320      	adds	r3, #32
     344:	4699      	mov	r9, r3
     346:	4b15      	ldr	r3, [pc, #84]	; (39c <_i2c_master_write_packet+0xa8>)
     348:	469b      	mov	fp, r3
     34a:	4b15      	ldr	r3, [pc, #84]	; (3a0 <_i2c_master_write_packet+0xac>)
     34c:	469a      	mov	sl, r3
     34e:	4544      	cmp	r4, r8
     350:	d014      	beq.n	37c <_i2c_master_write_packet+0x88>
     352:	8a2b      	ldrh	r3, [r5, #16]
     354:	464a      	mov	r2, r9
     356:	4213      	tst	r3, r2
     358:	d01c      	beq.n	394 <_i2c_master_write_packet+0xa0>
     35a:	0030      	movs	r0, r6
     35c:	47d8      	blx	fp
     35e:	687b      	ldr	r3, [r7, #4]
     360:	5d1b      	ldrb	r3, [r3, r4]
     362:	762b      	strb	r3, [r5, #24]
     364:	0030      	movs	r0, r6
     366:	47d0      	blx	sl
     368:	2800      	cmp	r0, #0
     36a:	d106      	bne.n	37a <_i2c_master_write_packet+0x86>
     36c:	8a2b      	ldrh	r3, [r5, #16]
     36e:	3401      	adds	r4, #1
     370:	075b      	lsls	r3, r3, #29
     372:	d5ec      	bpl.n	34e <_i2c_master_write_packet+0x5a>
     374:	231e      	movs	r3, #30
     376:	9301      	str	r3, [sp, #4]
     378:	e000      	b.n	37c <_i2c_master_write_packet+0x88>
     37a:	9001      	str	r0, [sp, #4]
     37c:	7ab3      	ldrb	r3, [r6, #10]
     37e:	2b00      	cmp	r3, #0
     380:	d0cf      	beq.n	322 <_i2c_master_write_packet+0x2e>
     382:	0030      	movs	r0, r6
     384:	4b05      	ldr	r3, [pc, #20]	; (39c <_i2c_master_write_packet+0xa8>)
     386:	4798      	blx	r3
     388:	686a      	ldr	r2, [r5, #4]
     38a:	23c0      	movs	r3, #192	; 0xc0
     38c:	029b      	lsls	r3, r3, #10
     38e:	4313      	orrs	r3, r2
     390:	606b      	str	r3, [r5, #4]
     392:	e7c6      	b.n	322 <_i2c_master_write_packet+0x2e>
     394:	2341      	movs	r3, #65	; 0x41
     396:	9301      	str	r3, [sp, #4]
     398:	e7c3      	b.n	322 <_i2c_master_write_packet+0x2e>
     39a:	46c0      	nop			; (mov r8, r8)
     39c:	0000018d 	.word	0x0000018d
     3a0:	000001c9 	.word	0x000001c9
     3a4:	00000199 	.word	0x00000199

000003a8 <i2c_master_init>:
     3a8:	b5f0      	push	{r4, r5, r6, r7, lr}
     3aa:	46c6      	mov	lr, r8
     3ac:	b500      	push	{lr}
     3ae:	b082      	sub	sp, #8
     3b0:	0007      	movs	r7, r0
     3b2:	000d      	movs	r5, r1
     3b4:	0016      	movs	r6, r2
     3b6:	6039      	str	r1, [r7, #0]
     3b8:	0008      	movs	r0, r1
     3ba:	4b45      	ldr	r3, [pc, #276]	; (4d0 <i2c_master_init+0x128>)
     3bc:	4798      	blx	r3
     3be:	4a45      	ldr	r2, [pc, #276]	; (4d4 <i2c_master_init+0x12c>)
     3c0:	6a11      	ldr	r1, [r2, #32]
     3c2:	1c84      	adds	r4, r0, #2
     3c4:	2301      	movs	r3, #1
     3c6:	40a3      	lsls	r3, r4
     3c8:	430b      	orrs	r3, r1
     3ca:	6213      	str	r3, [r2, #32]
     3cc:	a901      	add	r1, sp, #4
     3ce:	7933      	ldrb	r3, [r6, #4]
     3d0:	700b      	strb	r3, [r1, #0]
     3d2:	300d      	adds	r0, #13
     3d4:	b2c4      	uxtb	r4, r0
     3d6:	0020      	movs	r0, r4
     3d8:	4b3f      	ldr	r3, [pc, #252]	; (4d8 <i2c_master_init+0x130>)
     3da:	4798      	blx	r3
     3dc:	0020      	movs	r0, r4
     3de:	4b3f      	ldr	r3, [pc, #252]	; (4dc <i2c_master_init+0x134>)
     3e0:	4798      	blx	r3
     3e2:	7930      	ldrb	r0, [r6, #4]
     3e4:	2100      	movs	r1, #0
     3e6:	4b3e      	ldr	r3, [pc, #248]	; (4e0 <i2c_master_init+0x138>)
     3e8:	4798      	blx	r3
     3ea:	682b      	ldr	r3, [r5, #0]
     3ec:	201c      	movs	r0, #28
     3ee:	079b      	lsls	r3, r3, #30
     3f0:	d503      	bpl.n	3fa <i2c_master_init+0x52>
     3f2:	b002      	add	sp, #8
     3f4:	bc04      	pop	{r2}
     3f6:	4690      	mov	r8, r2
     3f8:	bdf0      	pop	{r4, r5, r6, r7, pc}
     3fa:	682b      	ldr	r3, [r5, #0]
     3fc:	3817      	subs	r0, #23
     3fe:	07db      	lsls	r3, r3, #31
     400:	d4f7      	bmi.n	3f2 <i2c_master_init+0x4a>
     402:	2314      	movs	r3, #20
     404:	602b      	str	r3, [r5, #0]
     406:	683c      	ldr	r4, [r7, #0]
     408:	0020      	movs	r0, r4
     40a:	4b31      	ldr	r3, [pc, #196]	; (4d0 <i2c_master_init+0x128>)
     40c:	4798      	blx	r3
     40e:	4680      	mov	r8, r0
     410:	2380      	movs	r3, #128	; 0x80
     412:	466a      	mov	r2, sp
     414:	7013      	strb	r3, [r2, #0]
     416:	2300      	movs	r3, #0
     418:	7053      	strb	r3, [r2, #1]
     41a:	2201      	movs	r2, #1
     41c:	4669      	mov	r1, sp
     41e:	708a      	strb	r2, [r1, #2]
     420:	70cb      	strb	r3, [r1, #3]
     422:	6970      	ldr	r0, [r6, #20]
     424:	69b5      	ldr	r5, [r6, #24]
     426:	2800      	cmp	r0, #0
     428:	d047      	beq.n	4ba <i2c_master_init+0x112>
     42a:	466b      	mov	r3, sp
     42c:	7018      	strb	r0, [r3, #0]
     42e:	2302      	movs	r3, #2
     430:	466a      	mov	r2, sp
     432:	7053      	strb	r3, [r2, #1]
     434:	0c00      	lsrs	r0, r0, #16
     436:	b2c0      	uxtb	r0, r0
     438:	4669      	mov	r1, sp
     43a:	4b2a      	ldr	r3, [pc, #168]	; (4e4 <i2c_master_init+0x13c>)
     43c:	4798      	blx	r3
     43e:	2d00      	cmp	r5, #0
     440:	d040      	beq.n	4c4 <i2c_master_init+0x11c>
     442:	466b      	mov	r3, sp
     444:	701d      	strb	r5, [r3, #0]
     446:	2302      	movs	r3, #2
     448:	466a      	mov	r2, sp
     44a:	7053      	strb	r3, [r2, #1]
     44c:	0c28      	lsrs	r0, r5, #16
     44e:	b2c0      	uxtb	r0, r0
     450:	4669      	mov	r1, sp
     452:	4b24      	ldr	r3, [pc, #144]	; (4e4 <i2c_master_init+0x13c>)
     454:	4798      	blx	r3
     456:	89b3      	ldrh	r3, [r6, #12]
     458:	80fb      	strh	r3, [r7, #6]
     45a:	89f3      	ldrh	r3, [r6, #14]
     45c:	813b      	strh	r3, [r7, #8]
     45e:	7c32      	ldrb	r2, [r6, #16]
     460:	2380      	movs	r3, #128	; 0x80
     462:	2a00      	cmp	r2, #0
     464:	d104      	bne.n	470 <i2c_master_init+0xc8>
     466:	4b20      	ldr	r3, [pc, #128]	; (4e8 <i2c_master_init+0x140>)
     468:	789b      	ldrb	r3, [r3, #2]
     46a:	079b      	lsls	r3, r3, #30
     46c:	0fdb      	lsrs	r3, r3, #31
     46e:	01db      	lsls	r3, r3, #7
     470:	68b2      	ldr	r2, [r6, #8]
     472:	4313      	orrs	r3, r2
     474:	7f32      	ldrb	r2, [r6, #28]
     476:	2a00      	cmp	r2, #0
     478:	d002      	beq.n	480 <i2c_master_init+0xd8>
     47a:	2280      	movs	r2, #128	; 0x80
     47c:	05d2      	lsls	r2, r2, #23
     47e:	4313      	orrs	r3, r2
     480:	6822      	ldr	r2, [r4, #0]
     482:	6a31      	ldr	r1, [r6, #32]
     484:	430a      	orrs	r2, r1
     486:	4313      	orrs	r3, r2
     488:	6023      	str	r3, [r4, #0]
     48a:	2380      	movs	r3, #128	; 0x80
     48c:	005b      	lsls	r3, r3, #1
     48e:	6063      	str	r3, [r4, #4]
     490:	4645      	mov	r5, r8
     492:	350d      	adds	r5, #13
     494:	b2e8      	uxtb	r0, r5
     496:	4b15      	ldr	r3, [pc, #84]	; (4ec <i2c_master_init+0x144>)
     498:	4798      	blx	r3
     49a:	6833      	ldr	r3, [r6, #0]
     49c:	21fa      	movs	r1, #250	; 0xfa
     49e:	00c9      	lsls	r1, r1, #3
     4a0:	4359      	muls	r1, r3
     4a2:	1e4b      	subs	r3, r1, #1
     4a4:	1818      	adds	r0, r3, r0
     4a6:	4b12      	ldr	r3, [pc, #72]	; (4f0 <i2c_master_init+0x148>)
     4a8:	4798      	blx	r3
     4aa:	1f43      	subs	r3, r0, #5
     4ac:	2040      	movs	r0, #64	; 0x40
     4ae:	2bff      	cmp	r3, #255	; 0xff
     4b0:	d89f      	bhi.n	3f2 <i2c_master_init+0x4a>
     4b2:	b2db      	uxtb	r3, r3
     4b4:	8163      	strh	r3, [r4, #10]
     4b6:	2000      	movs	r0, #0
     4b8:	e79b      	b.n	3f2 <i2c_master_init+0x4a>
     4ba:	2100      	movs	r1, #0
     4bc:	0020      	movs	r0, r4
     4be:	4b0d      	ldr	r3, [pc, #52]	; (4f4 <i2c_master_init+0x14c>)
     4c0:	4798      	blx	r3
     4c2:	e7b2      	b.n	42a <i2c_master_init+0x82>
     4c4:	2101      	movs	r1, #1
     4c6:	0020      	movs	r0, r4
     4c8:	4b0a      	ldr	r3, [pc, #40]	; (4f4 <i2c_master_init+0x14c>)
     4ca:	4798      	blx	r3
     4cc:	0005      	movs	r5, r0
     4ce:	e7b8      	b.n	442 <i2c_master_init+0x9a>
     4d0:	00002245 	.word	0x00002245
     4d4:	40000400 	.word	0x40000400
     4d8:	00002ba5 	.word	0x00002ba5
     4dc:	00002b19 	.word	0x00002b19
     4e0:	000020fd 	.word	0x000020fd
     4e4:	00002ccd 	.word	0x00002ccd
     4e8:	41002000 	.word	0x41002000
     4ec:	00002bf1 	.word	0x00002bf1
     4f0:	00002efd 	.word	0x00002efd
     4f4:	00002149 	.word	0x00002149

000004f8 <i2c_master_read_packet_wait>:
     4f8:	b510      	push	{r4, lr}
     4fa:	2301      	movs	r3, #1
     4fc:	7283      	strb	r3, [r0, #10]
     4fe:	72c3      	strb	r3, [r0, #11]
     500:	4b01      	ldr	r3, [pc, #4]	; (508 <i2c_master_read_packet_wait+0x10>)
     502:	4798      	blx	r3
     504:	bd10      	pop	{r4, pc}
     506:	46c0      	nop			; (mov r8, r8)
     508:	000001f5 	.word	0x000001f5

0000050c <i2c_master_write_packet_wait>:
     50c:	b510      	push	{r4, lr}
     50e:	2301      	movs	r3, #1
     510:	7283      	strb	r3, [r0, #10]
     512:	72c3      	strb	r3, [r0, #11]
     514:	4b01      	ldr	r3, [pc, #4]	; (51c <i2c_master_write_packet_wait+0x10>)
     516:	4798      	blx	r3
     518:	bd10      	pop	{r4, pc}
     51a:	46c0      	nop			; (mov r8, r8)
     51c:	000002f5 	.word	0x000002f5

00000520 <IIC_Read>:
#include <stdio.h>
#include "myDefine.h"


bool IIC_Read(IIC_Dev_t OBJ)
{
     520:	b084      	sub	sp, #16
     522:	b5f8      	push	{r3, r4, r5, r6, r7, lr}
     524:	9006      	str	r0, [sp, #24]
     526:	9107      	str	r1, [sp, #28]
     528:	1c11      	adds	r1, r2, #0
     52a:	9208      	str	r2, [sp, #32]
     52c:	001a      	movs	r2, r3
     52e:	9309      	str	r3, [sp, #36]	; 0x24
	packet.address = OBJ.address;
     530:	4b0e      	ldr	r3, [pc, #56]	; (56c <IIC_Read+0x4c>)
     532:	8018      	strh	r0, [r3, #0]
	packet.data_length = OBJ.Read_length;
     534:	8059      	strh	r1, [r3, #2]
	packet.data = OBJ.Read_Buf;
     536:	605a      	str	r2, [r3, #4]
     538:	2430      	movs	r4, #48	; 0x30
	unsigned int count = 0;

	while(1)
	{
		switch(i2c_master_read_packet_wait(&i2c_master_instance, &packet))
     53a:	4d0d      	ldr	r5, [pc, #52]	; (570 <IIC_Read+0x50>)
     53c:	490b      	ldr	r1, [pc, #44]	; (56c <IIC_Read+0x4c>)
     53e:	480d      	ldr	r0, [pc, #52]	; (574 <IIC_Read+0x54>)
     540:	47a8      	blx	r5
     542:	2800      	cmp	r0, #0
     544:	d010      	beq.n	568 <IIC_Read+0x48>
		{
			case STATUS_OK:
			return true;
			
			default:
			uTXByte(Debug_COM, 'R');
     546:	4f0c      	ldr	r7, [pc, #48]	; (578 <IIC_Read+0x58>)
     548:	2152      	movs	r1, #82	; 0x52
     54a:	0038      	movs	r0, r7
     54c:	4e0b      	ldr	r6, [pc, #44]	; (57c <IIC_Read+0x5c>)
     54e:	47b0      	blx	r6
			uTXByte(Debug_COM, count + 0x30);
     550:	0021      	movs	r1, r4
     552:	0038      	movs	r0, r7
     554:	47b0      	blx	r6
     556:	3401      	adds	r4, #1
     558:	b2e4      	uxtb	r4, r4
			if(count++ == 3)	return false;
     55a:	2c34      	cmp	r4, #52	; 0x34
     55c:	d1ee      	bne.n	53c <IIC_Read+0x1c>
     55e:	2000      	movs	r0, #0
			break;
		}
	}
}
     560:	bcf8      	pop	{r3, r4, r5, r6, r7}
     562:	bc08      	pop	{r3}
     564:	b004      	add	sp, #16
     566:	4718      	bx	r3
			return true;
     568:	2001      	movs	r0, #1
     56a:	e7f9      	b.n	560 <IIC_Read+0x40>
     56c:	20000190 	.word	0x20000190
     570:	000004f9 	.word	0x000004f9
     574:	20002cdc 	.word	0x20002cdc
     578:	20000110 	.word	0x20000110
     57c:	00001185 	.word	0x00001185

00000580 <IIC_Write>:




bool IIC_Write(IIC_Dev_t OBJ)
{
     580:	b084      	sub	sp, #16
     582:	b5f8      	push	{r3, r4, r5, r6, r7, lr}
     584:	1c05      	adds	r5, r0, #0
     586:	0004      	movs	r4, r0
     588:	9006      	str	r0, [sp, #24]
     58a:	9107      	str	r1, [sp, #28]
     58c:	9208      	str	r2, [sp, #32]
     58e:	9309      	str	r3, [sp, #36]	; 0x24
	packet.address = OBJ.address;					// I2C Addr 位置
     590:	4b0f      	ldr	r3, [pc, #60]	; (5d0 <IIC_Write+0x50>)
     592:	801d      	strh	r5, [r3, #0]
	packet.data_length = OBJ.Write_length ;			// I2C 寫入長度
     594:	0c24      	lsrs	r4, r4, #16
     596:	805c      	strh	r4, [r3, #2]
	packet.data = OBJ.Write_Buf ;					// I2C Reg位置 + 資料
     598:	6059      	str	r1, [r3, #4]
     59a:	2430      	movs	r4, #48	; 0x30
	unsigned int count = 0;
	while(1)
	{
		switch(i2c_master_write_packet_wait(&i2c_master_instance, &packet))
     59c:	4d0d      	ldr	r5, [pc, #52]	; (5d4 <IIC_Write+0x54>)
     59e:	490c      	ldr	r1, [pc, #48]	; (5d0 <IIC_Write+0x50>)
     5a0:	480d      	ldr	r0, [pc, #52]	; (5d8 <IIC_Write+0x58>)
     5a2:	47a8      	blx	r5
     5a4:	2800      	cmp	r0, #0
     5a6:	d010      	beq.n	5ca <IIC_Write+0x4a>
			
			//case STATUS_ERR_TIMEOUT:
			//return false;
			
			default:
			uTXByte(Debug_COM, 'W');
     5a8:	4f0c      	ldr	r7, [pc, #48]	; (5dc <IIC_Write+0x5c>)
     5aa:	2157      	movs	r1, #87	; 0x57
     5ac:	0038      	movs	r0, r7
     5ae:	4e0c      	ldr	r6, [pc, #48]	; (5e0 <IIC_Write+0x60>)
     5b0:	47b0      	blx	r6
			uTXByte(Debug_COM, count + 0x30);
     5b2:	0021      	movs	r1, r4
     5b4:	0038      	movs	r0, r7
     5b6:	47b0      	blx	r6
     5b8:	3401      	adds	r4, #1
     5ba:	b2e4      	uxtb	r4, r4
			if(count++ == 3)	return false;
     5bc:	2c34      	cmp	r4, #52	; 0x34
     5be:	d1ee      	bne.n	59e <IIC_Write+0x1e>
     5c0:	2000      	movs	r0, #0
			break;
		}
	}
}
     5c2:	bcf8      	pop	{r3, r4, r5, r6, r7}
     5c4:	bc08      	pop	{r3}
     5c6:	b004      	add	sp, #16
     5c8:	4718      	bx	r3
			return true;
     5ca:	2001      	movs	r0, #1
     5cc:	e7f9      	b.n	5c2 <IIC_Write+0x42>
     5ce:	46c0      	nop			; (mov r8, r8)
     5d0:	20000190 	.word	0x20000190
     5d4:	0000050d 	.word	0x0000050d
     5d8:	20002cdc 	.word	0x20002cdc
     5dc:	20000110 	.word	0x20000110
     5e0:	00001185 	.word	0x00001185

000005e4 <IIC_Read_packet>:
{
     5e4:	b084      	sub	sp, #16
     5e6:	b5f0      	push	{r4, r5, r6, r7, lr}
     5e8:	b08b      	sub	sp, #44	; 0x2c
     5ea:	1c06      	adds	r6, r0, #0
     5ec:	9007      	str	r0, [sp, #28]
     5ee:	9010      	str	r0, [sp, #64]	; 0x40
     5f0:	9108      	str	r1, [sp, #32]
     5f2:	9111      	str	r1, [sp, #68]	; 0x44
     5f4:	1c10      	adds	r0, r2, #0
     5f6:	9209      	str	r2, [sp, #36]	; 0x24
     5f8:	9212      	str	r2, [sp, #72]	; 0x48
     5fa:	9313      	str	r3, [sp, #76]	; 0x4c
     5fc:	9d14      	ldr	r5, [sp, #80]	; 0x50
     5fe:	9c16      	ldr	r4, [sp, #88]	; 0x58
	packet.address = OBJ.address;
     600:	4a32      	ldr	r2, [pc, #200]	; (6cc <IIC_Read_packet+0xe8>)
     602:	8016      	strh	r6, [r2, #0]
	packet.data_length = OBJ.Read_length;
     604:	8050      	strh	r0, [r2, #2]
	packet.data = OBJ.Read_Buf;
     606:	6053      	str	r3, [r2, #4]
	if(IIC_Write(OBJ) == true)
     608:	aa14      	add	r2, sp, #80	; 0x50
     60a:	4669      	mov	r1, sp
     60c:	cac1      	ldmia	r2!, {r0, r6, r7}
     60e:	c1c1      	stmia	r1!, {r0, r6, r7}
     610:	cac1      	ldmia	r2!, {r0, r6, r7}
     612:	c1c1      	stmia	r1!, {r0, r6, r7}
     614:	9807      	ldr	r0, [sp, #28]
     616:	9908      	ldr	r1, [sp, #32]
     618:	9a09      	ldr	r2, [sp, #36]	; 0x24
     61a:	4e2d      	ldr	r6, [pc, #180]	; (6d0 <IIC_Read_packet+0xec>)
     61c:	47b0      	blx	r6
     61e:	2800      	cmp	r0, #0
     620:	d02e      	beq.n	680 <IIC_Read_packet+0x9c>
		uart_str_COM(OBJ.Debug, "[");
     622:	492c      	ldr	r1, [pc, #176]	; (6d4 <IIC_Read_packet+0xf0>)
     624:	0020      	movs	r0, r4
     626:	4e2c      	ldr	r6, [pc, #176]	; (6d8 <IIC_Read_packet+0xf4>)
     628:	47b0      	blx	r6
		uart_str_COM(OBJ.Debug, OBJ.Read_Msg);
     62a:	0029      	movs	r1, r5
     62c:	0020      	movs	r0, r4
     62e:	47b0      	blx	r6
		uart_str_COM(OBJ.Debug, "_Dummy_buffer OK] ");
     630:	492a      	ldr	r1, [pc, #168]	; (6dc <IIC_Read_packet+0xf8>)
     632:	0020      	movs	r0, r4
     634:	47b0      	blx	r6
		IIC_Write_Error_Count = 0;
     636:	2200      	movs	r2, #0
     638:	4b29      	ldr	r3, [pc, #164]	; (6e0 <IIC_Read_packet+0xfc>)
     63a:	701a      	strb	r2, [r3, #0]
	if(IIC_Read(OBJ) == true)
     63c:	9514      	str	r5, [sp, #80]	; 0x50
     63e:	9416      	str	r4, [sp, #88]	; 0x58
     640:	ab14      	add	r3, sp, #80	; 0x50
     642:	466a      	mov	r2, sp
     644:	cb43      	ldmia	r3!, {r0, r1, r6}
     646:	c243      	stmia	r2!, {r0, r1, r6}
     648:	cb43      	ldmia	r3!, {r0, r1, r6}
     64a:	c243      	stmia	r2!, {r0, r1, r6}
     64c:	9810      	ldr	r0, [sp, #64]	; 0x40
     64e:	9911      	ldr	r1, [sp, #68]	; 0x44
     650:	9a12      	ldr	r2, [sp, #72]	; 0x48
     652:	9b13      	ldr	r3, [sp, #76]	; 0x4c
     654:	4e23      	ldr	r6, [pc, #140]	; (6e4 <IIC_Read_packet+0x100>)
     656:	47b0      	blx	r6
     658:	2800      	cmp	r0, #0
     65a:	d124      	bne.n	6a6 <IIC_Read_packet+0xc2>
		uart_str_COM(OBJ.Debug, "[");
     65c:	491d      	ldr	r1, [pc, #116]	; (6d4 <IIC_Read_packet+0xf0>)
     65e:	0020      	movs	r0, r4
     660:	4e1d      	ldr	r6, [pc, #116]	; (6d8 <IIC_Read_packet+0xf4>)
     662:	47b0      	blx	r6
		uart_str_COM(OBJ.Debug, OBJ.Read_Msg);
     664:	0029      	movs	r1, r5
     666:	0020      	movs	r0, r4
     668:	47b0      	blx	r6
		uart_str_COM(OBJ.Debug, " NG] ");
     66a:	491f      	ldr	r1, [pc, #124]	; (6e8 <IIC_Read_packet+0x104>)
     66c:	0020      	movs	r0, r4
     66e:	47b0      	blx	r6
		if(IIC_Read_Error_Count < 3)
     670:	4b1e      	ldr	r3, [pc, #120]	; (6ec <IIC_Read_packet+0x108>)
     672:	781b      	ldrb	r3, [r3, #0]
     674:	2b02      	cmp	r3, #2
     676:	d828      	bhi.n	6ca <IIC_Read_packet+0xe6>
			IIC_Read_Error_Count++;
     678:	3301      	adds	r3, #1
     67a:	4a1c      	ldr	r2, [pc, #112]	; (6ec <IIC_Read_packet+0x108>)
     67c:	7013      	strb	r3, [r2, #0]
     67e:	e01f      	b.n	6c0 <IIC_Read_packet+0xdc>
		uart_str_COM(OBJ.Debug, "[");
     680:	4914      	ldr	r1, [pc, #80]	; (6d4 <IIC_Read_packet+0xf0>)
     682:	0020      	movs	r0, r4
     684:	4e14      	ldr	r6, [pc, #80]	; (6d8 <IIC_Read_packet+0xf4>)
     686:	47b0      	blx	r6
		uart_str_COM(OBJ.Debug, OBJ.Read_Msg);
     688:	0029      	movs	r1, r5
     68a:	0020      	movs	r0, r4
     68c:	47b0      	blx	r6
		uart_str_COM(OBJ.Debug, "_Dummy_buffer NG] ");
     68e:	4918      	ldr	r1, [pc, #96]	; (6f0 <IIC_Read_packet+0x10c>)
     690:	0020      	movs	r0, r4
     692:	47b0      	blx	r6
		if(IIC_Write_Error_Count < 3)
     694:	4b12      	ldr	r3, [pc, #72]	; (6e0 <IIC_Read_packet+0xfc>)
     696:	781b      	ldrb	r3, [r3, #0]
     698:	2b02      	cmp	r3, #2
     69a:	d803      	bhi.n	6a4 <IIC_Read_packet+0xc0>
			IIC_Write_Error_Count++;
     69c:	3301      	adds	r3, #1
     69e:	4a10      	ldr	r2, [pc, #64]	; (6e0 <IIC_Read_packet+0xfc>)
     6a0:	7013      	strb	r3, [r2, #0]
     6a2:	e7cb      	b.n	63c <IIC_Read_packet+0x58>
     6a4:	e7fe      	b.n	6a4 <IIC_Read_packet+0xc0>
		uart_str_COM(OBJ.Debug, "[");
     6a6:	490b      	ldr	r1, [pc, #44]	; (6d4 <IIC_Read_packet+0xf0>)
     6a8:	0020      	movs	r0, r4
     6aa:	4e0b      	ldr	r6, [pc, #44]	; (6d8 <IIC_Read_packet+0xf4>)
     6ac:	47b0      	blx	r6
		uart_str_COM(OBJ.Debug, OBJ.Read_Msg);
     6ae:	0029      	movs	r1, r5
     6b0:	0020      	movs	r0, r4
     6b2:	47b0      	blx	r6
		uart_str_COM(OBJ.Debug, " OK] ");
     6b4:	490f      	ldr	r1, [pc, #60]	; (6f4 <IIC_Read_packet+0x110>)
     6b6:	0020      	movs	r0, r4
     6b8:	47b0      	blx	r6
		IIC_Read_Error_Count = 0;
     6ba:	2200      	movs	r2, #0
     6bc:	4b0b      	ldr	r3, [pc, #44]	; (6ec <IIC_Read_packet+0x108>)
     6be:	701a      	strb	r2, [r3, #0]
}
     6c0:	b00b      	add	sp, #44	; 0x2c
     6c2:	bcf0      	pop	{r4, r5, r6, r7}
     6c4:	bc08      	pop	{r3}
     6c6:	b004      	add	sp, #16
     6c8:	4718      	bx	r3
     6ca:	e7fe      	b.n	6ca <IIC_Read_packet+0xe6>
     6cc:	20000190 	.word	0x20000190
     6d0:	00000581 	.word	0x00000581
     6d4:	00003ac8 	.word	0x00003ac8
     6d8:	00001025 	.word	0x00001025
     6dc:	00003acc 	.word	0x00003acc
     6e0:	20005438 	.word	0x20005438
     6e4:	00000521 	.word	0x00000521
     6e8:	00003afc 	.word	0x00003afc
     6ec:	20004bb1 	.word	0x20004bb1
     6f0:	00003ae0 	.word	0x00003ae0
     6f4:	00003af4 	.word	0x00003af4

000006f8 <show_eeprom_ok>:




void show_eeprom_ok(bool tmpFlag)
{
     6f8:	b510      	push	{r4, lr}
     6fa:	0004      	movs	r4, r0
	uart_str_COM(Debug_COM,  " --> [EEPEOM_Write ");
     6fc:	4907      	ldr	r1, [pc, #28]	; (71c <show_eeprom_ok+0x24>)
     6fe:	4808      	ldr	r0, [pc, #32]	; (720 <show_eeprom_ok+0x28>)
     700:	4b08      	ldr	r3, [pc, #32]	; (724 <show_eeprom_ok+0x2c>)
     702:	4798      	blx	r3
	if(tmpFlag)
     704:	2c00      	cmp	r4, #0
     706:	d104      	bne.n	712 <show_eeprom_ok+0x1a>
		uart_str_COM(Debug_COM,  "OK]");
	else
		uart_str_COM(Debug_COM,  "NG]");
     708:	4907      	ldr	r1, [pc, #28]	; (728 <show_eeprom_ok+0x30>)
     70a:	4805      	ldr	r0, [pc, #20]	; (720 <show_eeprom_ok+0x28>)
     70c:	4b05      	ldr	r3, [pc, #20]	; (724 <show_eeprom_ok+0x2c>)
     70e:	4798      	blx	r3
     710:	bd10      	pop	{r4, pc}
		uart_str_COM(Debug_COM,  "OK]");
     712:	4906      	ldr	r1, [pc, #24]	; (72c <show_eeprom_ok+0x34>)
     714:	4802      	ldr	r0, [pc, #8]	; (720 <show_eeprom_ok+0x28>)
     716:	4b03      	ldr	r3, [pc, #12]	; (724 <show_eeprom_ok+0x2c>)
     718:	4798      	blx	r3
     71a:	e7f9      	b.n	710 <show_eeprom_ok+0x18>
     71c:	00003b04 	.word	0x00003b04
     720:	20000110 	.word	0x20000110
     724:	00001025 	.word	0x00001025
     728:	00003b1c 	.word	0x00003b1c
     72c:	00003b18 	.word	0x00003b18

00000730 <Load_eID_Flag>:




void Load_eID_Flag(Item_Dev_t *tmpItem)
{
     730:	b570      	push	{r4, r5, r6, lr}
     732:	b094      	sub	sp, #80	; 0x50
     734:	0004      	movs	r4, r0
	char str[50];
	UINT16u_t tmp16;
	tmp16.word = eMAP_eID;
	tmpItem->Read->Write_Buf[0]	= tmp16.byte[1];
     736:	6803      	ldr	r3, [r0, #0]
     738:	685a      	ldr	r2, [r3, #4]
     73a:	2300      	movs	r3, #0
     73c:	7013      	strb	r3, [r2, #0]
	tmpItem->Read->Write_Buf[1]	= tmp16.byte[0];
     73e:	6802      	ldr	r2, [r0, #0]
     740:	6852      	ldr	r2, [r2, #4]
     742:	7053      	strb	r3, [r2, #1]
	tmpItem->Read->Write_length	= 2;	// 寫兩個位置，Reg_Addr
     744:	3302      	adds	r3, #2
     746:	6802      	ldr	r2, [r0, #0]
     748:	8053      	strh	r3, [r2, #2]
	tmpItem->Read->Read_length	= 4;	// 讀一個位置
     74a:	3302      	adds	r3, #2
     74c:	6802      	ldr	r2, [r0, #0]
     74e:	8113      	strh	r3, [r2, #8]
	IIC_Read_packet(*tmpItem->Read);
     750:	6805      	ldr	r5, [r0, #0]
     752:	002b      	movs	r3, r5
     754:	3310      	adds	r3, #16
     756:	466a      	mov	r2, sp
     758:	cb43      	ldmia	r3!, {r0, r1, r6}
     75a:	c243      	stmia	r2!, {r0, r1, r6}
     75c:	cb43      	ldmia	r3!, {r0, r1, r6}
     75e:	c243      	stmia	r2!, {r0, r1, r6}
     760:	6828      	ldr	r0, [r5, #0]
     762:	6869      	ldr	r1, [r5, #4]
     764:	68aa      	ldr	r2, [r5, #8]
     766:	68eb      	ldr	r3, [r5, #12]
     768:	4d0e      	ldr	r5, [pc, #56]	; (7a4 <Load_eID_Flag+0x74>)
     76a:	47a8      	blx	r5
	
	mGateway.uEMS.uModule.uID.byte[0] = *(tmpItem->Read->Read_Buf);
     76c:	6823      	ldr	r3, [r4, #0]
     76e:	68db      	ldr	r3, [r3, #12]
     770:	781a      	ldrb	r2, [r3, #0]
     772:	4b0d      	ldr	r3, [pc, #52]	; (7a8 <Load_eID_Flag+0x78>)
     774:	751a      	strb	r2, [r3, #20]
	mGateway.uEMS.uModule.uID.byte[1] = *(tmpItem->Read->Read_Buf+1);
     776:	6822      	ldr	r2, [r4, #0]
     778:	68d2      	ldr	r2, [r2, #12]
     77a:	7852      	ldrb	r2, [r2, #1]
     77c:	755a      	strb	r2, [r3, #21]
	mGateway.uEMS.uModule.uID.byte[2] = *(tmpItem->Read->Read_Buf+2);
     77e:	6822      	ldr	r2, [r4, #0]
     780:	68d2      	ldr	r2, [r2, #12]
     782:	7892      	ldrb	r2, [r2, #2]
     784:	759a      	strb	r2, [r3, #22]
	mGateway.uEMS.uModule.uID.byte[3] = *(tmpItem->Read->Read_Buf+3);
     786:	6822      	ldr	r2, [r4, #0]
     788:	68d2      	ldr	r2, [r2, #12]
     78a:	78d2      	ldrb	r2, [r2, #3]
     78c:	75da      	strb	r2, [r3, #23]
	
	sprintf(str, "\r Load [mGateway.uEMS.uModule.uID] = 0x%08X", mGateway.uEMS.uModule.uID.dword);
     78e:	695a      	ldr	r2, [r3, #20]
     790:	4906      	ldr	r1, [pc, #24]	; (7ac <Load_eID_Flag+0x7c>)
     792:	a807      	add	r0, sp, #28
     794:	4b06      	ldr	r3, [pc, #24]	; (7b0 <Load_eID_Flag+0x80>)
     796:	4798      	blx	r3
	uart_str_COM(Debug_COM, str);
     798:	a907      	add	r1, sp, #28
     79a:	4806      	ldr	r0, [pc, #24]	; (7b4 <Load_eID_Flag+0x84>)
     79c:	4b06      	ldr	r3, [pc, #24]	; (7b8 <Load_eID_Flag+0x88>)
     79e:	4798      	blx	r3
}
     7a0:	b014      	add	sp, #80	; 0x50
     7a2:	bd70      	pop	{r4, r5, r6, pc}
     7a4:	000005e5 	.word	0x000005e5
     7a8:	20000c10 	.word	0x20000c10
     7ac:	00003b20 	.word	0x00003b20
     7b0:	00003299 	.word	0x00003299
     7b4:	20000110 	.word	0x20000110
     7b8:	00001025 	.word	0x00001025

000007bc <Save_eID_Flag>:



void Save_eID_Flag(Item_Dev_t *tmpItem)
{
     7bc:	b530      	push	{r4, r5, lr}
     7be:	b095      	sub	sp, #84	; 0x54
     7c0:	0004      	movs	r4, r0
	UINT16u_t tmp16;
	char str[50];

	tmp16.word = eMAP_eID ;
	tmpItem->Write->Write_Buf[0] = tmp16.byte[1];
     7c2:	6843      	ldr	r3, [r0, #4]
     7c4:	685a      	ldr	r2, [r3, #4]
     7c6:	2300      	movs	r3, #0
     7c8:	7013      	strb	r3, [r2, #0]
	tmpItem->Write->Write_Buf[1] = tmp16.byte[0];
     7ca:	6842      	ldr	r2, [r0, #4]
     7cc:	6852      	ldr	r2, [r2, #4]
     7ce:	7053      	strb	r3, [r2, #1]
	tmpItem->Write->Write_Buf[2] = mGateway.uEMS.uModule.uID.byte[0];
     7d0:	6843      	ldr	r3, [r0, #4]
     7d2:	685a      	ldr	r2, [r3, #4]
     7d4:	4b1b      	ldr	r3, [pc, #108]	; (844 <Save_eID_Flag+0x88>)
     7d6:	7d19      	ldrb	r1, [r3, #20]
     7d8:	7091      	strb	r1, [r2, #2]
	tmpItem->Write->Write_Buf[3] = mGateway.uEMS.uModule.uID.byte[1];
     7da:	6842      	ldr	r2, [r0, #4]
     7dc:	6852      	ldr	r2, [r2, #4]
     7de:	7d59      	ldrb	r1, [r3, #21]
     7e0:	70d1      	strb	r1, [r2, #3]
	tmpItem->Write->Write_Buf[4] = mGateway.uEMS.uModule.uID.byte[2];
     7e2:	6842      	ldr	r2, [r0, #4]
     7e4:	6852      	ldr	r2, [r2, #4]
     7e6:	7d99      	ldrb	r1, [r3, #22]
     7e8:	7111      	strb	r1, [r2, #4]
	tmpItem->Write->Write_Buf[5] = mGateway.uEMS.uModule.uID.byte[3];
     7ea:	6842      	ldr	r2, [r0, #4]
     7ec:	6852      	ldr	r2, [r2, #4]
     7ee:	7dd9      	ldrb	r1, [r3, #23]
     7f0:	7151      	strb	r1, [r2, #5]
	tmpItem->Write->Write_length = 6;	// 寫兩個位置，Reg_Addr(2) + data(byte)
     7f2:	2206      	movs	r2, #6
     7f4:	6841      	ldr	r1, [r0, #4]
     7f6:	804a      	strh	r2, [r1, #2]
	sprintf(str, "\r Save [i2c] = 0x%02X, 0x%02X, 0x%02X, Len(0x%02X),",
	tmpItem->Write->Write_Buf[0],tmpItem->Write->Write_Buf[1],tmpItem->Write->Write_Buf[2],tmpItem->Write->Write_length);
	uart_str_COM(Debug_COM, str);
	*/
	
	sprintf(str, "\r Save [mGateway.uEMS.uModule.uID] = 0x%08X", mGateway.uEMS.uModule.uID.dword);
     7f8:	695a      	ldr	r2, [r3, #20]
     7fa:	4913      	ldr	r1, [pc, #76]	; (848 <Save_eID_Flag+0x8c>)
     7fc:	a807      	add	r0, sp, #28
     7fe:	4b13      	ldr	r3, [pc, #76]	; (84c <Save_eID_Flag+0x90>)
     800:	4798      	blx	r3
	uart_str_COM(Debug_COM, str);
     802:	a907      	add	r1, sp, #28
     804:	4812      	ldr	r0, [pc, #72]	; (850 <Save_eID_Flag+0x94>)
     806:	4b13      	ldr	r3, [pc, #76]	; (854 <Save_eID_Flag+0x98>)
     808:	4798      	blx	r3
	
	if(IIC_Write(*tmpItem->Write) == true)
     80a:	6864      	ldr	r4, [r4, #4]
     80c:	0023      	movs	r3, r4
     80e:	3310      	adds	r3, #16
     810:	466a      	mov	r2, sp
     812:	cb23      	ldmia	r3!, {r0, r1, r5}
     814:	c223      	stmia	r2!, {r0, r1, r5}
     816:	cb23      	ldmia	r3!, {r0, r1, r5}
     818:	c223      	stmia	r2!, {r0, r1, r5}
     81a:	6820      	ldr	r0, [r4, #0]
     81c:	6861      	ldr	r1, [r4, #4]
     81e:	68a2      	ldr	r2, [r4, #8]
     820:	68e3      	ldr	r3, [r4, #12]
     822:	4c0d      	ldr	r4, [pc, #52]	; (858 <Save_eID_Flag+0x9c>)
     824:	47a0      	blx	r4
     826:	2800      	cmp	r0, #0
     828:	d107      	bne.n	83a <Save_eID_Flag+0x7e>
		show_eeprom_ok(true);
	else
		show_eeprom_ok(false);
     82a:	2000      	movs	r0, #0
     82c:	4b0b      	ldr	r3, [pc, #44]	; (85c <Save_eID_Flag+0xa0>)
     82e:	4798      	blx	r3
	delay_ms(100);
     830:	2064      	movs	r0, #100	; 0x64
     832:	4b0b      	ldr	r3, [pc, #44]	; (860 <Save_eID_Flag+0xa4>)
     834:	4798      	blx	r3
}
     836:	b015      	add	sp, #84	; 0x54
     838:	bd30      	pop	{r4, r5, pc}
		show_eeprom_ok(true);
     83a:	2001      	movs	r0, #1
     83c:	4b07      	ldr	r3, [pc, #28]	; (85c <Save_eID_Flag+0xa0>)
     83e:	4798      	blx	r3
     840:	e7f6      	b.n	830 <Save_eID_Flag+0x74>
     842:	46c0      	nop			; (mov r8, r8)
     844:	20000c10 	.word	0x20000c10
     848:	00003b4c 	.word	0x00003b4c
     84c:	00003299 	.word	0x00003299
     850:	20000110 	.word	0x20000110
     854:	00001025 	.word	0x00001025
     858:	00000581 	.word	0x00000581
     85c:	000006f9 	.word	0x000006f9
     860:	00001ec1 	.word	0x00001ec1

00000864 <eID_initial>:



void eID_initial(Item_Dev_t *tmpItem)
{
     864:	b510      	push	{r4, lr}
     866:	0004      	movs	r4, r0
	
	uart_str_COM(Debug_COM, "\r eID_initial();");
     868:	490d      	ldr	r1, [pc, #52]	; (8a0 <eID_initial+0x3c>)
     86a:	480e      	ldr	r0, [pc, #56]	; (8a4 <eID_initial+0x40>)
     86c:	4b0e      	ldr	r3, [pc, #56]	; (8a8 <eID_initial+0x44>)
     86e:	4798      	blx	r3
	
	//================================================================
	// 2023-03-03 寫入
	tmpItem->Write							= &eID_write_packet;
     870:	4b0e      	ldr	r3, [pc, #56]	; (8ac <eID_initial+0x48>)
     872:	6063      	str	r3, [r4, #4]
	tmpItem->Write->address					= i2c_EEPROM_ADDRESS;
     874:	2050      	movs	r0, #80	; 0x50
     876:	8018      	strh	r0, [r3, #0]
	tmpItem->Write->Write_Buf				= i2c_write_buffer;
     878:	4a0d      	ldr	r2, [pc, #52]	; (8b0 <eID_initial+0x4c>)
     87a:	605a      	str	r2, [r3, #4]
	tmpItem->Write->Debug					= &IIC_Debug_Flag;
     87c:	6861      	ldr	r1, [r4, #4]
     87e:	4b0d      	ldr	r3, [pc, #52]	; (8b4 <eID_initial+0x50>)
     880:	618b      	str	r3, [r1, #24]

	//================================================================
	// 2023-03-03 讀取
	
	tmpItem->Read							= &eID_Read_packet;
     882:	490d      	ldr	r1, [pc, #52]	; (8b8 <eID_initial+0x54>)
     884:	6021      	str	r1, [r4, #0]
	tmpItem->Read->address					= i2c_EEPROM_ADDRESS;
     886:	8008      	strh	r0, [r1, #0]
	tmpItem->Read->Write_Buf				= i2c_write_buffer;
     888:	6821      	ldr	r1, [r4, #0]
     88a:	604a      	str	r2, [r1, #4]
	tmpItem->Read->Write_length				= 2;
     88c:	2202      	movs	r2, #2
     88e:	6821      	ldr	r1, [r4, #0]
     890:	804a      	strh	r2, [r1, #2]
	
	tmpItem->Read->Read_Buf					= i2c_Read_buffer;
     892:	6822      	ldr	r2, [r4, #0]
     894:	4909      	ldr	r1, [pc, #36]	; (8bc <eID_initial+0x58>)
     896:	60d1      	str	r1, [r2, #12]
	tmpItem->Read->Debug					= &IIC_Debug_Flag;
     898:	6822      	ldr	r2, [r4, #0]
     89a:	6193      	str	r3, [r2, #24]
     89c:	bd10      	pop	{r4, pc}
     89e:	46c0      	nop			; (mov r8, r8)
     8a0:	00003b78 	.word	0x00003b78
     8a4:	20000110 	.word	0x20000110
     8a8:	00001025 	.word	0x00001025
     8ac:	200053f0 	.word	0x200053f0
     8b0:	200000ac 	.word	0x200000ac
     8b4:	20000092 	.word	0x20000092
     8b8:	20000be4 	.word	0x20000be4
     8bc:	20000094 	.word	0x20000094

000008c0 <Main_Startup>:
#include "myDefine.h"
#include <string.h> 


void Main_Startup(void)
{
     8c0:	b570      	push	{r4, r5, r6, lr}
	UINT16u_t tmp16;
	volatile Write_PLC_List_t *Write_PLC_List_Index = Write_PLC_List_In_RAM;
	volatile LORA_Dev_List_t *LORA_Dev_List_Index = LORA_Dev_List_In_RAM;
		uint16_t timeout = 0;
	IO_init();
     8c2:	4b23      	ldr	r3, [pc, #140]	; (950 <Main_Startup+0x90>)
     8c4:	4798      	blx	r3
	system_init();
     8c6:	4b23      	ldr	r3, [pc, #140]	; (954 <Main_Startup+0x94>)
     8c8:	4798      	blx	r3
	
	delay_init();
     8ca:	4b23      	ldr	r3, [pc, #140]	; (958 <Main_Startup+0x98>)
     8cc:	4798      	blx	r3

	/* Set the pin to high or low atomically based on the requested level */
	if (level) {
		port_base->OUTSET.reg = pin_mask;
	} else {
		port_base->OUTCLR.reg = pin_mask;
     8ce:	4b23      	ldr	r3, [pc, #140]	; (95c <Main_Startup+0x9c>)
     8d0:	2280      	movs	r2, #128	; 0x80
     8d2:	0412      	lsls	r2, r2, #16
     8d4:	615a      	str	r2, [r3, #20]
     8d6:	2280      	movs	r2, #128	; 0x80
     8d8:	0512      	lsls	r2, r2, #20
     8da:	615a      	str	r2, [r3, #20]
     8dc:	2280      	movs	r2, #128	; 0x80
     8de:	0552      	lsls	r2, r2, #21
     8e0:	615a      	str	r2, [r3, #20]

	
	LED_G_ON
	LED_R_ON
	LED_B_ON
	configure_usart();
     8e2:	4b1f      	ldr	r3, [pc, #124]	; (960 <Main_Startup+0xa0>)
     8e4:	4798      	blx	r3
	configure_usart_callbacks();
     8e6:	4b1f      	ldr	r3, [pc, #124]	; (964 <Main_Startup+0xa4>)
     8e8:	4798      	blx	r3
	
	uart_str_COM(Debug_COM, "\r mcu [uart]");
     8ea:	4d1f      	ldr	r5, [pc, #124]	; (968 <Main_Startup+0xa8>)
     8ec:	491f      	ldr	r1, [pc, #124]	; (96c <Main_Startup+0xac>)
     8ee:	0028      	movs	r0, r5
     8f0:	4c1f      	ldr	r4, [pc, #124]	; (970 <Main_Startup+0xb0>)
     8f2:	47a0      	blx	r4

	uart_str_COM(Debug_COM, "\r mcu [i2c]");
     8f4:	491f      	ldr	r1, [pc, #124]	; (974 <Main_Startup+0xb4>)
     8f6:	0028      	movs	r0, r5
     8f8:	47a0      	blx	r4
	configure_i2c_master();
     8fa:	4b1f      	ldr	r3, [pc, #124]	; (978 <Main_Startup+0xb8>)
     8fc:	4798      	blx	r3
	
	uart_str_COM(Debug_COM, "\r mcu [adc]");
     8fe:	491f      	ldr	r1, [pc, #124]	; (97c <Main_Startup+0xbc>)
     900:	0028      	movs	r0, r5
     902:	47a0      	blx	r4
	configure_adc();
     904:	4b1e      	ldr	r3, [pc, #120]	; (980 <Main_Startup+0xc0>)
     906:	4798      	blx	r3
	
	timer_configure();
     908:	4b1e      	ldr	r3, [pc, #120]	; (984 <Main_Startup+0xc4>)
     90a:	4798      	blx	r3
	uart_str_COM(Debug_COM, "\r mcu [timer]");
     90c:	491e      	ldr	r1, [pc, #120]	; (988 <Main_Startup+0xc8>)
     90e:	0028      	movs	r0, r5
     910:	47a0      	blx	r4
	
	configure_extint_channel();
     912:	4b1e      	ldr	r3, [pc, #120]	; (98c <Main_Startup+0xcc>)
     914:	4798      	blx	r3
	configure_extint_callbacks();
     916:	4b1e      	ldr	r3, [pc, #120]	; (990 <Main_Startup+0xd0>)
     918:	4798      	blx	r3
	uart_str_COM(Debug_COM, "\r mcu [exint]");
     91a:	491e      	ldr	r1, [pc, #120]	; (994 <Main_Startup+0xd4>)
     91c:	0028      	movs	r0, r5
     91e:	47a0      	blx	r4
	
	
	configure_wdt();
     920:	4b1d      	ldr	r3, [pc, #116]	; (998 <Main_Startup+0xd8>)
     922:	4798      	blx	r3
	configure_wdt_callbacks();
     924:	4b1d      	ldr	r3, [pc, #116]	; (99c <Main_Startup+0xdc>)
     926:	4798      	blx	r3
	uart_str_COM(Debug_COM, "\r mcu [wdt]");
     928:	491d      	ldr	r1, [pc, #116]	; (9a0 <Main_Startup+0xe0>)
     92a:	0028      	movs	r0, r5
     92c:	47a0      	blx	r4
	
	configure_nvm();
     92e:	4b1d      	ldr	r3, [pc, #116]	; (9a4 <Main_Startup+0xe4>)
     930:	4798      	blx	r3
	uart_str_COM(Debug_COM, "\r mcu [nvm]");
     932:	491d      	ldr	r1, [pc, #116]	; (9a8 <Main_Startup+0xe8>)
     934:	0028      	movs	r0, r5
     936:	47a0      	blx	r4
 *
 * Enables global interrupts in the device to fire any enabled interrupt handlers.
 */
static inline void system_interrupt_enable_global(void)
{
	cpu_irq_enable();
     938:	2201      	movs	r2, #1
     93a:	4b1c      	ldr	r3, [pc, #112]	; (9ac <Main_Startup+0xec>)
     93c:	701a      	strb	r2, [r3, #0]
    This function ensures the apparent order of the explicit memory operations before
    and after the instruction, without ensuring their completion.
 */
__attribute__( ( always_inline ) ) __STATIC_INLINE void __DMB(void)
{
  __ASM volatile ("dmb");
     93e:	f3bf 8f5f 	dmb	sy
  This function enables IRQ interrupts by clearing the I-bit in the CPSR.
  Can only be executed in Privileged modes.
 */
__attribute__( ( always_inline ) ) __STATIC_INLINE void __enable_irq(void)
{
  __ASM volatile ("cpsie i" : : : "memory");
     942:	b662      	cpsie	i
	
	system_interrupt_enable_global();
	uart_str_COM(Debug_COM, "\r mcu [int on]");
     944:	491a      	ldr	r1, [pc, #104]	; (9b0 <Main_Startup+0xf0>)
     946:	0028      	movs	r0, r5
     948:	47a0      	blx	r4
	wdt_reset_count();
     94a:	4b1a      	ldr	r3, [pc, #104]	; (9b4 <Main_Startup+0xf4>)
     94c:	4798      	blx	r3
	#ifdef Dev_Wifi
		Wifi_inital();
	#endif
	
		
     94e:	bd70      	pop	{r4, r5, r6, pc}
     950:	00001235 	.word	0x00001235
     954:	00002d01 	.word	0x00002d01
     958:	00001e81 	.word	0x00001e81
     95c:	41004400 	.word	0x41004400
     960:	00001045 	.word	0x00001045
     964:	00001145 	.word	0x00001145
     968:	20000110 	.word	0x20000110
     96c:	00003b8c 	.word	0x00003b8c
     970:	00001025 	.word	0x00001025
     974:	00003b9c 	.word	0x00003b9c
     978:	000012dd 	.word	0x000012dd
     97c:	00003ba8 	.word	0x00003ba8
     980:	000009b9 	.word	0x000009b9
     984:	00000d2d 	.word	0x00000d2d
     988:	00003bb4 	.word	0x00003bb4
     98c:	00000b85 	.word	0x00000b85
     990:	00000bc5 	.word	0x00000bc5
     994:	00003bc4 	.word	0x00003bc4
     998:	000011b9 	.word	0x000011b9
     99c:	000011e5 	.word	0x000011e5
     9a0:	00003bd4 	.word	0x00003bd4
     9a4:	00001205 	.word	0x00001205
     9a8:	00003be0 	.word	0x00003be0
     9ac:	20000008 	.word	0x20000008
     9b0:	00003bec 	.word	0x00003bec
     9b4:	00001e19 	.word	0x00001e19

000009b8 <configure_adc>:



//! [setup]
void configure_adc(void)
{
     9b8:	b510      	push	{r4, lr}
     9ba:	b08c      	sub	sp, #48	; 0x30
	//! [setup_config]
	struct adc_config config_adc;
	//! [setup_config]
	//! [setup_config_defaults]
	adc_get_config_defaults(&config_adc);
     9bc:	4668      	mov	r0, sp
     9be:	4b0e      	ldr	r3, [pc, #56]	; (9f8 <configure_adc+0x40>)
     9c0:	4798      	blx	r3
	//! [setup_config_defaults]

	//! [setup_set_config]
	adc_init(&adc_instance, ADC, &config_adc);
     9c2:	4c0e      	ldr	r4, [pc, #56]	; (9fc <configure_adc+0x44>)
     9c4:	466a      	mov	r2, sp
     9c6:	490e      	ldr	r1, [pc, #56]	; (a00 <configure_adc+0x48>)
     9c8:	0020      	movs	r0, r4
     9ca:	4b0e      	ldr	r3, [pc, #56]	; (a04 <configure_adc+0x4c>)
     9cc:	4798      	blx	r3
		struct adc_module *const module_inst)
{
	Assert(module_inst);
	Assert(module_inst->hw);

	Adc *const adc_module = module_inst->hw;
     9ce:	6822      	ldr	r2, [r4, #0]
	/* Sanity check arguments */
	Assert(module_inst);

	Adc *const adc_module = module_inst->hw;

	if (adc_module->STATUS.reg & ADC_STATUS_SYNCBUSY) {
     9d0:	7e53      	ldrb	r3, [r2, #25]

	while (adc_is_syncing(module_inst)) {
     9d2:	b25b      	sxtb	r3, r3
     9d4:	2b00      	cmp	r3, #0
     9d6:	dbfb      	blt.n	9d0 <configure_adc+0x18>
		system_interrupt_enable(SYSTEM_INTERRUPT_MODULE_ADC);
#   endif
#endif

	/* Disbale interrupt */
	adc_module->INTENCLR.reg = ADC_INTENCLR_MASK;
     9d8:	230f      	movs	r3, #15
     9da:	7593      	strb	r3, [r2, #22]
	/* Clear interrupt flag */
	adc_module->INTFLAG.reg = ADC_INTFLAG_MASK;
     9dc:	7613      	strb	r3, [r2, #24]

	adc_module->CTRLA.reg |= ADC_CTRLA_ENABLE;
     9de:	7813      	ldrb	r3, [r2, #0]
     9e0:	2102      	movs	r1, #2
     9e2:	430b      	orrs	r3, r1
     9e4:	7013      	strb	r3, [r2, #0]
	Adc *const adc_module = module_inst->hw;
     9e6:	4b05      	ldr	r3, [pc, #20]	; (9fc <configure_adc+0x44>)
     9e8:	681a      	ldr	r2, [r3, #0]
	if (adc_module->STATUS.reg & ADC_STATUS_SYNCBUSY) {
     9ea:	7e53      	ldrb	r3, [r2, #25]

	while (adc_is_syncing(module_inst)) {
     9ec:	b25b      	sxtb	r3, r3
     9ee:	2b00      	cmp	r3, #0
     9f0:	dbfb      	blt.n	9ea <configure_adc+0x32>
	//! [setup_set_config]

	//! [setup_enable]
	adc_enable(&adc_instance);
	//! [setup_enable]
}
     9f2:	b00c      	add	sp, #48	; 0x30
     9f4:	bd10      	pop	{r4, pc}
     9f6:	46c0      	nop			; (mov r8, r8)
     9f8:	00001365 	.word	0x00001365
     9fc:	20005418 	.word	0x20005418
     a00:	42004000 	.word	0x42004000
     a04:	000013b1 	.word	0x000013b1

00000a08 <getADC_NTC>:
	return y;
}


volatile uint16_t getADC_NTC(enum adc_positive_input adc_pin)
{
     a08:	b570      	push	{r4, r5, r6, lr}
	static uint16_t result;
	adc_instance.hw->INPUTCTRL.reg &=~ ADC_INPUTCTRL_MUXPOS_Msk;
     a0a:	4b26      	ldr	r3, [pc, #152]	; (aa4 <getADC_NTC+0x9c>)
     a0c:	6819      	ldr	r1, [r3, #0]
     a0e:	690a      	ldr	r2, [r1, #16]
     a10:	241f      	movs	r4, #31
     a12:	43a2      	bics	r2, r4
     a14:	610a      	str	r2, [r1, #16]
	adc_instance.hw->INPUTCTRL.reg |= (adc_pin<<ADC_INPUTCTRL_MUXPOS_Pos);
     a16:	681a      	ldr	r2, [r3, #0]
     a18:	6911      	ldr	r1, [r2, #16]
     a1a:	4308      	orrs	r0, r1
     a1c:	6110      	str	r0, [r2, #16]
		struct adc_module *const module_inst)
{
	Assert(module_inst);
	Assert(module_inst->hw);

	Adc *const adc_module = module_inst->hw;
     a1e:	6819      	ldr	r1, [r3, #0]
     a20:	7e4b      	ldrb	r3, [r1, #25]

	while (adc_is_syncing(module_inst)) {
     a22:	b25b      	sxtb	r3, r3
     a24:	2b00      	cmp	r3, #0
     a26:	dbfb      	blt.n	a20 <getADC_NTC+0x18>
		/* Wait for synchronization */
	}

	adc_module->SWTRIG.reg |= ADC_SWTRIG_START;
     a28:	7b0b      	ldrb	r3, [r1, #12]
     a2a:	2202      	movs	r2, #2
     a2c:	4313      	orrs	r3, r2
     a2e:	730b      	strb	r3, [r1, #12]
     a30:	7e4b      	ldrb	r3, [r1, #25]

	while (adc_is_syncing(module_inst)) {
     a32:	b25b      	sxtb	r3, r3
     a34:	2b00      	cmp	r3, #0
     a36:	dbfb      	blt.n	a30 <getADC_NTC+0x28>
	if (int_flags & ADC_INTFLAG_RESRDY) {
     a38:	2001      	movs	r0, #1
	if (int_flags & ADC_INTFLAG_WINMON) {
     a3a:	2504      	movs	r5, #4
		status_flags |= ADC_STATUS_WINDOW;
     a3c:	2402      	movs	r4, #2
     a3e:	e001      	b.n	a44 <getADC_NTC+0x3c>
{
	Assert(module_inst);
	Assert(module_inst->hw);
	Assert(result);

	if (!(adc_get_status(module_inst) & ADC_STATUS_RESULT_READY)) {
     a40:	4210      	tst	r0, r2
     a42:	d10a      	bne.n	a5a <getADC_NTC+0x52>
	uint32_t int_flags = adc_module->INTFLAG.reg;
     a44:	7e0b      	ldrb	r3, [r1, #24]
     a46:	b2db      	uxtb	r3, r3
	if (int_flags & ADC_INTFLAG_RESRDY) {
     a48:	0002      	movs	r2, r0
     a4a:	401a      	ands	r2, r3
	if (int_flags & ADC_INTFLAG_WINMON) {
     a4c:	421d      	tst	r5, r3
     a4e:	d000      	beq.n	a52 <getADC_NTC+0x4a>
		status_flags |= ADC_STATUS_WINDOW;
     a50:	4322      	orrs	r2, r4
	if (int_flags & ADC_INTFLAG_OVERRUN) {
     a52:	421c      	tst	r4, r3
     a54:	d0f4      	beq.n	a40 <getADC_NTC+0x38>
		status_flags |= ADC_STATUS_OVERRUN;
     a56:	432a      	orrs	r2, r5
     a58:	e7f2      	b.n	a40 <getADC_NTC+0x38>
     a5a:	7e4b      	ldrb	r3, [r1, #25]
	}

	Adc *const adc_module = module_inst->hw;

#if (SAMD) || (SAMHA1) || (SAMR21)
	while (adc_is_syncing(module_inst)) {
     a5c:	b25b      	sxtb	r3, r3
     a5e:	2b00      	cmp	r3, #0
     a60:	dbfb      	blt.n	a5a <getADC_NTC+0x52>
		/* Wait for synchronization */
	}
#endif

	/* Get ADC result */
	*result = adc_module->RESULT.reg;
     a62:	8b4c      	ldrh	r4, [r1, #26]
     a64:	b2a4      	uxth	r4, r4
     a66:	4b10      	ldr	r3, [pc, #64]	; (aa8 <getADC_NTC+0xa0>)
     a68:	801c      	strh	r4, [r3, #0]
	adc_module->INTFLAG.reg = int_flags;
     a6a:	2301      	movs	r3, #1
     a6c:	760b      	strb	r3, [r1, #24]
	uint32_t int_flags = adc_module->INTFLAG.reg;
     a6e:	7e0a      	ldrb	r2, [r1, #24]
     a70:	b2d2      	uxtb	r2, r2
	if (int_flags & ADC_INTFLAG_RESRDY) {
     a72:	4013      	ands	r3, r2
	if (int_flags & ADC_INTFLAG_WINMON) {
     a74:	0750      	lsls	r0, r2, #29
     a76:	d501      	bpl.n	a7c <getADC_NTC+0x74>
		status_flags |= ADC_STATUS_WINDOW;
     a78:	2002      	movs	r0, #2
     a7a:	4303      	orrs	r3, r0
	if (int_flags & ADC_INTFLAG_OVERRUN) {
     a7c:	0792      	lsls	r2, r2, #30
     a7e:	d501      	bpl.n	a84 <getADC_NTC+0x7c>
		status_flags |= ADC_STATUS_OVERRUN;
     a80:	2204      	movs	r2, #4
     a82:	4313      	orrs	r3, r2

	/* Reset ready flag */
	adc_clear_status(module_inst, ADC_STATUS_RESULT_READY);

	if (adc_get_status(module_inst) & ADC_STATUS_OVERRUN) {
     a84:	075b      	lsls	r3, r3, #29
     a86:	d501      	bpl.n	a8c <getADC_NTC+0x84>
	adc_module->INTFLAG.reg = int_flags;
     a88:	2302      	movs	r3, #2
     a8a:	760b      	strb	r3, [r1, #24]
	adc_start_conversion(&adc_instance);
	do {
		/* Wait for conversion to be done and read out result */
	} while (adc_read(&adc_instance, &result) == STATUS_BUSY);
	
	result = 4095 - result;
     a8c:	4807      	ldr	r0, [pc, #28]	; (aac <getADC_NTC+0xa4>)
     a8e:	1b00      	subs	r0, r0, r4
     a90:	b280      	uxth	r0, r0
     a92:	4b05      	ldr	r3, [pc, #20]	; (aa8 <getADC_NTC+0xa0>)
     a94:	8018      	strh	r0, [r3, #0]
	 z = (z * 132144) / 1000000;
     a96:	4b06      	ldr	r3, [pc, #24]	; (ab0 <getADC_NTC+0xa8>)
     a98:	4358      	muls	r0, r3
     a9a:	4906      	ldr	r1, [pc, #24]	; (ab4 <getADC_NTC+0xac>)
     a9c:	4b06      	ldr	r3, [pc, #24]	; (ab8 <getADC_NTC+0xb0>)
     a9e:	4798      	blx	r3

	return ADC_Res_To_Temperture_By_MCU(result);
     aa0:	b280      	uxth	r0, r0
}
     aa2:	bd70      	pop	{r4, r5, r6, pc}
     aa4:	20005418 	.word	0x20005418
     aa8:	200000b6 	.word	0x200000b6
     aac:	00000fff 	.word	0x00000fff
     ab0:	00020430 	.word	0x00020430
     ab4:	000f4240 	.word	0x000f4240
     ab8:	00003011 	.word	0x00003011

00000abc <LORA01_extint_detection_callback>:


unsigned char tmp_data;
void LORA01_extint_detection_callback(void)
{
	if(LORA01->LoRa_IRQ_Flag == 0)
     abc:	4b04      	ldr	r3, [pc, #16]	; (ad0 <LORA01_extint_detection_callback+0x14>)
     abe:	681b      	ldr	r3, [r3, #0]
     ac0:	4a04      	ldr	r2, [pc, #16]	; (ad4 <LORA01_extint_detection_callback+0x18>)
     ac2:	5c9a      	ldrb	r2, [r3, r2]
     ac4:	2a00      	cmp	r2, #0
     ac6:	d102      	bne.n	ace <LORA01_extint_detection_callback+0x12>
	{
		LORA01->LoRa_IRQ_Flag = 1;
     ac8:	2101      	movs	r1, #1
     aca:	4a02      	ldr	r2, [pc, #8]	; (ad4 <LORA01_extint_detection_callback+0x18>)
     acc:	5499      	strb	r1, [r3, r2]
	}
}
     ace:	4770      	bx	lr
     ad0:	20002f7c 	.word	0x20002f7c
     ad4:	00000223 	.word	0x00000223

00000ad8 <LORA02_extint_detection_callback>:

void LORA02_extint_detection_callback(void)
{
     ad8:	b510      	push	{r4, lr}
	return (port_base->IN.reg & pin_mask);
     ada:	4b20      	ldr	r3, [pc, #128]	; (b5c <LORA02_extint_detection_callback+0x84>)
     adc:	6a1a      	ldr	r2, [r3, #32]
     ade:	2380      	movs	r3, #128	; 0x80
     ae0:	4013      	ands	r3, r2
     ae2:	0018      	movs	r0, r3
     ae4:	1e42      	subs	r2, r0, #1
     ae6:	4190      	sbcs	r0, r2
	//=================================================
	#ifdef Dev_Wifi
	//=================================================

	
	My_WiFi.AP_Mode_Switch = port_pin_get_input_level(PIN_PA07);
     ae8:	4a1d      	ldr	r2, [pc, #116]	; (b60 <LORA02_extint_detection_callback+0x88>)
     aea:	491e      	ldr	r1, [pc, #120]	; (b64 <LORA02_extint_detection_callback+0x8c>)
     aec:	5488      	strb	r0, [r1, r2]
	if(My_WiFi.AP_Mode_Switch == Is_AP_Mode)
     aee:	2b00      	cmp	r3, #0
     af0:	d021      	beq.n	b36 <LORA02_extint_detection_callback+0x5e>
		port_base->OUTSET.reg = pin_mask;
     af2:	4b1a      	ldr	r3, [pc, #104]	; (b5c <LORA02_extint_detection_callback+0x84>)
     af4:	2280      	movs	r2, #128	; 0x80
     af6:	0512      	lsls	r2, r2, #20
     af8:	619a      	str	r2, [r3, #24]
     afa:	2280      	movs	r2, #128	; 0x80
     afc:	0412      	lsls	r2, r2, #16
     afe:	619a      	str	r2, [r3, #24]
     b00:	2280      	movs	r2, #128	; 0x80
     b02:	0552      	lsls	r2, r2, #21
     b04:	619a      	str	r2, [r3, #24]
	else
	{
		LED_R_OFF
		LED_G_OFF
		LED_B_OFF
		My_WiFi.wifi_work_led_flag =  true;
     b06:	4c17      	ldr	r4, [pc, #92]	; (b64 <LORA02_extint_detection_callback+0x8c>)
     b08:	2201      	movs	r2, #1
     b0a:	4b17      	ldr	r3, [pc, #92]	; (b68 <LORA02_extint_detection_callback+0x90>)
     b0c:	54e2      	strb	r2, [r4, r3]
		uart_str_COM(Debug_COM, "AP Mode OFF..\r\0");	
     b0e:	4917      	ldr	r1, [pc, #92]	; (b6c <LORA02_extint_detection_callback+0x94>)
     b10:	3110      	adds	r1, #16
     b12:	4817      	ldr	r0, [pc, #92]	; (b70 <LORA02_extint_detection_callback+0x98>)
     b14:	4b17      	ldr	r3, [pc, #92]	; (b74 <LORA02_extint_detection_callback+0x9c>)
     b16:	4798      	blx	r3
		My_WiFi.Cycletime = 140;
     b18:	228c      	movs	r2, #140	; 0x8c
     b1a:	4b17      	ldr	r3, [pc, #92]	; (b78 <LORA02_extint_detection_callback+0xa0>)
     b1c:	50e2      	str	r2, [r4, r3]
	}
	My_WiFi.RunStep			= 0;
     b1e:	4b11      	ldr	r3, [pc, #68]	; (b64 <LORA02_extint_detection_callback+0x8c>)
     b20:	2200      	movs	r2, #0
     b22:	2182      	movs	r1, #130	; 0x82
     b24:	0109      	lsls	r1, r1, #4
     b26:	545a      	strb	r2, [r3, r1]
	My_WiFi.Send_UnSuccess_count	= 0;
     b28:	4914      	ldr	r1, [pc, #80]	; (b7c <LORA02_extint_detection_callback+0xa4>)
     b2a:	545a      	strb	r2, [r3, r1]
	My_WiFi.WIFI_Main_Counter		= 0;
     b2c:	4914      	ldr	r1, [pc, #80]	; (b80 <LORA02_extint_detection_callback+0xa8>)
     b2e:	505a      	str	r2, [r3, r1]
	My_WiFi.NowStatus				= WiFi_NOP;
     b30:	321c      	adds	r2, #28
     b32:	701a      	strb	r2, [r3, #0]
	//=================================================
	#endif
	//=================================================
}
     b34:	bd10      	pop	{r4, pc}
     b36:	4b09      	ldr	r3, [pc, #36]	; (b5c <LORA02_extint_detection_callback+0x84>)
     b38:	2280      	movs	r2, #128	; 0x80
     b3a:	0512      	lsls	r2, r2, #20
     b3c:	619a      	str	r2, [r3, #24]
     b3e:	2280      	movs	r2, #128	; 0x80
     b40:	0412      	lsls	r2, r2, #16
     b42:	619a      	str	r2, [r3, #24]
     b44:	2280      	movs	r2, #128	; 0x80
     b46:	0552      	lsls	r2, r2, #21
     b48:	619a      	str	r2, [r3, #24]
		My_WiFi.wifi_work_led_flag =  true;
     b4a:	2101      	movs	r1, #1
     b4c:	4b06      	ldr	r3, [pc, #24]	; (b68 <LORA02_extint_detection_callback+0x90>)
     b4e:	4a05      	ldr	r2, [pc, #20]	; (b64 <LORA02_extint_detection_callback+0x8c>)
     b50:	54d1      	strb	r1, [r2, r3]
		uart_str_COM(Debug_COM, "AP Mode ON..\r\0");
     b52:	4906      	ldr	r1, [pc, #24]	; (b6c <LORA02_extint_detection_callback+0x94>)
     b54:	4806      	ldr	r0, [pc, #24]	; (b70 <LORA02_extint_detection_callback+0x98>)
     b56:	4b07      	ldr	r3, [pc, #28]	; (b74 <LORA02_extint_detection_callback+0x9c>)
     b58:	4798      	blx	r3
     b5a:	e7e0      	b.n	b1e <LORA02_extint_detection_callback+0x46>
     b5c:	41004400 	.word	0x41004400
     b60:	0000083b 	.word	0x0000083b
     b64:	200040f8 	.word	0x200040f8
     b68:	00000834 	.word	0x00000834
     b6c:	00003bfc 	.word	0x00003bfc
     b70:	20000110 	.word	0x20000110
     b74:	00001025 	.word	0x00001025
     b78:	00000824 	.word	0x00000824
     b7c:	00000828 	.word	0x00000828
     b80:	0000082c 	.word	0x0000082c

00000b84 <configure_extint_channel>:
{
     b84:	b5f0      	push	{r4, r5, r6, r7, lr}
     b86:	b085      	sub	sp, #20
	extint_chan_get_config_defaults(&config_extint_chan);
     b88:	ac01      	add	r4, sp, #4
     b8a:	0020      	movs	r0, r4
     b8c:	4b0b      	ldr	r3, [pc, #44]	; (bbc <configure_extint_channel+0x38>)
     b8e:	4798      	blx	r3
	config_extint_chan.gpio_pin           = PIN_PA11A_EIC_EXTINT11;
     b90:	230b      	movs	r3, #11
     b92:	9301      	str	r3, [sp, #4]
	config_extint_chan.gpio_pin_mux       = MUX_PA11A_EIC_EXTINT11;
     b94:	2500      	movs	r5, #0
     b96:	6065      	str	r5, [r4, #4]
	config_extint_chan.gpio_pin_pull      = EXTINT_PULL_NONE;
     b98:	7225      	strb	r5, [r4, #8]
	config_extint_chan.detection_criteria = EXTINT_DETECT_RISING;
     b9a:	2701      	movs	r7, #1
     b9c:	72e7      	strb	r7, [r4, #11]
	extint_chan_set_config(PIN_PA11, &config_extint_chan);
     b9e:	0021      	movs	r1, r4
     ba0:	200b      	movs	r0, #11
     ba2:	4e07      	ldr	r6, [pc, #28]	; (bc0 <configure_extint_channel+0x3c>)
     ba4:	47b0      	blx	r6
	config_extint_chan.gpio_pin           = PIN_PA07A_EIC_EXTINT7;
     ba6:	2307      	movs	r3, #7
     ba8:	9301      	str	r3, [sp, #4]
	config_extint_chan.gpio_pin_mux       = MUX_PA07A_EIC_EXTINT7;
     baa:	6065      	str	r5, [r4, #4]
	config_extint_chan.gpio_pin_pull      = EXTINT_PULL_UP;
     bac:	7227      	strb	r7, [r4, #8]
	config_extint_chan.detection_criteria = EXTINT_DETECT_BOTH;
     bae:	3b04      	subs	r3, #4
     bb0:	72e3      	strb	r3, [r4, #11]
	extint_chan_set_config(PIN_PA07, &config_extint_chan);
     bb2:	0021      	movs	r1, r4
     bb4:	2007      	movs	r0, #7
     bb6:	47b0      	blx	r6
}
     bb8:	b005      	add	sp, #20
     bba:	bdf0      	pop	{r4, r5, r6, r7, pc}
     bbc:	0000190d 	.word	0x0000190d
     bc0:	00001921 	.word	0x00001921

00000bc4 <configure_extint_callbacks>:
{
     bc4:	b570      	push	{r4, r5, r6, lr}
	extint_register_callback(LORA01_extint_detection_callback, PIN_PA11, EXTINT_CALLBACK_TYPE_DETECT);
     bc6:	2200      	movs	r2, #0
     bc8:	210b      	movs	r1, #11
     bca:	4807      	ldr	r0, [pc, #28]	; (be8 <configure_extint_callbacks+0x24>)
     bcc:	4d07      	ldr	r5, [pc, #28]	; (bec <configure_extint_callbacks+0x28>)
     bce:	47a8      	blx	r5
	extint_chan_enable_callback(PIN_PA11, EXTINT_CALLBACK_TYPE_DETECT);
     bd0:	2100      	movs	r1, #0
     bd2:	200b      	movs	r0, #11
     bd4:	4c06      	ldr	r4, [pc, #24]	; (bf0 <configure_extint_callbacks+0x2c>)
     bd6:	47a0      	blx	r4
	extint_register_callback(LORA02_extint_detection_callback, PIN_PA07, EXTINT_CALLBACK_TYPE_DETECT);
     bd8:	2200      	movs	r2, #0
     bda:	2107      	movs	r1, #7
     bdc:	4805      	ldr	r0, [pc, #20]	; (bf4 <configure_extint_callbacks+0x30>)
     bde:	47a8      	blx	r5
	extint_chan_enable_callback(PIN_PA07, EXTINT_CALLBACK_TYPE_DETECT);
     be0:	2100      	movs	r1, #0
     be2:	2007      	movs	r0, #7
     be4:	47a0      	blx	r4
}
     be6:	bd70      	pop	{r4, r5, r6, pc}
     be8:	00000abd 	.word	0x00000abd
     bec:	000017e9 	.word	0x000017e9
     bf0:	00001815 	.word	0x00001815
     bf4:	00000ad9 	.word	0x00000ad9

00000bf8 <configure_tc>:
#define PWM_OUT_MUX     MUX_PA00F_TC2_WO0
//[definition_pwm]

//! [setup]
void configure_tc(void)
{
     bf8:	b510      	push	{r4, lr}
     bfa:	b08e      	sub	sp, #56	; 0x38
	/* Sanity check arguments */
	Assert(config);

	/* Write default config to config struct */
	config->clock_source               = GCLK_GENERATOR_0;
	config->counter_size               = TC_COUNTER_SIZE_16BIT;
     bfc:	aa01      	add	r2, sp, #4
     bfe:	2300      	movs	r3, #0
     c00:	2100      	movs	r1, #0
     c02:	7093      	strb	r3, [r2, #2]
	config->clock_prescaler            = TC_CLOCK_PRESCALER_DIV1;
	config->wave_generation            = TC_WAVE_GENERATION_NORMAL_FREQ;
	config->reload_action              = TC_RELOAD_ACTION_GCLK;
     c04:	8113      	strh	r3, [r2, #8]
	config->run_in_standby             = false;
     c06:	2000      	movs	r0, #0
     c08:	7050      	strb	r0, [r2, #1]
#if (SAML21) || (SAML22) || (SAMC20) || (SAMC21) || (SAMR30)
	config->on_demand                  = false;
#endif
	config->waveform_invert_output     = TC_WAVEFORM_INVERT_OUTPUT_NONE;
     c0a:	7291      	strb	r1, [r2, #10]
	config->enable_capture_on_channel[TC_COMPARE_CAPTURE_CHANNEL_0] = false;
     c0c:	72d1      	strb	r1, [r2, #11]
	config->enable_capture_on_channel[TC_COMPARE_CAPTURE_CHANNEL_1] = false;
     c0e:	7311      	strb	r1, [r2, #12]
#ifdef 	FEATURE_TC_IO_CAPTURE
	config->enable_capture_on_IO[TC_COMPARE_CAPTURE_CHANNEL_0] = false;
	config->enable_capture_on_IO[TC_COMPARE_CAPTURE_CHANNEL_1] = false;
#endif

	config->count_direction            = TC_COUNT_DIRECTION_UP;
     c10:	7391      	strb	r1, [r2, #14]
	config->oneshot                    = false;
     c12:	7351      	strb	r1, [r2, #13]

	config->pwm_channel[TC_COMPARE_CAPTURE_CHANNEL_0].enabled = false;
     c14:	7411      	strb	r1, [r2, #16]
	config->pwm_channel[TC_COMPARE_CAPTURE_CHANNEL_0].pin_out = 0;
     c16:	6153      	str	r3, [r2, #20]
	config->pwm_channel[TC_COMPARE_CAPTURE_CHANNEL_0].pin_mux = 0;
     c18:	6193      	str	r3, [r2, #24]

	config->pwm_channel[TC_COMPARE_CAPTURE_CHANNEL_1].enabled = false;
     c1a:	7711      	strb	r1, [r2, #28]
	config->pwm_channel[TC_COMPARE_CAPTURE_CHANNEL_1].pin_out = 0;
     c1c:	6213      	str	r3, [r2, #32]
	config->pwm_channel[TC_COMPARE_CAPTURE_CHANNEL_1].pin_mux = 0;
     c1e:	6253      	str	r3, [r2, #36]	; 0x24

	config->counter_16_bit.value                   = 0x0000;
     c20:	8513      	strh	r3, [r2, #40]	; 0x28
	//! [setup_config_defaults]
	tc_get_config_defaults(&config_tc);
	//! [setup_config_defaults]

	//! [setup_change_config]
	config_tc.clock_source    = GCLK_GENERATOR_1;
     c22:	3301      	adds	r3, #1
     c24:	7013      	strb	r3, [r2, #0]
	config_tc.counter_size    = TC_COUNTER_SIZE_16BIT;
	config_tc.clock_prescaler  =TC_CLOCK_PRESCALER_DIV16;
     c26:	2380      	movs	r3, #128	; 0x80
     c28:	00db      	lsls	r3, r3, #3
     c2a:	8093      	strh	r3, [r2, #4]
	config_tc.wave_generation = TC_WAVE_GENERATION_MATCH_FREQ;
     c2c:	2320      	movs	r3, #32
     c2e:	7193      	strb	r3, [r2, #6]
	config_tc.counter_16_bit.compare_capture_channel[0] = 50;
     c30:	3312      	adds	r3, #18
     c32:	8553      	strh	r3, [r2, #42]	; 0x2a
	config_tc.counter_16_bit.compare_capture_channel[1] = 50;
     c34:	8593      	strh	r3, [r2, #44]	; 0x2c
	
	tc_init(&MyTimer02, TC2, &config_tc);
     c36:	4c13      	ldr	r4, [pc, #76]	; (c84 <configure_tc+0x8c>)
     c38:	4913      	ldr	r1, [pc, #76]	; (c88 <configure_tc+0x90>)
     c3a:	0020      	movs	r0, r4
     c3c:	4b13      	ldr	r3, [pc, #76]	; (c8c <configure_tc+0x94>)
     c3e:	4798      	blx	r3
	/* Sanity check arguments */
	Assert(module_inst);
	Assert(module_inst->hw);

	/* Get a pointer to the module's hardware instance */
	TcCount8 *const tc_module = &(module_inst->hw->COUNT8);
     c40:	6822      	ldr	r2, [r4, #0]
	return (tc_module->STATUS.reg & TC_STATUS_SYNCBUSY);
     c42:	7bd3      	ldrb	r3, [r2, #15]

	while (tc_is_syncing(module_inst)) {
     c44:	b25b      	sxtb	r3, r3
     c46:	2b00      	cmp	r3, #0
     c48:	dbfb      	blt.n	c42 <configure_tc+0x4a>
		/* Wait for sync */
	}

	/* Enable TC module */
	tc_module->CTRLA.reg |= TC_CTRLA_ENABLE;
     c4a:	8813      	ldrh	r3, [r2, #0]
     c4c:	2102      	movs	r1, #2
     c4e:	430b      	orrs	r3, r1
     c50:	8013      	strh	r3, [r2, #0]
	tc_enable(&MyTimer02);

	config_tc.clock_prescaler  =TC_CLOCK_PRESCALER_DIV1024;
     c52:	aa01      	add	r2, sp, #4
     c54:	23e0      	movs	r3, #224	; 0xe0
     c56:	00db      	lsls	r3, r3, #3
     c58:	8093      	strh	r3, [r2, #4]
	config_tc.wave_generation = TC_WAVE_GENERATION_MATCH_FREQ;
     c5a:	2320      	movs	r3, #32
     c5c:	7193      	strb	r3, [r2, #6]
	config_tc.counter_16_bit.compare_capture_channel[0] = 50;
     c5e:	3312      	adds	r3, #18
     c60:	8553      	strh	r3, [r2, #42]	; 0x2a
	config_tc.counter_16_bit.compare_capture_channel[1] = 50;
     c62:	8593      	strh	r3, [r2, #44]	; 0x2c
	tc_init(&MyTimer01, TC1, &config_tc);
     c64:	4c0a      	ldr	r4, [pc, #40]	; (c90 <configure_tc+0x98>)
     c66:	490b      	ldr	r1, [pc, #44]	; (c94 <configure_tc+0x9c>)
     c68:	0020      	movs	r0, r4
     c6a:	4b08      	ldr	r3, [pc, #32]	; (c8c <configure_tc+0x94>)
     c6c:	4798      	blx	r3
	TcCount8 *const tc_module = &(module_inst->hw->COUNT8);
     c6e:	6822      	ldr	r2, [r4, #0]
	return (tc_module->STATUS.reg & TC_STATUS_SYNCBUSY);
     c70:	7bd3      	ldrb	r3, [r2, #15]
	while (tc_is_syncing(module_inst)) {
     c72:	b25b      	sxtb	r3, r3
     c74:	2b00      	cmp	r3, #0
     c76:	dbfb      	blt.n	c70 <configure_tc+0x78>
	tc_module->CTRLA.reg |= TC_CTRLA_ENABLE;
     c78:	8813      	ldrh	r3, [r2, #0]
     c7a:	2102      	movs	r1, #2
     c7c:	430b      	orrs	r3, r1
     c7e:	8013      	strh	r3, [r2, #0]
	//! [setup_set_config]

	//! [setup_enable]
	tc_enable(&MyTimer03);
	*/
}
     c80:	b00e      	add	sp, #56	; 0x38
     c82:	bd10      	pop	{r4, pc}
     c84:	20000134 	.word	0x20000134
     c88:	42002800 	.word	0x42002800
     c8c:	00001ac9 	.word	0x00001ac9
     c90:	20002bec 	.word	0x20002bec
     c94:	42002400 	.word	0x42002400

00000c98 <configure_tc_callbacks>:
//! [setup]
void configure_tc_callbacks(void)
{
     c98:	b5f0      	push	{r4, r5, r6, r7, lr}
     c9a:	46d6      	mov	lr, sl
     c9c:	464f      	mov	r7, r9
     c9e:	4646      	mov	r6, r8
     ca0:	b5c0      	push	{r6, r7, lr}
	#ifdef HMI_001
		tc_register_callback(&MyTimer03, tc_PLC_Catch, TC_CALLBACK_CC_CHANNEL1);
		tc_enable_callback(&MyTimer03, TC_CALLBACK_CC_CHANNEL1);
	#endif
	
	tc_register_callback(&MyTimer01, tc_callback_to_to_period_51200us, TC_CALLBACK_CC_CHANNEL0);
     ca2:	4c1a      	ldr	r4, [pc, #104]	; (d0c <configure_tc_callbacks+0x74>)
     ca4:	2202      	movs	r2, #2
     ca6:	491a      	ldr	r1, [pc, #104]	; (d10 <configure_tc_callbacks+0x78>)
     ca8:	0020      	movs	r0, r4
     caa:	4b1a      	ldr	r3, [pc, #104]	; (d14 <configure_tc_callbacks+0x7c>)
     cac:	469a      	mov	sl, r3
     cae:	4798      	blx	r3
	/* Sanity check arguments */
	Assert(module);


	/* Enable interrupts for this TC module */
	system_interrupt_enable(_tc_interrupt_get_interrupt_vector(_tc_get_inst_index(module->hw)));
     cb0:	6820      	ldr	r0, [r4, #0]
     cb2:	4b19      	ldr	r3, [pc, #100]	; (d18 <configure_tc_callbacks+0x80>)
     cb4:	4699      	mov	r9, r3
     cb6:	4798      	blx	r3
	return (enum system_interrupt_vector)tc_interrupt_vectors[inst_num];
     cb8:	4b18      	ldr	r3, [pc, #96]	; (d1c <configure_tc_callbacks+0x84>)
     cba:	4698      	mov	r8, r3
 * \param[in] vector Interrupt vector to enable
 */
static inline void system_interrupt_enable(
		const enum system_interrupt_vector vector)
{
	NVIC->ISER[0] = (uint32_t)(1 << ((uint32_t)vector & 0x0000001f));
     cbc:	5c1b      	ldrb	r3, [r3, r0]
     cbe:	261f      	movs	r6, #31
     cc0:	4033      	ands	r3, r6
     cc2:	2501      	movs	r5, #1
     cc4:	002a      	movs	r2, r5
     cc6:	409a      	lsls	r2, r3
     cc8:	4f15      	ldr	r7, [pc, #84]	; (d20 <configure_tc_callbacks+0x88>)
     cca:	603a      	str	r2, [r7, #0]

	/* Enable callback */
	if (callback_type == TC_CALLBACK_CC_CHANNEL0) {
		module->enable_callback_mask |= TC_INTFLAG_MC(1);
     ccc:	7e63      	ldrb	r3, [r4, #25]
     cce:	2210      	movs	r2, #16
     cd0:	4313      	orrs	r3, r2
     cd2:	7663      	strb	r3, [r4, #25]
		module->hw->COUNT8.INTENSET.reg = TC_INTFLAG_MC(1);
     cd4:	6823      	ldr	r3, [r4, #0]
     cd6:	2210      	movs	r2, #16
     cd8:	735a      	strb	r2, [r3, #13]
	tc_enable_callback(&MyTimer01, TC_CALLBACK_CC_CHANNEL0);
	
	tc_register_callback(&MyTimer02, tc_callback_to_to_period_200us, TC_CALLBACK_CC_CHANNEL1);
     cda:	4c12      	ldr	r4, [pc, #72]	; (d24 <configure_tc_callbacks+0x8c>)
     cdc:	3a0d      	subs	r2, #13
     cde:	4912      	ldr	r1, [pc, #72]	; (d28 <configure_tc_callbacks+0x90>)
     ce0:	0020      	movs	r0, r4
     ce2:	47d0      	blx	sl
	system_interrupt_enable(_tc_interrupt_get_interrupt_vector(_tc_get_inst_index(module->hw)));
     ce4:	6820      	ldr	r0, [r4, #0]
     ce6:	47c8      	blx	r9
     ce8:	4643      	mov	r3, r8
     cea:	5c1b      	ldrb	r3, [r3, r0]
     cec:	401e      	ands	r6, r3
     cee:	40b5      	lsls	r5, r6
     cf0:	603d      	str	r5, [r7, #0]
	}
	else if (callback_type == TC_CALLBACK_CC_CHANNEL1) {
		module->enable_callback_mask |= TC_INTFLAG_MC(2);
     cf2:	7e63      	ldrb	r3, [r4, #25]
     cf4:	2220      	movs	r2, #32
     cf6:	4313      	orrs	r3, r2
     cf8:	7663      	strb	r3, [r4, #25]
		module->hw->COUNT8.INTENSET.reg = TC_INTFLAG_MC(2);
     cfa:	6823      	ldr	r3, [r4, #0]
     cfc:	2220      	movs	r2, #32
     cfe:	735a      	strb	r2, [r3, #13]
	//tc_register_callback(&MyTimer03, tc_callback_to_to_period_10us, TC_CALLBACK_CC_CHANNEL0);
	//tc_enable_callback(&MyTimer03, TC_CALLBACK_CC_CHANNEL0);
	
	//tc_register_callback(&MyTimer04, tc_user_keyin, TC_CALLBACK_CC_CHANNEL1);
	//tc_enable_callback(&MyTimer04, TC_CALLBACK_CC_CHANNEL1);
}
     d00:	bc1c      	pop	{r2, r3, r4}
     d02:	4690      	mov	r8, r2
     d04:	4699      	mov	r9, r3
     d06:	46a2      	mov	sl, r4
     d08:	bdf0      	pop	{r4, r5, r6, r7, pc}
     d0a:	46c0      	nop			; (mov r8, r8)
     d0c:	20002bec 	.word	0x20002bec
     d10:	00000d41 	.word	0x00000d41
     d14:	00001999 	.word	0x00001999
     d18:	00001a91 	.word	0x00001a91
     d1c:	00003c1c 	.word	0x00003c1c
     d20:	e000e100 	.word	0xe000e100
     d24:	20000134 	.word	0x20000134
     d28:	00000e39 	.word	0x00000e39

00000d2c <timer_configure>:

void timer_configure(void)
{
     d2c:	b510      	push	{r4, lr}
	configure_tc();
     d2e:	4b02      	ldr	r3, [pc, #8]	; (d38 <timer_configure+0xc>)
     d30:	4798      	blx	r3
	configure_tc_callbacks();
     d32:	4b02      	ldr	r3, [pc, #8]	; (d3c <timer_configure+0x10>)
     d34:	4798      	blx	r3
     d36:	bd10      	pop	{r4, pc}
     d38:	00000bf9 	.word	0x00000bf9
     d3c:	00000c99 	.word	0x00000c99

00000d40 <tc_callback_to_to_period_51200us>:


void tc_callback_to_to_period_51200us(struct tc_module *const module_inst)
{
	//計數Dev List設定Polling的時間
	if(LORA01->Lora_Dev_Count_IRQ_Flag == 0)
     d40:	4b35      	ldr	r3, [pc, #212]	; (e18 <tc_callback_to_to_period_51200us+0xd8>)
     d42:	681b      	ldr	r3, [r3, #0]
     d44:	4a35      	ldr	r2, [pc, #212]	; (e1c <tc_callback_to_to_period_51200us+0xdc>)
     d46:	5c9a      	ldrb	r2, [r3, r2]
     d48:	2a00      	cmp	r2, #0
     d4a:	d107      	bne.n	d5c <tc_callback_to_to_period_51200us+0x1c>
	{
		if(LORA01->t2_tmp_count > 10)	//51.2ms * 10 = 512ms
     d4c:	2290      	movs	r2, #144	; 0x90
     d4e:	0092      	lsls	r2, r2, #2
     d50:	589a      	ldr	r2, [r3, r2]
     d52:	2a0a      	cmp	r2, #10
     d54:	d922      	bls.n	d9c <tc_callback_to_to_period_51200us+0x5c>
			LORA01->Lora_Dev_Count_IRQ_Flag = 1;
     d56:	2101      	movs	r1, #1
     d58:	4a30      	ldr	r2, [pc, #192]	; (e1c <tc_callback_to_to_period_51200us+0xdc>)
     d5a:	5499      	strb	r1, [r3, r2]
		else
			LORA01->t2_tmp_count++;
	}
	
	if(debug_cycle_time < debug_cycle_time_Max) debug_cycle_time++;
     d5c:	4b30      	ldr	r3, [pc, #192]	; (e20 <tc_callback_to_to_period_51200us+0xe0>)
     d5e:	681b      	ldr	r3, [r3, #0]
     d60:	2b01      	cmp	r3, #1
     d62:	d921      	bls.n	da8 <tc_callback_to_to_period_51200us+0x68>
		if(Sensor_Module_Time_Count > 0)			Sensor_Module_Time_Count--;
		if(Sensor_Relay.to_OFF_Count > 0)			Sensor_Relay.to_OFF_Count--;
		if(LORA01->Sensor_Count < 9)				LORA01->Sensor_Count++;
		if(LORA01->Power_On_Delay > 0)				LORA01->Power_On_Delay--;
	#elif defined(Dev_Wifi)
		if(My_WiFi.wifi_work_led_flag == true)
     d64:	4b2f      	ldr	r3, [pc, #188]	; (e24 <tc_callback_to_to_period_51200us+0xe4>)
     d66:	4a30      	ldr	r2, [pc, #192]	; (e28 <tc_callback_to_to_period_51200us+0xe8>)
     d68:	5cd3      	ldrb	r3, [r2, r3]
     d6a:	2b00      	cmp	r3, #0
     d6c:	d049      	beq.n	e02 <tc_callback_to_to_period_51200us+0xc2>
		{
			if(My_WiFi.wifi_work_led == wifi_work_led_on)
     d6e:	2383      	movs	r3, #131	; 0x83
     d70:	011b      	lsls	r3, r3, #4
     d72:	58d3      	ldr	r3, [r2, r3]
     d74:	2b0a      	cmp	r3, #10
     d76:	d01b      	beq.n	db0 <tc_callback_to_to_period_51200us+0x70>
				if(My_WiFi.AP_Mode_Switch == Is_AP_Mode)
				LED_R_ON
				else
				LED_B_ON
			}
			else if(My_WiFi.wifi_work_led == wifi_work_led_off)
     d78:	2b14      	cmp	r3, #20
     d7a:	d027      	beq.n	dcc <tc_callback_to_to_period_51200us+0x8c>
				LED_R_OFF
				else
				LED_B_OFF
			}
			
			if(My_WiFi.wifi_work_led < wifi_work_led_off)
     d7c:	2383      	movs	r3, #131	; 0x83
     d7e:	011b      	lsls	r3, r3, #4
     d80:	4a29      	ldr	r2, [pc, #164]	; (e28 <tc_callback_to_to_period_51200us+0xe8>)
     d82:	58d3      	ldr	r3, [r2, r3]
     d84:	2b13      	cmp	r3, #19
     d86:	d836      	bhi.n	df6 <tc_callback_to_to_period_51200us+0xb6>
			{
				if(My_WiFi.wifi_network_flag == true)
     d88:	4a28      	ldr	r2, [pc, #160]	; (e2c <tc_callback_to_to_period_51200us+0xec>)
     d8a:	4927      	ldr	r1, [pc, #156]	; (e28 <tc_callback_to_to_period_51200us+0xe8>)
     d8c:	5c8a      	ldrb	r2, [r1, r2]
     d8e:	2a00      	cmp	r2, #0
     d90:	d02b      	beq.n	dea <tc_callback_to_to_period_51200us+0xaa>
					My_WiFi.wifi_work_led = My_WiFi.wifi_work_led + 5;
     d92:	3305      	adds	r3, #5
     d94:	2283      	movs	r2, #131	; 0x83
     d96:	0112      	lsls	r2, r2, #4
     d98:	508b      	str	r3, [r1, r2]
     d9a:	e03b      	b.n	e14 <tc_callback_to_to_period_51200us+0xd4>
			LORA01->t2_tmp_count++;
     d9c:	2190      	movs	r1, #144	; 0x90
     d9e:	0089      	lsls	r1, r1, #2
     da0:	585a      	ldr	r2, [r3, r1]
     da2:	3201      	adds	r2, #1
     da4:	505a      	str	r2, [r3, r1]
     da6:	e7d9      	b.n	d5c <tc_callback_to_to_period_51200us+0x1c>
	if(debug_cycle_time < debug_cycle_time_Max) debug_cycle_time++;
     da8:	3301      	adds	r3, #1
     daa:	4a1d      	ldr	r2, [pc, #116]	; (e20 <tc_callback_to_to_period_51200us+0xe0>)
     dac:	6013      	str	r3, [r2, #0]
     dae:	e7d9      	b.n	d64 <tc_callback_to_to_period_51200us+0x24>
				if(My_WiFi.AP_Mode_Switch == Is_AP_Mode)
     db0:	4b1f      	ldr	r3, [pc, #124]	; (e30 <tc_callback_to_to_period_51200us+0xf0>)
     db2:	5cd3      	ldrb	r3, [r2, r3]
     db4:	2b00      	cmp	r3, #0
     db6:	d104      	bne.n	dc2 <tc_callback_to_to_period_51200us+0x82>
		port_base->OUTCLR.reg = pin_mask;
     db8:	2280      	movs	r2, #128	; 0x80
     dba:	0512      	lsls	r2, r2, #20
     dbc:	4b1d      	ldr	r3, [pc, #116]	; (e34 <tc_callback_to_to_period_51200us+0xf4>)
     dbe:	615a      	str	r2, [r3, #20]
     dc0:	e7dc      	b.n	d7c <tc_callback_to_to_period_51200us+0x3c>
     dc2:	2280      	movs	r2, #128	; 0x80
     dc4:	0552      	lsls	r2, r2, #21
     dc6:	4b1b      	ldr	r3, [pc, #108]	; (e34 <tc_callback_to_to_period_51200us+0xf4>)
     dc8:	615a      	str	r2, [r3, #20]
     dca:	e7d7      	b.n	d7c <tc_callback_to_to_period_51200us+0x3c>
				if(My_WiFi.AP_Mode_Switch == Is_AP_Mode)
     dcc:	4b18      	ldr	r3, [pc, #96]	; (e30 <tc_callback_to_to_period_51200us+0xf0>)
     dce:	4a16      	ldr	r2, [pc, #88]	; (e28 <tc_callback_to_to_period_51200us+0xe8>)
     dd0:	5cd3      	ldrb	r3, [r2, r3]
     dd2:	2b00      	cmp	r3, #0
     dd4:	d104      	bne.n	de0 <tc_callback_to_to_period_51200us+0xa0>
		port_base->OUTSET.reg = pin_mask;
     dd6:	2280      	movs	r2, #128	; 0x80
     dd8:	0512      	lsls	r2, r2, #20
     dda:	4b16      	ldr	r3, [pc, #88]	; (e34 <tc_callback_to_to_period_51200us+0xf4>)
     ddc:	619a      	str	r2, [r3, #24]
     dde:	e7cd      	b.n	d7c <tc_callback_to_to_period_51200us+0x3c>
     de0:	2280      	movs	r2, #128	; 0x80
     de2:	0552      	lsls	r2, r2, #21
     de4:	4b13      	ldr	r3, [pc, #76]	; (e34 <tc_callback_to_to_period_51200us+0xf4>)
     de6:	619a      	str	r2, [r3, #24]
     de8:	e7c8      	b.n	d7c <tc_callback_to_to_period_51200us+0x3c>
				else
					My_WiFi.wifi_work_led++;
     dea:	3301      	adds	r3, #1
     dec:	2283      	movs	r2, #131	; 0x83
     dee:	0112      	lsls	r2, r2, #4
     df0:	490d      	ldr	r1, [pc, #52]	; (e28 <tc_callback_to_to_period_51200us+0xe8>)
     df2:	508b      	str	r3, [r1, r2]
     df4:	e00e      	b.n	e14 <tc_callback_to_to_period_51200us+0xd4>
			}
			else
				My_WiFi.wifi_work_led = 0;
     df6:	2100      	movs	r1, #0
     df8:	2383      	movs	r3, #131	; 0x83
     dfa:	011b      	lsls	r3, r3, #4
     dfc:	4a0a      	ldr	r2, [pc, #40]	; (e28 <tc_callback_to_to_period_51200us+0xe8>)
     dfe:	50d1      	str	r1, [r2, r3]
     e00:	e008      	b.n	e14 <tc_callback_to_to_period_51200us+0xd4>
		}
		else
		{
			My_WiFi.wifi_work_led = 0;
     e02:	2100      	movs	r1, #0
     e04:	2383      	movs	r3, #131	; 0x83
     e06:	011b      	lsls	r3, r3, #4
     e08:	4a07      	ldr	r2, [pc, #28]	; (e28 <tc_callback_to_to_period_51200us+0xe8>)
     e0a:	50d1      	str	r1, [r2, r3]
		port_base->OUTCLR.reg = pin_mask;
     e0c:	2280      	movs	r2, #128	; 0x80
     e0e:	0552      	lsls	r2, r2, #21
     e10:	4b08      	ldr	r3, [pc, #32]	; (e34 <tc_callback_to_to_period_51200us+0xf4>)
     e12:	615a      	str	r2, [r3, #20]
			LED_B_ON
		}
	#endif
}
     e14:	4770      	bx	lr
     e16:	46c0      	nop			; (mov r8, r8)
     e18:	20002f7c 	.word	0x20002f7c
     e1c:	00000227 	.word	0x00000227
     e20:	20002f90 	.word	0x20002f90
     e24:	00000834 	.word	0x00000834
     e28:	200040f8 	.word	0x200040f8
     e2c:	00000835 	.word	0x00000835
     e30:	0000083b 	.word	0x0000083b
     e34:	41004400 	.word	0x41004400

00000e38 <tc_callback_to_to_period_200us>:

unsigned long mcu_reset;
void tc_callback_to_to_period_200us(struct tc_module *const module_inst)
{
	
	if(LORA01->f_count < Timer_Timeout)	LORA01->f_count++;
     e38:	4b1c      	ldr	r3, [pc, #112]	; (eac <tc_callback_to_to_period_200us+0x74>)
     e3a:	681b      	ldr	r3, [r3, #0]
     e3c:	228f      	movs	r2, #143	; 0x8f
     e3e:	0092      	lsls	r2, r2, #2
     e40:	5899      	ldr	r1, [r3, r2]
     e42:	4a1b      	ldr	r2, [pc, #108]	; (eb0 <tc_callback_to_to_period_200us+0x78>)
     e44:	4291      	cmp	r1, r2
     e46:	d804      	bhi.n	e52 <tc_callback_to_to_period_200us+0x1a>
     e48:	218f      	movs	r1, #143	; 0x8f
     e4a:	0089      	lsls	r1, r1, #2
     e4c:	585a      	ldr	r2, [r3, r1]
     e4e:	3201      	adds	r2, #1
     e50:	505a      	str	r2, [r3, r1]
	if(LORA02->f_count < Timer_Timeout)	LORA02->f_count++;
     e52:	4b18      	ldr	r3, [pc, #96]	; (eb4 <tc_callback_to_to_period_200us+0x7c>)
     e54:	681b      	ldr	r3, [r3, #0]
     e56:	228f      	movs	r2, #143	; 0x8f
     e58:	0092      	lsls	r2, r2, #2
     e5a:	5899      	ldr	r1, [r3, r2]
     e5c:	4a14      	ldr	r2, [pc, #80]	; (eb0 <tc_callback_to_to_period_200us+0x78>)
     e5e:	4291      	cmp	r1, r2
     e60:	d804      	bhi.n	e6c <tc_callback_to_to_period_200us+0x34>
     e62:	218f      	movs	r1, #143	; 0x8f
     e64:	0089      	lsls	r1, r1, #2
     e66:	585a      	ldr	r2, [r3, r1]
     e68:	3201      	adds	r2, #1
     e6a:	505a      	str	r2, [r3, r1]
	//usart_read_buffer_job(Debug_COM, (uint8_t *)user_rx_buffer, MAX_RX_BUFFER_LENGTH);
	
	
	#ifdef Dev_Wifi
		if(My_WiFi.WIFI_Main_Counter < WIFI_Main_Counter_Max)		My_WiFi.WIFI_Main_Counter++;
     e6c:	4b12      	ldr	r3, [pc, #72]	; (eb8 <tc_callback_to_to_period_200us+0x80>)
     e6e:	4a13      	ldr	r2, [pc, #76]	; (ebc <tc_callback_to_to_period_200us+0x84>)
     e70:	58d3      	ldr	r3, [r2, r3]
     e72:	2bc7      	cmp	r3, #199	; 0xc7
     e74:	d803      	bhi.n	e7e <tc_callback_to_to_period_200us+0x46>
     e76:	3301      	adds	r3, #1
     e78:	4a0f      	ldr	r2, [pc, #60]	; (eb8 <tc_callback_to_to_period_200us+0x80>)
     e7a:	4910      	ldr	r1, [pc, #64]	; (ebc <tc_callback_to_to_period_200us+0x84>)
     e7c:	508b      	str	r3, [r1, r2]
		if(My_WiFi.Rx_Timeout_Count < WIFI_Rx_Timeout_Count_Max)	My_WiFi.Rx_Timeout_Count++;
     e7e:	4b10      	ldr	r3, [pc, #64]	; (ec0 <tc_callback_to_to_period_200us+0x88>)
     e80:	4a0e      	ldr	r2, [pc, #56]	; (ebc <tc_callback_to_to_period_200us+0x84>)
     e82:	58d3      	ldr	r3, [r2, r3]
     e84:	4a0f      	ldr	r2, [pc, #60]	; (ec4 <tc_callback_to_to_period_200us+0x8c>)
     e86:	4293      	cmp	r3, r2
     e88:	d803      	bhi.n	e92 <tc_callback_to_to_period_200us+0x5a>
     e8a:	3301      	adds	r3, #1
     e8c:	4a0c      	ldr	r2, [pc, #48]	; (ec0 <tc_callback_to_to_period_200us+0x88>)
     e8e:	490b      	ldr	r1, [pc, #44]	; (ebc <tc_callback_to_to_period_200us+0x84>)
     e90:	508b      	str	r3, [r1, r2]
		if(My_WiFi.f_count < WIFI_f_count_Timer_Max)				My_WiFi.f_count++;
     e92:	2381      	movs	r3, #129	; 0x81
     e94:	011b      	lsls	r3, r3, #4
     e96:	4a09      	ldr	r2, [pc, #36]	; (ebc <tc_callback_to_to_period_200us+0x84>)
     e98:	58d3      	ldr	r3, [r2, r3]
     e9a:	4a0b      	ldr	r2, [pc, #44]	; (ec8 <tc_callback_to_to_period_200us+0x90>)
     e9c:	4293      	cmp	r3, r2
     e9e:	d804      	bhi.n	eaa <tc_callback_to_to_period_200us+0x72>
     ea0:	3301      	adds	r3, #1
     ea2:	2281      	movs	r2, #129	; 0x81
     ea4:	0112      	lsls	r2, r2, #4
     ea6:	4905      	ldr	r1, [pc, #20]	; (ebc <tc_callback_to_to_period_200us+0x84>)
     ea8:	508b      	str	r3, [r1, r2]
	else
	{
		mcu_reset++;
	}
	*/
}
     eaa:	4770      	bx	lr
     eac:	20002f7c 	.word	0x20002f7c
     eb0:	00004e1f 	.word	0x00004e1f
     eb4:	20000d40 	.word	0x20000d40
     eb8:	0000082c 	.word	0x0000082c
     ebc:	200040f8 	.word	0x200040f8
     ec0:	0000080c 	.word	0x0000080c
     ec4:	000003e7 	.word	0x000003e7
     ec8:	0000c34f 	.word	0x0000c34f

00000ecc <usart_read_func>:
	}
}

*/
void usart_read_func(void)
{
     ecc:	b5f0      	push	{r4, r5, r6, r7, lr}
     ece:	b085      	sub	sp, #20
	unsigned char i, k;
	if(UserKeyInStauts == UserKeyInEnterIndex) return;
     ed0:	4b29      	ldr	r3, [pc, #164]	; (f78 <usart_read_func+0xac>)
     ed2:	781b      	ldrb	r3, [r3, #0]
     ed4:	2b01      	cmp	r3, #1
     ed6:	d049      	beq.n	f6c <usart_read_func+0xa0>
     ed8:	2401      	movs	r4, #1
	
	for(k = 1; k < uart_buffer_max; k++)
	{
		if(STATUS_OK == usart_read_buffer_job(Debug_COM, &tmp_uart_buf, k))
     eda:	4e28      	ldr	r6, [pc, #160]	; (f7c <usart_read_func+0xb0>)
     edc:	4d28      	ldr	r5, [pc, #160]	; (f80 <usart_read_func+0xb4>)
     ede:	4f29      	ldr	r7, [pc, #164]	; (f84 <usart_read_func+0xb8>)
     ee0:	b2a2      	uxth	r2, r4
     ee2:	0031      	movs	r1, r6
     ee4:	0028      	movs	r0, r5
     ee6:	47b8      	blx	r7
     ee8:	2800      	cmp	r0, #0
     eea:	d002      	beq.n	ef2 <usart_read_func+0x26>
	for(k = 1; k < uart_buffer_max; k++)
     eec:	3401      	adds	r4, #1
     eee:	b2e4      	uxtb	r4, r4
		if(STATUS_OK == usart_read_buffer_job(Debug_COM, &tmp_uart_buf, k))
     ef0:	e7f6      	b.n	ee0 <usart_read_func+0x14>
		{
			for(i = 0; i < k; i++)
     ef2:	2c00      	cmp	r4, #0
     ef4:	d03a      	beq.n	f6c <usart_read_func+0xa0>
     ef6:	4b20      	ldr	r3, [pc, #128]	; (f78 <usart_read_func+0xac>)
     ef8:	781b      	ldrb	r3, [r3, #0]
     efa:	9302      	str	r3, [sp, #8]
     efc:	4b22      	ldr	r3, [pc, #136]	; (f88 <usart_read_func+0xbc>)
     efe:	7819      	ldrb	r1, [r3, #0]
     f00:	4b1e      	ldr	r3, [pc, #120]	; (f7c <usart_read_func+0xb0>)
     f02:	3c01      	subs	r4, #1
     f04:	b2e4      	uxtb	r4, r4
     f06:	3401      	adds	r4, #1
     f08:	18e4      	adds	r4, r4, r3
     f0a:	2200      	movs	r2, #0
     f0c:	9203      	str	r2, [sp, #12]
     f0e:	9201      	str	r2, [sp, #4]
     f10:	3001      	adds	r0, #1
				{
					case 0x0d:	//換行
					if(UserKeyInBufCount > 0)
					{
						UserKeyInStauts = UserKeyInEnterIndex;
						UserKeyInBuf[UserKeyInBufCount] = 0x0d;
     f12:	4d1e      	ldr	r5, [pc, #120]	; (f8c <usart_read_func+0xc0>)
     f14:	260d      	movs	r6, #13
					break;
					
					default:
					if(UserKeyInBufCount < UserKeyInBufMax)
					{
						UserKeyInBuf[UserKeyInBufCount] = tmp_uart_buf[i];
     f16:	002f      	movs	r7, r5
     f18:	e007      	b.n	f2a <usart_read_func+0x5e>
					if(UserKeyInBufCount > 0)
     f1a:	2900      	cmp	r1, #0
     f1c:	d002      	beq.n	f24 <usart_read_func+0x58>
						UserKeyInBuf[UserKeyInBufCount] = 0x0d;
     f1e:	546e      	strb	r6, [r5, r1]
     f20:	9003      	str	r0, [sp, #12]
						UserKeyInStauts = UserKeyInEnterIndex;
     f22:	9002      	str	r0, [sp, #8]
     f24:	3301      	adds	r3, #1
			for(i = 0; i < k; i++)
     f26:	42a3      	cmp	r3, r4
     f28:	d016      	beq.n	f58 <usart_read_func+0x8c>
				switch(tmp_uart_buf[i])
     f2a:	781a      	ldrb	r2, [r3, #0]
     f2c:	2a08      	cmp	r2, #8
     f2e:	d00a      	beq.n	f46 <usart_read_func+0x7a>
     f30:	2a0d      	cmp	r2, #13
     f32:	d0f2      	beq.n	f1a <usart_read_func+0x4e>
     f34:	2a00      	cmp	r2, #0
     f36:	d0f5      	beq.n	f24 <usart_read_func+0x58>
					if(UserKeyInBufCount < UserKeyInBufMax)
     f38:	2963      	cmp	r1, #99	; 0x63
     f3a:	d8f3      	bhi.n	f24 <usart_read_func+0x58>
						UserKeyInBuf[UserKeyInBufCount] = tmp_uart_buf[i];
     f3c:	547a      	strb	r2, [r7, r1]
						UserKeyInBufCount++;
     f3e:	3101      	adds	r1, #1
     f40:	b2c9      	uxtb	r1, r1
     f42:	9001      	str	r0, [sp, #4]
     f44:	e7ee      	b.n	f24 <usart_read_func+0x58>
					if(UserKeyInBufCount > 2)
     f46:	2902      	cmp	r1, #2
     f48:	d903      	bls.n	f52 <usart_read_func+0x86>
						UserKeyInBufCount--;
     f4a:	3902      	subs	r1, #2
     f4c:	b2c9      	uxtb	r1, r1
     f4e:	9001      	str	r0, [sp, #4]
     f50:	e7e8      	b.n	f24 <usart_read_func+0x58>
     f52:	9001      	str	r0, [sp, #4]
						UserKeyInBufCount = 0;
     f54:	2100      	movs	r1, #0
     f56:	e7e5      	b.n	f24 <usart_read_func+0x58>
     f58:	9b01      	ldr	r3, [sp, #4]
     f5a:	2b00      	cmp	r3, #0
     f5c:	d108      	bne.n	f70 <usart_read_func+0xa4>
     f5e:	9b03      	ldr	r3, [sp, #12]
     f60:	2b00      	cmp	r3, #0
     f62:	d003      	beq.n	f6c <usart_read_func+0xa0>
     f64:	4b04      	ldr	r3, [pc, #16]	; (f78 <usart_read_func+0xac>)
     f66:	466a      	mov	r2, sp
     f68:	7a12      	ldrb	r2, [r2, #8]
     f6a:	701a      	strb	r2, [r3, #0]
				
			}
			return;
		}
	}
     f6c:	b005      	add	sp, #20
     f6e:	bdf0      	pop	{r4, r5, r6, r7, pc}
     f70:	4b05      	ldr	r3, [pc, #20]	; (f88 <usart_read_func+0xbc>)
     f72:	7019      	strb	r1, [r3, #0]
     f74:	e7f3      	b.n	f5e <usart_read_func+0x92>
     f76:	46c0      	nop			; (mov r8, r8)
     f78:	20000d59 	.word	0x20000d59
     f7c:	20000348 	.word	0x20000348
     f80:	20000110 	.word	0x20000110
     f84:	0000260d 	.word	0x0000260d
     f88:	200002ac 	.word	0x200002ac
     f8c:	200001d4 	.word	0x200001d4

00000f90 <Uart_Form_WIFI_callback>:
#define			wifi_uart_buffer_max	2048
unsigned char	wifi_tmp_uart_buf[wifi_uart_buffer_max];


void Uart_Form_WIFI_callback(struct usart_module *const usart_module)
{
     f90:	b5f0      	push	{r4, r5, r6, r7, lr}
     f92:	b083      	sub	sp, #12
	char str[50];
	unsigned int k, i;
	

	for(k = 1; k < uart_buffer_max; k++)
     f94:	2401      	movs	r4, #1
	{
		if(STATUS_OK == usart_read_buffer_job(Wifi_COM, &tmp_uart_buf, k))
     f96:	4e1d      	ldr	r6, [pc, #116]	; (100c <Uart_Form_WIFI_callback+0x7c>)
     f98:	4d1d      	ldr	r5, [pc, #116]	; (1010 <Uart_Form_WIFI_callback+0x80>)
     f9a:	4f1e      	ldr	r7, [pc, #120]	; (1014 <Uart_Form_WIFI_callback+0x84>)
     f9c:	b2a2      	uxth	r2, r4
     f9e:	0031      	movs	r1, r6
     fa0:	0028      	movs	r0, r5
     fa2:	47b8      	blx	r7
     fa4:	2800      	cmp	r0, #0
     fa6:	d005      	beq.n	fb4 <Uart_Form_WIFI_callback+0x24>
	for(k = 1; k < uart_buffer_max; k++)
     fa8:	3401      	adds	r4, #1
     faa:	23fa      	movs	r3, #250	; 0xfa
     fac:	005b      	lsls	r3, r3, #1
     fae:	429c      	cmp	r4, r3
     fb0:	d1f4      	bne.n	f9c <Uart_Form_WIFI_callback+0xc>
     fb2:	e026      	b.n	1002 <Uart_Form_WIFI_callback+0x72>
		{
			for(i = 0; i < k; i++)
     fb4:	2c00      	cmp	r4, #0
     fb6:	d01d      	beq.n	ff4 <Uart_Form_WIFI_callback+0x64>
     fb8:	4b17      	ldr	r3, [pc, #92]	; (1018 <Uart_Form_WIFI_callback+0x88>)
     fba:	685a      	ldr	r2, [r3, #4]
     fbc:	7a1e      	ldrb	r6, [r3, #8]
     fbe:	2300      	movs	r3, #0
     fc0:	9301      	str	r3, [sp, #4]
     fc2:	2500      	movs	r5, #0
			{
				if(My_WiFi.Rx_buffer_Count < WIFI_Input_buffer_Max)
     fc4:	4815      	ldr	r0, [pc, #84]	; (101c <Uart_Form_WIFI_callback+0x8c>)
				{
					My_WiFi.Input_buffer[My_WiFi.Rx_buffer_Count] = tmp_uart_buf[i];
     fc6:	4914      	ldr	r1, [pc, #80]	; (1018 <Uart_Form_WIFI_callback+0x88>)
     fc8:	4f10      	ldr	r7, [pc, #64]	; (100c <Uart_Form_WIFI_callback+0x7c>)
     fca:	e002      	b.n	fd2 <Uart_Form_WIFI_callback+0x42>
			for(i = 0; i < k; i++)
     fcc:	3301      	adds	r3, #1
     fce:	42a3      	cmp	r3, r4
     fd0:	d009      	beq.n	fe6 <Uart_Form_WIFI_callback+0x56>
				if(My_WiFi.Rx_buffer_Count < WIFI_Input_buffer_Max)
     fd2:	4282      	cmp	r2, r0
     fd4:	d8fa      	bhi.n	fcc <Uart_Form_WIFI_callback+0x3c>
					My_WiFi.Input_buffer[My_WiFi.Rx_buffer_Count] = tmp_uart_buf[i];
     fd6:	188d      	adds	r5, r1, r2
     fd8:	5cfe      	ldrb	r6, [r7, r3]
     fda:	726e      	strb	r6, [r5, #9]
					My_WiFi.Rx_buffer_Count++;
     fdc:	3201      	adds	r2, #1
     fde:	2501      	movs	r5, #1
     fe0:	9501      	str	r5, [sp, #4]
					My_WiFi.new_data = true;
     fe2:	2601      	movs	r6, #1
     fe4:	e7f2      	b.n	fcc <Uart_Form_WIFI_callback+0x3c>
     fe6:	2d00      	cmp	r5, #0
     fe8:	d10d      	bne.n	1006 <Uart_Form_WIFI_callback+0x76>
     fea:	9b01      	ldr	r3, [sp, #4]
     fec:	2b00      	cmp	r3, #0
     fee:	d001      	beq.n	ff4 <Uart_Form_WIFI_callback+0x64>
     ff0:	4b09      	ldr	r3, [pc, #36]	; (1018 <Uart_Form_WIFI_callback+0x88>)
     ff2:	721e      	strb	r6, [r3, #8]
				}
			}
			//如果有接收到新的資料，不斷清除Time Out
			My_WiFi.f_count = 0;
     ff4:	4b08      	ldr	r3, [pc, #32]	; (1018 <Uart_Form_WIFI_callback+0x88>)
     ff6:	2200      	movs	r2, #0
     ff8:	2181      	movs	r1, #129	; 0x81
     ffa:	0109      	lsls	r1, r1, #4
     ffc:	505a      	str	r2, [r3, r1]
			My_WiFi.Rx_Timeout_Count = 0;
     ffe:	4908      	ldr	r1, [pc, #32]	; (1020 <Uart_Form_WIFI_callback+0x90>)
    1000:	505a      	str	r2, [r3, r1]
			return;
		}
	}
	
	
}
    1002:	b003      	add	sp, #12
    1004:	bdf0      	pop	{r4, r5, r6, r7, pc}
    1006:	4b04      	ldr	r3, [pc, #16]	; (1018 <Uart_Form_WIFI_callback+0x88>)
    1008:	605a      	str	r2, [r3, #4]
    100a:	e7ee      	b.n	fea <Uart_Form_WIFI_callback+0x5a>
    100c:	20000348 	.word	0x20000348
    1010:	200053c8 	.word	0x200053c8
    1014:	0000260d 	.word	0x0000260d
    1018:	200040f8 	.word	0x200040f8
    101c:	000007ff 	.word	0x000007ff
    1020:	0000080c 	.word	0x0000080c

00001024 <uart_str_COM>:




void uart_str_COM(struct usart_module *const usart_module, const char *tmp_ptr)
{
    1024:	b570      	push	{r4, r5, r6, lr}
    1026:	0005      	movs	r5, r0
    1028:	000c      	movs	r4, r1
	char *ptr;
	ptr = tmp_ptr;
	while(*ptr != '\0')
    102a:	7809      	ldrb	r1, [r1, #0]
    102c:	2900      	cmp	r1, #0
    102e:	d006      	beq.n	103e <uart_str_COM+0x1a>
	{
		uTXByte(usart_module, *ptr);
    1030:	4e03      	ldr	r6, [pc, #12]	; (1040 <uart_str_COM+0x1c>)
    1032:	0028      	movs	r0, r5
    1034:	47b0      	blx	r6
		ptr++;
    1036:	3401      	adds	r4, #1
	while(*ptr != '\0')
    1038:	7821      	ldrb	r1, [r4, #0]
    103a:	2900      	cmp	r1, #0
    103c:	d1f9      	bne.n	1032 <uart_str_COM+0xe>
	}
}
    103e:	bd70      	pop	{r4, r5, r6, pc}
    1040:	00001185 	.word	0x00001185

00001044 <configure_usart>:
#include <asf.h>
#include <stdio.h>
#include "myDefine.h"

void configure_usart(void)
{
    1044:	b530      	push	{r4, r5, lr}
    1046:	b08d      	sub	sp, #52	; 0x34
{
	/* Sanity check arguments */
	Assert(config);

	/* Set default config in the config struct */
	config->data_order       = USART_DATAORDER_LSB;
    1048:	2380      	movs	r3, #128	; 0x80
    104a:	05db      	lsls	r3, r3, #23
    104c:	9300      	str	r3, [sp, #0]
	config->transfer_mode    = USART_TRANSFER_ASYNCHRONOUSLY;
    104e:	2300      	movs	r3, #0
    1050:	9301      	str	r3, [sp, #4]
	config->parity           = USART_PARITY_NONE;
    1052:	22ff      	movs	r2, #255	; 0xff
    1054:	4669      	mov	r1, sp
    1056:	810a      	strh	r2, [r1, #8]
	config->stopbits         = USART_STOPBITS_1;
    1058:	728b      	strb	r3, [r1, #10]
	config->character_size   = USART_CHARACTER_SIZE_8BIT;
    105a:	72cb      	strb	r3, [r1, #11]
	config->baudrate         = 9600;
	config->receiver_enable  = true;
    105c:	2201      	movs	r2, #1
    105e:	750a      	strb	r2, [r1, #20]
	config->transmitter_enable = true;
    1060:	754a      	strb	r2, [r1, #21]
	config->clock_polarity_inverted = false;
    1062:	758b      	strb	r3, [r1, #22]
	config->use_external_clock = false;
    1064:	75cb      	strb	r3, [r1, #23]
	config->ext_clock_freq   = 0;
    1066:	9306      	str	r3, [sp, #24]
	config->mux_setting      = USART_RX_1_TX_2_XCK_3;
	config->run_in_standby   = false;
    1068:	770b      	strb	r3, [r1, #28]
	config->generator_source = GCLK_GENERATOR_0;
    106a:	774b      	strb	r3, [r1, #29]
	
	
	
	// Debug_COM
	//! [setup_change_config]
	config_usart.baudrate    = 115200;
    106c:	23e1      	movs	r3, #225	; 0xe1
    106e:	025b      	lsls	r3, r3, #9
    1070:	9304      	str	r3, [sp, #16]
	config_usart.mux_setting = USART_RX_3_TX_2_XCK_3;
    1072:	23c4      	movs	r3, #196	; 0xc4
    1074:	039b      	lsls	r3, r3, #14
    1076:	9303      	str	r3, [sp, #12]
	config_usart.pinmux_pad0 = PINMUX_UNUSED;
    1078:	2301      	movs	r3, #1
    107a:	425b      	negs	r3, r3
    107c:	9308      	str	r3, [sp, #32]
	config_usart.pinmux_pad1 = PINMUX_UNUSED;
    107e:	9309      	str	r3, [sp, #36]	; 0x24
	config_usart.pinmux_pad2 = PINMUX_PA18C_SERCOM1_PAD2;
    1080:	4b25      	ldr	r3, [pc, #148]	; (1118 <configure_usart+0xd4>)
    1082:	930a      	str	r3, [sp, #40]	; 0x28
	config_usart.pinmux_pad3 = PINMUX_PA19C_SERCOM1_PAD3;
    1084:	4b25      	ldr	r3, [pc, #148]	; (111c <configure_usart+0xd8>)
    1086:	930b      	str	r3, [sp, #44]	; 0x2c
	config_usart.parity				= USART_PARITY_NONE;
	config_usart.character_size		= USART_CHARACTER_SIZE_8BIT;
	while (usart_init(Debug_COM, SERCOM1, &config_usart) != STATUS_OK);
    1088:	4d25      	ldr	r5, [pc, #148]	; (1120 <configure_usart+0xdc>)
    108a:	4c26      	ldr	r4, [pc, #152]	; (1124 <configure_usart+0xe0>)
    108c:	466a      	mov	r2, sp
    108e:	4926      	ldr	r1, [pc, #152]	; (1128 <configure_usart+0xe4>)
    1090:	0028      	movs	r0, r5
    1092:	47a0      	blx	r4
    1094:	2800      	cmp	r0, #0
    1096:	d1f9      	bne.n	108c <configure_usart+0x48>
	/* Sanity check arguments */
	Assert(module);
	Assert(module->hw);

	/* Get a pointer to the hardware module instance */
	SercomUsart *const usart_hw = &(module->hw->USART);
    1098:	4d21      	ldr	r5, [pc, #132]	; (1120 <configure_usart+0xdc>)
    109a:	682c      	ldr	r4, [r5, #0]

#if USART_CALLBACK_MODE == true
	/* Enable Global interrupt for module */
	system_interrupt_enable(_sercom_get_interrupt_vector(module->hw));
    109c:	0020      	movs	r0, r4
    109e:	4b23      	ldr	r3, [pc, #140]	; (112c <configure_usart+0xe8>)
    10a0:	4798      	blx	r3
    10a2:	231f      	movs	r3, #31
    10a4:	4018      	ands	r0, r3
    10a6:	3b1e      	subs	r3, #30
    10a8:	4083      	lsls	r3, r0
    10aa:	4a21      	ldr	r2, [pc, #132]	; (1130 <configure_usart+0xec>)
    10ac:	6013      	str	r3, [r2, #0]
	SercomUsart *const usart_hw = &(module->hw->USART);
    10ae:	682a      	ldr	r2, [r5, #0]
	return (usart_hw->STATUS.reg & SERCOM_USART_STATUS_SYNCBUSY);
    10b0:	8a13      	ldrh	r3, [r2, #16]
	while (usart_is_syncing(module)) {
    10b2:	b21b      	sxth	r3, r3
    10b4:	2b00      	cmp	r3, #0
    10b6:	dbfb      	blt.n	10b0 <configure_usart+0x6c>

	/* Wait until synchronization is complete */
	_usart_wait_for_sync(module);

	/* Enable USART module */
	usart_hw->CTRLA.reg |= SERCOM_USART_CTRLA_ENABLE;
    10b8:	6823      	ldr	r3, [r4, #0]
    10ba:	2202      	movs	r2, #2
    10bc:	4313      	orrs	r3, r2
    10be:	6023      	str	r3, [r4, #0]
	//config_usart.pinmux_pad3 = PINMUX_UNUSED;
	//while (usart_init(Debug_COM,SERCOM0, &config_usart) != STATUS_OK);
	//usart_enable(Debug_COM);
	
	//USART_RX_1_TX_0_XCK_1
	config_usart.baudrate    = 115200;
    10c0:	23e1      	movs	r3, #225	; 0xe1
    10c2:	025b      	lsls	r3, r3, #9
    10c4:	9304      	str	r3, [sp, #16]
	config_usart.mux_setting = USART_RX_3_TX_2_XCK_3 ;
    10c6:	23c4      	movs	r3, #196	; 0xc4
    10c8:	039b      	lsls	r3, r3, #14
    10ca:	9303      	str	r3, [sp, #12]
	config_usart.pinmux_pad0 = PINMUX_UNUSED;
    10cc:	2301      	movs	r3, #1
    10ce:	425b      	negs	r3, r3
    10d0:	9308      	str	r3, [sp, #32]
	config_usart.pinmux_pad1 = PINMUX_UNUSED;
    10d2:	9309      	str	r3, [sp, #36]	; 0x24
	config_usart.pinmux_pad2 = PINMUX_PA14C_SERCOM2_PAD2;
    10d4:	4b17      	ldr	r3, [pc, #92]	; (1134 <configure_usart+0xf0>)
    10d6:	930a      	str	r3, [sp, #40]	; 0x28
	config_usart.pinmux_pad3 = PINMUX_PA15C_SERCOM2_PAD3;
    10d8:	4b17      	ldr	r3, [pc, #92]	; (1138 <configure_usart+0xf4>)
    10da:	930b      	str	r3, [sp, #44]	; 0x2c
	while (usart_init(Wifi_COM,	SERCOM2, &config_usart) != STATUS_OK);
    10dc:	4d17      	ldr	r5, [pc, #92]	; (113c <configure_usart+0xf8>)
    10de:	4c11      	ldr	r4, [pc, #68]	; (1124 <configure_usart+0xe0>)
    10e0:	466a      	mov	r2, sp
    10e2:	4917      	ldr	r1, [pc, #92]	; (1140 <configure_usart+0xfc>)
    10e4:	0028      	movs	r0, r5
    10e6:	47a0      	blx	r4
    10e8:	2800      	cmp	r0, #0
    10ea:	d1f9      	bne.n	10e0 <configure_usart+0x9c>
	SercomUsart *const usart_hw = &(module->hw->USART);
    10ec:	4d13      	ldr	r5, [pc, #76]	; (113c <configure_usart+0xf8>)
    10ee:	682c      	ldr	r4, [r5, #0]
	system_interrupt_enable(_sercom_get_interrupt_vector(module->hw));
    10f0:	0020      	movs	r0, r4
    10f2:	4b0e      	ldr	r3, [pc, #56]	; (112c <configure_usart+0xe8>)
    10f4:	4798      	blx	r3
    10f6:	231f      	movs	r3, #31
    10f8:	4018      	ands	r0, r3
    10fa:	3b1e      	subs	r3, #30
    10fc:	4083      	lsls	r3, r0
    10fe:	4a0c      	ldr	r2, [pc, #48]	; (1130 <configure_usart+0xec>)
    1100:	6013      	str	r3, [r2, #0]
	SercomUsart *const usart_hw = &(module->hw->USART);
    1102:	682a      	ldr	r2, [r5, #0]
	return (usart_hw->STATUS.reg & SERCOM_USART_STATUS_SYNCBUSY);
    1104:	8a13      	ldrh	r3, [r2, #16]
	while (usart_is_syncing(module)) {
    1106:	b21b      	sxth	r3, r3
    1108:	2b00      	cmp	r3, #0
    110a:	dbfb      	blt.n	1104 <configure_usart+0xc0>
	usart_hw->CTRLA.reg |= SERCOM_USART_CTRLA_ENABLE;
    110c:	6823      	ldr	r3, [r4, #0]
    110e:	2202      	movs	r2, #2
    1110:	4313      	orrs	r3, r2
    1112:	6023      	str	r3, [r4, #0]
	usart_enable(Wifi_COM);
	
}
    1114:	b00d      	add	sp, #52	; 0x34
    1116:	bd30      	pop	{r4, r5, pc}
    1118:	00120002 	.word	0x00120002
    111c:	00130002 	.word	0x00130002
    1120:	20000110 	.word	0x20000110
    1124:	00002335 	.word	0x00002335
    1128:	42000c00 	.word	0x42000c00
    112c:	000022d1 	.word	0x000022d1
    1130:	e000e100 	.word	0xe000e100
    1134:	000e0002 	.word	0x000e0002
    1138:	000f0002 	.word	0x000f0002
    113c:	200053c8 	.word	0x200053c8
    1140:	42001000 	.word	0x42001000

00001144 <configure_usart_callbacks>:


void configure_usart_callbacks(void)
{
    1144:	b570      	push	{r4, r5, r6, lr}
	//usart_register_callback(&MyUart02,	usart_read_callback, USART_CALLBACK_BUFFER_RECEIVED);
	usart_register_callback(Debug_COM,	usart_read_func, USART_CALLBACK_BUFFER_RECEIVED);
    1146:	4d0a      	ldr	r5, [pc, #40]	; (1170 <configure_usart_callbacks+0x2c>)
    1148:	2201      	movs	r2, #1
    114a:	490a      	ldr	r1, [pc, #40]	; (1174 <configure_usart_callbacks+0x30>)
    114c:	0028      	movs	r0, r5
    114e:	4e0a      	ldr	r6, [pc, #40]	; (1178 <configure_usart_callbacks+0x34>)
    1150:	47b0      	blx	r6
	//usart_register_callback(&MyUart01,	Uart_Form_LORA01_callback, USART_CALLBACK_BUFFER_RECEIVED);
	#ifdef Dev_Wifi
	usart_register_callback(Wifi_COM,	Uart_Form_WIFI_callback, USART_CALLBACK_BUFFER_RECEIVED);
    1152:	4c0a      	ldr	r4, [pc, #40]	; (117c <configure_usart_callbacks+0x38>)
    1154:	2201      	movs	r2, #1
    1156:	490a      	ldr	r1, [pc, #40]	; (1180 <configure_usart_callbacks+0x3c>)
    1158:	0020      	movs	r0, r4
    115a:	47b0      	blx	r6
{
	/* Sanity check arguments */
	Assert(module);

	/* Enable callback */
	module->callback_enable_mask |= (1 << callback_type);
    115c:	2321      	movs	r3, #33	; 0x21
    115e:	2002      	movs	r0, #2
    1160:	5ce9      	ldrb	r1, [r5, r3]
    1162:	4301      	orrs	r1, r0
    1164:	54e9      	strb	r1, [r5, r3]
    1166:	5ce2      	ldrb	r2, [r4, r3]
    1168:	4302      	orrs	r2, r0
    116a:	54e2      	strb	r2, [r4, r3]
	//usart_enable_callback(&MyUart01, USART_CALLBACK_BUFFER_RECEIVED);
	#ifdef Dev_Wifi
	usart_enable_callback(Wifi_COM, USART_CALLBACK_BUFFER_RECEIVED);
	#endif
	
}
    116c:	bd70      	pop	{r4, r5, r6, pc}
    116e:	46c0      	nop			; (mov r8, r8)
    1170:	20000110 	.word	0x20000110
    1174:	00000ecd 	.word	0x00000ecd
    1178:	000025f5 	.word	0x000025f5
    117c:	200053c8 	.word	0x200053c8
    1180:	00000f91 	.word	0x00000f91

00001184 <uTXByte>:
	}
	uTXByte(Debug_COM, ']');
}

void uTXByte(struct usart_module *const usart_module, uint8_t tmp_data)
{
    1184:	b570      	push	{r4, r5, r6, lr}
	if(usart_module == Debug_COM)
    1186:	4b08      	ldr	r3, [pc, #32]	; (11a8 <uTXByte+0x24>)
    1188:	4298      	cmp	r0, r3
    118a:	d003      	beq.n	1194 <uTXByte+0x10>
		usart_write_wait(usart_module, tmp_data);
		RS485_EN_Low
	}
	else
	{
		usart_write_wait(usart_module, tmp_data);
    118c:	b289      	uxth	r1, r1
    118e:	4b07      	ldr	r3, [pc, #28]	; (11ac <uTXByte+0x28>)
    1190:	4798      	blx	r3
	}
	
}
    1192:	bd70      	pop	{r4, r5, r6, pc}
		port_base->OUTSET.reg = pin_mask;
    1194:	4c06      	ldr	r4, [pc, #24]	; (11b0 <uTXByte+0x2c>)
    1196:	2580      	movs	r5, #128	; 0x80
    1198:	026d      	lsls	r5, r5, #9
    119a:	61a5      	str	r5, [r4, #24]
		usart_write_wait(usart_module, tmp_data);
    119c:	b289      	uxth	r1, r1
    119e:	0018      	movs	r0, r3
    11a0:	4b02      	ldr	r3, [pc, #8]	; (11ac <uTXByte+0x28>)
    11a2:	4798      	blx	r3
		port_base->OUTCLR.reg = pin_mask;
    11a4:	6165      	str	r5, [r4, #20]
    11a6:	e7f4      	b.n	1192 <uTXByte+0xe>
    11a8:	20000110 	.word	0x20000110
    11ac:	00002589 	.word	0x00002589
    11b0:	41004400 	.word	0x41004400

000011b4 <watchdog_early_warning_callback>:


void watchdog_early_warning_callback(void)
{
	
}
    11b4:	4770      	bx	lr
	...

000011b8 <configure_wdt>:

void configure_wdt(void)
{
    11b8:	b500      	push	{lr}
    11ba:	b083      	sub	sp, #12
{
	/* Sanity check arguments */
	Assert(config);

	/* Default configuration values */
	config->always_on            = false;
    11bc:	2300      	movs	r3, #0
    11be:	466a      	mov	r2, sp
    11c0:	7013      	strb	r3, [r2, #0]
	config->enable               = true;
    11c2:	2201      	movs	r2, #1
    11c4:	4669      	mov	r1, sp
    11c6:	704a      	strb	r2, [r1, #1]
#if !(SAML21) && !(SAML22) && !(SAMC20) && !(SAMC21) && !(SAMR30)
	config->clock_source         = GCLK_GENERATOR_4;
    11c8:	3203      	adds	r2, #3
    11ca:	708a      	strb	r2, [r1, #2]
#endif
	config->timeout_period       = WDT_PERIOD_16384CLK;
    11cc:	3208      	adds	r2, #8
    11ce:	70ca      	strb	r2, [r1, #3]
	config->window_period        = WDT_PERIOD_NONE;
    11d0:	710b      	strb	r3, [r1, #4]
#if !((SAML21) || (SAMC21) || (SAML22) || (SAMR30))
	config_wdt.clock_source         = GCLK_GENERATOR_4;
#endif
	//config_wdt.timeout_period       = WDT_PERIOD_4096CLK;
	config_wdt.timeout_period       = WDT_PERIOD_16384CLK;
	config_wdt.early_warning_period = WDT_PERIOD_2048CLK;
    11d2:	3309      	adds	r3, #9
    11d4:	714b      	strb	r3, [r1, #5]
	//! [setup_3]

	/* Initialize and enable the Watchdog with the user settings */
	//! [setup_4]
	wdt_set_config(&config_wdt);
    11d6:	4668      	mov	r0, sp
    11d8:	4b01      	ldr	r3, [pc, #4]	; (11e0 <configure_wdt+0x28>)
    11da:	4798      	blx	r3
	//! [setup_4]
}
    11dc:	b003      	add	sp, #12
    11de:	bd00      	pop	{pc}
    11e0:	00001d19 	.word	0x00001d19

000011e4 <configure_wdt_callbacks>:

void configure_wdt_callbacks(void)
{
    11e4:	b510      	push	{r4, lr}
	//! [setup_5]
	wdt_register_callback(watchdog_early_warning_callback,
    11e6:	2100      	movs	r1, #0
    11e8:	4803      	ldr	r0, [pc, #12]	; (11f8 <configure_wdt_callbacks+0x14>)
    11ea:	4b04      	ldr	r3, [pc, #16]	; (11fc <configure_wdt_callbacks+0x18>)
    11ec:	4798      	blx	r3
		WDT_CALLBACK_EARLY_WARNING);
	//! [setup_5]

	//! [setup_6]
	wdt_enable_callback(WDT_CALLBACK_EARLY_WARNING);
    11ee:	2000      	movs	r0, #0
    11f0:	4b03      	ldr	r3, [pc, #12]	; (1200 <configure_wdt_callbacks+0x1c>)
    11f2:	4798      	blx	r3
	//! [setup_6]
	
	
}
    11f4:	bd10      	pop	{r4, pc}
    11f6:	46c0      	nop			; (mov r8, r8)
    11f8:	000011b5 	.word	0x000011b5
    11fc:	00001e31 	.word	0x00001e31
    1200:	00001e45 	.word	0x00001e45

00001204 <configure_nvm>:



//! [setup]
void configure_nvm(void)
{
    1204:	b500      	push	{lr}
    1206:	b083      	sub	sp, #12
{
	/* Sanity check the parameters */
	Assert(config);

	/* Write the default configuration for the NVM configuration */
	config->sleep_power_mode  = NVM_SLEEP_POWER_MODE_WAKEONACCESS;
    1208:	2200      	movs	r2, #0
    120a:	466b      	mov	r3, sp
    120c:	701a      	strb	r2, [r3, #0]
	config->manual_page_write = true;
	config->wait_states       = NVMCTRL->CTRLB.bit.RWS;
    120e:	4b07      	ldr	r3, [pc, #28]	; (122c <configure_nvm+0x28>)
    1210:	685b      	ldr	r3, [r3, #4]
    1212:	06db      	lsls	r3, r3, #27
    1214:	0f1b      	lsrs	r3, r3, #28
    1216:	4669      	mov	r1, sp
    1218:	708b      	strb	r3, [r1, #2]
	config->disable_cache     = false;
    121a:	70ca      	strb	r2, [r1, #3]
#if (SAMC20) || (SAMC21)
	config->disable_rww_cache = false;
#endif
	config->cache_readmode    = NVM_CACHE_READMODE_NO_MISS_PENALTY;
    121c:	710a      	strb	r2, [r1, #4]
	//! [setup_2]
	nvm_get_config_defaults(&config_nvm);
	//! [setup_2]

	//! [setup_3]
	config_nvm.manual_page_write = false;
    121e:	704a      	strb	r2, [r1, #1]
	//config_nvm.manual_page_write = true;
	//! [setup_3]

	//! [setup_4]
	nvm_set_config(&config_nvm);
    1220:	4668      	mov	r0, sp
    1222:	4b03      	ldr	r3, [pc, #12]	; (1230 <configure_nvm+0x2c>)
    1224:	4798      	blx	r3
	//! [setup_4]
}
    1226:	b003      	add	sp, #12
    1228:	bd00      	pop	{pc}
    122a:	46c0      	nop			; (mov r8, r8)
    122c:	41004000 	.word	0x41004000
    1230:	00000105 	.word	0x00000105

00001234 <IO_init>:
	LORA02->Lora_Show_Flag = true;
}


void IO_init(void)
{
    1234:	b5f0      	push	{r4, r5, r6, r7, lr}
    1236:	46c6      	mov	lr, r8
    1238:	b500      	push	{lr}
    123a:	b082      	sub	sp, #8
	config->input_pull = PORT_PIN_PULL_UP;
    123c:	ac01      	add	r4, sp, #4
    123e:	2301      	movs	r3, #1
    1240:	4698      	mov	r8, r3
    1242:	7063      	strb	r3, [r4, #1]
	config->powersave  = false;
    1244:	2700      	movs	r7, #0
    1246:	70a7      	strb	r7, [r4, #2]
	struct port_config pin_conf;
	port_get_config_defaults(&pin_conf);
	
	/* Configure LEDs as outputs, turn them off */
	
	pin_conf.direction  = PORT_PIN_DIR_OUTPUT;
    1248:	7023      	strb	r3, [r4, #0]
	//	RGB LED PIN DEFINE
	port_pin_set_config(PIN_PA23, &pin_conf);
    124a:	0021      	movs	r1, r4
    124c:	2017      	movs	r0, #23
    124e:	4e21      	ldr	r6, [pc, #132]	; (12d4 <IO_init+0xa0>)
    1250:	47b0      	blx	r6
		port_base->OUTSET.reg = pin_mask;
    1252:	4d21      	ldr	r5, [pc, #132]	; (12d8 <IO_init+0xa4>)
    1254:	2380      	movs	r3, #128	; 0x80
    1256:	041b      	lsls	r3, r3, #16
    1258:	61ab      	str	r3, [r5, #24]
	port_pin_set_output_level(PIN_PA23, true);
	port_pin_set_config(PIN_PA27, &pin_conf);
    125a:	0021      	movs	r1, r4
    125c:	201b      	movs	r0, #27
    125e:	47b0      	blx	r6
    1260:	2380      	movs	r3, #128	; 0x80
    1262:	051b      	lsls	r3, r3, #20
    1264:	61ab      	str	r3, [r5, #24]
	port_pin_set_output_level(PIN_PA27, true);
	port_pin_set_config(PIN_PA28, &pin_conf);
    1266:	0021      	movs	r1, r4
    1268:	201c      	movs	r0, #28
    126a:	47b0      	blx	r6
    126c:	2380      	movs	r3, #128	; 0x80
    126e:	055b      	lsls	r3, r3, #21
    1270:	61ab      	str	r3, [r5, #24]
	port_pin_set_output_level(PIN_PA28, true);
	
	port_pin_set_config(PIN_PA17, &pin_conf);
    1272:	0021      	movs	r1, r4
    1274:	2011      	movs	r0, #17
    1276:	47b0      	blx	r6
    1278:	2380      	movs	r3, #128	; 0x80
    127a:	029b      	lsls	r3, r3, #10
    127c:	61ab      	str	r3, [r5, #24]
	port_pin_set_output_level(PIN_PA17, true);
	port_pin_set_config(PIN_PA16, &pin_conf);
    127e:	0021      	movs	r1, r4
    1280:	2010      	movs	r0, #16
    1282:	47b0      	blx	r6
    1284:	2380      	movs	r3, #128	; 0x80
    1286:	025b      	lsls	r3, r3, #9
    1288:	61ab      	str	r3, [r5, #24]
	port_pin_set_output_level(PIN_PA16, true);

	
	pin_conf.direction  = PORT_PIN_DIR_INPUT;
    128a:	7027      	strb	r7, [r4, #0]
	//port_pin_set_output_level(PIN_PA14, false);
	//
	//port_pin_set_config(PIN_PA15, &pin_conf);
	//port_pin_set_output_level(PIN_PA15, false);
	
	port_pin_set_config(PIN_PA11, &pin_conf);
    128c:	0021      	movs	r1, r4
    128e:	200b      	movs	r0, #11
    1290:	47b0      	blx	r6
		port_base->OUTCLR.reg = pin_mask;
    1292:	2380      	movs	r3, #128	; 0x80
    1294:	011b      	lsls	r3, r3, #4
    1296:	616b      	str	r3, [r5, #20]
	port_pin_set_output_level(PIN_PA11, false);
	
	pin_conf.input_pull = PORT_PIN_PULL_NONE;
    1298:	7067      	strb	r7, [r4, #1]
	port_pin_set_config(PIN_PA07, &pin_conf);
    129a:	0021      	movs	r1, r4
    129c:	2007      	movs	r0, #7
    129e:	47b0      	blx	r6
    12a0:	2380      	movs	r3, #128	; 0x80
    12a2:	616b      	str	r3, [r5, #20]
	port_pin_set_output_level(PIN_PA07, false);
	
	pin_conf.input_pull = PORT_PIN_PULL_UP;
    12a4:	4643      	mov	r3, r8
    12a6:	7063      	strb	r3, [r4, #1]
	
	// DIP SWITCH 4
	port_pin_set_config(PIN_PA22, &pin_conf);
    12a8:	0021      	movs	r1, r4
    12aa:	2016      	movs	r0, #22
    12ac:	47b0      	blx	r6
    12ae:	2380      	movs	r3, #128	; 0x80
    12b0:	03db      	lsls	r3, r3, #15
    12b2:	616b      	str	r3, [r5, #20]
	port_pin_set_output_level(PIN_PA22, false);
	
	port_pin_set_config(PIN_PA01, &pin_conf);
    12b4:	0021      	movs	r1, r4
    12b6:	2001      	movs	r0, #1
    12b8:	47b0      	blx	r6
    12ba:	2302      	movs	r3, #2
    12bc:	616b      	str	r3, [r5, #20]
	port_pin_set_output_level(PIN_PA01, false);
	
	pin_conf.direction  = PORT_PIN_DIR_INPUT;
    12be:	7027      	strb	r7, [r4, #0]
	port_pin_set_config(PIN_PA10, &pin_conf);
    12c0:	0021      	movs	r1, r4
    12c2:	200a      	movs	r0, #10
    12c4:	47b0      	blx	r6
    12c6:	2380      	movs	r3, #128	; 0x80
    12c8:	00db      	lsls	r3, r3, #3
    12ca:	616b      	str	r3, [r5, #20]
	port_pin_set_output_level(PIN_PA10, false);	// ADC因為是用數位IO所以需要設定為輸入
}
    12cc:	b002      	add	sp, #8
    12ce:	bc04      	pop	{r2}
    12d0:	4690      	mov	r8, r2
    12d2:	bdf0      	pop	{r4, r5, r6, r7, pc}
    12d4:	00001f61 	.word	0x00001f61
    12d8:	41004400 	.word	0x41004400

000012dc <configure_i2c_master>:
	return crc;
}


void configure_i2c_master(void)
{
    12dc:	b510      	push	{r4, lr}
    12de:	b08a      	sub	sp, #40	; 0x28
static inline void i2c_master_get_config_defaults(
		struct i2c_master_config *const config)
{
	/*Sanity check argument */
	Assert(config);
	config->baud_rate        = I2C_MASTER_BAUD_RATE_100KHZ;
    12e0:	2364      	movs	r3, #100	; 0x64
    12e2:	9300      	str	r3, [sp, #0]
#ifdef FEATURE_I2C_FAST_MODE_PLUS_AND_HIGH_SPEED
	config->baud_rate_high_speed = I2C_MASTER_BAUD_RATE_3400KHZ;
	config->transfer_speed       = I2C_MASTER_SPEED_STANDARD_AND_FAST;
#endif
	config->generator_source = GCLK_GENERATOR_0;
    12e4:	2300      	movs	r3, #0
    12e6:	466a      	mov	r2, sp
    12e8:	7113      	strb	r3, [r2, #4]
	config->run_in_standby   = false;
    12ea:	7413      	strb	r3, [r2, #16]
	config->start_hold_time  = I2C_MASTER_START_HOLD_TIME_300NS_600NS;
    12ec:	2280      	movs	r2, #128	; 0x80
    12ee:	0392      	lsls	r2, r2, #14
    12f0:	9202      	str	r2, [sp, #8]
	config->buffer_timeout   = 65535;
	config->unknown_bus_state_timeout = 65535;
    12f2:	2201      	movs	r2, #1
    12f4:	4252      	negs	r2, r2
    12f6:	4669      	mov	r1, sp
    12f8:	818a      	strh	r2, [r1, #12]
	config->pinmux_pad0      = PINMUX_DEFAULT;
	config->pinmux_pad1      = PINMUX_DEFAULT;
	config->scl_low_timeout  = false;
    12fa:	466a      	mov	r2, sp
    12fc:	770b      	strb	r3, [r1, #28]
	config->inactive_timeout = I2C_MASTER_INACTIVE_TIMEOUT_DISABLED;
    12fe:	9308      	str	r3, [sp, #32]
	struct i2c_master_config config_i2c_master;
	i2c_master_get_config_defaults(&config_i2c_master);

	config_i2c_master.buffer_timeout = TIMEOUT;
    1300:	4b12      	ldr	r3, [pc, #72]	; (134c <configure_i2c_master+0x70>)
    1302:	81cb      	strh	r3, [r1, #14]
	config_i2c_master.pinmux_pad0 = PINMUX_PA08C_SERCOM0_PAD0;
    1304:	4b12      	ldr	r3, [pc, #72]	; (1350 <configure_i2c_master+0x74>)
    1306:	9305      	str	r3, [sp, #20]
	config_i2c_master.pinmux_pad1 = PINMUX_PA09C_SERCOM0_PAD1;
    1308:	4b12      	ldr	r3, [pc, #72]	; (1354 <configure_i2c_master+0x78>)
    130a:	9306      	str	r3, [sp, #24]
	config_i2c_master.sda_scl_rise_time_ns = 600;
    130c:	2396      	movs	r3, #150	; 0x96
    130e:	009b      	lsls	r3, r3, #2
    1310:	848b      	strh	r3, [r1, #36]	; 0x24
	
	i2c_master_init(IIC_PA0809, SERCOM0, &config_i2c_master);
    1312:	4c11      	ldr	r4, [pc, #68]	; (1358 <configure_i2c_master+0x7c>)
    1314:	4911      	ldr	r1, [pc, #68]	; (135c <configure_i2c_master+0x80>)
    1316:	0020      	movs	r0, r4
    1318:	4b11      	ldr	r3, [pc, #68]	; (1360 <configure_i2c_master+0x84>)
    131a:	4798      	blx	r3
{
	/* Sanity check of arguments */
	Assert(module);
	Assert(module->hw);

	SercomI2cm *const i2c_module = &(module->hw->I2CM);
    131c:	6822      	ldr	r2, [r4, #0]
	return (i2c_hw->STATUS.reg & SERCOM_I2CM_STATUS_SYNCBUSY);
    131e:	8a13      	ldrh	r3, [r2, #16]
	while (i2c_master_is_syncing(module)) {
    1320:	b21b      	sxth	r3, r3
    1322:	2b00      	cmp	r3, #0
    1324:	dbfb      	blt.n	131e <configure_i2c_master+0x42>

	/* Wait for module to sync */
	_i2c_master_wait_for_sync(module);

	/* Enable module */
	i2c_module->CTRLA.reg |= SERCOM_I2CM_CTRLA_ENABLE;
    1326:	6813      	ldr	r3, [r2, #0]
    1328:	2102      	movs	r1, #2
    132a:	430b      	orrs	r3, r1
    132c:	6013      	str	r3, [r2, #0]
	system_interrupt_enable(_sercom_get_interrupt_vector(module->hw));
#endif
	/* Start timeout if bus state is unknown */
	while (!(i2c_module->STATUS.reg & SERCOM_I2CM_STATUS_BUSSTATE(1))) {
		timeout_counter++;
		if(timeout_counter >= (module->unknown_bus_state_timeout)) {
    132e:	4b0a      	ldr	r3, [pc, #40]	; (1358 <configure_i2c_master+0x7c>)
    1330:	88dc      	ldrh	r4, [r3, #6]
	uint32_t timeout_counter = 0;
    1332:	2300      	movs	r3, #0
	while (!(i2c_module->STATUS.reg & SERCOM_I2CM_STATUS_BUSSTATE(1))) {
    1334:	2010      	movs	r0, #16
    1336:	8a11      	ldrh	r1, [r2, #16]
    1338:	4201      	tst	r1, r0
    133a:	d104      	bne.n	1346 <configure_i2c_master+0x6a>
		timeout_counter++;
    133c:	3301      	adds	r3, #1
		if(timeout_counter >= (module->unknown_bus_state_timeout)) {
    133e:	42a3      	cmp	r3, r4
    1340:	d3f9      	bcc.n	1336 <configure_i2c_master+0x5a>
			/* Timeout, force bus state to idle */
			i2c_module->STATUS.reg = SERCOM_I2CM_STATUS_BUSSTATE(1);
    1342:	2310      	movs	r3, #16
    1344:	8213      	strh	r3, [r2, #16]
	i2c_master_enable(IIC_PA0809);
}
    1346:	b00a      	add	sp, #40	; 0x28
    1348:	bd10      	pop	{r4, pc}
    134a:	46c0      	nop			; (mov r8, r8)
    134c:	00002710 	.word	0x00002710
    1350:	00080002 	.word	0x00080002
    1354:	00090002 	.word	0x00090002
    1358:	20002cdc 	.word	0x20002cdc
    135c:	42000800 	.word	0x42000800
    1360:	000003a9 	.word	0x000003a9

00001364 <adc_get_config_defaults>:
    1364:	2300      	movs	r3, #0
    1366:	7003      	strb	r3, [r0, #0]
    1368:	2203      	movs	r2, #3
    136a:	7042      	strb	r2, [r0, #1]
    136c:	22c0      	movs	r2, #192	; 0xc0
    136e:	0092      	lsls	r2, r2, #2
    1370:	8042      	strh	r2, [r0, #2]
    1372:	7103      	strb	r3, [r0, #4]
    1374:	7603      	strb	r3, [r0, #24]
    1376:	6203      	str	r3, [r0, #32]
    1378:	61c3      	str	r3, [r0, #28]
    137a:	6083      	str	r3, [r0, #8]
    137c:	2207      	movs	r2, #7
    137e:	7302      	strb	r2, [r0, #12]
    1380:	22c0      	movs	r2, #192	; 0xc0
    1382:	0152      	lsls	r2, r2, #5
    1384:	81c2      	strh	r2, [r0, #14]
    1386:	7403      	strb	r3, [r0, #16]
    1388:	7443      	strb	r3, [r0, #17]
    138a:	7483      	strb	r3, [r0, #18]
    138c:	74c3      	strb	r3, [r0, #19]
    138e:	7503      	strb	r3, [r0, #20]
    1390:	222a      	movs	r2, #42	; 0x2a
    1392:	5483      	strb	r3, [r0, r2]
    1394:	7543      	strb	r3, [r0, #21]
    1396:	7583      	strb	r3, [r0, #22]
    1398:	3a06      	subs	r2, #6
    139a:	5483      	strb	r3, [r0, r2]
    139c:	2200      	movs	r2, #0
    139e:	84c3      	strh	r3, [r0, #38]	; 0x26
    13a0:	8503      	strh	r3, [r0, #40]	; 0x28
    13a2:	75c2      	strb	r2, [r0, #23]
    13a4:	332b      	adds	r3, #43	; 0x2b
    13a6:	54c2      	strb	r2, [r0, r3]
    13a8:	3301      	adds	r3, #1
    13aa:	54c2      	strb	r2, [r0, r3]
    13ac:	4770      	bx	lr
	...

000013b0 <adc_init>:
    13b0:	b5f0      	push	{r4, r5, r6, r7, lr}
    13b2:	46de      	mov	lr, fp
    13b4:	4657      	mov	r7, sl
    13b6:	464e      	mov	r6, r9
    13b8:	4645      	mov	r5, r8
    13ba:	b5e0      	push	{r5, r6, r7, lr}
    13bc:	b097      	sub	sp, #92	; 0x5c
    13be:	0007      	movs	r7, r0
    13c0:	0016      	movs	r6, r2
    13c2:	6001      	str	r1, [r0, #0]
    13c4:	4ac9      	ldr	r2, [pc, #804]	; (16ec <adc_init+0x33c>)
    13c6:	6a10      	ldr	r0, [r2, #32]
    13c8:	2380      	movs	r3, #128	; 0x80
    13ca:	025b      	lsls	r3, r3, #9
    13cc:	4303      	orrs	r3, r0
    13ce:	6213      	str	r3, [r2, #32]
    13d0:	780b      	ldrb	r3, [r1, #0]
    13d2:	2005      	movs	r0, #5
    13d4:	07db      	lsls	r3, r3, #31
    13d6:	d506      	bpl.n	13e6 <adc_init+0x36>
    13d8:	b017      	add	sp, #92	; 0x5c
    13da:	bc3c      	pop	{r2, r3, r4, r5}
    13dc:	4690      	mov	r8, r2
    13de:	4699      	mov	r9, r3
    13e0:	46a2      	mov	sl, r4
    13e2:	46ab      	mov	fp, r5
    13e4:	bdf0      	pop	{r4, r5, r6, r7, pc}
    13e6:	780b      	ldrb	r3, [r1, #0]
    13e8:	3017      	adds	r0, #23
    13ea:	079b      	lsls	r3, r3, #30
    13ec:	d4f4      	bmi.n	13d8 <adc_init+0x28>
    13ee:	7873      	ldrb	r3, [r6, #1]
    13f0:	713b      	strb	r3, [r7, #4]
    13f2:	2b00      	cmp	r3, #0
    13f4:	d104      	bne.n	1400 <adc_init+0x50>
    13f6:	4abe      	ldr	r2, [pc, #760]	; (16f0 <adc_init+0x340>)
    13f8:	6c13      	ldr	r3, [r2, #64]	; 0x40
    13fa:	2104      	movs	r1, #4
    13fc:	430b      	orrs	r3, r1
    13fe:	6413      	str	r3, [r2, #64]	; 0x40
    1400:	4bbc      	ldr	r3, [pc, #752]	; (16f4 <adc_init+0x344>)
    1402:	681b      	ldr	r3, [r3, #0]
    1404:	041b      	lsls	r3, r3, #16
    1406:	0f1b      	lsrs	r3, r3, #28
    1408:	4698      	mov	r8, r3
    140a:	683b      	ldr	r3, [r7, #0]
    140c:	469b      	mov	fp, r3
    140e:	7833      	ldrb	r3, [r6, #0]
    1410:	466a      	mov	r2, sp
    1412:	7013      	strb	r3, [r2, #0]
    1414:	4669      	mov	r1, sp
    1416:	2017      	movs	r0, #23
    1418:	4bb7      	ldr	r3, [pc, #732]	; (16f8 <adc_init+0x348>)
    141a:	4798      	blx	r3
    141c:	2017      	movs	r0, #23
    141e:	4bb7      	ldr	r3, [pc, #732]	; (16fc <adc_init+0x34c>)
    1420:	4798      	blx	r3
    1422:	232c      	movs	r3, #44	; 0x2c
    1424:	5cf2      	ldrb	r2, [r6, r3]
    1426:	2a00      	cmp	r2, #0
    1428:	d05a      	beq.n	14e0 <adc_init+0x130>
    142a:	3b01      	subs	r3, #1
    142c:	5cf5      	ldrb	r5, [r6, r3]
    142e:	7b33      	ldrb	r3, [r6, #12]
    1430:	18eb      	adds	r3, r5, r3
    1432:	b2db      	uxtb	r3, r3
    1434:	18d1      	adds	r1, r2, r3
    1436:	b2c9      	uxtb	r1, r1
    1438:	428b      	cmp	r3, r1
    143a:	d227      	bcs.n	148c <adc_init+0xdc>
    143c:	1952      	adds	r2, r2, r5
    143e:	b2d3      	uxtb	r3, r2
    1440:	4699      	mov	r9, r3
    1442:	4baf      	ldr	r3, [pc, #700]	; (1700 <adc_init+0x350>)
    1444:	469a      	mov	sl, r3
    1446:	0033      	movs	r3, r6
    1448:	464e      	mov	r6, r9
    144a:	46b9      	mov	r9, r7
    144c:	001f      	movs	r7, r3
    144e:	e003      	b.n	1458 <adc_init+0xa8>
    1450:	3501      	adds	r5, #1
    1452:	b2ed      	uxtb	r5, r5
    1454:	42ae      	cmp	r6, r5
    1456:	d017      	beq.n	1488 <adc_init+0xd8>
    1458:	240f      	movs	r4, #15
    145a:	402c      	ands	r4, r5
    145c:	7b3b      	ldrb	r3, [r7, #12]
    145e:	18e4      	adds	r4, r4, r3
    1460:	2250      	movs	r2, #80	; 0x50
    1462:	49a8      	ldr	r1, [pc, #672]	; (1704 <adc_init+0x354>)
    1464:	a802      	add	r0, sp, #8
    1466:	47d0      	blx	sl
    1468:	2c13      	cmp	r4, #19
    146a:	d8f1      	bhi.n	1450 <adc_init+0xa0>
    146c:	00a4      	lsls	r4, r4, #2
    146e:	ab02      	add	r3, sp, #8
    1470:	58e0      	ldr	r0, [r4, r3]
    1472:	a901      	add	r1, sp, #4
    1474:	2300      	movs	r3, #0
    1476:	704b      	strb	r3, [r1, #1]
    1478:	70cb      	strb	r3, [r1, #3]
    147a:	708b      	strb	r3, [r1, #2]
    147c:	3301      	adds	r3, #1
    147e:	700b      	strb	r3, [r1, #0]
    1480:	b2c0      	uxtb	r0, r0
    1482:	4ba1      	ldr	r3, [pc, #644]	; (1708 <adc_init+0x358>)
    1484:	4798      	blx	r3
    1486:	e7e3      	b.n	1450 <adc_init+0xa0>
    1488:	003e      	movs	r6, r7
    148a:	464f      	mov	r7, r9
    148c:	89f4      	ldrh	r4, [r6, #14]
    148e:	2250      	movs	r2, #80	; 0x50
    1490:	499c      	ldr	r1, [pc, #624]	; (1704 <adc_init+0x354>)
    1492:	a802      	add	r0, sp, #8
    1494:	4b9a      	ldr	r3, [pc, #616]	; (1700 <adc_init+0x350>)
    1496:	4798      	blx	r3
    1498:	2c13      	cmp	r4, #19
    149a:	d913      	bls.n	14c4 <adc_init+0x114>
    149c:	7d73      	ldrb	r3, [r6, #21]
    149e:	009b      	lsls	r3, r3, #2
    14a0:	b2db      	uxtb	r3, r3
    14a2:	465a      	mov	r2, fp
    14a4:	7013      	strb	r3, [r2, #0]
    14a6:	7db3      	ldrb	r3, [r6, #22]
    14a8:	01db      	lsls	r3, r3, #7
    14aa:	7872      	ldrb	r2, [r6, #1]
    14ac:	4313      	orrs	r3, r2
    14ae:	b2db      	uxtb	r3, r3
    14b0:	465a      	mov	r2, fp
    14b2:	7053      	strb	r3, [r2, #1]
    14b4:	7933      	ldrb	r3, [r6, #4]
    14b6:	2b34      	cmp	r3, #52	; 0x34
    14b8:	d900      	bls.n	14bc <adc_init+0x10c>
    14ba:	e18c      	b.n	17d6 <adc_init+0x426>
    14bc:	009b      	lsls	r3, r3, #2
    14be:	4a93      	ldr	r2, [pc, #588]	; (170c <adc_init+0x35c>)
    14c0:	58d3      	ldr	r3, [r2, r3]
    14c2:	469f      	mov	pc, r3
    14c4:	00a4      	lsls	r4, r4, #2
    14c6:	ab02      	add	r3, sp, #8
    14c8:	58e0      	ldr	r0, [r4, r3]
    14ca:	a901      	add	r1, sp, #4
    14cc:	2300      	movs	r3, #0
    14ce:	704b      	strb	r3, [r1, #1]
    14d0:	70cb      	strb	r3, [r1, #3]
    14d2:	708b      	strb	r3, [r1, #2]
    14d4:	3301      	adds	r3, #1
    14d6:	700b      	strb	r3, [r1, #0]
    14d8:	b2c0      	uxtb	r0, r0
    14da:	4b8b      	ldr	r3, [pc, #556]	; (1708 <adc_init+0x358>)
    14dc:	4798      	blx	r3
    14de:	e7dd      	b.n	149c <adc_init+0xec>
    14e0:	7b34      	ldrb	r4, [r6, #12]
    14e2:	2250      	movs	r2, #80	; 0x50
    14e4:	4987      	ldr	r1, [pc, #540]	; (1704 <adc_init+0x354>)
    14e6:	a802      	add	r0, sp, #8
    14e8:	4b85      	ldr	r3, [pc, #532]	; (1700 <adc_init+0x350>)
    14ea:	4798      	blx	r3
    14ec:	2c13      	cmp	r4, #19
    14ee:	d915      	bls.n	151c <adc_init+0x16c>
    14f0:	89f4      	ldrh	r4, [r6, #14]
    14f2:	2250      	movs	r2, #80	; 0x50
    14f4:	4983      	ldr	r1, [pc, #524]	; (1704 <adc_init+0x354>)
    14f6:	a802      	add	r0, sp, #8
    14f8:	4b81      	ldr	r3, [pc, #516]	; (1700 <adc_init+0x350>)
    14fa:	4798      	blx	r3
    14fc:	2c13      	cmp	r4, #19
    14fe:	d8cd      	bhi.n	149c <adc_init+0xec>
    1500:	00a4      	lsls	r4, r4, #2
    1502:	ab02      	add	r3, sp, #8
    1504:	58e0      	ldr	r0, [r4, r3]
    1506:	a901      	add	r1, sp, #4
    1508:	2300      	movs	r3, #0
    150a:	704b      	strb	r3, [r1, #1]
    150c:	70cb      	strb	r3, [r1, #3]
    150e:	708b      	strb	r3, [r1, #2]
    1510:	3301      	adds	r3, #1
    1512:	700b      	strb	r3, [r1, #0]
    1514:	b2c0      	uxtb	r0, r0
    1516:	4b7c      	ldr	r3, [pc, #496]	; (1708 <adc_init+0x358>)
    1518:	4798      	blx	r3
    151a:	e7bf      	b.n	149c <adc_init+0xec>
    151c:	00a4      	lsls	r4, r4, #2
    151e:	ab02      	add	r3, sp, #8
    1520:	58e0      	ldr	r0, [r4, r3]
    1522:	a901      	add	r1, sp, #4
    1524:	2300      	movs	r3, #0
    1526:	704b      	strb	r3, [r1, #1]
    1528:	70cb      	strb	r3, [r1, #3]
    152a:	708b      	strb	r3, [r1, #2]
    152c:	3301      	adds	r3, #1
    152e:	700b      	strb	r3, [r1, #0]
    1530:	b2c0      	uxtb	r0, r0
    1532:	4b75      	ldr	r3, [pc, #468]	; (1708 <adc_init+0x358>)
    1534:	4798      	blx	r3
    1536:	e7db      	b.n	14f0 <adc_init+0x140>
    1538:	2304      	movs	r3, #4
    153a:	2410      	movs	r4, #16
    153c:	2102      	movs	r1, #2
    153e:	e022      	b.n	1586 <adc_init+0x1d6>
    1540:	7c71      	ldrb	r1, [r6, #17]
    1542:	7c33      	ldrb	r3, [r6, #16]
    1544:	2410      	movs	r4, #16
    1546:	e01e      	b.n	1586 <adc_init+0x1d6>
    1548:	4643      	mov	r3, r8
    154a:	2b02      	cmp	r3, #2
    154c:	d800      	bhi.n	1550 <adc_init+0x1a0>
    154e:	e0c4      	b.n	16da <adc_init+0x32a>
    1550:	2306      	movs	r3, #6
    1552:	2410      	movs	r4, #16
    1554:	2101      	movs	r1, #1
    1556:	e016      	b.n	1586 <adc_init+0x1d6>
    1558:	4643      	mov	r3, r8
    155a:	2b02      	cmp	r3, #2
    155c:	d800      	bhi.n	1560 <adc_init+0x1b0>
    155e:	e0c0      	b.n	16e2 <adc_init+0x332>
    1560:	2308      	movs	r3, #8
    1562:	2410      	movs	r4, #16
    1564:	2100      	movs	r1, #0
    1566:	e00e      	b.n	1586 <adc_init+0x1d6>
    1568:	2300      	movs	r3, #0
    156a:	2430      	movs	r4, #48	; 0x30
    156c:	2100      	movs	r1, #0
    156e:	e00a      	b.n	1586 <adc_init+0x1d6>
    1570:	2300      	movs	r3, #0
    1572:	2420      	movs	r4, #32
    1574:	2100      	movs	r1, #0
    1576:	e006      	b.n	1586 <adc_init+0x1d6>
    1578:	2300      	movs	r3, #0
    157a:	2400      	movs	r4, #0
    157c:	2100      	movs	r1, #0
    157e:	e002      	b.n	1586 <adc_init+0x1d6>
    1580:	2302      	movs	r3, #2
    1582:	2410      	movs	r4, #16
    1584:	2101      	movs	r1, #1
    1586:	0109      	lsls	r1, r1, #4
    1588:	2270      	movs	r2, #112	; 0x70
    158a:	400a      	ands	r2, r1
    158c:	4313      	orrs	r3, r2
    158e:	465a      	mov	r2, fp
    1590:	7093      	strb	r3, [r2, #2]
    1592:	7df3      	ldrb	r3, [r6, #23]
    1594:	2017      	movs	r0, #23
    1596:	2b3f      	cmp	r3, #63	; 0x3f
    1598:	d900      	bls.n	159c <adc_init+0x1ec>
    159a:	e71d      	b.n	13d8 <adc_init+0x28>
    159c:	70d3      	strb	r3, [r2, #3]
    159e:	683a      	ldr	r2, [r7, #0]
    15a0:	7e53      	ldrb	r3, [r2, #25]
    15a2:	b25b      	sxtb	r3, r3
    15a4:	2b00      	cmp	r3, #0
    15a6:	dbfb      	blt.n	15a0 <adc_init+0x1f0>
    15a8:	7cf3      	ldrb	r3, [r6, #19]
    15aa:	8872      	ldrh	r2, [r6, #2]
    15ac:	4313      	orrs	r3, r2
    15ae:	2224      	movs	r2, #36	; 0x24
    15b0:	5cb2      	ldrb	r2, [r6, r2]
    15b2:	00d2      	lsls	r2, r2, #3
    15b4:	4313      	orrs	r3, r2
    15b6:	7d32      	ldrb	r2, [r6, #20]
    15b8:	0092      	lsls	r2, r2, #2
    15ba:	4313      	orrs	r3, r2
    15bc:	7cb2      	ldrb	r2, [r6, #18]
    15be:	0052      	lsls	r2, r2, #1
    15c0:	4313      	orrs	r3, r2
    15c2:	4323      	orrs	r3, r4
    15c4:	465a      	mov	r2, fp
    15c6:	8093      	strh	r3, [r2, #4]
    15c8:	7e33      	ldrb	r3, [r6, #24]
    15ca:	2b00      	cmp	r3, #0
    15cc:	d020      	beq.n	1610 <adc_init+0x260>
    15ce:	2c10      	cmp	r4, #16
    15d0:	d100      	bne.n	15d4 <adc_init+0x224>
    15d2:	e0e2      	b.n	179a <adc_init+0x3ea>
    15d4:	d800      	bhi.n	15d8 <adc_init+0x228>
    15d6:	e0a1      	b.n	171c <adc_init+0x36c>
    15d8:	2c20      	cmp	r4, #32
    15da:	d100      	bne.n	15de <adc_init+0x22e>
    15dc:	e0bf      	b.n	175e <adc_init+0x3ae>
    15de:	2c30      	cmp	r4, #48	; 0x30
    15e0:	d116      	bne.n	1610 <adc_init+0x260>
    15e2:	7cf2      	ldrb	r2, [r6, #19]
    15e4:	2a00      	cmp	r2, #0
    15e6:	d00a      	beq.n	15fe <adc_init+0x24e>
    15e8:	69f2      	ldr	r2, [r6, #28]
    15ea:	3280      	adds	r2, #128	; 0x80
    15ec:	2017      	movs	r0, #23
    15ee:	2aff      	cmp	r2, #255	; 0xff
    15f0:	d900      	bls.n	15f4 <adc_init+0x244>
    15f2:	e6f1      	b.n	13d8 <adc_init+0x28>
    15f4:	6a32      	ldr	r2, [r6, #32]
    15f6:	3280      	adds	r2, #128	; 0x80
    15f8:	2aff      	cmp	r2, #255	; 0xff
    15fa:	d900      	bls.n	15fe <adc_init+0x24e>
    15fc:	e6ec      	b.n	13d8 <adc_init+0x28>
    15fe:	2017      	movs	r0, #23
    1600:	69f2      	ldr	r2, [r6, #28]
    1602:	2aff      	cmp	r2, #255	; 0xff
    1604:	dd00      	ble.n	1608 <adc_init+0x258>
    1606:	e6e7      	b.n	13d8 <adc_init+0x28>
    1608:	6a32      	ldr	r2, [r6, #32]
    160a:	2aff      	cmp	r2, #255	; 0xff
    160c:	dd00      	ble.n	1610 <adc_init+0x260>
    160e:	e6e3      	b.n	13d8 <adc_init+0x28>
    1610:	6839      	ldr	r1, [r7, #0]
    1612:	7e4a      	ldrb	r2, [r1, #25]
    1614:	b252      	sxtb	r2, r2
    1616:	2a00      	cmp	r2, #0
    1618:	dbfb      	blt.n	1612 <adc_init+0x262>
    161a:	465a      	mov	r2, fp
    161c:	7213      	strb	r3, [r2, #8]
    161e:	683a      	ldr	r2, [r7, #0]
    1620:	7e53      	ldrb	r3, [r2, #25]
    1622:	b25b      	sxtb	r3, r3
    1624:	2b00      	cmp	r3, #0
    1626:	dbfb      	blt.n	1620 <adc_init+0x270>
    1628:	8bb3      	ldrh	r3, [r6, #28]
    162a:	465a      	mov	r2, fp
    162c:	8393      	strh	r3, [r2, #28]
    162e:	683a      	ldr	r2, [r7, #0]
    1630:	7e53      	ldrb	r3, [r2, #25]
    1632:	b25b      	sxtb	r3, r3
    1634:	2b00      	cmp	r3, #0
    1636:	dbfb      	blt.n	1630 <adc_init+0x280>
    1638:	8c33      	ldrh	r3, [r6, #32]
    163a:	465a      	mov	r2, fp
    163c:	8413      	strh	r3, [r2, #32]
    163e:	232c      	movs	r3, #44	; 0x2c
    1640:	5cf3      	ldrb	r3, [r6, r3]
    1642:	2b00      	cmp	r3, #0
    1644:	d005      	beq.n	1652 <adc_init+0x2a2>
    1646:	3b01      	subs	r3, #1
    1648:	b2db      	uxtb	r3, r3
    164a:	2017      	movs	r0, #23
    164c:	2b0f      	cmp	r3, #15
    164e:	d900      	bls.n	1652 <adc_init+0x2a2>
    1650:	e6c2      	b.n	13d8 <adc_init+0x28>
    1652:	222b      	movs	r2, #43	; 0x2b
    1654:	5cb1      	ldrb	r1, [r6, r2]
    1656:	2017      	movs	r0, #23
    1658:	290f      	cmp	r1, #15
    165a:	d900      	bls.n	165e <adc_init+0x2ae>
    165c:	e6bc      	b.n	13d8 <adc_init+0x28>
    165e:	6838      	ldr	r0, [r7, #0]
    1660:	7e42      	ldrb	r2, [r0, #25]
    1662:	b252      	sxtb	r2, r2
    1664:	2a00      	cmp	r2, #0
    1666:	dbfb      	blt.n	1660 <adc_init+0x2b0>
    1668:	89f2      	ldrh	r2, [r6, #14]
    166a:	7b30      	ldrb	r0, [r6, #12]
    166c:	4302      	orrs	r2, r0
    166e:	68b0      	ldr	r0, [r6, #8]
    1670:	4302      	orrs	r2, r0
    1672:	0509      	lsls	r1, r1, #20
    1674:	430a      	orrs	r2, r1
    1676:	041b      	lsls	r3, r3, #16
    1678:	4313      	orrs	r3, r2
    167a:	465a      	mov	r2, fp
    167c:	6113      	str	r3, [r2, #16]
    167e:	232a      	movs	r3, #42	; 0x2a
    1680:	5cf3      	ldrb	r3, [r6, r3]
    1682:	7513      	strb	r3, [r2, #20]
    1684:	230f      	movs	r3, #15
    1686:	7593      	strb	r3, [r2, #22]
    1688:	3315      	adds	r3, #21
    168a:	5cf3      	ldrb	r3, [r6, r3]
    168c:	2b00      	cmp	r3, #0
    168e:	d012      	beq.n	16b6 <adc_init+0x306>
    1690:	8cf3      	ldrh	r3, [r6, #38]	; 0x26
    1692:	4a1f      	ldr	r2, [pc, #124]	; (1710 <adc_init+0x360>)
    1694:	2017      	movs	r0, #23
    1696:	4293      	cmp	r3, r2
    1698:	d900      	bls.n	169c <adc_init+0x2ec>
    169a:	e69d      	b.n	13d8 <adc_init+0x28>
    169c:	465a      	mov	r2, fp
    169e:	8493      	strh	r3, [r2, #36]	; 0x24
    16a0:	8d32      	ldrh	r2, [r6, #40]	; 0x28
    16a2:	2380      	movs	r3, #128	; 0x80
    16a4:	011b      	lsls	r3, r3, #4
    16a6:	18d3      	adds	r3, r2, r3
    16a8:	4919      	ldr	r1, [pc, #100]	; (1710 <adc_init+0x360>)
    16aa:	b29b      	uxth	r3, r3
    16ac:	428b      	cmp	r3, r1
    16ae:	d900      	bls.n	16b2 <adc_init+0x302>
    16b0:	e692      	b.n	13d8 <adc_init+0x28>
    16b2:	465b      	mov	r3, fp
    16b4:	84da      	strh	r2, [r3, #38]	; 0x26
    16b6:	4b17      	ldr	r3, [pc, #92]	; (1714 <adc_init+0x364>)
    16b8:	681b      	ldr	r3, [r3, #0]
    16ba:	015b      	lsls	r3, r3, #5
    16bc:	22e0      	movs	r2, #224	; 0xe0
    16be:	00d2      	lsls	r2, r2, #3
    16c0:	4013      	ands	r3, r2
    16c2:	4a15      	ldr	r2, [pc, #84]	; (1718 <adc_init+0x368>)
    16c4:	6851      	ldr	r1, [r2, #4]
    16c6:	0149      	lsls	r1, r1, #5
    16c8:	6812      	ldr	r2, [r2, #0]
    16ca:	0ed2      	lsrs	r2, r2, #27
    16cc:	430a      	orrs	r2, r1
    16ce:	b2d2      	uxtb	r2, r2
    16d0:	4313      	orrs	r3, r2
    16d2:	465a      	mov	r2, fp
    16d4:	8513      	strh	r3, [r2, #40]	; 0x28
    16d6:	2000      	movs	r0, #0
    16d8:	e67e      	b.n	13d8 <adc_init+0x28>
    16da:	2306      	movs	r3, #6
    16dc:	2410      	movs	r4, #16
    16de:	2103      	movs	r1, #3
    16e0:	e751      	b.n	1586 <adc_init+0x1d6>
    16e2:	2308      	movs	r3, #8
    16e4:	2410      	movs	r4, #16
    16e6:	2104      	movs	r1, #4
    16e8:	e74d      	b.n	1586 <adc_init+0x1d6>
    16ea:	46c0      	nop			; (mov r8, r8)
    16ec:	40000400 	.word	0x40000400
    16f0:	40000800 	.word	0x40000800
    16f4:	41002018 	.word	0x41002018
    16f8:	00002ba5 	.word	0x00002ba5
    16fc:	00002b19 	.word	0x00002b19
    1700:	00003285 	.word	0x00003285
    1704:	00003cf8 	.word	0x00003cf8
    1708:	00002ccd 	.word	0x00002ccd
    170c:	00003c24 	.word	0x00003c24
    1710:	00000fff 	.word	0x00000fff
    1714:	00806024 	.word	0x00806024
    1718:	00806020 	.word	0x00806020
    171c:	2c00      	cmp	r4, #0
    171e:	d000      	beq.n	1722 <adc_init+0x372>
    1720:	e776      	b.n	1610 <adc_init+0x260>
    1722:	7cf2      	ldrb	r2, [r6, #19]
    1724:	2a00      	cmp	r2, #0
    1726:	d00f      	beq.n	1748 <adc_init+0x398>
    1728:	69f2      	ldr	r2, [r6, #28]
    172a:	2180      	movs	r1, #128	; 0x80
    172c:	0109      	lsls	r1, r1, #4
    172e:	468c      	mov	ip, r1
    1730:	4462      	add	r2, ip
    1732:	492a      	ldr	r1, [pc, #168]	; (17dc <adc_init+0x42c>)
    1734:	2017      	movs	r0, #23
    1736:	428a      	cmp	r2, r1
    1738:	d900      	bls.n	173c <adc_init+0x38c>
    173a:	e64d      	b.n	13d8 <adc_init+0x28>
    173c:	6a32      	ldr	r2, [r6, #32]
    173e:	4462      	add	r2, ip
    1740:	4926      	ldr	r1, [pc, #152]	; (17dc <adc_init+0x42c>)
    1742:	428a      	cmp	r2, r1
    1744:	d900      	bls.n	1748 <adc_init+0x398>
    1746:	e647      	b.n	13d8 <adc_init+0x28>
    1748:	4a24      	ldr	r2, [pc, #144]	; (17dc <adc_init+0x42c>)
    174a:	2017      	movs	r0, #23
    174c:	69f1      	ldr	r1, [r6, #28]
    174e:	4291      	cmp	r1, r2
    1750:	dd00      	ble.n	1754 <adc_init+0x3a4>
    1752:	e641      	b.n	13d8 <adc_init+0x28>
    1754:	6a31      	ldr	r1, [r6, #32]
    1756:	4291      	cmp	r1, r2
    1758:	dd00      	ble.n	175c <adc_init+0x3ac>
    175a:	e63d      	b.n	13d8 <adc_init+0x28>
    175c:	e758      	b.n	1610 <adc_init+0x260>
    175e:	7cf2      	ldrb	r2, [r6, #19]
    1760:	2a00      	cmp	r2, #0
    1762:	d00f      	beq.n	1784 <adc_init+0x3d4>
    1764:	69f2      	ldr	r2, [r6, #28]
    1766:	2180      	movs	r1, #128	; 0x80
    1768:	0089      	lsls	r1, r1, #2
    176a:	468c      	mov	ip, r1
    176c:	4462      	add	r2, ip
    176e:	491c      	ldr	r1, [pc, #112]	; (17e0 <adc_init+0x430>)
    1770:	2017      	movs	r0, #23
    1772:	428a      	cmp	r2, r1
    1774:	d900      	bls.n	1778 <adc_init+0x3c8>
    1776:	e62f      	b.n	13d8 <adc_init+0x28>
    1778:	6a32      	ldr	r2, [r6, #32]
    177a:	4462      	add	r2, ip
    177c:	4918      	ldr	r1, [pc, #96]	; (17e0 <adc_init+0x430>)
    177e:	428a      	cmp	r2, r1
    1780:	d900      	bls.n	1784 <adc_init+0x3d4>
    1782:	e629      	b.n	13d8 <adc_init+0x28>
    1784:	4a16      	ldr	r2, [pc, #88]	; (17e0 <adc_init+0x430>)
    1786:	2017      	movs	r0, #23
    1788:	69f1      	ldr	r1, [r6, #28]
    178a:	4291      	cmp	r1, r2
    178c:	dd00      	ble.n	1790 <adc_init+0x3e0>
    178e:	e623      	b.n	13d8 <adc_init+0x28>
    1790:	6a31      	ldr	r1, [r6, #32]
    1792:	4291      	cmp	r1, r2
    1794:	dd00      	ble.n	1798 <adc_init+0x3e8>
    1796:	e61f      	b.n	13d8 <adc_init+0x28>
    1798:	e73a      	b.n	1610 <adc_init+0x260>
    179a:	7cf2      	ldrb	r2, [r6, #19]
    179c:	2a00      	cmp	r2, #0
    179e:	d00f      	beq.n	17c0 <adc_init+0x410>
    17a0:	69f2      	ldr	r2, [r6, #28]
    17a2:	2180      	movs	r1, #128	; 0x80
    17a4:	0209      	lsls	r1, r1, #8
    17a6:	468c      	mov	ip, r1
    17a8:	4462      	add	r2, ip
    17aa:	490e      	ldr	r1, [pc, #56]	; (17e4 <adc_init+0x434>)
    17ac:	2017      	movs	r0, #23
    17ae:	428a      	cmp	r2, r1
    17b0:	d900      	bls.n	17b4 <adc_init+0x404>
    17b2:	e611      	b.n	13d8 <adc_init+0x28>
    17b4:	6a32      	ldr	r2, [r6, #32]
    17b6:	4462      	add	r2, ip
    17b8:	490a      	ldr	r1, [pc, #40]	; (17e4 <adc_init+0x434>)
    17ba:	428a      	cmp	r2, r1
    17bc:	d900      	bls.n	17c0 <adc_init+0x410>
    17be:	e60b      	b.n	13d8 <adc_init+0x28>
    17c0:	4a08      	ldr	r2, [pc, #32]	; (17e4 <adc_init+0x434>)
    17c2:	2017      	movs	r0, #23
    17c4:	69f1      	ldr	r1, [r6, #28]
    17c6:	4291      	cmp	r1, r2
    17c8:	dd00      	ble.n	17cc <adc_init+0x41c>
    17ca:	e605      	b.n	13d8 <adc_init+0x28>
    17cc:	6a31      	ldr	r1, [r6, #32]
    17ce:	4291      	cmp	r1, r2
    17d0:	dd00      	ble.n	17d4 <adc_init+0x424>
    17d2:	e601      	b.n	13d8 <adc_init+0x28>
    17d4:	e71c      	b.n	1610 <adc_init+0x260>
    17d6:	2017      	movs	r0, #23
    17d8:	e5fe      	b.n	13d8 <adc_init+0x28>
    17da:	46c0      	nop			; (mov r8, r8)
    17dc:	00000fff 	.word	0x00000fff
    17e0:	000003ff 	.word	0x000003ff
    17e4:	0000ffff 	.word	0x0000ffff

000017e8 <extint_register_callback>:
    17e8:	2317      	movs	r3, #23
    17ea:	2a00      	cmp	r2, #0
    17ec:	d001      	beq.n	17f2 <extint_register_callback+0xa>
    17ee:	0018      	movs	r0, r3
    17f0:	4770      	bx	lr
    17f2:	008b      	lsls	r3, r1, #2
    17f4:	4a06      	ldr	r2, [pc, #24]	; (1810 <extint_register_callback+0x28>)
    17f6:	589b      	ldr	r3, [r3, r2]
    17f8:	2b00      	cmp	r3, #0
    17fa:	d003      	beq.n	1804 <extint_register_callback+0x1c>
    17fc:	4283      	cmp	r3, r0
    17fe:	d005      	beq.n	180c <extint_register_callback+0x24>
    1800:	231d      	movs	r3, #29
    1802:	e7f4      	b.n	17ee <extint_register_callback+0x6>
    1804:	0089      	lsls	r1, r1, #2
    1806:	5088      	str	r0, [r1, r2]
    1808:	2300      	movs	r3, #0
    180a:	e7f0      	b.n	17ee <extint_register_callback+0x6>
    180c:	2300      	movs	r3, #0
    180e:	e7ee      	b.n	17ee <extint_register_callback+0x6>
    1810:	200054e0 	.word	0x200054e0

00001814 <extint_chan_enable_callback>:
    1814:	2317      	movs	r3, #23
    1816:	2900      	cmp	r1, #0
    1818:	d001      	beq.n	181e <extint_chan_enable_callback+0xa>
    181a:	0018      	movs	r0, r3
    181c:	4770      	bx	lr
    181e:	2200      	movs	r2, #0
    1820:	281f      	cmp	r0, #31
    1822:	d800      	bhi.n	1826 <extint_chan_enable_callback+0x12>
    1824:	4a02      	ldr	r2, [pc, #8]	; (1830 <extint_chan_enable_callback+0x1c>)
    1826:	2301      	movs	r3, #1
    1828:	4083      	lsls	r3, r0
    182a:	60d3      	str	r3, [r2, #12]
    182c:	2300      	movs	r3, #0
    182e:	e7f4      	b.n	181a <extint_chan_enable_callback+0x6>
    1830:	40001800 	.word	0x40001800

00001834 <EIC_Handler>:
    1834:	b570      	push	{r4, r5, r6, lr}
    1836:	2200      	movs	r2, #0
    1838:	4b10      	ldr	r3, [pc, #64]	; (187c <EIC_Handler+0x48>)
    183a:	701a      	strb	r2, [r3, #0]
    183c:	2300      	movs	r3, #0
    183e:	4910      	ldr	r1, [pc, #64]	; (1880 <EIC_Handler+0x4c>)
    1840:	251f      	movs	r5, #31
    1842:	4e10      	ldr	r6, [pc, #64]	; (1884 <EIC_Handler+0x50>)
    1844:	4c0d      	ldr	r4, [pc, #52]	; (187c <EIC_Handler+0x48>)
    1846:	e00a      	b.n	185e <EIC_Handler+0x2a>
    1848:	490d      	ldr	r1, [pc, #52]	; (1880 <EIC_Handler+0x4c>)
    184a:	e008      	b.n	185e <EIC_Handler+0x2a>
    184c:	7823      	ldrb	r3, [r4, #0]
    184e:	3301      	adds	r3, #1
    1850:	b2db      	uxtb	r3, r3
    1852:	7023      	strb	r3, [r4, #0]
    1854:	2b0f      	cmp	r3, #15
    1856:	d810      	bhi.n	187a <EIC_Handler+0x46>
    1858:	2100      	movs	r1, #0
    185a:	2b1f      	cmp	r3, #31
    185c:	d9f4      	bls.n	1848 <EIC_Handler+0x14>
    185e:	0028      	movs	r0, r5
    1860:	4018      	ands	r0, r3
    1862:	2201      	movs	r2, #1
    1864:	4082      	lsls	r2, r0
    1866:	6908      	ldr	r0, [r1, #16]
    1868:	4210      	tst	r0, r2
    186a:	d0ef      	beq.n	184c <EIC_Handler+0x18>
    186c:	610a      	str	r2, [r1, #16]
    186e:	009b      	lsls	r3, r3, #2
    1870:	599b      	ldr	r3, [r3, r6]
    1872:	2b00      	cmp	r3, #0
    1874:	d0ea      	beq.n	184c <EIC_Handler+0x18>
    1876:	4798      	blx	r3
    1878:	e7e8      	b.n	184c <EIC_Handler+0x18>
    187a:	bd70      	pop	{r4, r5, r6, pc}
    187c:	200054dc 	.word	0x200054dc
    1880:	40001800 	.word	0x40001800
    1884:	200054e0 	.word	0x200054e0

00001888 <_extint_enable>:
    1888:	4a04      	ldr	r2, [pc, #16]	; (189c <_extint_enable+0x14>)
    188a:	7813      	ldrb	r3, [r2, #0]
    188c:	2102      	movs	r1, #2
    188e:	430b      	orrs	r3, r1
    1890:	7013      	strb	r3, [r2, #0]
    1892:	7853      	ldrb	r3, [r2, #1]
    1894:	b25b      	sxtb	r3, r3
    1896:	2b00      	cmp	r3, #0
    1898:	dbfb      	blt.n	1892 <_extint_enable+0xa>
    189a:	4770      	bx	lr
    189c:	40001800 	.word	0x40001800

000018a0 <_system_extint_init>:
    18a0:	b500      	push	{lr}
    18a2:	b083      	sub	sp, #12
    18a4:	4a12      	ldr	r2, [pc, #72]	; (18f0 <_system_extint_init+0x50>)
    18a6:	6993      	ldr	r3, [r2, #24]
    18a8:	2140      	movs	r1, #64	; 0x40
    18aa:	430b      	orrs	r3, r1
    18ac:	6193      	str	r3, [r2, #24]
    18ae:	a901      	add	r1, sp, #4
    18b0:	2300      	movs	r3, #0
    18b2:	700b      	strb	r3, [r1, #0]
    18b4:	2003      	movs	r0, #3
    18b6:	4b0f      	ldr	r3, [pc, #60]	; (18f4 <_system_extint_init+0x54>)
    18b8:	4798      	blx	r3
    18ba:	2003      	movs	r0, #3
    18bc:	4b0e      	ldr	r3, [pc, #56]	; (18f8 <_system_extint_init+0x58>)
    18be:	4798      	blx	r3
    18c0:	4a0e      	ldr	r2, [pc, #56]	; (18fc <_system_extint_init+0x5c>)
    18c2:	7813      	ldrb	r3, [r2, #0]
    18c4:	2101      	movs	r1, #1
    18c6:	430b      	orrs	r3, r1
    18c8:	7013      	strb	r3, [r2, #0]
    18ca:	7853      	ldrb	r3, [r2, #1]
    18cc:	b25b      	sxtb	r3, r3
    18ce:	2b00      	cmp	r3, #0
    18d0:	dbfb      	blt.n	18ca <_system_extint_init+0x2a>
    18d2:	4b0b      	ldr	r3, [pc, #44]	; (1900 <_system_extint_init+0x60>)
    18d4:	0019      	movs	r1, r3
    18d6:	3140      	adds	r1, #64	; 0x40
    18d8:	2200      	movs	r2, #0
    18da:	c304      	stmia	r3!, {r2}
    18dc:	4299      	cmp	r1, r3
    18de:	d1fc      	bne.n	18da <_system_extint_init+0x3a>
    18e0:	2210      	movs	r2, #16
    18e2:	4b08      	ldr	r3, [pc, #32]	; (1904 <_system_extint_init+0x64>)
    18e4:	601a      	str	r2, [r3, #0]
    18e6:	4b08      	ldr	r3, [pc, #32]	; (1908 <_system_extint_init+0x68>)
    18e8:	4798      	blx	r3
    18ea:	b003      	add	sp, #12
    18ec:	bd00      	pop	{pc}
    18ee:	46c0      	nop			; (mov r8, r8)
    18f0:	40000400 	.word	0x40000400
    18f4:	00002ba5 	.word	0x00002ba5
    18f8:	00002b19 	.word	0x00002b19
    18fc:	40001800 	.word	0x40001800
    1900:	200054e0 	.word	0x200054e0
    1904:	e000e100 	.word	0xe000e100
    1908:	00001889 	.word	0x00001889

0000190c <extint_chan_get_config_defaults>:
    190c:	2300      	movs	r3, #0
    190e:	6003      	str	r3, [r0, #0]
    1910:	6043      	str	r3, [r0, #4]
    1912:	2201      	movs	r2, #1
    1914:	7202      	strb	r2, [r0, #8]
    1916:	7242      	strb	r2, [r0, #9]
    1918:	7283      	strb	r3, [r0, #10]
    191a:	3302      	adds	r3, #2
    191c:	72c3      	strb	r3, [r0, #11]
    191e:	4770      	bx	lr

00001920 <extint_chan_set_config>:
    1920:	b5f0      	push	{r4, r5, r6, r7, lr}
    1922:	b083      	sub	sp, #12
    1924:	0005      	movs	r5, r0
    1926:	000c      	movs	r4, r1
    1928:	a901      	add	r1, sp, #4
    192a:	2300      	movs	r3, #0
    192c:	704b      	strb	r3, [r1, #1]
    192e:	70cb      	strb	r3, [r1, #3]
    1930:	7923      	ldrb	r3, [r4, #4]
    1932:	700b      	strb	r3, [r1, #0]
    1934:	7a23      	ldrb	r3, [r4, #8]
    1936:	708b      	strb	r3, [r1, #2]
    1938:	7820      	ldrb	r0, [r4, #0]
    193a:	4b15      	ldr	r3, [pc, #84]	; (1990 <extint_chan_set_config+0x70>)
    193c:	4798      	blx	r3
    193e:	2000      	movs	r0, #0
    1940:	2d1f      	cmp	r5, #31
    1942:	d800      	bhi.n	1946 <extint_chan_set_config+0x26>
    1944:	4813      	ldr	r0, [pc, #76]	; (1994 <extint_chan_set_config+0x74>)
    1946:	2207      	movs	r2, #7
    1948:	402a      	ands	r2, r5
    194a:	0092      	lsls	r2, r2, #2
    194c:	7ae7      	ldrb	r7, [r4, #11]
    194e:	7aa3      	ldrb	r3, [r4, #10]
    1950:	2b00      	cmp	r3, #0
    1952:	d001      	beq.n	1958 <extint_chan_set_config+0x38>
    1954:	2308      	movs	r3, #8
    1956:	431f      	orrs	r7, r3
    1958:	08eb      	lsrs	r3, r5, #3
    195a:	009b      	lsls	r3, r3, #2
    195c:	18c3      	adds	r3, r0, r3
    195e:	6999      	ldr	r1, [r3, #24]
    1960:	260f      	movs	r6, #15
    1962:	4096      	lsls	r6, r2
    1964:	43b1      	bics	r1, r6
    1966:	4097      	lsls	r7, r2
    1968:	003a      	movs	r2, r7
    196a:	430a      	orrs	r2, r1
    196c:	619a      	str	r2, [r3, #24]
    196e:	7a63      	ldrb	r3, [r4, #9]
    1970:	2b00      	cmp	r3, #0
    1972:	d106      	bne.n	1982 <extint_chan_set_config+0x62>
    1974:	6943      	ldr	r3, [r0, #20]
    1976:	2201      	movs	r2, #1
    1978:	40aa      	lsls	r2, r5
    197a:	4393      	bics	r3, r2
    197c:	6143      	str	r3, [r0, #20]
    197e:	b003      	add	sp, #12
    1980:	bdf0      	pop	{r4, r5, r6, r7, pc}
    1982:	6942      	ldr	r2, [r0, #20]
    1984:	2301      	movs	r3, #1
    1986:	40ab      	lsls	r3, r5
    1988:	4313      	orrs	r3, r2
    198a:	6143      	str	r3, [r0, #20]
    198c:	e7f7      	b.n	197e <extint_chan_set_config+0x5e>
    198e:	46c0      	nop			; (mov r8, r8)
    1990:	00002ccd 	.word	0x00002ccd
    1994:	40001800 	.word	0x40001800

00001998 <tc_register_callback>:
    1998:	1c93      	adds	r3, r2, #2
    199a:	009b      	lsls	r3, r3, #2
    199c:	5019      	str	r1, [r3, r0]
    199e:	2a02      	cmp	r2, #2
    19a0:	d009      	beq.n	19b6 <tc_register_callback+0x1e>
    19a2:	2a03      	cmp	r2, #3
    19a4:	d00c      	beq.n	19c0 <tc_register_callback+0x28>
    19a6:	2301      	movs	r3, #1
    19a8:	4093      	lsls	r3, r2
    19aa:	001a      	movs	r2, r3
    19ac:	7e03      	ldrb	r3, [r0, #24]
    19ae:	4313      	orrs	r3, r2
    19b0:	7603      	strb	r3, [r0, #24]
    19b2:	2000      	movs	r0, #0
    19b4:	4770      	bx	lr
    19b6:	7e03      	ldrb	r3, [r0, #24]
    19b8:	2210      	movs	r2, #16
    19ba:	4313      	orrs	r3, r2
    19bc:	7603      	strb	r3, [r0, #24]
    19be:	e7f8      	b.n	19b2 <tc_register_callback+0x1a>
    19c0:	7e03      	ldrb	r3, [r0, #24]
    19c2:	2220      	movs	r2, #32
    19c4:	4313      	orrs	r3, r2
    19c6:	7603      	strb	r3, [r0, #24]
    19c8:	e7f3      	b.n	19b2 <tc_register_callback+0x1a>
	...

000019cc <_tc_interrupt_handler>:
    19cc:	b570      	push	{r4, r5, r6, lr}
    19ce:	0080      	lsls	r0, r0, #2
    19d0:	4b16      	ldr	r3, [pc, #88]	; (1a2c <_tc_interrupt_handler+0x60>)
    19d2:	58c4      	ldr	r4, [r0, r3]
    19d4:	6823      	ldr	r3, [r4, #0]
    19d6:	7b9d      	ldrb	r5, [r3, #14]
    19d8:	7e22      	ldrb	r2, [r4, #24]
    19da:	7e63      	ldrb	r3, [r4, #25]
    19dc:	4013      	ands	r3, r2
    19de:	401d      	ands	r5, r3
    19e0:	07eb      	lsls	r3, r5, #31
    19e2:	d406      	bmi.n	19f2 <_tc_interrupt_handler+0x26>
    19e4:	07ab      	lsls	r3, r5, #30
    19e6:	d40b      	bmi.n	1a00 <_tc_interrupt_handler+0x34>
    19e8:	06eb      	lsls	r3, r5, #27
    19ea:	d410      	bmi.n	1a0e <_tc_interrupt_handler+0x42>
    19ec:	06ab      	lsls	r3, r5, #26
    19ee:	d415      	bmi.n	1a1c <_tc_interrupt_handler+0x50>
    19f0:	bd70      	pop	{r4, r5, r6, pc}
    19f2:	0020      	movs	r0, r4
    19f4:	68a3      	ldr	r3, [r4, #8]
    19f6:	4798      	blx	r3
    19f8:	2301      	movs	r3, #1
    19fa:	6822      	ldr	r2, [r4, #0]
    19fc:	7393      	strb	r3, [r2, #14]
    19fe:	e7f1      	b.n	19e4 <_tc_interrupt_handler+0x18>
    1a00:	0020      	movs	r0, r4
    1a02:	68e3      	ldr	r3, [r4, #12]
    1a04:	4798      	blx	r3
    1a06:	2302      	movs	r3, #2
    1a08:	6822      	ldr	r2, [r4, #0]
    1a0a:	7393      	strb	r3, [r2, #14]
    1a0c:	e7ec      	b.n	19e8 <_tc_interrupt_handler+0x1c>
    1a0e:	0020      	movs	r0, r4
    1a10:	6923      	ldr	r3, [r4, #16]
    1a12:	4798      	blx	r3
    1a14:	2310      	movs	r3, #16
    1a16:	6822      	ldr	r2, [r4, #0]
    1a18:	7393      	strb	r3, [r2, #14]
    1a1a:	e7e7      	b.n	19ec <_tc_interrupt_handler+0x20>
    1a1c:	0020      	movs	r0, r4
    1a1e:	6963      	ldr	r3, [r4, #20]
    1a20:	4798      	blx	r3
    1a22:	6823      	ldr	r3, [r4, #0]
    1a24:	2220      	movs	r2, #32
    1a26:	739a      	strb	r2, [r3, #14]
    1a28:	e7e2      	b.n	19f0 <_tc_interrupt_handler+0x24>
    1a2a:	46c0      	nop			; (mov r8, r8)
    1a2c:	20005520 	.word	0x20005520

00001a30 <TC0_Handler>:
    1a30:	b510      	push	{r4, lr}
    1a32:	2000      	movs	r0, #0
    1a34:	4b01      	ldr	r3, [pc, #4]	; (1a3c <TC0_Handler+0xc>)
    1a36:	4798      	blx	r3
    1a38:	bd10      	pop	{r4, pc}
    1a3a:	46c0      	nop			; (mov r8, r8)
    1a3c:	000019cd 	.word	0x000019cd

00001a40 <TC1_Handler>:
    1a40:	b510      	push	{r4, lr}
    1a42:	2001      	movs	r0, #1
    1a44:	4b01      	ldr	r3, [pc, #4]	; (1a4c <TC1_Handler+0xc>)
    1a46:	4798      	blx	r3
    1a48:	bd10      	pop	{r4, pc}
    1a4a:	46c0      	nop			; (mov r8, r8)
    1a4c:	000019cd 	.word	0x000019cd

00001a50 <TC2_Handler>:
    1a50:	b510      	push	{r4, lr}
    1a52:	2002      	movs	r0, #2
    1a54:	4b01      	ldr	r3, [pc, #4]	; (1a5c <TC2_Handler+0xc>)
    1a56:	4798      	blx	r3
    1a58:	bd10      	pop	{r4, pc}
    1a5a:	46c0      	nop			; (mov r8, r8)
    1a5c:	000019cd 	.word	0x000019cd

00001a60 <TC3_Handler>:
    1a60:	b510      	push	{r4, lr}
    1a62:	2003      	movs	r0, #3
    1a64:	4b01      	ldr	r3, [pc, #4]	; (1a6c <TC3_Handler+0xc>)
    1a66:	4798      	blx	r3
    1a68:	bd10      	pop	{r4, pc}
    1a6a:	46c0      	nop			; (mov r8, r8)
    1a6c:	000019cd 	.word	0x000019cd

00001a70 <TC4_Handler>:
    1a70:	b510      	push	{r4, lr}
    1a72:	2004      	movs	r0, #4
    1a74:	4b01      	ldr	r3, [pc, #4]	; (1a7c <TC4_Handler+0xc>)
    1a76:	4798      	blx	r3
    1a78:	bd10      	pop	{r4, pc}
    1a7a:	46c0      	nop			; (mov r8, r8)
    1a7c:	000019cd 	.word	0x000019cd

00001a80 <TC5_Handler>:
    1a80:	b510      	push	{r4, lr}
    1a82:	2005      	movs	r0, #5
    1a84:	4b01      	ldr	r3, [pc, #4]	; (1a8c <TC5_Handler+0xc>)
    1a86:	4798      	blx	r3
    1a88:	bd10      	pop	{r4, pc}
    1a8a:	46c0      	nop			; (mov r8, r8)
    1a8c:	000019cd 	.word	0x000019cd

00001a90 <_tc_get_inst_index>:
    1a90:	b530      	push	{r4, r5, lr}
    1a92:	b087      	sub	sp, #28
    1a94:	4b0b      	ldr	r3, [pc, #44]	; (1ac4 <_tc_get_inst_index+0x34>)
    1a96:	466a      	mov	r2, sp
    1a98:	cb32      	ldmia	r3!, {r1, r4, r5}
    1a9a:	c232      	stmia	r2!, {r1, r4, r5}
    1a9c:	cb32      	ldmia	r3!, {r1, r4, r5}
    1a9e:	c232      	stmia	r2!, {r1, r4, r5}
    1aa0:	9b00      	ldr	r3, [sp, #0]
    1aa2:	4298      	cmp	r0, r3
    1aa4:	d00b      	beq.n	1abe <_tc_get_inst_index+0x2e>
    1aa6:	2301      	movs	r3, #1
    1aa8:	009a      	lsls	r2, r3, #2
    1aaa:	4669      	mov	r1, sp
    1aac:	5852      	ldr	r2, [r2, r1]
    1aae:	4282      	cmp	r2, r0
    1ab0:	d006      	beq.n	1ac0 <_tc_get_inst_index+0x30>
    1ab2:	3301      	adds	r3, #1
    1ab4:	2b06      	cmp	r3, #6
    1ab6:	d1f7      	bne.n	1aa8 <_tc_get_inst_index+0x18>
    1ab8:	2000      	movs	r0, #0
    1aba:	b007      	add	sp, #28
    1abc:	bd30      	pop	{r4, r5, pc}
    1abe:	2300      	movs	r3, #0
    1ac0:	b2d8      	uxtb	r0, r3
    1ac2:	e7fa      	b.n	1aba <_tc_get_inst_index+0x2a>
    1ac4:	00003d48 	.word	0x00003d48

00001ac8 <tc_init>:
    1ac8:	b5f0      	push	{r4, r5, r6, r7, lr}
    1aca:	46c6      	mov	lr, r8
    1acc:	b500      	push	{lr}
    1ace:	b088      	sub	sp, #32
    1ad0:	0004      	movs	r4, r0
    1ad2:	000d      	movs	r5, r1
    1ad4:	0016      	movs	r6, r2
    1ad6:	0008      	movs	r0, r1
    1ad8:	4b88      	ldr	r3, [pc, #544]	; (1cfc <tc_init+0x234>)
    1ada:	4798      	blx	r3
    1adc:	4680      	mov	r8, r0
    1ade:	ab06      	add	r3, sp, #24
    1ae0:	2213      	movs	r2, #19
    1ae2:	701a      	strb	r2, [r3, #0]
    1ae4:	705a      	strb	r2, [r3, #1]
    1ae6:	3201      	adds	r2, #1
    1ae8:	709a      	strb	r2, [r3, #2]
    1aea:	70da      	strb	r2, [r3, #3]
    1aec:	3201      	adds	r2, #1
    1aee:	711a      	strb	r2, [r3, #4]
    1af0:	715a      	strb	r2, [r3, #5]
    1af2:	aa03      	add	r2, sp, #12
    1af4:	4b82      	ldr	r3, [pc, #520]	; (1d00 <tc_init+0x238>)
    1af6:	3318      	adds	r3, #24
    1af8:	cb83      	ldmia	r3!, {r0, r1, r7}
    1afa:	c283      	stmia	r2!, {r0, r1, r7}
    1afc:	2300      	movs	r3, #0
    1afe:	60a3      	str	r3, [r4, #8]
    1b00:	60e3      	str	r3, [r4, #12]
    1b02:	6123      	str	r3, [r4, #16]
    1b04:	6163      	str	r3, [r4, #20]
    1b06:	7623      	strb	r3, [r4, #24]
    1b08:	7663      	strb	r3, [r4, #25]
    1b0a:	4643      	mov	r3, r8
    1b0c:	009a      	lsls	r2, r3, #2
    1b0e:	4b7d      	ldr	r3, [pc, #500]	; (1d04 <tc_init+0x23c>)
    1b10:	50d4      	str	r4, [r2, r3]
    1b12:	6025      	str	r5, [r4, #0]
    1b14:	78b3      	ldrb	r3, [r6, #2]
    1b16:	2b08      	cmp	r3, #8
    1b18:	d008      	beq.n	1b2c <tc_init+0x64>
    1b1a:	7123      	strb	r3, [r4, #4]
    1b1c:	882b      	ldrh	r3, [r5, #0]
    1b1e:	2005      	movs	r0, #5
    1b20:	07db      	lsls	r3, r3, #31
    1b22:	d508      	bpl.n	1b36 <tc_init+0x6e>
    1b24:	b008      	add	sp, #32
    1b26:	bc04      	pop	{r2}
    1b28:	4690      	mov	r8, r2
    1b2a:	bdf0      	pop	{r4, r5, r6, r7, pc}
    1b2c:	2017      	movs	r0, #23
    1b2e:	4642      	mov	r2, r8
    1b30:	07d2      	lsls	r2, r2, #31
    1b32:	d4f7      	bmi.n	1b24 <tc_init+0x5c>
    1b34:	e7f1      	b.n	1b1a <tc_init+0x52>
    1b36:	7beb      	ldrb	r3, [r5, #15]
    1b38:	3017      	adds	r0, #23
    1b3a:	06db      	lsls	r3, r3, #27
    1b3c:	d4f2      	bmi.n	1b24 <tc_init+0x5c>
    1b3e:	882b      	ldrh	r3, [r5, #0]
    1b40:	079b      	lsls	r3, r3, #30
    1b42:	d4ef      	bmi.n	1b24 <tc_init+0x5c>
    1b44:	7c33      	ldrb	r3, [r6, #16]
    1b46:	2b00      	cmp	r3, #0
    1b48:	d000      	beq.n	1b4c <tc_init+0x84>
    1b4a:	e07b      	b.n	1c44 <tc_init+0x17c>
    1b4c:	7f33      	ldrb	r3, [r6, #28]
    1b4e:	2b00      	cmp	r3, #0
    1b50:	d000      	beq.n	1b54 <tc_init+0x8c>
    1b52:	e083      	b.n	1c5c <tc_init+0x194>
    1b54:	496c      	ldr	r1, [pc, #432]	; (1d08 <tc_init+0x240>)
    1b56:	6a08      	ldr	r0, [r1, #32]
    1b58:	4643      	mov	r3, r8
    1b5a:	005a      	lsls	r2, r3, #1
    1b5c:	ab03      	add	r3, sp, #12
    1b5e:	5ad3      	ldrh	r3, [r2, r3]
    1b60:	4303      	orrs	r3, r0
    1b62:	620b      	str	r3, [r1, #32]
    1b64:	78b3      	ldrb	r3, [r6, #2]
    1b66:	2b08      	cmp	r3, #8
    1b68:	d100      	bne.n	1b6c <tc_init+0xa4>
    1b6a:	e087      	b.n	1c7c <tc_init+0x1b4>
    1b6c:	a901      	add	r1, sp, #4
    1b6e:	7833      	ldrb	r3, [r6, #0]
    1b70:	700b      	strb	r3, [r1, #0]
    1b72:	ab06      	add	r3, sp, #24
    1b74:	4642      	mov	r2, r8
    1b76:	5c9f      	ldrb	r7, [r3, r2]
    1b78:	0038      	movs	r0, r7
    1b7a:	4b64      	ldr	r3, [pc, #400]	; (1d0c <tc_init+0x244>)
    1b7c:	4798      	blx	r3
    1b7e:	0038      	movs	r0, r7
    1b80:	4b63      	ldr	r3, [pc, #396]	; (1d10 <tc_init+0x248>)
    1b82:	4798      	blx	r3
    1b84:	8931      	ldrh	r1, [r6, #8]
    1b86:	88b3      	ldrh	r3, [r6, #4]
    1b88:	430b      	orrs	r3, r1
    1b8a:	78b1      	ldrb	r1, [r6, #2]
    1b8c:	79b2      	ldrb	r2, [r6, #6]
    1b8e:	4311      	orrs	r1, r2
    1b90:	4319      	orrs	r1, r3
    1b92:	7873      	ldrb	r3, [r6, #1]
    1b94:	2b00      	cmp	r3, #0
    1b96:	d002      	beq.n	1b9e <tc_init+0xd6>
    1b98:	2380      	movs	r3, #128	; 0x80
    1b9a:	011b      	lsls	r3, r3, #4
    1b9c:	4319      	orrs	r1, r3
    1b9e:	6822      	ldr	r2, [r4, #0]
    1ba0:	7bd3      	ldrb	r3, [r2, #15]
    1ba2:	b25b      	sxtb	r3, r3
    1ba4:	2b00      	cmp	r3, #0
    1ba6:	dbfb      	blt.n	1ba0 <tc_init+0xd8>
    1ba8:	8029      	strh	r1, [r5, #0]
    1baa:	7b71      	ldrb	r1, [r6, #13]
    1bac:	1e4b      	subs	r3, r1, #1
    1bae:	4199      	sbcs	r1, r3
    1bb0:	0089      	lsls	r1, r1, #2
    1bb2:	7bb3      	ldrb	r3, [r6, #14]
    1bb4:	2b00      	cmp	r3, #0
    1bb6:	d001      	beq.n	1bbc <tc_init+0xf4>
    1bb8:	2301      	movs	r3, #1
    1bba:	4319      	orrs	r1, r3
    1bbc:	6822      	ldr	r2, [r4, #0]
    1bbe:	7bd3      	ldrb	r3, [r2, #15]
    1bc0:	b25b      	sxtb	r3, r3
    1bc2:	2b00      	cmp	r3, #0
    1bc4:	dbfb      	blt.n	1bbe <tc_init+0xf6>
    1bc6:	23ff      	movs	r3, #255	; 0xff
    1bc8:	712b      	strb	r3, [r5, #4]
    1bca:	2900      	cmp	r1, #0
    1bcc:	d005      	beq.n	1bda <tc_init+0x112>
    1bce:	6822      	ldr	r2, [r4, #0]
    1bd0:	7bd3      	ldrb	r3, [r2, #15]
    1bd2:	b25b      	sxtb	r3, r3
    1bd4:	2b00      	cmp	r3, #0
    1bd6:	dbfb      	blt.n	1bd0 <tc_init+0x108>
    1bd8:	7169      	strb	r1, [r5, #5]
    1bda:	7ab1      	ldrb	r1, [r6, #10]
    1bdc:	7af3      	ldrb	r3, [r6, #11]
    1bde:	2b00      	cmp	r3, #0
    1be0:	d001      	beq.n	1be6 <tc_init+0x11e>
    1be2:	2310      	movs	r3, #16
    1be4:	4319      	orrs	r1, r3
    1be6:	7b33      	ldrb	r3, [r6, #12]
    1be8:	2b00      	cmp	r3, #0
    1bea:	d001      	beq.n	1bf0 <tc_init+0x128>
    1bec:	2320      	movs	r3, #32
    1bee:	4319      	orrs	r1, r3
    1bf0:	6822      	ldr	r2, [r4, #0]
    1bf2:	7bd3      	ldrb	r3, [r2, #15]
    1bf4:	b25b      	sxtb	r3, r3
    1bf6:	2b00      	cmp	r3, #0
    1bf8:	dbfb      	blt.n	1bf2 <tc_init+0x12a>
    1bfa:	71a9      	strb	r1, [r5, #6]
    1bfc:	6822      	ldr	r2, [r4, #0]
    1bfe:	7bd3      	ldrb	r3, [r2, #15]
    1c00:	b25b      	sxtb	r3, r3
    1c02:	2b00      	cmp	r3, #0
    1c04:	dbfb      	blt.n	1bfe <tc_init+0x136>
    1c06:	7923      	ldrb	r3, [r4, #4]
    1c08:	2b04      	cmp	r3, #4
    1c0a:	d040      	beq.n	1c8e <tc_init+0x1c6>
    1c0c:	2b08      	cmp	r3, #8
    1c0e:	d05f      	beq.n	1cd0 <tc_init+0x208>
    1c10:	2017      	movs	r0, #23
    1c12:	2b00      	cmp	r3, #0
    1c14:	d000      	beq.n	1c18 <tc_init+0x150>
    1c16:	e785      	b.n	1b24 <tc_init+0x5c>
    1c18:	7bd3      	ldrb	r3, [r2, #15]
    1c1a:	b25b      	sxtb	r3, r3
    1c1c:	2b00      	cmp	r3, #0
    1c1e:	dbfb      	blt.n	1c18 <tc_init+0x150>
    1c20:	8d33      	ldrh	r3, [r6, #40]	; 0x28
    1c22:	822b      	strh	r3, [r5, #16]
    1c24:	6822      	ldr	r2, [r4, #0]
    1c26:	7bd3      	ldrb	r3, [r2, #15]
    1c28:	b25b      	sxtb	r3, r3
    1c2a:	2b00      	cmp	r3, #0
    1c2c:	dbfb      	blt.n	1c26 <tc_init+0x15e>
    1c2e:	8d73      	ldrh	r3, [r6, #42]	; 0x2a
    1c30:	832b      	strh	r3, [r5, #24]
    1c32:	6822      	ldr	r2, [r4, #0]
    1c34:	7bd3      	ldrb	r3, [r2, #15]
    1c36:	b25b      	sxtb	r3, r3
    1c38:	2b00      	cmp	r3, #0
    1c3a:	dbfb      	blt.n	1c34 <tc_init+0x16c>
    1c3c:	8db3      	ldrh	r3, [r6, #44]	; 0x2c
    1c3e:	836b      	strh	r3, [r5, #26]
    1c40:	2000      	movs	r0, #0
    1c42:	e76f      	b.n	1b24 <tc_init+0x5c>
    1c44:	a902      	add	r1, sp, #8
    1c46:	2301      	movs	r3, #1
    1c48:	708b      	strb	r3, [r1, #2]
    1c4a:	2200      	movs	r2, #0
    1c4c:	70ca      	strb	r2, [r1, #3]
    1c4e:	7e32      	ldrb	r2, [r6, #24]
    1c50:	700a      	strb	r2, [r1, #0]
    1c52:	704b      	strb	r3, [r1, #1]
    1c54:	7d30      	ldrb	r0, [r6, #20]
    1c56:	4b2f      	ldr	r3, [pc, #188]	; (1d14 <tc_init+0x24c>)
    1c58:	4798      	blx	r3
    1c5a:	e777      	b.n	1b4c <tc_init+0x84>
    1c5c:	a902      	add	r1, sp, #8
    1c5e:	2301      	movs	r3, #1
    1c60:	708b      	strb	r3, [r1, #2]
    1c62:	2200      	movs	r2, #0
    1c64:	70ca      	strb	r2, [r1, #3]
    1c66:	3224      	adds	r2, #36	; 0x24
    1c68:	18b2      	adds	r2, r6, r2
    1c6a:	7812      	ldrb	r2, [r2, #0]
    1c6c:	700a      	strb	r2, [r1, #0]
    1c6e:	704b      	strb	r3, [r1, #1]
    1c70:	331f      	adds	r3, #31
    1c72:	18f3      	adds	r3, r6, r3
    1c74:	7818      	ldrb	r0, [r3, #0]
    1c76:	4b27      	ldr	r3, [pc, #156]	; (1d14 <tc_init+0x24c>)
    1c78:	4798      	blx	r3
    1c7a:	e76b      	b.n	1b54 <tc_init+0x8c>
    1c7c:	6a08      	ldr	r0, [r1, #32]
    1c7e:	4643      	mov	r3, r8
    1c80:	1c5a      	adds	r2, r3, #1
    1c82:	0052      	lsls	r2, r2, #1
    1c84:	ab03      	add	r3, sp, #12
    1c86:	5ad3      	ldrh	r3, [r2, r3]
    1c88:	4303      	orrs	r3, r0
    1c8a:	620b      	str	r3, [r1, #32]
    1c8c:	e76e      	b.n	1b6c <tc_init+0xa4>
    1c8e:	7bd3      	ldrb	r3, [r2, #15]
    1c90:	b25b      	sxtb	r3, r3
    1c92:	2b00      	cmp	r3, #0
    1c94:	dbfb      	blt.n	1c8e <tc_init+0x1c6>
    1c96:	2328      	movs	r3, #40	; 0x28
    1c98:	5cf3      	ldrb	r3, [r6, r3]
    1c9a:	742b      	strb	r3, [r5, #16]
    1c9c:	6822      	ldr	r2, [r4, #0]
    1c9e:	7bd3      	ldrb	r3, [r2, #15]
    1ca0:	b25b      	sxtb	r3, r3
    1ca2:	2b00      	cmp	r3, #0
    1ca4:	dbfb      	blt.n	1c9e <tc_init+0x1d6>
    1ca6:	2329      	movs	r3, #41	; 0x29
    1ca8:	5cf3      	ldrb	r3, [r6, r3]
    1caa:	752b      	strb	r3, [r5, #20]
    1cac:	6822      	ldr	r2, [r4, #0]
    1cae:	7bd3      	ldrb	r3, [r2, #15]
    1cb0:	b25b      	sxtb	r3, r3
    1cb2:	2b00      	cmp	r3, #0
    1cb4:	dbfb      	blt.n	1cae <tc_init+0x1e6>
    1cb6:	232a      	movs	r3, #42	; 0x2a
    1cb8:	5cf3      	ldrb	r3, [r6, r3]
    1cba:	762b      	strb	r3, [r5, #24]
    1cbc:	6822      	ldr	r2, [r4, #0]
    1cbe:	7bd3      	ldrb	r3, [r2, #15]
    1cc0:	b25b      	sxtb	r3, r3
    1cc2:	2b00      	cmp	r3, #0
    1cc4:	dbfb      	blt.n	1cbe <tc_init+0x1f6>
    1cc6:	232b      	movs	r3, #43	; 0x2b
    1cc8:	5cf3      	ldrb	r3, [r6, r3]
    1cca:	766b      	strb	r3, [r5, #25]
    1ccc:	2000      	movs	r0, #0
    1cce:	e729      	b.n	1b24 <tc_init+0x5c>
    1cd0:	7bd3      	ldrb	r3, [r2, #15]
    1cd2:	b25b      	sxtb	r3, r3
    1cd4:	2b00      	cmp	r3, #0
    1cd6:	dbfb      	blt.n	1cd0 <tc_init+0x208>
    1cd8:	6ab3      	ldr	r3, [r6, #40]	; 0x28
    1cda:	612b      	str	r3, [r5, #16]
    1cdc:	6822      	ldr	r2, [r4, #0]
    1cde:	7bd3      	ldrb	r3, [r2, #15]
    1ce0:	b25b      	sxtb	r3, r3
    1ce2:	2b00      	cmp	r3, #0
    1ce4:	dbfb      	blt.n	1cde <tc_init+0x216>
    1ce6:	6af3      	ldr	r3, [r6, #44]	; 0x2c
    1ce8:	61ab      	str	r3, [r5, #24]
    1cea:	6822      	ldr	r2, [r4, #0]
    1cec:	7bd3      	ldrb	r3, [r2, #15]
    1cee:	b25b      	sxtb	r3, r3
    1cf0:	2b00      	cmp	r3, #0
    1cf2:	dbfb      	blt.n	1cec <tc_init+0x224>
    1cf4:	6b33      	ldr	r3, [r6, #48]	; 0x30
    1cf6:	61eb      	str	r3, [r5, #28]
    1cf8:	2000      	movs	r0, #0
    1cfa:	e713      	b.n	1b24 <tc_init+0x5c>
    1cfc:	00001a91 	.word	0x00001a91
    1d00:	00003d48 	.word	0x00003d48
    1d04:	20005520 	.word	0x20005520
    1d08:	40000400 	.word	0x40000400
    1d0c:	00002ba5 	.word	0x00002ba5
    1d10:	00002b19 	.word	0x00002b19
    1d14:	00002ccd 	.word	0x00002ccd

00001d18 <wdt_set_config>:
    1d18:	b510      	push	{r4, lr}
    1d1a:	b082      	sub	sp, #8
    1d1c:	0004      	movs	r4, r0
    1d1e:	4a39      	ldr	r2, [pc, #228]	; (1e04 <wdt_set_config+0xec>)
    1d20:	6993      	ldr	r3, [r2, #24]
    1d22:	2110      	movs	r1, #16
    1d24:	430b      	orrs	r3, r1
    1d26:	6193      	str	r3, [r2, #24]
    1d28:	4b37      	ldr	r3, [pc, #220]	; (1e08 <wdt_set_config+0xf0>)
    1d2a:	781b      	ldrb	r3, [r3, #0]
    1d2c:	b25b      	sxtb	r3, r3
    1d2e:	2010      	movs	r0, #16
    1d30:	2b00      	cmp	r3, #0
    1d32:	db03      	blt.n	1d3c <wdt_set_config+0x24>
    1d34:	78e3      	ldrb	r3, [r4, #3]
    1d36:	3007      	adds	r0, #7
    1d38:	2b00      	cmp	r3, #0
    1d3a:	d101      	bne.n	1d40 <wdt_set_config+0x28>
    1d3c:	b002      	add	sp, #8
    1d3e:	bd10      	pop	{r4, pc}
    1d40:	7922      	ldrb	r2, [r4, #4]
    1d42:	429a      	cmp	r2, r3
    1d44:	d8fa      	bhi.n	1d3c <wdt_set_config+0x24>
    1d46:	7962      	ldrb	r2, [r4, #5]
    1d48:	429a      	cmp	r2, r3
    1d4a:	d8f7      	bhi.n	1d3c <wdt_set_config+0x24>
    1d4c:	4a2e      	ldr	r2, [pc, #184]	; (1e08 <wdt_set_config+0xf0>)
    1d4e:	7813      	ldrb	r3, [r2, #0]
    1d50:	390e      	subs	r1, #14
    1d52:	438b      	bics	r3, r1
    1d54:	7013      	strb	r3, [r2, #0]
    1d56:	79d3      	ldrb	r3, [r2, #7]
    1d58:	b25b      	sxtb	r3, r3
    1d5a:	2b00      	cmp	r3, #0
    1d5c:	dbfb      	blt.n	1d56 <wdt_set_config+0x3e>
    1d5e:	7863      	ldrb	r3, [r4, #1]
    1d60:	2000      	movs	r0, #0
    1d62:	2b00      	cmp	r3, #0
    1d64:	d0ea      	beq.n	1d3c <wdt_set_config+0x24>
    1d66:	a901      	add	r1, sp, #4
    1d68:	78a3      	ldrb	r3, [r4, #2]
    1d6a:	700b      	strb	r3, [r1, #0]
    1d6c:	3001      	adds	r0, #1
    1d6e:	4b27      	ldr	r3, [pc, #156]	; (1e0c <wdt_set_config+0xf4>)
    1d70:	4798      	blx	r3
    1d72:	2001      	movs	r0, #1
    1d74:	4b26      	ldr	r3, [pc, #152]	; (1e10 <wdt_set_config+0xf8>)
    1d76:	4798      	blx	r3
    1d78:	7823      	ldrb	r3, [r4, #0]
    1d7a:	2b00      	cmp	r3, #0
    1d7c:	d127      	bne.n	1dce <wdt_set_config+0xb6>
    1d7e:	78e3      	ldrb	r3, [r4, #3]
    1d80:	3b01      	subs	r3, #1
    1d82:	7922      	ldrb	r2, [r4, #4]
    1d84:	2a00      	cmp	r2, #0
    1d86:	d026      	beq.n	1dd6 <wdt_set_config+0xbe>
    1d88:	491f      	ldr	r1, [pc, #124]	; (1e08 <wdt_set_config+0xf0>)
    1d8a:	780a      	ldrb	r2, [r1, #0]
    1d8c:	2004      	movs	r0, #4
    1d8e:	4302      	orrs	r2, r0
    1d90:	700a      	strb	r2, [r1, #0]
    1d92:	7922      	ldrb	r2, [r4, #4]
    1d94:	3a01      	subs	r2, #1
    1d96:	4082      	lsls	r2, r0
    1d98:	4313      	orrs	r3, r2
    1d9a:	491b      	ldr	r1, [pc, #108]	; (1e08 <wdt_set_config+0xf0>)
    1d9c:	79ca      	ldrb	r2, [r1, #7]
    1d9e:	b252      	sxtb	r2, r2
    1da0:	2a00      	cmp	r2, #0
    1da2:	dbfb      	blt.n	1d9c <wdt_set_config+0x84>
    1da4:	b2db      	uxtb	r3, r3
    1da6:	4a18      	ldr	r2, [pc, #96]	; (1e08 <wdt_set_config+0xf0>)
    1da8:	7053      	strb	r3, [r2, #1]
    1daa:	7963      	ldrb	r3, [r4, #5]
    1dac:	2b00      	cmp	r3, #0
    1dae:	d118      	bne.n	1de2 <wdt_set_config+0xca>
    1db0:	7823      	ldrb	r3, [r4, #0]
    1db2:	2b00      	cmp	r3, #0
    1db4:	d01f      	beq.n	1df6 <wdt_set_config+0xde>
    1db6:	4a14      	ldr	r2, [pc, #80]	; (1e08 <wdt_set_config+0xf0>)
    1db8:	7813      	ldrb	r3, [r2, #0]
    1dba:	2180      	movs	r1, #128	; 0x80
    1dbc:	430b      	orrs	r3, r1
    1dbe:	7013      	strb	r3, [r2, #0]
    1dc0:	4a11      	ldr	r2, [pc, #68]	; (1e08 <wdt_set_config+0xf0>)
    1dc2:	79d3      	ldrb	r3, [r2, #7]
    1dc4:	b25b      	sxtb	r3, r3
    1dc6:	2b00      	cmp	r3, #0
    1dc8:	dbfb      	blt.n	1dc2 <wdt_set_config+0xaa>
    1dca:	2000      	movs	r0, #0
    1dcc:	e7b6      	b.n	1d3c <wdt_set_config+0x24>
    1dce:	2001      	movs	r0, #1
    1dd0:	4b10      	ldr	r3, [pc, #64]	; (1e14 <wdt_set_config+0xfc>)
    1dd2:	4798      	blx	r3
    1dd4:	e7d3      	b.n	1d7e <wdt_set_config+0x66>
    1dd6:	490c      	ldr	r1, [pc, #48]	; (1e08 <wdt_set_config+0xf0>)
    1dd8:	780a      	ldrb	r2, [r1, #0]
    1dda:	2004      	movs	r0, #4
    1ddc:	4382      	bics	r2, r0
    1dde:	700a      	strb	r2, [r1, #0]
    1de0:	e7db      	b.n	1d9a <wdt_set_config+0x82>
    1de2:	0011      	movs	r1, r2
    1de4:	79ca      	ldrb	r2, [r1, #7]
    1de6:	b252      	sxtb	r2, r2
    1de8:	2a00      	cmp	r2, #0
    1dea:	dbfb      	blt.n	1de4 <wdt_set_config+0xcc>
    1dec:	3b01      	subs	r3, #1
    1dee:	b2db      	uxtb	r3, r3
    1df0:	4a05      	ldr	r2, [pc, #20]	; (1e08 <wdt_set_config+0xf0>)
    1df2:	7093      	strb	r3, [r2, #2]
    1df4:	e7dc      	b.n	1db0 <wdt_set_config+0x98>
    1df6:	4a04      	ldr	r2, [pc, #16]	; (1e08 <wdt_set_config+0xf0>)
    1df8:	7813      	ldrb	r3, [r2, #0]
    1dfa:	2102      	movs	r1, #2
    1dfc:	430b      	orrs	r3, r1
    1dfe:	7013      	strb	r3, [r2, #0]
    1e00:	e7de      	b.n	1dc0 <wdt_set_config+0xa8>
    1e02:	46c0      	nop			; (mov r8, r8)
    1e04:	40000400 	.word	0x40000400
    1e08:	40001000 	.word	0x40001000
    1e0c:	00002ba5 	.word	0x00002ba5
    1e10:	00002b19 	.word	0x00002b19
    1e14:	00002bc1 	.word	0x00002bc1

00001e18 <wdt_reset_count>:
    1e18:	22a5      	movs	r2, #165	; 0xa5
    1e1a:	4b04      	ldr	r3, [pc, #16]	; (1e2c <wdt_reset_count+0x14>)
    1e1c:	721a      	strb	r2, [r3, #8]
    1e1e:	001a      	movs	r2, r3
    1e20:	79d3      	ldrb	r3, [r2, #7]
    1e22:	b25b      	sxtb	r3, r3
    1e24:	2b00      	cmp	r3, #0
    1e26:	dbfb      	blt.n	1e20 <wdt_reset_count+0x8>
    1e28:	4770      	bx	lr
    1e2a:	46c0      	nop			; (mov r8, r8)
    1e2c:	40001000 	.word	0x40001000

00001e30 <wdt_register_callback>:
    1e30:	2900      	cmp	r1, #0
    1e32:	d001      	beq.n	1e38 <wdt_register_callback+0x8>
    1e34:	2017      	movs	r0, #23
    1e36:	4770      	bx	lr
    1e38:	4b01      	ldr	r3, [pc, #4]	; (1e40 <wdt_register_callback+0x10>)
    1e3a:	6018      	str	r0, [r3, #0]
    1e3c:	2000      	movs	r0, #0
    1e3e:	e7fa      	b.n	1e36 <wdt_register_callback+0x6>
    1e40:	20005538 	.word	0x20005538

00001e44 <wdt_enable_callback>:
    1e44:	2800      	cmp	r0, #0
    1e46:	d001      	beq.n	1e4c <wdt_enable_callback+0x8>
    1e48:	2017      	movs	r0, #23
    1e4a:	4770      	bx	lr
    1e4c:	2201      	movs	r2, #1
    1e4e:	4b03      	ldr	r3, [pc, #12]	; (1e5c <wdt_enable_callback+0x18>)
    1e50:	715a      	strb	r2, [r3, #5]
    1e52:	3203      	adds	r2, #3
    1e54:	4b02      	ldr	r3, [pc, #8]	; (1e60 <wdt_enable_callback+0x1c>)
    1e56:	601a      	str	r2, [r3, #0]
    1e58:	e7f7      	b.n	1e4a <wdt_enable_callback+0x6>
    1e5a:	46c0      	nop			; (mov r8, r8)
    1e5c:	40001000 	.word	0x40001000
    1e60:	e000e100 	.word	0xe000e100

00001e64 <WDT_Handler>:
    1e64:	b510      	push	{r4, lr}
    1e66:	2201      	movs	r2, #1
    1e68:	4b03      	ldr	r3, [pc, #12]	; (1e78 <WDT_Handler+0x14>)
    1e6a:	719a      	strb	r2, [r3, #6]
    1e6c:	4b03      	ldr	r3, [pc, #12]	; (1e7c <WDT_Handler+0x18>)
    1e6e:	681b      	ldr	r3, [r3, #0]
    1e70:	2b00      	cmp	r3, #0
    1e72:	d000      	beq.n	1e76 <WDT_Handler+0x12>
    1e74:	4798      	blx	r3
    1e76:	bd10      	pop	{r4, pc}
    1e78:	40001000 	.word	0x40001000
    1e7c:	20005538 	.word	0x20005538

00001e80 <delay_init>:
    1e80:	b570      	push	{r4, r5, r6, lr}
    1e82:	2000      	movs	r0, #0
    1e84:	4b08      	ldr	r3, [pc, #32]	; (1ea8 <delay_init+0x28>)
    1e86:	4798      	blx	r3
    1e88:	0005      	movs	r5, r0
    1e8a:	4c08      	ldr	r4, [pc, #32]	; (1eac <delay_init+0x2c>)
    1e8c:	21fa      	movs	r1, #250	; 0xfa
    1e8e:	0089      	lsls	r1, r1, #2
    1e90:	47a0      	blx	r4
    1e92:	4b07      	ldr	r3, [pc, #28]	; (1eb0 <delay_init+0x30>)
    1e94:	6018      	str	r0, [r3, #0]
    1e96:	4907      	ldr	r1, [pc, #28]	; (1eb4 <delay_init+0x34>)
    1e98:	0028      	movs	r0, r5
    1e9a:	47a0      	blx	r4
    1e9c:	4b06      	ldr	r3, [pc, #24]	; (1eb8 <delay_init+0x38>)
    1e9e:	6018      	str	r0, [r3, #0]
    1ea0:	2205      	movs	r2, #5
    1ea2:	4b06      	ldr	r3, [pc, #24]	; (1ebc <delay_init+0x3c>)
    1ea4:	601a      	str	r2, [r3, #0]
    1ea6:	bd70      	pop	{r4, r5, r6, pc}
    1ea8:	00002a8d 	.word	0x00002a8d
    1eac:	00002efd 	.word	0x00002efd
    1eb0:	20000000 	.word	0x20000000
    1eb4:	000f4240 	.word	0x000f4240
    1eb8:	20000004 	.word	0x20000004
    1ebc:	e000e010 	.word	0xe000e010

00001ec0 <delay_cycles_ms>:
    1ec0:	b530      	push	{r4, r5, lr}
    1ec2:	4b08      	ldr	r3, [pc, #32]	; (1ee4 <delay_cycles_ms+0x24>)
    1ec4:	681c      	ldr	r4, [r3, #0]
    1ec6:	4a08      	ldr	r2, [pc, #32]	; (1ee8 <delay_cycles_ms+0x28>)
    1ec8:	2500      	movs	r5, #0
    1eca:	2180      	movs	r1, #128	; 0x80
    1ecc:	0249      	lsls	r1, r1, #9
    1ece:	3801      	subs	r0, #1
    1ed0:	d307      	bcc.n	1ee2 <delay_cycles_ms+0x22>
    1ed2:	2c00      	cmp	r4, #0
    1ed4:	d0fb      	beq.n	1ece <delay_cycles_ms+0xe>
    1ed6:	6054      	str	r4, [r2, #4]
    1ed8:	6095      	str	r5, [r2, #8]
    1eda:	6813      	ldr	r3, [r2, #0]
    1edc:	420b      	tst	r3, r1
    1ede:	d0fc      	beq.n	1eda <delay_cycles_ms+0x1a>
    1ee0:	e7f5      	b.n	1ece <delay_cycles_ms+0xe>
    1ee2:	bd30      	pop	{r4, r5, pc}
    1ee4:	20000000 	.word	0x20000000
    1ee8:	e000e010 	.word	0xe000e010

00001eec <cpu_irq_enter_critical>:
    1eec:	4b0c      	ldr	r3, [pc, #48]	; (1f20 <cpu_irq_enter_critical+0x34>)
    1eee:	681b      	ldr	r3, [r3, #0]
    1ef0:	2b00      	cmp	r3, #0
    1ef2:	d106      	bne.n	1f02 <cpu_irq_enter_critical+0x16>
    1ef4:	f3ef 8310 	mrs	r3, PRIMASK
    1ef8:	2b00      	cmp	r3, #0
    1efa:	d007      	beq.n	1f0c <cpu_irq_enter_critical+0x20>
    1efc:	2200      	movs	r2, #0
    1efe:	4b09      	ldr	r3, [pc, #36]	; (1f24 <cpu_irq_enter_critical+0x38>)
    1f00:	701a      	strb	r2, [r3, #0]
    1f02:	4a07      	ldr	r2, [pc, #28]	; (1f20 <cpu_irq_enter_critical+0x34>)
    1f04:	6813      	ldr	r3, [r2, #0]
    1f06:	3301      	adds	r3, #1
    1f08:	6013      	str	r3, [r2, #0]
    1f0a:	4770      	bx	lr
    1f0c:	b672      	cpsid	i
    1f0e:	f3bf 8f5f 	dmb	sy
    1f12:	2200      	movs	r2, #0
    1f14:	4b04      	ldr	r3, [pc, #16]	; (1f28 <cpu_irq_enter_critical+0x3c>)
    1f16:	701a      	strb	r2, [r3, #0]
    1f18:	3201      	adds	r2, #1
    1f1a:	4b02      	ldr	r3, [pc, #8]	; (1f24 <cpu_irq_enter_critical+0x38>)
    1f1c:	701a      	strb	r2, [r3, #0]
    1f1e:	e7f0      	b.n	1f02 <cpu_irq_enter_critical+0x16>
    1f20:	200000b8 	.word	0x200000b8
    1f24:	200000bc 	.word	0x200000bc
    1f28:	20000008 	.word	0x20000008

00001f2c <cpu_irq_leave_critical>:
    1f2c:	4b08      	ldr	r3, [pc, #32]	; (1f50 <cpu_irq_leave_critical+0x24>)
    1f2e:	681a      	ldr	r2, [r3, #0]
    1f30:	3a01      	subs	r2, #1
    1f32:	601a      	str	r2, [r3, #0]
    1f34:	681b      	ldr	r3, [r3, #0]
    1f36:	2b00      	cmp	r3, #0
    1f38:	d109      	bne.n	1f4e <cpu_irq_leave_critical+0x22>
    1f3a:	4b06      	ldr	r3, [pc, #24]	; (1f54 <cpu_irq_leave_critical+0x28>)
    1f3c:	781b      	ldrb	r3, [r3, #0]
    1f3e:	2b00      	cmp	r3, #0
    1f40:	d005      	beq.n	1f4e <cpu_irq_leave_critical+0x22>
    1f42:	2201      	movs	r2, #1
    1f44:	4b04      	ldr	r3, [pc, #16]	; (1f58 <cpu_irq_leave_critical+0x2c>)
    1f46:	701a      	strb	r2, [r3, #0]
    1f48:	f3bf 8f5f 	dmb	sy
    1f4c:	b662      	cpsie	i
    1f4e:	4770      	bx	lr
    1f50:	200000b8 	.word	0x200000b8
    1f54:	200000bc 	.word	0x200000bc
    1f58:	20000008 	.word	0x20000008

00001f5c <system_board_init>:
    1f5c:	4770      	bx	lr
	...

00001f60 <port_pin_set_config>:
    1f60:	b500      	push	{lr}
    1f62:	b083      	sub	sp, #12
    1f64:	ab01      	add	r3, sp, #4
    1f66:	2280      	movs	r2, #128	; 0x80
    1f68:	701a      	strb	r2, [r3, #0]
    1f6a:	780a      	ldrb	r2, [r1, #0]
    1f6c:	705a      	strb	r2, [r3, #1]
    1f6e:	784a      	ldrb	r2, [r1, #1]
    1f70:	709a      	strb	r2, [r3, #2]
    1f72:	788a      	ldrb	r2, [r1, #2]
    1f74:	70da      	strb	r2, [r3, #3]
    1f76:	0019      	movs	r1, r3
    1f78:	4b01      	ldr	r3, [pc, #4]	; (1f80 <port_pin_set_config+0x20>)
    1f7a:	4798      	blx	r3
    1f7c:	b003      	add	sp, #12
    1f7e:	bd00      	pop	{pc}
    1f80:	00002ccd 	.word	0x00002ccd

00001f84 <long_division>:
    1f84:	b5f0      	push	{r4, r5, r6, r7, lr}
    1f86:	46de      	mov	lr, fp
    1f88:	4657      	mov	r7, sl
    1f8a:	464e      	mov	r6, r9
    1f8c:	4645      	mov	r5, r8
    1f8e:	b5e0      	push	{r5, r6, r7, lr}
    1f90:	b087      	sub	sp, #28
    1f92:	4680      	mov	r8, r0
    1f94:	9104      	str	r1, [sp, #16]
    1f96:	0016      	movs	r6, r2
    1f98:	001f      	movs	r7, r3
    1f9a:	2200      	movs	r2, #0
    1f9c:	2300      	movs	r3, #0
    1f9e:	2100      	movs	r1, #0
    1fa0:	468b      	mov	fp, r1
    1fa2:	243f      	movs	r4, #63	; 0x3f
    1fa4:	2001      	movs	r0, #1
    1fa6:	0021      	movs	r1, r4
    1fa8:	9600      	str	r6, [sp, #0]
    1faa:	9701      	str	r7, [sp, #4]
    1fac:	465c      	mov	r4, fp
    1fae:	9403      	str	r4, [sp, #12]
    1fb0:	4644      	mov	r4, r8
    1fb2:	9405      	str	r4, [sp, #20]
    1fb4:	e013      	b.n	1fde <long_division+0x5a>
    1fb6:	2420      	movs	r4, #32
    1fb8:	1a64      	subs	r4, r4, r1
    1fba:	0005      	movs	r5, r0
    1fbc:	40e5      	lsrs	r5, r4
    1fbe:	46a8      	mov	r8, r5
    1fc0:	e014      	b.n	1fec <long_division+0x68>
    1fc2:	9c00      	ldr	r4, [sp, #0]
    1fc4:	9d01      	ldr	r5, [sp, #4]
    1fc6:	1b12      	subs	r2, r2, r4
    1fc8:	41ab      	sbcs	r3, r5
    1fca:	465c      	mov	r4, fp
    1fcc:	464d      	mov	r5, r9
    1fce:	432c      	orrs	r4, r5
    1fd0:	46a3      	mov	fp, r4
    1fd2:	9c03      	ldr	r4, [sp, #12]
    1fd4:	4645      	mov	r5, r8
    1fd6:	432c      	orrs	r4, r5
    1fd8:	9403      	str	r4, [sp, #12]
    1fda:	3901      	subs	r1, #1
    1fdc:	d325      	bcc.n	202a <STACK_SIZE+0x2a>
    1fde:	2420      	movs	r4, #32
    1fe0:	4264      	negs	r4, r4
    1fe2:	190c      	adds	r4, r1, r4
    1fe4:	d4e7      	bmi.n	1fb6 <long_division+0x32>
    1fe6:	0005      	movs	r5, r0
    1fe8:	40a5      	lsls	r5, r4
    1fea:	46a8      	mov	r8, r5
    1fec:	0004      	movs	r4, r0
    1fee:	408c      	lsls	r4, r1
    1ff0:	46a1      	mov	r9, r4
    1ff2:	1892      	adds	r2, r2, r2
    1ff4:	415b      	adcs	r3, r3
    1ff6:	0014      	movs	r4, r2
    1ff8:	001d      	movs	r5, r3
    1ffa:	9e05      	ldr	r6, [sp, #20]
    1ffc:	464f      	mov	r7, r9
    1ffe:	403e      	ands	r6, r7
    2000:	46b4      	mov	ip, r6
    2002:	9e04      	ldr	r6, [sp, #16]
    2004:	4647      	mov	r7, r8
    2006:	403e      	ands	r6, r7
    2008:	46b2      	mov	sl, r6
    200a:	4666      	mov	r6, ip
    200c:	4657      	mov	r7, sl
    200e:	433e      	orrs	r6, r7
    2010:	d003      	beq.n	201a <STACK_SIZE+0x1a>
    2012:	0006      	movs	r6, r0
    2014:	4326      	orrs	r6, r4
    2016:	0032      	movs	r2, r6
    2018:	002b      	movs	r3, r5
    201a:	9c00      	ldr	r4, [sp, #0]
    201c:	9d01      	ldr	r5, [sp, #4]
    201e:	429d      	cmp	r5, r3
    2020:	d8db      	bhi.n	1fda <long_division+0x56>
    2022:	d1ce      	bne.n	1fc2 <long_division+0x3e>
    2024:	4294      	cmp	r4, r2
    2026:	d8d8      	bhi.n	1fda <long_division+0x56>
    2028:	e7cb      	b.n	1fc2 <long_division+0x3e>
    202a:	9b03      	ldr	r3, [sp, #12]
    202c:	4658      	mov	r0, fp
    202e:	0019      	movs	r1, r3
    2030:	b007      	add	sp, #28
    2032:	bc3c      	pop	{r2, r3, r4, r5}
    2034:	4690      	mov	r8, r2
    2036:	4699      	mov	r9, r3
    2038:	46a2      	mov	sl, r4
    203a:	46ab      	mov	fp, r5
    203c:	bdf0      	pop	{r4, r5, r6, r7, pc}

0000203e <_sercom_get_sync_baud_val>:
    203e:	b510      	push	{r4, lr}
    2040:	0849      	lsrs	r1, r1, #1
    2042:	2340      	movs	r3, #64	; 0x40
    2044:	2400      	movs	r4, #0
    2046:	4281      	cmp	r1, r0
    2048:	d202      	bcs.n	2050 <_sercom_get_sync_baud_val+0x12>
    204a:	0018      	movs	r0, r3
    204c:	bd10      	pop	{r4, pc}
    204e:	001c      	movs	r4, r3
    2050:	1a09      	subs	r1, r1, r0
    2052:	1c63      	adds	r3, r4, #1
    2054:	b29b      	uxth	r3, r3
    2056:	4288      	cmp	r0, r1
    2058:	d9f9      	bls.n	204e <_sercom_get_sync_baud_val+0x10>
    205a:	2340      	movs	r3, #64	; 0x40
    205c:	2cff      	cmp	r4, #255	; 0xff
    205e:	d8f4      	bhi.n	204a <_sercom_get_sync_baud_val+0xc>
    2060:	8014      	strh	r4, [r2, #0]
    2062:	2300      	movs	r3, #0
    2064:	e7f1      	b.n	204a <_sercom_get_sync_baud_val+0xc>
	...

00002068 <_sercom_get_async_baud_val>:
    2068:	b5f0      	push	{r4, r5, r6, r7, lr}
    206a:	b083      	sub	sp, #12
    206c:	000f      	movs	r7, r1
    206e:	0016      	movs	r6, r2
    2070:	aa08      	add	r2, sp, #32
    2072:	7811      	ldrb	r1, [r2, #0]
    2074:	0004      	movs	r4, r0
    2076:	434c      	muls	r4, r1
    2078:	2240      	movs	r2, #64	; 0x40
    207a:	42bc      	cmp	r4, r7
    207c:	d902      	bls.n	2084 <_sercom_get_async_baud_val+0x1c>
    207e:	0010      	movs	r0, r2
    2080:	b003      	add	sp, #12
    2082:	bdf0      	pop	{r4, r5, r6, r7, pc}
    2084:	2b00      	cmp	r3, #0
    2086:	d114      	bne.n	20b2 <_sercom_get_async_baud_val+0x4a>
    2088:	0002      	movs	r2, r0
    208a:	0008      	movs	r0, r1
    208c:	2100      	movs	r1, #0
    208e:	4c19      	ldr	r4, [pc, #100]	; (20f4 <_sercom_get_async_baud_val+0x8c>)
    2090:	47a0      	blx	r4
    2092:	0001      	movs	r1, r0
    2094:	003a      	movs	r2, r7
    2096:	2300      	movs	r3, #0
    2098:	2000      	movs	r0, #0
    209a:	4c17      	ldr	r4, [pc, #92]	; (20f8 <_sercom_get_async_baud_val+0x90>)
    209c:	47a0      	blx	r4
    209e:	2200      	movs	r2, #0
    20a0:	2301      	movs	r3, #1
    20a2:	1a12      	subs	r2, r2, r0
    20a4:	418b      	sbcs	r3, r1
    20a6:	0c12      	lsrs	r2, r2, #16
    20a8:	041b      	lsls	r3, r3, #16
    20aa:	431a      	orrs	r2, r3
    20ac:	8032      	strh	r2, [r6, #0]
    20ae:	2200      	movs	r2, #0
    20b0:	e7e5      	b.n	207e <_sercom_get_async_baud_val+0x16>
    20b2:	2200      	movs	r2, #0
    20b4:	2b01      	cmp	r3, #1
    20b6:	d1f9      	bne.n	20ac <_sercom_get_async_baud_val+0x44>
    20b8:	000a      	movs	r2, r1
    20ba:	2300      	movs	r3, #0
    20bc:	2100      	movs	r1, #0
    20be:	4c0d      	ldr	r4, [pc, #52]	; (20f4 <_sercom_get_async_baud_val+0x8c>)
    20c0:	47a0      	blx	r4
    20c2:	0002      	movs	r2, r0
    20c4:	000b      	movs	r3, r1
    20c6:	9200      	str	r2, [sp, #0]
    20c8:	9301      	str	r3, [sp, #4]
    20ca:	0038      	movs	r0, r7
    20cc:	2100      	movs	r1, #0
    20ce:	4c0a      	ldr	r4, [pc, #40]	; (20f8 <_sercom_get_async_baud_val+0x90>)
    20d0:	47a0      	blx	r4
    20d2:	0005      	movs	r5, r0
    20d4:	2380      	movs	r3, #128	; 0x80
    20d6:	019b      	lsls	r3, r3, #6
    20d8:	2240      	movs	r2, #64	; 0x40
    20da:	4298      	cmp	r0, r3
    20dc:	d8cf      	bhi.n	207e <_sercom_get_async_baud_val+0x16>
    20de:	0f79      	lsrs	r1, r7, #29
    20e0:	00f8      	lsls	r0, r7, #3
    20e2:	9a00      	ldr	r2, [sp, #0]
    20e4:	9b01      	ldr	r3, [sp, #4]
    20e6:	47a0      	blx	r4
    20e8:	00ea      	lsls	r2, r5, #3
    20ea:	1a82      	subs	r2, r0, r2
    20ec:	b2d2      	uxtb	r2, r2
    20ee:	0352      	lsls	r2, r2, #13
    20f0:	432a      	orrs	r2, r5
    20f2:	e7db      	b.n	20ac <_sercom_get_async_baud_val+0x44>
    20f4:	000031e9 	.word	0x000031e9
    20f8:	00001f85 	.word	0x00001f85

000020fc <sercom_set_gclk_generator>:
    20fc:	b510      	push	{r4, lr}
    20fe:	b082      	sub	sp, #8
    2100:	0004      	movs	r4, r0
    2102:	4b0e      	ldr	r3, [pc, #56]	; (213c <sercom_set_gclk_generator+0x40>)
    2104:	781b      	ldrb	r3, [r3, #0]
    2106:	2b00      	cmp	r3, #0
    2108:	d007      	beq.n	211a <sercom_set_gclk_generator+0x1e>
    210a:	2900      	cmp	r1, #0
    210c:	d105      	bne.n	211a <sercom_set_gclk_generator+0x1e>
    210e:	4b0b      	ldr	r3, [pc, #44]	; (213c <sercom_set_gclk_generator+0x40>)
    2110:	785b      	ldrb	r3, [r3, #1]
    2112:	4283      	cmp	r3, r0
    2114:	d010      	beq.n	2138 <sercom_set_gclk_generator+0x3c>
    2116:	201d      	movs	r0, #29
    2118:	e00c      	b.n	2134 <sercom_set_gclk_generator+0x38>
    211a:	a901      	add	r1, sp, #4
    211c:	700c      	strb	r4, [r1, #0]
    211e:	200c      	movs	r0, #12
    2120:	4b07      	ldr	r3, [pc, #28]	; (2140 <sercom_set_gclk_generator+0x44>)
    2122:	4798      	blx	r3
    2124:	200c      	movs	r0, #12
    2126:	4b07      	ldr	r3, [pc, #28]	; (2144 <sercom_set_gclk_generator+0x48>)
    2128:	4798      	blx	r3
    212a:	4b04      	ldr	r3, [pc, #16]	; (213c <sercom_set_gclk_generator+0x40>)
    212c:	705c      	strb	r4, [r3, #1]
    212e:	2201      	movs	r2, #1
    2130:	701a      	strb	r2, [r3, #0]
    2132:	2000      	movs	r0, #0
    2134:	b002      	add	sp, #8
    2136:	bd10      	pop	{r4, pc}
    2138:	2000      	movs	r0, #0
    213a:	e7fb      	b.n	2134 <sercom_set_gclk_generator+0x38>
    213c:	200000c0 	.word	0x200000c0
    2140:	00002ba5 	.word	0x00002ba5
    2144:	00002b19 	.word	0x00002b19

00002148 <_sercom_get_default_pad>:
    2148:	4b2b      	ldr	r3, [pc, #172]	; (21f8 <_sercom_get_default_pad+0xb0>)
    214a:	4298      	cmp	r0, r3
    214c:	d023      	beq.n	2196 <_sercom_get_default_pad+0x4e>
    214e:	d90f      	bls.n	2170 <_sercom_get_default_pad+0x28>
    2150:	4b2a      	ldr	r3, [pc, #168]	; (21fc <_sercom_get_default_pad+0xb4>)
    2152:	4298      	cmp	r0, r3
    2154:	d02f      	beq.n	21b6 <_sercom_get_default_pad+0x6e>
    2156:	4b2a      	ldr	r3, [pc, #168]	; (2200 <_sercom_get_default_pad+0xb8>)
    2158:	4298      	cmp	r0, r3
    215a:	d142      	bne.n	21e2 <_sercom_get_default_pad+0x9a>
    215c:	2901      	cmp	r1, #1
    215e:	d03a      	beq.n	21d6 <_sercom_get_default_pad+0x8e>
    2160:	2900      	cmp	r1, #0
    2162:	d046      	beq.n	21f2 <_sercom_get_default_pad+0xaa>
    2164:	2902      	cmp	r1, #2
    2166:	d038      	beq.n	21da <_sercom_get_default_pad+0x92>
    2168:	2903      	cmp	r1, #3
    216a:	d038      	beq.n	21de <_sercom_get_default_pad+0x96>
    216c:	2000      	movs	r0, #0
    216e:	e039      	b.n	21e4 <_sercom_get_default_pad+0x9c>
    2170:	4b24      	ldr	r3, [pc, #144]	; (2204 <_sercom_get_default_pad+0xbc>)
    2172:	4298      	cmp	r0, r3
    2174:	d135      	bne.n	21e2 <_sercom_get_default_pad+0x9a>
    2176:	2901      	cmp	r1, #1
    2178:	d007      	beq.n	218a <_sercom_get_default_pad+0x42>
    217a:	2900      	cmp	r1, #0
    217c:	d033      	beq.n	21e6 <_sercom_get_default_pad+0x9e>
    217e:	2902      	cmp	r1, #2
    2180:	d005      	beq.n	218e <_sercom_get_default_pad+0x46>
    2182:	2903      	cmp	r1, #3
    2184:	d005      	beq.n	2192 <_sercom_get_default_pad+0x4a>
    2186:	2000      	movs	r0, #0
    2188:	e02c      	b.n	21e4 <_sercom_get_default_pad+0x9c>
    218a:	481f      	ldr	r0, [pc, #124]	; (2208 <_sercom_get_default_pad+0xc0>)
    218c:	e02a      	b.n	21e4 <_sercom_get_default_pad+0x9c>
    218e:	481f      	ldr	r0, [pc, #124]	; (220c <_sercom_get_default_pad+0xc4>)
    2190:	e028      	b.n	21e4 <_sercom_get_default_pad+0x9c>
    2192:	481f      	ldr	r0, [pc, #124]	; (2210 <_sercom_get_default_pad+0xc8>)
    2194:	e026      	b.n	21e4 <_sercom_get_default_pad+0x9c>
    2196:	2901      	cmp	r1, #1
    2198:	d007      	beq.n	21aa <_sercom_get_default_pad+0x62>
    219a:	2900      	cmp	r1, #0
    219c:	d025      	beq.n	21ea <_sercom_get_default_pad+0xa2>
    219e:	2902      	cmp	r1, #2
    21a0:	d005      	beq.n	21ae <_sercom_get_default_pad+0x66>
    21a2:	2903      	cmp	r1, #3
    21a4:	d005      	beq.n	21b2 <_sercom_get_default_pad+0x6a>
    21a6:	2000      	movs	r0, #0
    21a8:	e01c      	b.n	21e4 <_sercom_get_default_pad+0x9c>
    21aa:	481a      	ldr	r0, [pc, #104]	; (2214 <_sercom_get_default_pad+0xcc>)
    21ac:	e01a      	b.n	21e4 <_sercom_get_default_pad+0x9c>
    21ae:	481a      	ldr	r0, [pc, #104]	; (2218 <_sercom_get_default_pad+0xd0>)
    21b0:	e018      	b.n	21e4 <_sercom_get_default_pad+0x9c>
    21b2:	481a      	ldr	r0, [pc, #104]	; (221c <_sercom_get_default_pad+0xd4>)
    21b4:	e016      	b.n	21e4 <_sercom_get_default_pad+0x9c>
    21b6:	2901      	cmp	r1, #1
    21b8:	d007      	beq.n	21ca <_sercom_get_default_pad+0x82>
    21ba:	2900      	cmp	r1, #0
    21bc:	d017      	beq.n	21ee <_sercom_get_default_pad+0xa6>
    21be:	2902      	cmp	r1, #2
    21c0:	d005      	beq.n	21ce <_sercom_get_default_pad+0x86>
    21c2:	2903      	cmp	r1, #3
    21c4:	d005      	beq.n	21d2 <_sercom_get_default_pad+0x8a>
    21c6:	2000      	movs	r0, #0
    21c8:	e00c      	b.n	21e4 <_sercom_get_default_pad+0x9c>
    21ca:	4815      	ldr	r0, [pc, #84]	; (2220 <_sercom_get_default_pad+0xd8>)
    21cc:	e00a      	b.n	21e4 <_sercom_get_default_pad+0x9c>
    21ce:	4815      	ldr	r0, [pc, #84]	; (2224 <_sercom_get_default_pad+0xdc>)
    21d0:	e008      	b.n	21e4 <_sercom_get_default_pad+0x9c>
    21d2:	4815      	ldr	r0, [pc, #84]	; (2228 <_sercom_get_default_pad+0xe0>)
    21d4:	e006      	b.n	21e4 <_sercom_get_default_pad+0x9c>
    21d6:	4815      	ldr	r0, [pc, #84]	; (222c <_sercom_get_default_pad+0xe4>)
    21d8:	e004      	b.n	21e4 <_sercom_get_default_pad+0x9c>
    21da:	4815      	ldr	r0, [pc, #84]	; (2230 <_sercom_get_default_pad+0xe8>)
    21dc:	e002      	b.n	21e4 <_sercom_get_default_pad+0x9c>
    21de:	4815      	ldr	r0, [pc, #84]	; (2234 <_sercom_get_default_pad+0xec>)
    21e0:	e000      	b.n	21e4 <_sercom_get_default_pad+0x9c>
    21e2:	2000      	movs	r0, #0
    21e4:	4770      	bx	lr
    21e6:	4814      	ldr	r0, [pc, #80]	; (2238 <_sercom_get_default_pad+0xf0>)
    21e8:	e7fc      	b.n	21e4 <_sercom_get_default_pad+0x9c>
    21ea:	2003      	movs	r0, #3
    21ec:	e7fa      	b.n	21e4 <_sercom_get_default_pad+0x9c>
    21ee:	4813      	ldr	r0, [pc, #76]	; (223c <_sercom_get_default_pad+0xf4>)
    21f0:	e7f8      	b.n	21e4 <_sercom_get_default_pad+0x9c>
    21f2:	4813      	ldr	r0, [pc, #76]	; (2240 <_sercom_get_default_pad+0xf8>)
    21f4:	e7f6      	b.n	21e4 <_sercom_get_default_pad+0x9c>
    21f6:	46c0      	nop			; (mov r8, r8)
    21f8:	42000c00 	.word	0x42000c00
    21fc:	42001000 	.word	0x42001000
    2200:	42001400 	.word	0x42001400
    2204:	42000800 	.word	0x42000800
    2208:	00050003 	.word	0x00050003
    220c:	00060003 	.word	0x00060003
    2210:	00070003 	.word	0x00070003
    2214:	00010003 	.word	0x00010003
    2218:	001e0003 	.word	0x001e0003
    221c:	001f0003 	.word	0x001f0003
    2220:	00090003 	.word	0x00090003
    2224:	000a0003 	.word	0x000a0003
    2228:	000b0003 	.word	0x000b0003
    222c:	00110003 	.word	0x00110003
    2230:	00120003 	.word	0x00120003
    2234:	00130003 	.word	0x00130003
    2238:	00040003 	.word	0x00040003
    223c:	00080003 	.word	0x00080003
    2240:	00100003 	.word	0x00100003

00002244 <_sercom_get_sercom_inst_index>:
    2244:	b530      	push	{r4, r5, lr}
    2246:	b085      	sub	sp, #20
    2248:	466a      	mov	r2, sp
    224a:	4b0f      	ldr	r3, [pc, #60]	; (2288 <_sercom_get_sercom_inst_index+0x44>)
    224c:	cb32      	ldmia	r3!, {r1, r4, r5}
    224e:	c232      	stmia	r2!, {r1, r4, r5}
    2250:	681b      	ldr	r3, [r3, #0]
    2252:	6013      	str	r3, [r2, #0]
    2254:	0003      	movs	r3, r0
    2256:	9a00      	ldr	r2, [sp, #0]
    2258:	4282      	cmp	r2, r0
    225a:	d011      	beq.n	2280 <_sercom_get_sercom_inst_index+0x3c>
    225c:	9a01      	ldr	r2, [sp, #4]
    225e:	4282      	cmp	r2, r0
    2260:	d00a      	beq.n	2278 <_sercom_get_sercom_inst_index+0x34>
    2262:	9a02      	ldr	r2, [sp, #8]
    2264:	4282      	cmp	r2, r0
    2266:	d009      	beq.n	227c <_sercom_get_sercom_inst_index+0x38>
    2268:	2000      	movs	r0, #0
    226a:	9a03      	ldr	r2, [sp, #12]
    226c:	429a      	cmp	r2, r3
    226e:	d001      	beq.n	2274 <_sercom_get_sercom_inst_index+0x30>
    2270:	b005      	add	sp, #20
    2272:	bd30      	pop	{r4, r5, pc}
    2274:	3003      	adds	r0, #3
    2276:	e004      	b.n	2282 <_sercom_get_sercom_inst_index+0x3e>
    2278:	2001      	movs	r0, #1
    227a:	e002      	b.n	2282 <_sercom_get_sercom_inst_index+0x3e>
    227c:	2002      	movs	r0, #2
    227e:	e000      	b.n	2282 <_sercom_get_sercom_inst_index+0x3e>
    2280:	2000      	movs	r0, #0
    2282:	b2c0      	uxtb	r0, r0
    2284:	e7f4      	b.n	2270 <_sercom_get_sercom_inst_index+0x2c>
    2286:	46c0      	nop			; (mov r8, r8)
    2288:	00003d6c 	.word	0x00003d6c

0000228c <_sercom_default_handler>:
    228c:	4770      	bx	lr
	...

00002290 <_sercom_set_handler>:
    2290:	b530      	push	{r4, r5, lr}
    2292:	4b0b      	ldr	r3, [pc, #44]	; (22c0 <_sercom_set_handler+0x30>)
    2294:	781b      	ldrb	r3, [r3, #0]
    2296:	2b00      	cmp	r3, #0
    2298:	d10e      	bne.n	22b8 <_sercom_set_handler+0x28>
    229a:	4c0a      	ldr	r4, [pc, #40]	; (22c4 <_sercom_set_handler+0x34>)
    229c:	4d0a      	ldr	r5, [pc, #40]	; (22c8 <_sercom_set_handler+0x38>)
    229e:	6025      	str	r5, [r4, #0]
    22a0:	4b0a      	ldr	r3, [pc, #40]	; (22cc <_sercom_set_handler+0x3c>)
    22a2:	2200      	movs	r2, #0
    22a4:	601a      	str	r2, [r3, #0]
    22a6:	6065      	str	r5, [r4, #4]
    22a8:	605a      	str	r2, [r3, #4]
    22aa:	60a5      	str	r5, [r4, #8]
    22ac:	609a      	str	r2, [r3, #8]
    22ae:	60e5      	str	r5, [r4, #12]
    22b0:	60da      	str	r2, [r3, #12]
    22b2:	3201      	adds	r2, #1
    22b4:	4b02      	ldr	r3, [pc, #8]	; (22c0 <_sercom_set_handler+0x30>)
    22b6:	701a      	strb	r2, [r3, #0]
    22b8:	0080      	lsls	r0, r0, #2
    22ba:	4b02      	ldr	r3, [pc, #8]	; (22c4 <_sercom_set_handler+0x34>)
    22bc:	50c1      	str	r1, [r0, r3]
    22be:	bd30      	pop	{r4, r5, pc}
    22c0:	200000c2 	.word	0x200000c2
    22c4:	200000c4 	.word	0x200000c4
    22c8:	0000228d 	.word	0x0000228d
    22cc:	2000553c 	.word	0x2000553c

000022d0 <_sercom_get_interrupt_vector>:
    22d0:	b510      	push	{r4, lr}
    22d2:	b082      	sub	sp, #8
    22d4:	ac01      	add	r4, sp, #4
    22d6:	2307      	movs	r3, #7
    22d8:	7023      	strb	r3, [r4, #0]
    22da:	3301      	adds	r3, #1
    22dc:	7063      	strb	r3, [r4, #1]
    22de:	3301      	adds	r3, #1
    22e0:	70a3      	strb	r3, [r4, #2]
    22e2:	3301      	adds	r3, #1
    22e4:	70e3      	strb	r3, [r4, #3]
    22e6:	4b02      	ldr	r3, [pc, #8]	; (22f0 <_sercom_get_interrupt_vector+0x20>)
    22e8:	4798      	blx	r3
    22ea:	5620      	ldrsb	r0, [r4, r0]
    22ec:	b002      	add	sp, #8
    22ee:	bd10      	pop	{r4, pc}
    22f0:	00002245 	.word	0x00002245

000022f4 <SERCOM0_Handler>:
    22f4:	b510      	push	{r4, lr}
    22f6:	4b02      	ldr	r3, [pc, #8]	; (2300 <SERCOM0_Handler+0xc>)
    22f8:	681b      	ldr	r3, [r3, #0]
    22fa:	2000      	movs	r0, #0
    22fc:	4798      	blx	r3
    22fe:	bd10      	pop	{r4, pc}
    2300:	200000c4 	.word	0x200000c4

00002304 <SERCOM1_Handler>:
    2304:	b510      	push	{r4, lr}
    2306:	4b02      	ldr	r3, [pc, #8]	; (2310 <SERCOM1_Handler+0xc>)
    2308:	685b      	ldr	r3, [r3, #4]
    230a:	2001      	movs	r0, #1
    230c:	4798      	blx	r3
    230e:	bd10      	pop	{r4, pc}
    2310:	200000c4 	.word	0x200000c4

00002314 <SERCOM2_Handler>:
    2314:	b510      	push	{r4, lr}
    2316:	4b02      	ldr	r3, [pc, #8]	; (2320 <SERCOM2_Handler+0xc>)
    2318:	689b      	ldr	r3, [r3, #8]
    231a:	2002      	movs	r0, #2
    231c:	4798      	blx	r3
    231e:	bd10      	pop	{r4, pc}
    2320:	200000c4 	.word	0x200000c4

00002324 <SERCOM3_Handler>:
    2324:	b510      	push	{r4, lr}
    2326:	4b02      	ldr	r3, [pc, #8]	; (2330 <SERCOM3_Handler+0xc>)
    2328:	68db      	ldr	r3, [r3, #12]
    232a:	2003      	movs	r0, #3
    232c:	4798      	blx	r3
    232e:	bd10      	pop	{r4, pc}
    2330:	200000c4 	.word	0x200000c4

00002334 <usart_init>:
    2334:	b5f0      	push	{r4, r5, r6, r7, lr}
    2336:	46de      	mov	lr, fp
    2338:	4657      	mov	r7, sl
    233a:	464e      	mov	r6, r9
    233c:	4645      	mov	r5, r8
    233e:	b5e0      	push	{r5, r6, r7, lr}
    2340:	b08d      	sub	sp, #52	; 0x34
    2342:	0005      	movs	r5, r0
    2344:	000c      	movs	r4, r1
    2346:	0016      	movs	r6, r2
    2348:	6029      	str	r1, [r5, #0]
    234a:	0008      	movs	r0, r1
    234c:	4b80      	ldr	r3, [pc, #512]	; (2550 <usart_init+0x21c>)
    234e:	4798      	blx	r3
    2350:	0002      	movs	r2, r0
    2352:	6823      	ldr	r3, [r4, #0]
    2354:	2005      	movs	r0, #5
    2356:	07db      	lsls	r3, r3, #31
    2358:	d506      	bpl.n	2368 <usart_init+0x34>
    235a:	b00d      	add	sp, #52	; 0x34
    235c:	bc3c      	pop	{r2, r3, r4, r5}
    235e:	4690      	mov	r8, r2
    2360:	4699      	mov	r9, r3
    2362:	46a2      	mov	sl, r4
    2364:	46ab      	mov	fp, r5
    2366:	bdf0      	pop	{r4, r5, r6, r7, pc}
    2368:	6823      	ldr	r3, [r4, #0]
    236a:	3017      	adds	r0, #23
    236c:	079b      	lsls	r3, r3, #30
    236e:	d4f4      	bmi.n	235a <usart_init+0x26>
    2370:	4978      	ldr	r1, [pc, #480]	; (2554 <usart_init+0x220>)
    2372:	6a08      	ldr	r0, [r1, #32]
    2374:	1c97      	adds	r7, r2, #2
    2376:	2301      	movs	r3, #1
    2378:	40bb      	lsls	r3, r7
    237a:	4303      	orrs	r3, r0
    237c:	620b      	str	r3, [r1, #32]
    237e:	a90b      	add	r1, sp, #44	; 0x2c
    2380:	7f73      	ldrb	r3, [r6, #29]
    2382:	700b      	strb	r3, [r1, #0]
    2384:	320d      	adds	r2, #13
    2386:	b2d7      	uxtb	r7, r2
    2388:	0038      	movs	r0, r7
    238a:	4b73      	ldr	r3, [pc, #460]	; (2558 <usart_init+0x224>)
    238c:	4798      	blx	r3
    238e:	0038      	movs	r0, r7
    2390:	4b72      	ldr	r3, [pc, #456]	; (255c <usart_init+0x228>)
    2392:	4798      	blx	r3
    2394:	7f70      	ldrb	r0, [r6, #29]
    2396:	2100      	movs	r1, #0
    2398:	4b71      	ldr	r3, [pc, #452]	; (2560 <usart_init+0x22c>)
    239a:	4798      	blx	r3
    239c:	7af3      	ldrb	r3, [r6, #11]
    239e:	716b      	strb	r3, [r5, #5]
    23a0:	7d33      	ldrb	r3, [r6, #20]
    23a2:	71ab      	strb	r3, [r5, #6]
    23a4:	7d73      	ldrb	r3, [r6, #21]
    23a6:	71eb      	strb	r3, [r5, #7]
    23a8:	682b      	ldr	r3, [r5, #0]
    23aa:	4698      	mov	r8, r3
    23ac:	0018      	movs	r0, r3
    23ae:	4b68      	ldr	r3, [pc, #416]	; (2550 <usart_init+0x21c>)
    23b0:	4798      	blx	r3
    23b2:	300d      	adds	r0, #13
    23b4:	2200      	movs	r2, #0
    23b6:	230e      	movs	r3, #14
    23b8:	a902      	add	r1, sp, #8
    23ba:	468c      	mov	ip, r1
    23bc:	4463      	add	r3, ip
    23be:	801a      	strh	r2, [r3, #0]
    23c0:	6833      	ldr	r3, [r6, #0]
    23c2:	9303      	str	r3, [sp, #12]
    23c4:	68f3      	ldr	r3, [r6, #12]
    23c6:	469a      	mov	sl, r3
    23c8:	7db3      	ldrb	r3, [r6, #22]
    23ca:	469b      	mov	fp, r3
    23cc:	6873      	ldr	r3, [r6, #4]
    23ce:	4699      	mov	r9, r3
    23d0:	2b00      	cmp	r3, #0
    23d2:	d014      	beq.n	23fe <usart_init+0xca>
    23d4:	2380      	movs	r3, #128	; 0x80
    23d6:	055b      	lsls	r3, r3, #21
    23d8:	4599      	cmp	r9, r3
    23da:	d130      	bne.n	243e <usart_init+0x10a>
    23dc:	7df3      	ldrb	r3, [r6, #23]
    23de:	2b00      	cmp	r3, #0
    23e0:	d131      	bne.n	2446 <usart_init+0x112>
    23e2:	6933      	ldr	r3, [r6, #16]
    23e4:	001f      	movs	r7, r3
    23e6:	b2c0      	uxtb	r0, r0
    23e8:	4b5e      	ldr	r3, [pc, #376]	; (2564 <usart_init+0x230>)
    23ea:	4798      	blx	r3
    23ec:	0001      	movs	r1, r0
    23ee:	220e      	movs	r2, #14
    23f0:	ab02      	add	r3, sp, #8
    23f2:	469c      	mov	ip, r3
    23f4:	4462      	add	r2, ip
    23f6:	0038      	movs	r0, r7
    23f8:	4b5b      	ldr	r3, [pc, #364]	; (2568 <usart_init+0x234>)
    23fa:	4798      	blx	r3
    23fc:	e020      	b.n	2440 <usart_init+0x10c>
    23fe:	7df3      	ldrb	r3, [r6, #23]
    2400:	2b00      	cmp	r3, #0
    2402:	d00b      	beq.n	241c <usart_init+0xe8>
    2404:	2310      	movs	r3, #16
    2406:	9300      	str	r3, [sp, #0]
    2408:	2300      	movs	r3, #0
    240a:	220e      	movs	r2, #14
    240c:	a902      	add	r1, sp, #8
    240e:	468c      	mov	ip, r1
    2410:	4462      	add	r2, ip
    2412:	69b1      	ldr	r1, [r6, #24]
    2414:	6930      	ldr	r0, [r6, #16]
    2416:	4f55      	ldr	r7, [pc, #340]	; (256c <usart_init+0x238>)
    2418:	47b8      	blx	r7
    241a:	e011      	b.n	2440 <usart_init+0x10c>
    241c:	6933      	ldr	r3, [r6, #16]
    241e:	001f      	movs	r7, r3
    2420:	b2c0      	uxtb	r0, r0
    2422:	4b50      	ldr	r3, [pc, #320]	; (2564 <usart_init+0x230>)
    2424:	4798      	blx	r3
    2426:	0001      	movs	r1, r0
    2428:	2310      	movs	r3, #16
    242a:	9300      	str	r3, [sp, #0]
    242c:	2300      	movs	r3, #0
    242e:	220e      	movs	r2, #14
    2430:	a802      	add	r0, sp, #8
    2432:	4684      	mov	ip, r0
    2434:	4462      	add	r2, ip
    2436:	0038      	movs	r0, r7
    2438:	4f4c      	ldr	r7, [pc, #304]	; (256c <usart_init+0x238>)
    243a:	47b8      	blx	r7
    243c:	e000      	b.n	2440 <usart_init+0x10c>
    243e:	2000      	movs	r0, #0
    2440:	2800      	cmp	r0, #0
    2442:	d000      	beq.n	2446 <usart_init+0x112>
    2444:	e789      	b.n	235a <usart_init+0x26>
    2446:	682a      	ldr	r2, [r5, #0]
    2448:	9f03      	ldr	r7, [sp, #12]
    244a:	8a13      	ldrh	r3, [r2, #16]
    244c:	b21b      	sxth	r3, r3
    244e:	2b00      	cmp	r3, #0
    2450:	dbfb      	blt.n	244a <usart_init+0x116>
    2452:	230e      	movs	r3, #14
    2454:	aa02      	add	r2, sp, #8
    2456:	4694      	mov	ip, r2
    2458:	4463      	add	r3, ip
    245a:	881b      	ldrh	r3, [r3, #0]
    245c:	4642      	mov	r2, r8
    245e:	8153      	strh	r3, [r2, #10]
    2460:	4653      	mov	r3, sl
    2462:	431f      	orrs	r7, r3
    2464:	464b      	mov	r3, r9
    2466:	431f      	orrs	r7, r3
    2468:	465b      	mov	r3, fp
    246a:	075b      	lsls	r3, r3, #29
    246c:	431f      	orrs	r7, r3
    246e:	7df3      	ldrb	r3, [r6, #23]
    2470:	2b00      	cmp	r3, #0
    2472:	d101      	bne.n	2478 <usart_init+0x144>
    2474:	3304      	adds	r3, #4
    2476:	431f      	orrs	r7, r3
    2478:	7d31      	ldrb	r1, [r6, #20]
    247a:	0449      	lsls	r1, r1, #17
    247c:	7d73      	ldrb	r3, [r6, #21]
    247e:	041b      	lsls	r3, r3, #16
    2480:	430b      	orrs	r3, r1
    2482:	7ab1      	ldrb	r1, [r6, #10]
    2484:	7af2      	ldrb	r2, [r6, #11]
    2486:	4311      	orrs	r1, r2
    2488:	4319      	orrs	r1, r3
    248a:	8933      	ldrh	r3, [r6, #8]
    248c:	2bff      	cmp	r3, #255	; 0xff
    248e:	d003      	beq.n	2498 <usart_init+0x164>
    2490:	2280      	movs	r2, #128	; 0x80
    2492:	0452      	lsls	r2, r2, #17
    2494:	4317      	orrs	r7, r2
    2496:	4319      	orrs	r1, r3
    2498:	7f33      	ldrb	r3, [r6, #28]
    249a:	2b00      	cmp	r3, #0
    249c:	d103      	bne.n	24a6 <usart_init+0x172>
    249e:	4b34      	ldr	r3, [pc, #208]	; (2570 <usart_init+0x23c>)
    24a0:	789b      	ldrb	r3, [r3, #2]
    24a2:	079b      	lsls	r3, r3, #30
    24a4:	d501      	bpl.n	24aa <usart_init+0x176>
    24a6:	2380      	movs	r3, #128	; 0x80
    24a8:	431f      	orrs	r7, r3
    24aa:	682a      	ldr	r2, [r5, #0]
    24ac:	8a13      	ldrh	r3, [r2, #16]
    24ae:	b21b      	sxth	r3, r3
    24b0:	2b00      	cmp	r3, #0
    24b2:	dbfb      	blt.n	24ac <usart_init+0x178>
    24b4:	4643      	mov	r3, r8
    24b6:	6059      	str	r1, [r3, #4]
    24b8:	682a      	ldr	r2, [r5, #0]
    24ba:	8a13      	ldrh	r3, [r2, #16]
    24bc:	b21b      	sxth	r3, r3
    24be:	2b00      	cmp	r3, #0
    24c0:	dbfb      	blt.n	24ba <usart_init+0x186>
    24c2:	4643      	mov	r3, r8
    24c4:	601f      	str	r7, [r3, #0]
    24c6:	ab0a      	add	r3, sp, #40	; 0x28
    24c8:	2280      	movs	r2, #128	; 0x80
    24ca:	701a      	strb	r2, [r3, #0]
    24cc:	2200      	movs	r2, #0
    24ce:	705a      	strb	r2, [r3, #1]
    24d0:	70da      	strb	r2, [r3, #3]
    24d2:	709a      	strb	r2, [r3, #2]
    24d4:	6a33      	ldr	r3, [r6, #32]
    24d6:	9306      	str	r3, [sp, #24]
    24d8:	6a73      	ldr	r3, [r6, #36]	; 0x24
    24da:	9307      	str	r3, [sp, #28]
    24dc:	6ab3      	ldr	r3, [r6, #40]	; 0x28
    24de:	9308      	str	r3, [sp, #32]
    24e0:	6af3      	ldr	r3, [r6, #44]	; 0x2c
    24e2:	9303      	str	r3, [sp, #12]
    24e4:	9309      	str	r3, [sp, #36]	; 0x24
    24e6:	2700      	movs	r7, #0
    24e8:	ae06      	add	r6, sp, #24
    24ea:	e006      	b.n	24fa <usart_init+0x1c6>
    24ec:	0020      	movs	r0, r4
    24ee:	4b21      	ldr	r3, [pc, #132]	; (2574 <usart_init+0x240>)
    24f0:	4798      	blx	r3
    24f2:	e007      	b.n	2504 <usart_init+0x1d0>
    24f4:	3701      	adds	r7, #1
    24f6:	2f04      	cmp	r7, #4
    24f8:	d00d      	beq.n	2516 <usart_init+0x1e2>
    24fa:	b2f9      	uxtb	r1, r7
    24fc:	00bb      	lsls	r3, r7, #2
    24fe:	5998      	ldr	r0, [r3, r6]
    2500:	2800      	cmp	r0, #0
    2502:	d0f3      	beq.n	24ec <usart_init+0x1b8>
    2504:	1c43      	adds	r3, r0, #1
    2506:	d0f5      	beq.n	24f4 <usart_init+0x1c0>
    2508:	a90a      	add	r1, sp, #40	; 0x28
    250a:	7008      	strb	r0, [r1, #0]
    250c:	0c00      	lsrs	r0, r0, #16
    250e:	b2c0      	uxtb	r0, r0
    2510:	4b19      	ldr	r3, [pc, #100]	; (2578 <usart_init+0x244>)
    2512:	4798      	blx	r3
    2514:	e7ee      	b.n	24f4 <usart_init+0x1c0>
    2516:	2300      	movs	r3, #0
    2518:	60ab      	str	r3, [r5, #8]
    251a:	60eb      	str	r3, [r5, #12]
    251c:	612b      	str	r3, [r5, #16]
    251e:	61ab      	str	r3, [r5, #24]
    2520:	616b      	str	r3, [r5, #20]
    2522:	2200      	movs	r2, #0
    2524:	83eb      	strh	r3, [r5, #30]
    2526:	83ab      	strh	r3, [r5, #28]
    2528:	3320      	adds	r3, #32
    252a:	54ea      	strb	r2, [r5, r3]
    252c:	3301      	adds	r3, #1
    252e:	54ea      	strb	r2, [r5, r3]
    2530:	3301      	adds	r3, #1
    2532:	54ea      	strb	r2, [r5, r3]
    2534:	3301      	adds	r3, #1
    2536:	54ea      	strb	r2, [r5, r3]
    2538:	6828      	ldr	r0, [r5, #0]
    253a:	4b05      	ldr	r3, [pc, #20]	; (2550 <usart_init+0x21c>)
    253c:	4798      	blx	r3
    253e:	0004      	movs	r4, r0
    2540:	490e      	ldr	r1, [pc, #56]	; (257c <usart_init+0x248>)
    2542:	4b0f      	ldr	r3, [pc, #60]	; (2580 <usart_init+0x24c>)
    2544:	4798      	blx	r3
    2546:	00a4      	lsls	r4, r4, #2
    2548:	4b0e      	ldr	r3, [pc, #56]	; (2584 <usart_init+0x250>)
    254a:	50e5      	str	r5, [r4, r3]
    254c:	2000      	movs	r0, #0
    254e:	e704      	b.n	235a <usart_init+0x26>
    2550:	00002245 	.word	0x00002245
    2554:	40000400 	.word	0x40000400
    2558:	00002ba5 	.word	0x00002ba5
    255c:	00002b19 	.word	0x00002b19
    2560:	000020fd 	.word	0x000020fd
    2564:	00002bf1 	.word	0x00002bf1
    2568:	0000203f 	.word	0x0000203f
    256c:	00002069 	.word	0x00002069
    2570:	41002000 	.word	0x41002000
    2574:	00002149 	.word	0x00002149
    2578:	00002ccd 	.word	0x00002ccd
    257c:	0000262d 	.word	0x0000262d
    2580:	00002291 	.word	0x00002291
    2584:	2000553c 	.word	0x2000553c

00002588 <usart_write_wait>:
    2588:	79c2      	ldrb	r2, [r0, #7]
    258a:	231c      	movs	r3, #28
    258c:	2a00      	cmp	r2, #0
    258e:	d101      	bne.n	2594 <usart_write_wait+0xc>
    2590:	0018      	movs	r0, r3
    2592:	4770      	bx	lr
    2594:	8bc2      	ldrh	r2, [r0, #30]
    2596:	b292      	uxth	r2, r2
    2598:	3b17      	subs	r3, #23
    259a:	2a00      	cmp	r2, #0
    259c:	d1f8      	bne.n	2590 <usart_write_wait+0x8>
    259e:	6802      	ldr	r2, [r0, #0]
    25a0:	8a13      	ldrh	r3, [r2, #16]
    25a2:	b21b      	sxth	r3, r3
    25a4:	2b00      	cmp	r3, #0
    25a6:	dbfb      	blt.n	25a0 <usart_write_wait+0x18>
    25a8:	8311      	strh	r1, [r2, #24]
    25aa:	2102      	movs	r1, #2
    25ac:	7b93      	ldrb	r3, [r2, #14]
    25ae:	420b      	tst	r3, r1
    25b0:	d0fc      	beq.n	25ac <usart_write_wait+0x24>
    25b2:	2300      	movs	r3, #0
    25b4:	e7ec      	b.n	2590 <usart_write_wait+0x8>
	...

000025b8 <_usart_read_buffer>:
    25b8:	b5f8      	push	{r3, r4, r5, r6, r7, lr}
    25ba:	0006      	movs	r6, r0
    25bc:	000c      	movs	r4, r1
    25be:	0015      	movs	r5, r2
    25c0:	6807      	ldr	r7, [r0, #0]
    25c2:	4b0a      	ldr	r3, [pc, #40]	; (25ec <_usart_read_buffer+0x34>)
    25c4:	4798      	blx	r3
    25c6:	8bb3      	ldrh	r3, [r6, #28]
    25c8:	b29b      	uxth	r3, r3
    25ca:	2b00      	cmp	r3, #0
    25cc:	d003      	beq.n	25d6 <_usart_read_buffer+0x1e>
    25ce:	4b08      	ldr	r3, [pc, #32]	; (25f0 <_usart_read_buffer+0x38>)
    25d0:	4798      	blx	r3
    25d2:	2005      	movs	r0, #5
    25d4:	bdf8      	pop	{r3, r4, r5, r6, r7, pc}
    25d6:	83b5      	strh	r5, [r6, #28]
    25d8:	4b05      	ldr	r3, [pc, #20]	; (25f0 <_usart_read_buffer+0x38>)
    25da:	4798      	blx	r3
    25dc:	6174      	str	r4, [r6, #20]
    25de:	2205      	movs	r2, #5
    25e0:	2322      	movs	r3, #34	; 0x22
    25e2:	54f2      	strb	r2, [r6, r3]
    25e4:	3b1e      	subs	r3, #30
    25e6:	737b      	strb	r3, [r7, #13]
    25e8:	2000      	movs	r0, #0
    25ea:	e7f3      	b.n	25d4 <_usart_read_buffer+0x1c>
    25ec:	00001eed 	.word	0x00001eed
    25f0:	00001f2d 	.word	0x00001f2d

000025f4 <usart_register_callback>:
    25f4:	1c93      	adds	r3, r2, #2
    25f6:	009b      	lsls	r3, r3, #2
    25f8:	5019      	str	r1, [r3, r0]
    25fa:	2120      	movs	r1, #32
    25fc:	2301      	movs	r3, #1
    25fe:	4093      	lsls	r3, r2
    2600:	001a      	movs	r2, r3
    2602:	5c43      	ldrb	r3, [r0, r1]
    2604:	4313      	orrs	r3, r2
    2606:	5443      	strb	r3, [r0, r1]
    2608:	4770      	bx	lr
	...

0000260c <usart_read_buffer_job>:
    260c:	b510      	push	{r4, lr}
    260e:	2317      	movs	r3, #23
    2610:	2a00      	cmp	r2, #0
    2612:	d101      	bne.n	2618 <usart_read_buffer_job+0xc>
    2614:	0018      	movs	r0, r3
    2616:	bd10      	pop	{r4, pc}
    2618:	7984      	ldrb	r4, [r0, #6]
    261a:	3305      	adds	r3, #5
    261c:	2c00      	cmp	r4, #0
    261e:	d0f9      	beq.n	2614 <usart_read_buffer_job+0x8>
    2620:	4b01      	ldr	r3, [pc, #4]	; (2628 <usart_read_buffer_job+0x1c>)
    2622:	4798      	blx	r3
    2624:	0003      	movs	r3, r0
    2626:	e7f5      	b.n	2614 <usart_read_buffer_job+0x8>
    2628:	000025b9 	.word	0x000025b9

0000262c <_usart_interrupt_handler>:
    262c:	b5f8      	push	{r3, r4, r5, r6, r7, lr}
    262e:	0080      	lsls	r0, r0, #2
    2630:	4b46      	ldr	r3, [pc, #280]	; (274c <_usart_interrupt_handler+0x120>)
    2632:	58c5      	ldr	r5, [r0, r3]
    2634:	682c      	ldr	r4, [r5, #0]
    2636:	8a23      	ldrh	r3, [r4, #16]
    2638:	b21b      	sxth	r3, r3
    263a:	2b00      	cmp	r3, #0
    263c:	dbfb      	blt.n	2636 <_usart_interrupt_handler+0xa>
    263e:	7ba3      	ldrb	r3, [r4, #14]
    2640:	7b66      	ldrb	r6, [r4, #13]
    2642:	401e      	ands	r6, r3
    2644:	2320      	movs	r3, #32
    2646:	5ceb      	ldrb	r3, [r5, r3]
    2648:	2221      	movs	r2, #33	; 0x21
    264a:	5caf      	ldrb	r7, [r5, r2]
    264c:	401f      	ands	r7, r3
    264e:	07f3      	lsls	r3, r6, #31
    2650:	d522      	bpl.n	2698 <_usart_interrupt_handler+0x6c>
    2652:	8beb      	ldrh	r3, [r5, #30]
    2654:	b29b      	uxth	r3, r3
    2656:	2b00      	cmp	r3, #0
    2658:	d01c      	beq.n	2694 <_usart_interrupt_handler+0x68>
    265a:	69aa      	ldr	r2, [r5, #24]
    265c:	7813      	ldrb	r3, [r2, #0]
    265e:	b2db      	uxtb	r3, r3
    2660:	1c51      	adds	r1, r2, #1
    2662:	61a9      	str	r1, [r5, #24]
    2664:	7969      	ldrb	r1, [r5, #5]
    2666:	2901      	cmp	r1, #1
    2668:	d00e      	beq.n	2688 <_usart_interrupt_handler+0x5c>
    266a:	b29b      	uxth	r3, r3
    266c:	05db      	lsls	r3, r3, #23
    266e:	0ddb      	lsrs	r3, r3, #23
    2670:	8323      	strh	r3, [r4, #24]
    2672:	8beb      	ldrh	r3, [r5, #30]
    2674:	3b01      	subs	r3, #1
    2676:	b29b      	uxth	r3, r3
    2678:	83eb      	strh	r3, [r5, #30]
    267a:	2b00      	cmp	r3, #0
    267c:	d10c      	bne.n	2698 <_usart_interrupt_handler+0x6c>
    267e:	3301      	adds	r3, #1
    2680:	7323      	strb	r3, [r4, #12]
    2682:	3301      	adds	r3, #1
    2684:	7363      	strb	r3, [r4, #13]
    2686:	e007      	b.n	2698 <_usart_interrupt_handler+0x6c>
    2688:	7851      	ldrb	r1, [r2, #1]
    268a:	0209      	lsls	r1, r1, #8
    268c:	430b      	orrs	r3, r1
    268e:	3202      	adds	r2, #2
    2690:	61aa      	str	r2, [r5, #24]
    2692:	e7eb      	b.n	266c <_usart_interrupt_handler+0x40>
    2694:	2301      	movs	r3, #1
    2696:	7323      	strb	r3, [r4, #12]
    2698:	07b3      	lsls	r3, r6, #30
    269a:	d506      	bpl.n	26aa <_usart_interrupt_handler+0x7e>
    269c:	2302      	movs	r3, #2
    269e:	7323      	strb	r3, [r4, #12]
    26a0:	2200      	movs	r2, #0
    26a2:	3321      	adds	r3, #33	; 0x21
    26a4:	54ea      	strb	r2, [r5, r3]
    26a6:	07fb      	lsls	r3, r7, #31
    26a8:	d416      	bmi.n	26d8 <_usart_interrupt_handler+0xac>
    26aa:	0773      	lsls	r3, r6, #29
    26ac:	d54d      	bpl.n	274a <_usart_interrupt_handler+0x11e>
    26ae:	8bab      	ldrh	r3, [r5, #28]
    26b0:	b29b      	uxth	r3, r3
    26b2:	2b00      	cmp	r3, #0
    26b4:	d047      	beq.n	2746 <_usart_interrupt_handler+0x11a>
    26b6:	8a23      	ldrh	r3, [r4, #16]
    26b8:	b2db      	uxtb	r3, r3
    26ba:	075a      	lsls	r2, r3, #29
    26bc:	d020      	beq.n	2700 <_usart_interrupt_handler+0xd4>
    26be:	079a      	lsls	r2, r3, #30
    26c0:	d50e      	bpl.n	26e0 <_usart_interrupt_handler+0xb4>
    26c2:	221a      	movs	r2, #26
    26c4:	2322      	movs	r3, #34	; 0x22
    26c6:	54ea      	strb	r2, [r5, r3]
    26c8:	3b20      	subs	r3, #32
    26ca:	8223      	strh	r3, [r4, #16]
    26cc:	077b      	lsls	r3, r7, #29
    26ce:	d53c      	bpl.n	274a <_usart_interrupt_handler+0x11e>
    26d0:	692b      	ldr	r3, [r5, #16]
    26d2:	0028      	movs	r0, r5
    26d4:	4798      	blx	r3
    26d6:	e038      	b.n	274a <_usart_interrupt_handler+0x11e>
    26d8:	0028      	movs	r0, r5
    26da:	68ab      	ldr	r3, [r5, #8]
    26dc:	4798      	blx	r3
    26de:	e7e4      	b.n	26aa <_usart_interrupt_handler+0x7e>
    26e0:	075a      	lsls	r2, r3, #29
    26e2:	d505      	bpl.n	26f0 <_usart_interrupt_handler+0xc4>
    26e4:	221e      	movs	r2, #30
    26e6:	2322      	movs	r3, #34	; 0x22
    26e8:	54ea      	strb	r2, [r5, r3]
    26ea:	3b1e      	subs	r3, #30
    26ec:	8223      	strh	r3, [r4, #16]
    26ee:	e7ed      	b.n	26cc <_usart_interrupt_handler+0xa0>
    26f0:	07db      	lsls	r3, r3, #31
    26f2:	d5eb      	bpl.n	26cc <_usart_interrupt_handler+0xa0>
    26f4:	2213      	movs	r2, #19
    26f6:	2322      	movs	r3, #34	; 0x22
    26f8:	54ea      	strb	r2, [r5, r3]
    26fa:	3b21      	subs	r3, #33	; 0x21
    26fc:	8223      	strh	r3, [r4, #16]
    26fe:	e7e5      	b.n	26cc <_usart_interrupt_handler+0xa0>
    2700:	8b23      	ldrh	r3, [r4, #24]
    2702:	05db      	lsls	r3, r3, #23
    2704:	0ddb      	lsrs	r3, r3, #23
    2706:	b2da      	uxtb	r2, r3
    2708:	6969      	ldr	r1, [r5, #20]
    270a:	700a      	strb	r2, [r1, #0]
    270c:	696a      	ldr	r2, [r5, #20]
    270e:	1c51      	adds	r1, r2, #1
    2710:	6169      	str	r1, [r5, #20]
    2712:	7969      	ldrb	r1, [r5, #5]
    2714:	2901      	cmp	r1, #1
    2716:	d010      	beq.n	273a <_usart_interrupt_handler+0x10e>
    2718:	8bab      	ldrh	r3, [r5, #28]
    271a:	3b01      	subs	r3, #1
    271c:	b29b      	uxth	r3, r3
    271e:	83ab      	strh	r3, [r5, #28]
    2720:	2b00      	cmp	r3, #0
    2722:	d112      	bne.n	274a <_usart_interrupt_handler+0x11e>
    2724:	3304      	adds	r3, #4
    2726:	7323      	strb	r3, [r4, #12]
    2728:	2200      	movs	r2, #0
    272a:	331e      	adds	r3, #30
    272c:	54ea      	strb	r2, [r5, r3]
    272e:	07bb      	lsls	r3, r7, #30
    2730:	d50b      	bpl.n	274a <_usart_interrupt_handler+0x11e>
    2732:	68eb      	ldr	r3, [r5, #12]
    2734:	0028      	movs	r0, r5
    2736:	4798      	blx	r3
    2738:	e007      	b.n	274a <_usart_interrupt_handler+0x11e>
    273a:	0a1b      	lsrs	r3, r3, #8
    273c:	7053      	strb	r3, [r2, #1]
    273e:	696b      	ldr	r3, [r5, #20]
    2740:	3301      	adds	r3, #1
    2742:	616b      	str	r3, [r5, #20]
    2744:	e7e8      	b.n	2718 <_usart_interrupt_handler+0xec>
    2746:	2304      	movs	r3, #4
    2748:	7323      	strb	r3, [r4, #12]
    274a:	bdf8      	pop	{r3, r4, r5, r6, r7, pc}
    274c:	2000553c 	.word	0x2000553c

00002750 <system_clock_source_get_hz>:
    2750:	b510      	push	{r4, lr}
    2752:	2807      	cmp	r0, #7
    2754:	d803      	bhi.n	275e <system_clock_source_get_hz+0xe>
    2756:	0080      	lsls	r0, r0, #2
    2758:	4b16      	ldr	r3, [pc, #88]	; (27b4 <system_clock_source_get_hz+0x64>)
    275a:	581b      	ldr	r3, [r3, r0]
    275c:	469f      	mov	pc, r3
    275e:	2000      	movs	r0, #0
    2760:	e027      	b.n	27b2 <system_clock_source_get_hz+0x62>
    2762:	4b15      	ldr	r3, [pc, #84]	; (27b8 <system_clock_source_get_hz+0x68>)
    2764:	68d8      	ldr	r0, [r3, #12]
    2766:	e024      	b.n	27b2 <system_clock_source_get_hz+0x62>
    2768:	4b14      	ldr	r3, [pc, #80]	; (27bc <system_clock_source_get_hz+0x6c>)
    276a:	6a1b      	ldr	r3, [r3, #32]
    276c:	059b      	lsls	r3, r3, #22
    276e:	0f9b      	lsrs	r3, r3, #30
    2770:	4813      	ldr	r0, [pc, #76]	; (27c0 <system_clock_source_get_hz+0x70>)
    2772:	40d8      	lsrs	r0, r3
    2774:	e01d      	b.n	27b2 <system_clock_source_get_hz+0x62>
    2776:	4b10      	ldr	r3, [pc, #64]	; (27b8 <system_clock_source_get_hz+0x68>)
    2778:	6918      	ldr	r0, [r3, #16]
    277a:	e01a      	b.n	27b2 <system_clock_source_get_hz+0x62>
    277c:	4b0e      	ldr	r3, [pc, #56]	; (27b8 <system_clock_source_get_hz+0x68>)
    277e:	681b      	ldr	r3, [r3, #0]
    2780:	2000      	movs	r0, #0
    2782:	079b      	lsls	r3, r3, #30
    2784:	d515      	bpl.n	27b2 <system_clock_source_get_hz+0x62>
    2786:	490d      	ldr	r1, [pc, #52]	; (27bc <system_clock_source_get_hz+0x6c>)
    2788:	2210      	movs	r2, #16
    278a:	68cb      	ldr	r3, [r1, #12]
    278c:	421a      	tst	r2, r3
    278e:	d0fc      	beq.n	278a <system_clock_source_get_hz+0x3a>
    2790:	4b09      	ldr	r3, [pc, #36]	; (27b8 <system_clock_source_get_hz+0x68>)
    2792:	681b      	ldr	r3, [r3, #0]
    2794:	075b      	lsls	r3, r3, #29
    2796:	d401      	bmi.n	279c <system_clock_source_get_hz+0x4c>
    2798:	480a      	ldr	r0, [pc, #40]	; (27c4 <system_clock_source_get_hz+0x74>)
    279a:	e00a      	b.n	27b2 <system_clock_source_get_hz+0x62>
    279c:	2000      	movs	r0, #0
    279e:	4b0a      	ldr	r3, [pc, #40]	; (27c8 <system_clock_source_get_hz+0x78>)
    27a0:	4798      	blx	r3
    27a2:	4b05      	ldr	r3, [pc, #20]	; (27b8 <system_clock_source_get_hz+0x68>)
    27a4:	689b      	ldr	r3, [r3, #8]
    27a6:	041b      	lsls	r3, r3, #16
    27a8:	0c1b      	lsrs	r3, r3, #16
    27aa:	4358      	muls	r0, r3
    27ac:	e001      	b.n	27b2 <system_clock_source_get_hz+0x62>
    27ae:	2080      	movs	r0, #128	; 0x80
    27b0:	0200      	lsls	r0, r0, #8
    27b2:	bd10      	pop	{r4, pc}
    27b4:	00003d7c 	.word	0x00003d7c
    27b8:	200000d4 	.word	0x200000d4
    27bc:	40000800 	.word	0x40000800
    27c0:	007a1200 	.word	0x007a1200
    27c4:	02dc6c00 	.word	0x02dc6c00
    27c8:	00002bf1 	.word	0x00002bf1

000027cc <system_clock_source_osc8m_set_config>:
    27cc:	b570      	push	{r4, r5, r6, lr}
    27ce:	490c      	ldr	r1, [pc, #48]	; (2800 <system_clock_source_osc8m_set_config+0x34>)
    27d0:	6a0b      	ldr	r3, [r1, #32]
    27d2:	7804      	ldrb	r4, [r0, #0]
    27d4:	7885      	ldrb	r5, [r0, #2]
    27d6:	7840      	ldrb	r0, [r0, #1]
    27d8:	2201      	movs	r2, #1
    27da:	4010      	ands	r0, r2
    27dc:	0180      	lsls	r0, r0, #6
    27de:	2640      	movs	r6, #64	; 0x40
    27e0:	43b3      	bics	r3, r6
    27e2:	4303      	orrs	r3, r0
    27e4:	402a      	ands	r2, r5
    27e6:	01d2      	lsls	r2, r2, #7
    27e8:	2080      	movs	r0, #128	; 0x80
    27ea:	4383      	bics	r3, r0
    27ec:	4313      	orrs	r3, r2
    27ee:	2203      	movs	r2, #3
    27f0:	4022      	ands	r2, r4
    27f2:	0212      	lsls	r2, r2, #8
    27f4:	4803      	ldr	r0, [pc, #12]	; (2804 <system_clock_source_osc8m_set_config+0x38>)
    27f6:	4003      	ands	r3, r0
    27f8:	4313      	orrs	r3, r2
    27fa:	620b      	str	r3, [r1, #32]
    27fc:	bd70      	pop	{r4, r5, r6, pc}
    27fe:	46c0      	nop			; (mov r8, r8)
    2800:	40000800 	.word	0x40000800
    2804:	fffffcff 	.word	0xfffffcff

00002808 <system_clock_source_enable>:
    2808:	2807      	cmp	r0, #7
    280a:	d803      	bhi.n	2814 <system_clock_source_enable+0xc>
    280c:	0080      	lsls	r0, r0, #2
    280e:	4b1e      	ldr	r3, [pc, #120]	; (2888 <system_clock_source_enable+0x80>)
    2810:	581b      	ldr	r3, [r3, r0]
    2812:	469f      	mov	pc, r3
    2814:	2017      	movs	r0, #23
    2816:	e036      	b.n	2886 <system_clock_source_enable+0x7e>
    2818:	4a1c      	ldr	r2, [pc, #112]	; (288c <system_clock_source_enable+0x84>)
    281a:	6a13      	ldr	r3, [r2, #32]
    281c:	2102      	movs	r1, #2
    281e:	430b      	orrs	r3, r1
    2820:	6213      	str	r3, [r2, #32]
    2822:	2000      	movs	r0, #0
    2824:	e02f      	b.n	2886 <system_clock_source_enable+0x7e>
    2826:	4a19      	ldr	r2, [pc, #100]	; (288c <system_clock_source_enable+0x84>)
    2828:	6993      	ldr	r3, [r2, #24]
    282a:	2102      	movs	r1, #2
    282c:	430b      	orrs	r3, r1
    282e:	6193      	str	r3, [r2, #24]
    2830:	2000      	movs	r0, #0
    2832:	e028      	b.n	2886 <system_clock_source_enable+0x7e>
    2834:	4a15      	ldr	r2, [pc, #84]	; (288c <system_clock_source_enable+0x84>)
    2836:	8a13      	ldrh	r3, [r2, #16]
    2838:	2102      	movs	r1, #2
    283a:	430b      	orrs	r3, r1
    283c:	8213      	strh	r3, [r2, #16]
    283e:	2000      	movs	r0, #0
    2840:	e021      	b.n	2886 <system_clock_source_enable+0x7e>
    2842:	4a12      	ldr	r2, [pc, #72]	; (288c <system_clock_source_enable+0x84>)
    2844:	8a93      	ldrh	r3, [r2, #20]
    2846:	2102      	movs	r1, #2
    2848:	430b      	orrs	r3, r1
    284a:	8293      	strh	r3, [r2, #20]
    284c:	2000      	movs	r0, #0
    284e:	e01a      	b.n	2886 <system_clock_source_enable+0x7e>
    2850:	4b0f      	ldr	r3, [pc, #60]	; (2890 <system_clock_source_enable+0x88>)
    2852:	681a      	ldr	r2, [r3, #0]
    2854:	2102      	movs	r1, #2
    2856:	430a      	orrs	r2, r1
    2858:	601a      	str	r2, [r3, #0]
    285a:	681b      	ldr	r3, [r3, #0]
    285c:	4a0d      	ldr	r2, [pc, #52]	; (2894 <system_clock_source_enable+0x8c>)
    285e:	4013      	ands	r3, r2
    2860:	4a0a      	ldr	r2, [pc, #40]	; (288c <system_clock_source_enable+0x84>)
    2862:	8493      	strh	r3, [r2, #36]	; 0x24
    2864:	0011      	movs	r1, r2
    2866:	2210      	movs	r2, #16
    2868:	68cb      	ldr	r3, [r1, #12]
    286a:	421a      	tst	r2, r3
    286c:	d0fc      	beq.n	2868 <system_clock_source_enable+0x60>
    286e:	4a08      	ldr	r2, [pc, #32]	; (2890 <system_clock_source_enable+0x88>)
    2870:	6891      	ldr	r1, [r2, #8]
    2872:	4b06      	ldr	r3, [pc, #24]	; (288c <system_clock_source_enable+0x84>)
    2874:	62d9      	str	r1, [r3, #44]	; 0x2c
    2876:	6851      	ldr	r1, [r2, #4]
    2878:	6299      	str	r1, [r3, #40]	; 0x28
    287a:	6812      	ldr	r2, [r2, #0]
    287c:	b292      	uxth	r2, r2
    287e:	849a      	strh	r2, [r3, #36]	; 0x24
    2880:	2000      	movs	r0, #0
    2882:	e000      	b.n	2886 <system_clock_source_enable+0x7e>
    2884:	2000      	movs	r0, #0
    2886:	4770      	bx	lr
    2888:	00003d9c 	.word	0x00003d9c
    288c:	40000800 	.word	0x40000800
    2890:	200000d4 	.word	0x200000d4
    2894:	0000ff7f 	.word	0x0000ff7f

00002898 <system_clock_init>:
    2898:	b5f0      	push	{r4, r5, r6, r7, lr}
    289a:	46c6      	mov	lr, r8
    289c:	b500      	push	{lr}
    289e:	b084      	sub	sp, #16
    28a0:	22c2      	movs	r2, #194	; 0xc2
    28a2:	00d2      	lsls	r2, r2, #3
    28a4:	4b28      	ldr	r3, [pc, #160]	; (2948 <system_clock_init+0xb0>)
    28a6:	609a      	str	r2, [r3, #8]
    28a8:	4a28      	ldr	r2, [pc, #160]	; (294c <system_clock_init+0xb4>)
    28aa:	6853      	ldr	r3, [r2, #4]
    28ac:	211e      	movs	r1, #30
    28ae:	438b      	bics	r3, r1
    28b0:	6053      	str	r3, [r2, #4]
    28b2:	2302      	movs	r3, #2
    28b4:	466a      	mov	r2, sp
    28b6:	7013      	strb	r3, [r2, #0]
    28b8:	2400      	movs	r4, #0
    28ba:	4d25      	ldr	r5, [pc, #148]	; (2950 <system_clock_init+0xb8>)
    28bc:	b2e0      	uxtb	r0, r4
    28be:	4669      	mov	r1, sp
    28c0:	47a8      	blx	r5
    28c2:	3401      	adds	r4, #1
    28c4:	2c1c      	cmp	r4, #28
    28c6:	d1f9      	bne.n	28bc <system_clock_init+0x24>
    28c8:	a803      	add	r0, sp, #12
    28ca:	2400      	movs	r4, #0
    28cc:	7044      	strb	r4, [r0, #1]
    28ce:	2301      	movs	r3, #1
    28d0:	4698      	mov	r8, r3
    28d2:	7083      	strb	r3, [r0, #2]
    28d4:	7004      	strb	r4, [r0, #0]
    28d6:	4b1f      	ldr	r3, [pc, #124]	; (2954 <system_clock_init+0xbc>)
    28d8:	4798      	blx	r3
    28da:	2006      	movs	r0, #6
    28dc:	4b1e      	ldr	r3, [pc, #120]	; (2958 <system_clock_init+0xc0>)
    28de:	4798      	blx	r3
    28e0:	4b1e      	ldr	r3, [pc, #120]	; (295c <system_clock_init+0xc4>)
    28e2:	4798      	blx	r3
    28e4:	466b      	mov	r3, sp
    28e6:	705c      	strb	r4, [r3, #1]
    28e8:	2706      	movs	r7, #6
    28ea:	701f      	strb	r7, [r3, #0]
    28ec:	721c      	strb	r4, [r3, #8]
    28ee:	725c      	strb	r4, [r3, #9]
    28f0:	2308      	movs	r3, #8
    28f2:	9301      	str	r3, [sp, #4]
    28f4:	4669      	mov	r1, sp
    28f6:	2001      	movs	r0, #1
    28f8:	4e19      	ldr	r6, [pc, #100]	; (2960 <system_clock_init+0xc8>)
    28fa:	47b0      	blx	r6
    28fc:	2001      	movs	r0, #1
    28fe:	4d19      	ldr	r5, [pc, #100]	; (2964 <system_clock_init+0xcc>)
    2900:	47a8      	blx	r5
    2902:	466b      	mov	r3, sp
    2904:	705c      	strb	r4, [r3, #1]
    2906:	721c      	strb	r4, [r3, #8]
    2908:	725c      	strb	r4, [r3, #9]
    290a:	2303      	movs	r3, #3
    290c:	466a      	mov	r2, sp
    290e:	7013      	strb	r3, [r2, #0]
    2910:	333d      	adds	r3, #61	; 0x3d
    2912:	9301      	str	r3, [sp, #4]
    2914:	4669      	mov	r1, sp
    2916:	2004      	movs	r0, #4
    2918:	47b0      	blx	r6
    291a:	2004      	movs	r0, #4
    291c:	47a8      	blx	r5
    291e:	4b12      	ldr	r3, [pc, #72]	; (2968 <system_clock_init+0xd0>)
    2920:	721c      	strb	r4, [r3, #8]
    2922:	725c      	strb	r4, [r3, #9]
    2924:	729c      	strb	r4, [r3, #10]
    2926:	72dc      	strb	r4, [r3, #11]
    2928:	4643      	mov	r3, r8
    292a:	9301      	str	r3, [sp, #4]
    292c:	466b      	mov	r3, sp
    292e:	705c      	strb	r4, [r3, #1]
    2930:	701f      	strb	r7, [r3, #0]
    2932:	721c      	strb	r4, [r3, #8]
    2934:	725c      	strb	r4, [r3, #9]
    2936:	4669      	mov	r1, sp
    2938:	2000      	movs	r0, #0
    293a:	47b0      	blx	r6
    293c:	2000      	movs	r0, #0
    293e:	47a8      	blx	r5
    2940:	b004      	add	sp, #16
    2942:	bc04      	pop	{r2}
    2944:	4690      	mov	r8, r2
    2946:	bdf0      	pop	{r4, r5, r6, r7, pc}
    2948:	40000800 	.word	0x40000800
    294c:	41004000 	.word	0x41004000
    2950:	00002ba5 	.word	0x00002ba5
    2954:	000027cd 	.word	0x000027cd
    2958:	00002809 	.word	0x00002809
    295c:	0000296d 	.word	0x0000296d
    2960:	00002991 	.word	0x00002991
    2964:	00002a49 	.word	0x00002a49
    2968:	40000400 	.word	0x40000400

0000296c <system_gclk_init>:
    296c:	4a06      	ldr	r2, [pc, #24]	; (2988 <system_gclk_init+0x1c>)
    296e:	6993      	ldr	r3, [r2, #24]
    2970:	2108      	movs	r1, #8
    2972:	430b      	orrs	r3, r1
    2974:	6193      	str	r3, [r2, #24]
    2976:	2201      	movs	r2, #1
    2978:	4b04      	ldr	r3, [pc, #16]	; (298c <system_gclk_init+0x20>)
    297a:	701a      	strb	r2, [r3, #0]
    297c:	0019      	movs	r1, r3
    297e:	780b      	ldrb	r3, [r1, #0]
    2980:	4213      	tst	r3, r2
    2982:	d1fc      	bne.n	297e <system_gclk_init+0x12>
    2984:	4770      	bx	lr
    2986:	46c0      	nop			; (mov r8, r8)
    2988:	40000400 	.word	0x40000400
    298c:	40000c00 	.word	0x40000c00

00002990 <system_gclk_gen_set_config>:
    2990:	b570      	push	{r4, r5, r6, lr}
    2992:	0006      	movs	r6, r0
    2994:	0004      	movs	r4, r0
    2996:	780d      	ldrb	r5, [r1, #0]
    2998:	022d      	lsls	r5, r5, #8
    299a:	4305      	orrs	r5, r0
    299c:	784b      	ldrb	r3, [r1, #1]
    299e:	2b00      	cmp	r3, #0
    29a0:	d002      	beq.n	29a8 <system_gclk_gen_set_config+0x18>
    29a2:	2380      	movs	r3, #128	; 0x80
    29a4:	02db      	lsls	r3, r3, #11
    29a6:	431d      	orrs	r5, r3
    29a8:	7a4b      	ldrb	r3, [r1, #9]
    29aa:	2b00      	cmp	r3, #0
    29ac:	d002      	beq.n	29b4 <system_gclk_gen_set_config+0x24>
    29ae:	2380      	movs	r3, #128	; 0x80
    29b0:	031b      	lsls	r3, r3, #12
    29b2:	431d      	orrs	r5, r3
    29b4:	6848      	ldr	r0, [r1, #4]
    29b6:	2801      	cmp	r0, #1
    29b8:	d910      	bls.n	29dc <system_gclk_gen_set_config+0x4c>
    29ba:	1e43      	subs	r3, r0, #1
    29bc:	4218      	tst	r0, r3
    29be:	d134      	bne.n	2a2a <system_gclk_gen_set_config+0x9a>
    29c0:	2802      	cmp	r0, #2
    29c2:	d930      	bls.n	2a26 <system_gclk_gen_set_config+0x96>
    29c4:	2302      	movs	r3, #2
    29c6:	2200      	movs	r2, #0
    29c8:	3201      	adds	r2, #1
    29ca:	005b      	lsls	r3, r3, #1
    29cc:	4298      	cmp	r0, r3
    29ce:	d8fb      	bhi.n	29c8 <system_gclk_gen_set_config+0x38>
    29d0:	0212      	lsls	r2, r2, #8
    29d2:	4332      	orrs	r2, r6
    29d4:	0014      	movs	r4, r2
    29d6:	2380      	movs	r3, #128	; 0x80
    29d8:	035b      	lsls	r3, r3, #13
    29da:	431d      	orrs	r5, r3
    29dc:	7a0b      	ldrb	r3, [r1, #8]
    29de:	2b00      	cmp	r3, #0
    29e0:	d002      	beq.n	29e8 <system_gclk_gen_set_config+0x58>
    29e2:	2380      	movs	r3, #128	; 0x80
    29e4:	039b      	lsls	r3, r3, #14
    29e6:	431d      	orrs	r5, r3
    29e8:	4a13      	ldr	r2, [pc, #76]	; (2a38 <system_gclk_gen_set_config+0xa8>)
    29ea:	7853      	ldrb	r3, [r2, #1]
    29ec:	b25b      	sxtb	r3, r3
    29ee:	2b00      	cmp	r3, #0
    29f0:	dbfb      	blt.n	29ea <system_gclk_gen_set_config+0x5a>
    29f2:	4b12      	ldr	r3, [pc, #72]	; (2a3c <system_gclk_gen_set_config+0xac>)
    29f4:	4798      	blx	r3
    29f6:	4b12      	ldr	r3, [pc, #72]	; (2a40 <system_gclk_gen_set_config+0xb0>)
    29f8:	701e      	strb	r6, [r3, #0]
    29fa:	4a0f      	ldr	r2, [pc, #60]	; (2a38 <system_gclk_gen_set_config+0xa8>)
    29fc:	7853      	ldrb	r3, [r2, #1]
    29fe:	b25b      	sxtb	r3, r3
    2a00:	2b00      	cmp	r3, #0
    2a02:	dbfb      	blt.n	29fc <system_gclk_gen_set_config+0x6c>
    2a04:	4b0c      	ldr	r3, [pc, #48]	; (2a38 <system_gclk_gen_set_config+0xa8>)
    2a06:	609c      	str	r4, [r3, #8]
    2a08:	001a      	movs	r2, r3
    2a0a:	7853      	ldrb	r3, [r2, #1]
    2a0c:	b25b      	sxtb	r3, r3
    2a0e:	2b00      	cmp	r3, #0
    2a10:	dbfb      	blt.n	2a0a <system_gclk_gen_set_config+0x7a>
    2a12:	4a09      	ldr	r2, [pc, #36]	; (2a38 <system_gclk_gen_set_config+0xa8>)
    2a14:	6853      	ldr	r3, [r2, #4]
    2a16:	2180      	movs	r1, #128	; 0x80
    2a18:	0249      	lsls	r1, r1, #9
    2a1a:	400b      	ands	r3, r1
    2a1c:	431d      	orrs	r5, r3
    2a1e:	6055      	str	r5, [r2, #4]
    2a20:	4b08      	ldr	r3, [pc, #32]	; (2a44 <system_gclk_gen_set_config+0xb4>)
    2a22:	4798      	blx	r3
    2a24:	bd70      	pop	{r4, r5, r6, pc}
    2a26:	2200      	movs	r2, #0
    2a28:	e7d2      	b.n	29d0 <system_gclk_gen_set_config+0x40>
    2a2a:	0204      	lsls	r4, r0, #8
    2a2c:	4334      	orrs	r4, r6
    2a2e:	2380      	movs	r3, #128	; 0x80
    2a30:	029b      	lsls	r3, r3, #10
    2a32:	431d      	orrs	r5, r3
    2a34:	e7d2      	b.n	29dc <system_gclk_gen_set_config+0x4c>
    2a36:	46c0      	nop			; (mov r8, r8)
    2a38:	40000c00 	.word	0x40000c00
    2a3c:	00001eed 	.word	0x00001eed
    2a40:	40000c08 	.word	0x40000c08
    2a44:	00001f2d 	.word	0x00001f2d

00002a48 <system_gclk_gen_enable>:
    2a48:	b510      	push	{r4, lr}
    2a4a:	0004      	movs	r4, r0
    2a4c:	4a0b      	ldr	r2, [pc, #44]	; (2a7c <system_gclk_gen_enable+0x34>)
    2a4e:	7853      	ldrb	r3, [r2, #1]
    2a50:	b25b      	sxtb	r3, r3
    2a52:	2b00      	cmp	r3, #0
    2a54:	dbfb      	blt.n	2a4e <system_gclk_gen_enable+0x6>
    2a56:	4b0a      	ldr	r3, [pc, #40]	; (2a80 <system_gclk_gen_enable+0x38>)
    2a58:	4798      	blx	r3
    2a5a:	4b0a      	ldr	r3, [pc, #40]	; (2a84 <system_gclk_gen_enable+0x3c>)
    2a5c:	701c      	strb	r4, [r3, #0]
    2a5e:	4a07      	ldr	r2, [pc, #28]	; (2a7c <system_gclk_gen_enable+0x34>)
    2a60:	7853      	ldrb	r3, [r2, #1]
    2a62:	b25b      	sxtb	r3, r3
    2a64:	2b00      	cmp	r3, #0
    2a66:	dbfb      	blt.n	2a60 <system_gclk_gen_enable+0x18>
    2a68:	4a04      	ldr	r2, [pc, #16]	; (2a7c <system_gclk_gen_enable+0x34>)
    2a6a:	6851      	ldr	r1, [r2, #4]
    2a6c:	2380      	movs	r3, #128	; 0x80
    2a6e:	025b      	lsls	r3, r3, #9
    2a70:	430b      	orrs	r3, r1
    2a72:	6053      	str	r3, [r2, #4]
    2a74:	4b04      	ldr	r3, [pc, #16]	; (2a88 <system_gclk_gen_enable+0x40>)
    2a76:	4798      	blx	r3
    2a78:	bd10      	pop	{r4, pc}
    2a7a:	46c0      	nop			; (mov r8, r8)
    2a7c:	40000c00 	.word	0x40000c00
    2a80:	00001eed 	.word	0x00001eed
    2a84:	40000c04 	.word	0x40000c04
    2a88:	00001f2d 	.word	0x00001f2d

00002a8c <system_gclk_gen_get_hz>:
    2a8c:	b570      	push	{r4, r5, r6, lr}
    2a8e:	0004      	movs	r4, r0
    2a90:	4a1a      	ldr	r2, [pc, #104]	; (2afc <system_gclk_gen_get_hz+0x70>)
    2a92:	7853      	ldrb	r3, [r2, #1]
    2a94:	b25b      	sxtb	r3, r3
    2a96:	2b00      	cmp	r3, #0
    2a98:	dbfb      	blt.n	2a92 <system_gclk_gen_get_hz+0x6>
    2a9a:	4b19      	ldr	r3, [pc, #100]	; (2b00 <system_gclk_gen_get_hz+0x74>)
    2a9c:	4798      	blx	r3
    2a9e:	4b19      	ldr	r3, [pc, #100]	; (2b04 <system_gclk_gen_get_hz+0x78>)
    2aa0:	701c      	strb	r4, [r3, #0]
    2aa2:	4a16      	ldr	r2, [pc, #88]	; (2afc <system_gclk_gen_get_hz+0x70>)
    2aa4:	7853      	ldrb	r3, [r2, #1]
    2aa6:	b25b      	sxtb	r3, r3
    2aa8:	2b00      	cmp	r3, #0
    2aaa:	dbfb      	blt.n	2aa4 <system_gclk_gen_get_hz+0x18>
    2aac:	4e13      	ldr	r6, [pc, #76]	; (2afc <system_gclk_gen_get_hz+0x70>)
    2aae:	6870      	ldr	r0, [r6, #4]
    2ab0:	04c0      	lsls	r0, r0, #19
    2ab2:	0ec0      	lsrs	r0, r0, #27
    2ab4:	4b14      	ldr	r3, [pc, #80]	; (2b08 <system_gclk_gen_get_hz+0x7c>)
    2ab6:	4798      	blx	r3
    2ab8:	0005      	movs	r5, r0
    2aba:	4b12      	ldr	r3, [pc, #72]	; (2b04 <system_gclk_gen_get_hz+0x78>)
    2abc:	701c      	strb	r4, [r3, #0]
    2abe:	6876      	ldr	r6, [r6, #4]
    2ac0:	02f6      	lsls	r6, r6, #11
    2ac2:	0ff6      	lsrs	r6, r6, #31
    2ac4:	4b11      	ldr	r3, [pc, #68]	; (2b0c <system_gclk_gen_get_hz+0x80>)
    2ac6:	701c      	strb	r4, [r3, #0]
    2ac8:	4a0c      	ldr	r2, [pc, #48]	; (2afc <system_gclk_gen_get_hz+0x70>)
    2aca:	7853      	ldrb	r3, [r2, #1]
    2acc:	b25b      	sxtb	r3, r3
    2ace:	2b00      	cmp	r3, #0
    2ad0:	dbfb      	blt.n	2aca <system_gclk_gen_get_hz+0x3e>
    2ad2:	4b0a      	ldr	r3, [pc, #40]	; (2afc <system_gclk_gen_get_hz+0x70>)
    2ad4:	689c      	ldr	r4, [r3, #8]
    2ad6:	0224      	lsls	r4, r4, #8
    2ad8:	0c24      	lsrs	r4, r4, #16
    2ada:	4b0d      	ldr	r3, [pc, #52]	; (2b10 <system_gclk_gen_get_hz+0x84>)
    2adc:	4798      	blx	r3
    2ade:	2e00      	cmp	r6, #0
    2ae0:	d107      	bne.n	2af2 <system_gclk_gen_get_hz+0x66>
    2ae2:	2c01      	cmp	r4, #1
    2ae4:	d907      	bls.n	2af6 <system_gclk_gen_get_hz+0x6a>
    2ae6:	0021      	movs	r1, r4
    2ae8:	0028      	movs	r0, r5
    2aea:	4b0a      	ldr	r3, [pc, #40]	; (2b14 <system_gclk_gen_get_hz+0x88>)
    2aec:	4798      	blx	r3
    2aee:	0005      	movs	r5, r0
    2af0:	e001      	b.n	2af6 <system_gclk_gen_get_hz+0x6a>
    2af2:	3401      	adds	r4, #1
    2af4:	40e5      	lsrs	r5, r4
    2af6:	0028      	movs	r0, r5
    2af8:	bd70      	pop	{r4, r5, r6, pc}
    2afa:	46c0      	nop			; (mov r8, r8)
    2afc:	40000c00 	.word	0x40000c00
    2b00:	00001eed 	.word	0x00001eed
    2b04:	40000c04 	.word	0x40000c04
    2b08:	00002751 	.word	0x00002751
    2b0c:	40000c08 	.word	0x40000c08
    2b10:	00001f2d 	.word	0x00001f2d
    2b14:	00002efd 	.word	0x00002efd

00002b18 <system_gclk_chan_enable>:
    2b18:	b510      	push	{r4, lr}
    2b1a:	0004      	movs	r4, r0
    2b1c:	4b06      	ldr	r3, [pc, #24]	; (2b38 <system_gclk_chan_enable+0x20>)
    2b1e:	4798      	blx	r3
    2b20:	4b06      	ldr	r3, [pc, #24]	; (2b3c <system_gclk_chan_enable+0x24>)
    2b22:	701c      	strb	r4, [r3, #0]
    2b24:	4a06      	ldr	r2, [pc, #24]	; (2b40 <system_gclk_chan_enable+0x28>)
    2b26:	8853      	ldrh	r3, [r2, #2]
    2b28:	2180      	movs	r1, #128	; 0x80
    2b2a:	01c9      	lsls	r1, r1, #7
    2b2c:	430b      	orrs	r3, r1
    2b2e:	8053      	strh	r3, [r2, #2]
    2b30:	4b04      	ldr	r3, [pc, #16]	; (2b44 <system_gclk_chan_enable+0x2c>)
    2b32:	4798      	blx	r3
    2b34:	bd10      	pop	{r4, pc}
    2b36:	46c0      	nop			; (mov r8, r8)
    2b38:	00001eed 	.word	0x00001eed
    2b3c:	40000c02 	.word	0x40000c02
    2b40:	40000c00 	.word	0x40000c00
    2b44:	00001f2d 	.word	0x00001f2d

00002b48 <system_gclk_chan_disable>:
    2b48:	b510      	push	{r4, lr}
    2b4a:	0004      	movs	r4, r0
    2b4c:	4b0f      	ldr	r3, [pc, #60]	; (2b8c <system_gclk_chan_disable+0x44>)
    2b4e:	4798      	blx	r3
    2b50:	4b0f      	ldr	r3, [pc, #60]	; (2b90 <system_gclk_chan_disable+0x48>)
    2b52:	701c      	strb	r4, [r3, #0]
    2b54:	4a0f      	ldr	r2, [pc, #60]	; (2b94 <system_gclk_chan_disable+0x4c>)
    2b56:	8853      	ldrh	r3, [r2, #2]
    2b58:	051b      	lsls	r3, r3, #20
    2b5a:	0f18      	lsrs	r0, r3, #28
    2b5c:	8853      	ldrh	r3, [r2, #2]
    2b5e:	490e      	ldr	r1, [pc, #56]	; (2b98 <system_gclk_chan_disable+0x50>)
    2b60:	400b      	ands	r3, r1
    2b62:	8053      	strh	r3, [r2, #2]
    2b64:	8853      	ldrh	r3, [r2, #2]
    2b66:	490d      	ldr	r1, [pc, #52]	; (2b9c <system_gclk_chan_disable+0x54>)
    2b68:	400b      	ands	r3, r1
    2b6a:	8053      	strh	r3, [r2, #2]
    2b6c:	0011      	movs	r1, r2
    2b6e:	2280      	movs	r2, #128	; 0x80
    2b70:	01d2      	lsls	r2, r2, #7
    2b72:	884b      	ldrh	r3, [r1, #2]
    2b74:	4213      	tst	r3, r2
    2b76:	d1fc      	bne.n	2b72 <system_gclk_chan_disable+0x2a>
    2b78:	4906      	ldr	r1, [pc, #24]	; (2b94 <system_gclk_chan_disable+0x4c>)
    2b7a:	884a      	ldrh	r2, [r1, #2]
    2b7c:	0203      	lsls	r3, r0, #8
    2b7e:	4806      	ldr	r0, [pc, #24]	; (2b98 <system_gclk_chan_disable+0x50>)
    2b80:	4002      	ands	r2, r0
    2b82:	4313      	orrs	r3, r2
    2b84:	804b      	strh	r3, [r1, #2]
    2b86:	4b06      	ldr	r3, [pc, #24]	; (2ba0 <system_gclk_chan_disable+0x58>)
    2b88:	4798      	blx	r3
    2b8a:	bd10      	pop	{r4, pc}
    2b8c:	00001eed 	.word	0x00001eed
    2b90:	40000c02 	.word	0x40000c02
    2b94:	40000c00 	.word	0x40000c00
    2b98:	fffff0ff 	.word	0xfffff0ff
    2b9c:	ffffbfff 	.word	0xffffbfff
    2ba0:	00001f2d 	.word	0x00001f2d

00002ba4 <system_gclk_chan_set_config>:
    2ba4:	b510      	push	{r4, lr}
    2ba6:	780c      	ldrb	r4, [r1, #0]
    2ba8:	0224      	lsls	r4, r4, #8
    2baa:	4304      	orrs	r4, r0
    2bac:	4b02      	ldr	r3, [pc, #8]	; (2bb8 <system_gclk_chan_set_config+0x14>)
    2bae:	4798      	blx	r3
    2bb0:	b2a4      	uxth	r4, r4
    2bb2:	4b02      	ldr	r3, [pc, #8]	; (2bbc <system_gclk_chan_set_config+0x18>)
    2bb4:	805c      	strh	r4, [r3, #2]
    2bb6:	bd10      	pop	{r4, pc}
    2bb8:	00002b49 	.word	0x00002b49
    2bbc:	40000c00 	.word	0x40000c00

00002bc0 <system_gclk_chan_lock>:
    2bc0:	b510      	push	{r4, lr}
    2bc2:	0004      	movs	r4, r0
    2bc4:	4b06      	ldr	r3, [pc, #24]	; (2be0 <system_gclk_chan_lock+0x20>)
    2bc6:	4798      	blx	r3
    2bc8:	4b06      	ldr	r3, [pc, #24]	; (2be4 <system_gclk_chan_lock+0x24>)
    2bca:	701c      	strb	r4, [r3, #0]
    2bcc:	4a06      	ldr	r2, [pc, #24]	; (2be8 <system_gclk_chan_lock+0x28>)
    2bce:	8853      	ldrh	r3, [r2, #2]
    2bd0:	21c0      	movs	r1, #192	; 0xc0
    2bd2:	0209      	lsls	r1, r1, #8
    2bd4:	430b      	orrs	r3, r1
    2bd6:	8053      	strh	r3, [r2, #2]
    2bd8:	4b04      	ldr	r3, [pc, #16]	; (2bec <system_gclk_chan_lock+0x2c>)
    2bda:	4798      	blx	r3
    2bdc:	bd10      	pop	{r4, pc}
    2bde:	46c0      	nop			; (mov r8, r8)
    2be0:	00001eed 	.word	0x00001eed
    2be4:	40000c02 	.word	0x40000c02
    2be8:	40000c00 	.word	0x40000c00
    2bec:	00001f2d 	.word	0x00001f2d

00002bf0 <system_gclk_chan_get_hz>:
    2bf0:	b510      	push	{r4, lr}
    2bf2:	0004      	movs	r4, r0
    2bf4:	4b06      	ldr	r3, [pc, #24]	; (2c10 <system_gclk_chan_get_hz+0x20>)
    2bf6:	4798      	blx	r3
    2bf8:	4b06      	ldr	r3, [pc, #24]	; (2c14 <system_gclk_chan_get_hz+0x24>)
    2bfa:	701c      	strb	r4, [r3, #0]
    2bfc:	4b06      	ldr	r3, [pc, #24]	; (2c18 <system_gclk_chan_get_hz+0x28>)
    2bfe:	885c      	ldrh	r4, [r3, #2]
    2c00:	0524      	lsls	r4, r4, #20
    2c02:	0f24      	lsrs	r4, r4, #28
    2c04:	4b05      	ldr	r3, [pc, #20]	; (2c1c <system_gclk_chan_get_hz+0x2c>)
    2c06:	4798      	blx	r3
    2c08:	0020      	movs	r0, r4
    2c0a:	4b05      	ldr	r3, [pc, #20]	; (2c20 <system_gclk_chan_get_hz+0x30>)
    2c0c:	4798      	blx	r3
    2c0e:	bd10      	pop	{r4, pc}
    2c10:	00001eed 	.word	0x00001eed
    2c14:	40000c02 	.word	0x40000c02
    2c18:	40000c00 	.word	0x40000c00
    2c1c:	00001f2d 	.word	0x00001f2d
    2c20:	00002a8d 	.word	0x00002a8d

00002c24 <_system_pinmux_config>:
    2c24:	b530      	push	{r4, r5, lr}
    2c26:	78d3      	ldrb	r3, [r2, #3]
    2c28:	2b00      	cmp	r3, #0
    2c2a:	d135      	bne.n	2c98 <_system_pinmux_config+0x74>
    2c2c:	7813      	ldrb	r3, [r2, #0]
    2c2e:	2b80      	cmp	r3, #128	; 0x80
    2c30:	d029      	beq.n	2c86 <_system_pinmux_config+0x62>
    2c32:	061b      	lsls	r3, r3, #24
    2c34:	2480      	movs	r4, #128	; 0x80
    2c36:	0264      	lsls	r4, r4, #9
    2c38:	4323      	orrs	r3, r4
    2c3a:	7854      	ldrb	r4, [r2, #1]
    2c3c:	2502      	movs	r5, #2
    2c3e:	43ac      	bics	r4, r5
    2c40:	d106      	bne.n	2c50 <_system_pinmux_config+0x2c>
    2c42:	7894      	ldrb	r4, [r2, #2]
    2c44:	2c00      	cmp	r4, #0
    2c46:	d120      	bne.n	2c8a <_system_pinmux_config+0x66>
    2c48:	2480      	movs	r4, #128	; 0x80
    2c4a:	02a4      	lsls	r4, r4, #10
    2c4c:	4323      	orrs	r3, r4
    2c4e:	6041      	str	r1, [r0, #4]
    2c50:	7854      	ldrb	r4, [r2, #1]
    2c52:	3c01      	subs	r4, #1
    2c54:	2c01      	cmp	r4, #1
    2c56:	d91c      	bls.n	2c92 <_system_pinmux_config+0x6e>
    2c58:	040d      	lsls	r5, r1, #16
    2c5a:	0c2d      	lsrs	r5, r5, #16
    2c5c:	24a0      	movs	r4, #160	; 0xa0
    2c5e:	05e4      	lsls	r4, r4, #23
    2c60:	432c      	orrs	r4, r5
    2c62:	431c      	orrs	r4, r3
    2c64:	6284      	str	r4, [r0, #40]	; 0x28
    2c66:	0c0d      	lsrs	r5, r1, #16
    2c68:	24d0      	movs	r4, #208	; 0xd0
    2c6a:	0624      	lsls	r4, r4, #24
    2c6c:	432c      	orrs	r4, r5
    2c6e:	431c      	orrs	r4, r3
    2c70:	6284      	str	r4, [r0, #40]	; 0x28
    2c72:	78d4      	ldrb	r4, [r2, #3]
    2c74:	2c00      	cmp	r4, #0
    2c76:	d122      	bne.n	2cbe <_system_pinmux_config+0x9a>
    2c78:	035b      	lsls	r3, r3, #13
    2c7a:	d51c      	bpl.n	2cb6 <_system_pinmux_config+0x92>
    2c7c:	7893      	ldrb	r3, [r2, #2]
    2c7e:	2b01      	cmp	r3, #1
    2c80:	d01e      	beq.n	2cc0 <_system_pinmux_config+0x9c>
    2c82:	6141      	str	r1, [r0, #20]
    2c84:	e017      	b.n	2cb6 <_system_pinmux_config+0x92>
    2c86:	2300      	movs	r3, #0
    2c88:	e7d7      	b.n	2c3a <_system_pinmux_config+0x16>
    2c8a:	24c0      	movs	r4, #192	; 0xc0
    2c8c:	02e4      	lsls	r4, r4, #11
    2c8e:	4323      	orrs	r3, r4
    2c90:	e7dd      	b.n	2c4e <_system_pinmux_config+0x2a>
    2c92:	4c0d      	ldr	r4, [pc, #52]	; (2cc8 <_system_pinmux_config+0xa4>)
    2c94:	4023      	ands	r3, r4
    2c96:	e7df      	b.n	2c58 <_system_pinmux_config+0x34>
    2c98:	6041      	str	r1, [r0, #4]
    2c9a:	040c      	lsls	r4, r1, #16
    2c9c:	0c24      	lsrs	r4, r4, #16
    2c9e:	23a0      	movs	r3, #160	; 0xa0
    2ca0:	05db      	lsls	r3, r3, #23
    2ca2:	4323      	orrs	r3, r4
    2ca4:	6283      	str	r3, [r0, #40]	; 0x28
    2ca6:	0c0c      	lsrs	r4, r1, #16
    2ca8:	23d0      	movs	r3, #208	; 0xd0
    2caa:	061b      	lsls	r3, r3, #24
    2cac:	4323      	orrs	r3, r4
    2cae:	6283      	str	r3, [r0, #40]	; 0x28
    2cb0:	78d3      	ldrb	r3, [r2, #3]
    2cb2:	2b00      	cmp	r3, #0
    2cb4:	d103      	bne.n	2cbe <_system_pinmux_config+0x9a>
    2cb6:	7853      	ldrb	r3, [r2, #1]
    2cb8:	3b01      	subs	r3, #1
    2cba:	2b01      	cmp	r3, #1
    2cbc:	d902      	bls.n	2cc4 <_system_pinmux_config+0xa0>
    2cbe:	bd30      	pop	{r4, r5, pc}
    2cc0:	6181      	str	r1, [r0, #24]
    2cc2:	e7f8      	b.n	2cb6 <_system_pinmux_config+0x92>
    2cc4:	6081      	str	r1, [r0, #8]
    2cc6:	e7fa      	b.n	2cbe <_system_pinmux_config+0x9a>
    2cc8:	fffbffff 	.word	0xfffbffff

00002ccc <system_pinmux_pin_set_config>:
    2ccc:	b510      	push	{r4, lr}
    2cce:	000a      	movs	r2, r1
    2cd0:	09c1      	lsrs	r1, r0, #7
    2cd2:	2300      	movs	r3, #0
    2cd4:	2900      	cmp	r1, #0
    2cd6:	d104      	bne.n	2ce2 <system_pinmux_pin_set_config+0x16>
    2cd8:	0943      	lsrs	r3, r0, #5
    2cda:	01db      	lsls	r3, r3, #7
    2cdc:	4905      	ldr	r1, [pc, #20]	; (2cf4 <system_pinmux_pin_set_config+0x28>)
    2cde:	468c      	mov	ip, r1
    2ce0:	4463      	add	r3, ip
    2ce2:	241f      	movs	r4, #31
    2ce4:	4020      	ands	r0, r4
    2ce6:	2101      	movs	r1, #1
    2ce8:	4081      	lsls	r1, r0
    2cea:	0018      	movs	r0, r3
    2cec:	4b02      	ldr	r3, [pc, #8]	; (2cf8 <system_pinmux_pin_set_config+0x2c>)
    2cee:	4798      	blx	r3
    2cf0:	bd10      	pop	{r4, pc}
    2cf2:	46c0      	nop			; (mov r8, r8)
    2cf4:	41004400 	.word	0x41004400
    2cf8:	00002c25 	.word	0x00002c25

00002cfc <_system_dummy_init>:
    2cfc:	4770      	bx	lr
	...

00002d00 <system_init>:
    2d00:	b510      	push	{r4, lr}
    2d02:	4b05      	ldr	r3, [pc, #20]	; (2d18 <system_init+0x18>)
    2d04:	4798      	blx	r3
    2d06:	4b05      	ldr	r3, [pc, #20]	; (2d1c <system_init+0x1c>)
    2d08:	4798      	blx	r3
    2d0a:	4b05      	ldr	r3, [pc, #20]	; (2d20 <system_init+0x20>)
    2d0c:	4798      	blx	r3
    2d0e:	4b05      	ldr	r3, [pc, #20]	; (2d24 <system_init+0x24>)
    2d10:	4798      	blx	r3
    2d12:	4b05      	ldr	r3, [pc, #20]	; (2d28 <system_init+0x28>)
    2d14:	4798      	blx	r3
    2d16:	bd10      	pop	{r4, pc}
    2d18:	00002899 	.word	0x00002899
    2d1c:	00001f5d 	.word	0x00001f5d
    2d20:	00002cfd 	.word	0x00002cfd
    2d24:	000018a1 	.word	0x000018a1
    2d28:	00002cfd 	.word	0x00002cfd

00002d2c <Dummy_Handler>:
    2d2c:	e7fe      	b.n	2d2c <Dummy_Handler>
	...

00002d30 <Reset_Handler>:
    2d30:	b510      	push	{r4, lr}
    2d32:	4a1a      	ldr	r2, [pc, #104]	; (2d9c <Reset_Handler+0x6c>)
    2d34:	4b1a      	ldr	r3, [pc, #104]	; (2da0 <Reset_Handler+0x70>)
    2d36:	429a      	cmp	r2, r3
    2d38:	d011      	beq.n	2d5e <Reset_Handler+0x2e>
    2d3a:	001a      	movs	r2, r3
    2d3c:	4b19      	ldr	r3, [pc, #100]	; (2da4 <Reset_Handler+0x74>)
    2d3e:	429a      	cmp	r2, r3
    2d40:	d20d      	bcs.n	2d5e <Reset_Handler+0x2e>
    2d42:	4a19      	ldr	r2, [pc, #100]	; (2da8 <Reset_Handler+0x78>)
    2d44:	3303      	adds	r3, #3
    2d46:	1a9b      	subs	r3, r3, r2
    2d48:	089b      	lsrs	r3, r3, #2
    2d4a:	3301      	adds	r3, #1
    2d4c:	009b      	lsls	r3, r3, #2
    2d4e:	2200      	movs	r2, #0
    2d50:	4813      	ldr	r0, [pc, #76]	; (2da0 <Reset_Handler+0x70>)
    2d52:	4912      	ldr	r1, [pc, #72]	; (2d9c <Reset_Handler+0x6c>)
    2d54:	588c      	ldr	r4, [r1, r2]
    2d56:	5084      	str	r4, [r0, r2]
    2d58:	3204      	adds	r2, #4
    2d5a:	429a      	cmp	r2, r3
    2d5c:	d1fa      	bne.n	2d54 <Reset_Handler+0x24>
    2d5e:	4a13      	ldr	r2, [pc, #76]	; (2dac <Reset_Handler+0x7c>)
    2d60:	4b13      	ldr	r3, [pc, #76]	; (2db0 <Reset_Handler+0x80>)
    2d62:	429a      	cmp	r2, r3
    2d64:	d20a      	bcs.n	2d7c <Reset_Handler+0x4c>
    2d66:	43d3      	mvns	r3, r2
    2d68:	4911      	ldr	r1, [pc, #68]	; (2db0 <Reset_Handler+0x80>)
    2d6a:	185b      	adds	r3, r3, r1
    2d6c:	2103      	movs	r1, #3
    2d6e:	438b      	bics	r3, r1
    2d70:	3304      	adds	r3, #4
    2d72:	189b      	adds	r3, r3, r2
    2d74:	2100      	movs	r1, #0
    2d76:	c202      	stmia	r2!, {r1}
    2d78:	4293      	cmp	r3, r2
    2d7a:	d1fc      	bne.n	2d76 <Reset_Handler+0x46>
    2d7c:	4a0d      	ldr	r2, [pc, #52]	; (2db4 <Reset_Handler+0x84>)
    2d7e:	21ff      	movs	r1, #255	; 0xff
    2d80:	4b0d      	ldr	r3, [pc, #52]	; (2db8 <Reset_Handler+0x88>)
    2d82:	438b      	bics	r3, r1
    2d84:	6093      	str	r3, [r2, #8]
    2d86:	4a0d      	ldr	r2, [pc, #52]	; (2dbc <Reset_Handler+0x8c>)
    2d88:	6853      	ldr	r3, [r2, #4]
    2d8a:	397f      	subs	r1, #127	; 0x7f
    2d8c:	430b      	orrs	r3, r1
    2d8e:	6053      	str	r3, [r2, #4]
    2d90:	4b0b      	ldr	r3, [pc, #44]	; (2dc0 <Reset_Handler+0x90>)
    2d92:	4798      	blx	r3
    2d94:	4b0b      	ldr	r3, [pc, #44]	; (2dc4 <Reset_Handler+0x94>)
    2d96:	4798      	blx	r3
    2d98:	e7fe      	b.n	2d98 <Reset_Handler+0x68>
    2d9a:	46c0      	nop			; (mov r8, r8)
    2d9c:	00003e38 	.word	0x00003e38
    2da0:	20000000 	.word	0x20000000
    2da4:	20000070 	.word	0x20000070
    2da8:	20000004 	.word	0x20000004
    2dac:	20000070 	.word	0x20000070
    2db0:	20005550 	.word	0x20005550
    2db4:	e000ed00 	.word	0xe000ed00
    2db8:	00000000 	.word	0x00000000
    2dbc:	41004000 	.word	0x41004000
    2dc0:	0000323d 	.word	0x0000323d
    2dc4:	00002e09 	.word	0x00002e09

00002dc8 <_sbrk>:
    2dc8:	0003      	movs	r3, r0
    2dca:	4a06      	ldr	r2, [pc, #24]	; (2de4 <_sbrk+0x1c>)
    2dcc:	6812      	ldr	r2, [r2, #0]
    2dce:	2a00      	cmp	r2, #0
    2dd0:	d004      	beq.n	2ddc <_sbrk+0x14>
    2dd2:	4a04      	ldr	r2, [pc, #16]	; (2de4 <_sbrk+0x1c>)
    2dd4:	6810      	ldr	r0, [r2, #0]
    2dd6:	18c3      	adds	r3, r0, r3
    2dd8:	6013      	str	r3, [r2, #0]
    2dda:	4770      	bx	lr
    2ddc:	4902      	ldr	r1, [pc, #8]	; (2de8 <_sbrk+0x20>)
    2dde:	4a01      	ldr	r2, [pc, #4]	; (2de4 <_sbrk+0x1c>)
    2de0:	6011      	str	r1, [r2, #0]
    2de2:	e7f6      	b.n	2dd2 <_sbrk+0xa>
    2de4:	200000e8 	.word	0x200000e8
    2de8:	20007550 	.word	0x20007550

00002dec <usart_read_Mainfunc>:
	
}


void usart_read_Mainfunc(void)
{
    2dec:	b510      	push	{r4, lr}
	usart_read_buffer_job(Debug_COM, &tmp_uart_buf, 1);
    2dee:	2201      	movs	r2, #1
    2df0:	4902      	ldr	r1, [pc, #8]	; (2dfc <usart_read_Mainfunc+0x10>)
    2df2:	4803      	ldr	r0, [pc, #12]	; (2e00 <usart_read_Mainfunc+0x14>)
    2df4:	4b03      	ldr	r3, [pc, #12]	; (2e04 <usart_read_Mainfunc+0x18>)
    2df6:	4798      	blx	r3
}
    2df8:	bd10      	pop	{r4, pc}
    2dfa:	46c0      	nop			; (mov r8, r8)
    2dfc:	20000348 	.word	0x20000348
    2e00:	20000110 	.word	0x20000110
    2e04:	0000260d 	.word	0x0000260d

00002e08 <main>:




int main(void)
{
    2e08:	b5f0      	push	{r4, r5, r6, r7, lr}
    2e0a:	46c6      	mov	lr, r8
    2e0c:	b500      	push	{lr}
    2e0e:	b09a      	sub	sp, #104	; 0x68
	UINT16u_t tmp16;
	volatile Write_PLC_List_t *Write_PLC_List_Index = Write_PLC_List_In_RAM;
	volatile LORA_Dev_List_t *LORA_Dev_List_Index = LORA_Dev_List_In_RAM;
	char str[100];
	
	Main_Startup();
    2e10:	4b24      	ldr	r3, [pc, #144]	; (2ea4 <main+0x9c>)
    2e12:	4798      	blx	r3
	My_WiFi.Cycletime = 600;
    2e14:	4e24      	ldr	r6, [pc, #144]	; (2ea8 <main+0xa0>)
    2e16:	2296      	movs	r2, #150	; 0x96
    2e18:	0092      	lsls	r2, r2, #2
    2e1a:	4b24      	ldr	r3, [pc, #144]	; (2eac <main+0xa4>)
    2e1c:	50f2      	str	r2, [r6, r3]
	//EEPROM_initial();
	mGateway.uEMS.uModule.eID	= &define_eID;
    2e1e:	4d24      	ldr	r5, [pc, #144]	; (2eb0 <main+0xa8>)
    2e20:	4b24      	ldr	r3, [pc, #144]	; (2eb4 <main+0xac>)
    2e22:	612b      	str	r3, [r5, #16]
	eID_initial(mGateway.uEMS.uModule.eID);
    2e24:	6928      	ldr	r0, [r5, #16]
    2e26:	4b24      	ldr	r3, [pc, #144]	; (2eb8 <main+0xb0>)
    2e28:	4798      	blx	r3
	
	Load_eID_Flag(mGateway.uEMS.uModule.eID);
    2e2a:	6928      	ldr	r0, [r5, #16]
    2e2c:	4f23      	ldr	r7, [pc, #140]	; (2ebc <main+0xb4>)
    2e2e:	47b8      	blx	r7
	mGateway.uEMS.uModule.uID.dword = mGateway.uEMS.uModule.uID.dword + 0x01020304;
    2e30:	696b      	ldr	r3, [r5, #20]
    2e32:	4a23      	ldr	r2, [pc, #140]	; (2ec0 <main+0xb8>)
    2e34:	4694      	mov	ip, r2
    2e36:	4463      	add	r3, ip
    2e38:	616b      	str	r3, [r5, #20]
	Save_eID_Flag(mGateway.uEMS.uModule.eID);
    2e3a:	6928      	ldr	r0, [r5, #16]
    2e3c:	4b21      	ldr	r3, [pc, #132]	; (2ec4 <main+0xbc>)
    2e3e:	4798      	blx	r3
	Load_eID_Flag(mGateway.uEMS.uModule.eID);
    2e40:	6928      	ldr	r0, [r5, #16]
    2e42:	47b8      	blx	r7


	
	user_switch = false;
    2e44:	2300      	movs	r3, #0
    2e46:	4a20      	ldr	r2, [pc, #128]	; (2ec8 <main+0xc0>)
    2e48:	7013      	strb	r3, [r2, #0]
	My_WiFi.wifi_work_led_flag =  true;
    2e4a:	2201      	movs	r2, #1
    2e4c:	491f      	ldr	r1, [pc, #124]	; (2ecc <main+0xc4>)
    2e4e:	5472      	strb	r2, [r6, r1]
	My_WiFi.debug_flag = true;
    2e50:	491f      	ldr	r1, [pc, #124]	; (2ed0 <main+0xc8>)
    2e52:	5472      	strb	r2, [r6, r1]
	
	//LORA01->Lora_Debug_Flag = 1;
	My_WiFi.inAP_Mode = false;
    2e54:	2284      	movs	r2, #132	; 0x84
    2e56:	0112      	lsls	r2, r2, #4
    2e58:	54b3      	strb	r3, [r6, r2]
	
	usart_read_Mainfunc(); //Ĳo 	
    2e5a:	4b1e      	ldr	r3, [pc, #120]	; (2ed4 <main+0xcc>)
    2e5c:	4798      	blx	r3
	
	unsigned int testCounter;
	while (true)
	{
		wdt_reset_count();
    2e5e:	4d1e      	ldr	r5, [pc, #120]	; (2ed8 <main+0xd0>)
		if(testCounter == 100)
		{
			
			My_WiFi.NTC_No_01 = getADC_NTC(ADC_POSITIVE_INPUT_PIN0);
    2e60:	4b1e      	ldr	r3, [pc, #120]	; (2edc <main+0xd4>)
    2e62:	4698      	mov	r8, r3
    2e64:	4f10      	ldr	r7, [pc, #64]	; (2ea8 <main+0xa0>)
    2e66:	e018      	b.n	2e9a <main+0x92>
    2e68:	2000      	movs	r0, #0
    2e6a:	47c0      	blx	r8
    2e6c:	0002      	movs	r2, r0
    2e6e:	4b1c      	ldr	r3, [pc, #112]	; (2ee0 <main+0xd8>)
    2e70:	50f8      	str	r0, [r7, r3]
			sprintf(str, "\r NTC_No_01 = (%06d) ", My_WiFi.NTC_No_01);
    2e72:	491c      	ldr	r1, [pc, #112]	; (2ee4 <main+0xdc>)
    2e74:	a801      	add	r0, sp, #4
    2e76:	4b1c      	ldr	r3, [pc, #112]	; (2ee8 <main+0xe0>)
    2e78:	4798      	blx	r3
			uart_str_COM(Debug_COM, str);
    2e7a:	4e1c      	ldr	r6, [pc, #112]	; (2eec <main+0xe4>)
    2e7c:	a901      	add	r1, sp, #4
    2e7e:	0030      	movs	r0, r6
    2e80:	4c1b      	ldr	r4, [pc, #108]	; (2ef0 <main+0xe8>)
    2e82:	47a0      	blx	r4
			
			uart_str_COM(Debug_COM, "[Run]");
    2e84:	491b      	ldr	r1, [pc, #108]	; (2ef4 <main+0xec>)
    2e86:	0030      	movs	r0, r6
    2e88:	47a0      	blx	r4
			//uart_str_COM(Debug_COM, "\r[Save]");
			//Save_eID_Flag(uEMS.ECM01.eID);
			uart_str_COM(Debug_COM, "\r[Read]");
    2e8a:	491b      	ldr	r1, [pc, #108]	; (2ef8 <main+0xf0>)
    2e8c:	0030      	movs	r0, r6
    2e8e:	47a0      	blx	r4
			Load_eID_Flag(mGateway.uEMS.uModule.eID);
    2e90:	4b07      	ldr	r3, [pc, #28]	; (2eb0 <main+0xa8>)
    2e92:	6918      	ldr	r0, [r3, #16]
    2e94:	4b09      	ldr	r3, [pc, #36]	; (2ebc <main+0xb4>)
    2e96:	4798      	blx	r3
			testCounter=0;
    2e98:	2400      	movs	r4, #0
		wdt_reset_count();
    2e9a:	47a8      	blx	r5
		if(testCounter == 100)
    2e9c:	2c64      	cmp	r4, #100	; 0x64
    2e9e:	d0e3      	beq.n	2e68 <main+0x60>
			//break;
		}
		else
		{
			testCounter++;
    2ea0:	3401      	adds	r4, #1
    2ea2:	e7fa      	b.n	2e9a <main+0x92>
    2ea4:	000008c1 	.word	0x000008c1
    2ea8:	200040f8 	.word	0x200040f8
    2eac:	00000824 	.word	0x00000824
    2eb0:	20000c10 	.word	0x20000c10
    2eb4:	20002f54 	.word	0x20002f54
    2eb8:	00000865 	.word	0x00000865
    2ebc:	00000731 	.word	0x00000731
    2ec0:	01020304 	.word	0x01020304
    2ec4:	000007bd 	.word	0x000007bd
    2ec8:	200000f4 	.word	0x200000f4
    2ecc:	00000834 	.word	0x00000834
    2ed0:	00000836 	.word	0x00000836
    2ed4:	00002ded 	.word	0x00002ded
    2ed8:	00001e19 	.word	0x00001e19
    2edc:	00000a09 	.word	0x00000a09
    2ee0:	00000844 	.word	0x00000844
    2ee4:	00003dbc 	.word	0x00003dbc
    2ee8:	00003299 	.word	0x00003299
    2eec:	20000110 	.word	0x20000110
    2ef0:	00001025 	.word	0x00001025
    2ef4:	00003dd4 	.word	0x00003dd4
    2ef8:	00003ddc 	.word	0x00003ddc

00002efc <__udivsi3>:
    2efc:	2200      	movs	r2, #0
    2efe:	0843      	lsrs	r3, r0, #1
    2f00:	428b      	cmp	r3, r1
    2f02:	d374      	bcc.n	2fee <__udivsi3+0xf2>
    2f04:	0903      	lsrs	r3, r0, #4
    2f06:	428b      	cmp	r3, r1
    2f08:	d35f      	bcc.n	2fca <__udivsi3+0xce>
    2f0a:	0a03      	lsrs	r3, r0, #8
    2f0c:	428b      	cmp	r3, r1
    2f0e:	d344      	bcc.n	2f9a <__udivsi3+0x9e>
    2f10:	0b03      	lsrs	r3, r0, #12
    2f12:	428b      	cmp	r3, r1
    2f14:	d328      	bcc.n	2f68 <__udivsi3+0x6c>
    2f16:	0c03      	lsrs	r3, r0, #16
    2f18:	428b      	cmp	r3, r1
    2f1a:	d30d      	bcc.n	2f38 <__udivsi3+0x3c>
    2f1c:	22ff      	movs	r2, #255	; 0xff
    2f1e:	0209      	lsls	r1, r1, #8
    2f20:	ba12      	rev	r2, r2
    2f22:	0c03      	lsrs	r3, r0, #16
    2f24:	428b      	cmp	r3, r1
    2f26:	d302      	bcc.n	2f2e <__udivsi3+0x32>
    2f28:	1212      	asrs	r2, r2, #8
    2f2a:	0209      	lsls	r1, r1, #8
    2f2c:	d065      	beq.n	2ffa <__udivsi3+0xfe>
    2f2e:	0b03      	lsrs	r3, r0, #12
    2f30:	428b      	cmp	r3, r1
    2f32:	d319      	bcc.n	2f68 <__udivsi3+0x6c>
    2f34:	e000      	b.n	2f38 <__udivsi3+0x3c>
    2f36:	0a09      	lsrs	r1, r1, #8
    2f38:	0bc3      	lsrs	r3, r0, #15
    2f3a:	428b      	cmp	r3, r1
    2f3c:	d301      	bcc.n	2f42 <__udivsi3+0x46>
    2f3e:	03cb      	lsls	r3, r1, #15
    2f40:	1ac0      	subs	r0, r0, r3
    2f42:	4152      	adcs	r2, r2
    2f44:	0b83      	lsrs	r3, r0, #14
    2f46:	428b      	cmp	r3, r1
    2f48:	d301      	bcc.n	2f4e <__udivsi3+0x52>
    2f4a:	038b      	lsls	r3, r1, #14
    2f4c:	1ac0      	subs	r0, r0, r3
    2f4e:	4152      	adcs	r2, r2
    2f50:	0b43      	lsrs	r3, r0, #13
    2f52:	428b      	cmp	r3, r1
    2f54:	d301      	bcc.n	2f5a <__udivsi3+0x5e>
    2f56:	034b      	lsls	r3, r1, #13
    2f58:	1ac0      	subs	r0, r0, r3
    2f5a:	4152      	adcs	r2, r2
    2f5c:	0b03      	lsrs	r3, r0, #12
    2f5e:	428b      	cmp	r3, r1
    2f60:	d301      	bcc.n	2f66 <__udivsi3+0x6a>
    2f62:	030b      	lsls	r3, r1, #12
    2f64:	1ac0      	subs	r0, r0, r3
    2f66:	4152      	adcs	r2, r2
    2f68:	0ac3      	lsrs	r3, r0, #11
    2f6a:	428b      	cmp	r3, r1
    2f6c:	d301      	bcc.n	2f72 <__udivsi3+0x76>
    2f6e:	02cb      	lsls	r3, r1, #11
    2f70:	1ac0      	subs	r0, r0, r3
    2f72:	4152      	adcs	r2, r2
    2f74:	0a83      	lsrs	r3, r0, #10
    2f76:	428b      	cmp	r3, r1
    2f78:	d301      	bcc.n	2f7e <__udivsi3+0x82>
    2f7a:	028b      	lsls	r3, r1, #10
    2f7c:	1ac0      	subs	r0, r0, r3
    2f7e:	4152      	adcs	r2, r2
    2f80:	0a43      	lsrs	r3, r0, #9
    2f82:	428b      	cmp	r3, r1
    2f84:	d301      	bcc.n	2f8a <__udivsi3+0x8e>
    2f86:	024b      	lsls	r3, r1, #9
    2f88:	1ac0      	subs	r0, r0, r3
    2f8a:	4152      	adcs	r2, r2
    2f8c:	0a03      	lsrs	r3, r0, #8
    2f8e:	428b      	cmp	r3, r1
    2f90:	d301      	bcc.n	2f96 <__udivsi3+0x9a>
    2f92:	020b      	lsls	r3, r1, #8
    2f94:	1ac0      	subs	r0, r0, r3
    2f96:	4152      	adcs	r2, r2
    2f98:	d2cd      	bcs.n	2f36 <__udivsi3+0x3a>
    2f9a:	09c3      	lsrs	r3, r0, #7
    2f9c:	428b      	cmp	r3, r1
    2f9e:	d301      	bcc.n	2fa4 <__udivsi3+0xa8>
    2fa0:	01cb      	lsls	r3, r1, #7
    2fa2:	1ac0      	subs	r0, r0, r3
    2fa4:	4152      	adcs	r2, r2
    2fa6:	0983      	lsrs	r3, r0, #6
    2fa8:	428b      	cmp	r3, r1
    2faa:	d301      	bcc.n	2fb0 <__udivsi3+0xb4>
    2fac:	018b      	lsls	r3, r1, #6
    2fae:	1ac0      	subs	r0, r0, r3
    2fb0:	4152      	adcs	r2, r2
    2fb2:	0943      	lsrs	r3, r0, #5
    2fb4:	428b      	cmp	r3, r1
    2fb6:	d301      	bcc.n	2fbc <__udivsi3+0xc0>
    2fb8:	014b      	lsls	r3, r1, #5
    2fba:	1ac0      	subs	r0, r0, r3
    2fbc:	4152      	adcs	r2, r2
    2fbe:	0903      	lsrs	r3, r0, #4
    2fc0:	428b      	cmp	r3, r1
    2fc2:	d301      	bcc.n	2fc8 <__udivsi3+0xcc>
    2fc4:	010b      	lsls	r3, r1, #4
    2fc6:	1ac0      	subs	r0, r0, r3
    2fc8:	4152      	adcs	r2, r2
    2fca:	08c3      	lsrs	r3, r0, #3
    2fcc:	428b      	cmp	r3, r1
    2fce:	d301      	bcc.n	2fd4 <__udivsi3+0xd8>
    2fd0:	00cb      	lsls	r3, r1, #3
    2fd2:	1ac0      	subs	r0, r0, r3
    2fd4:	4152      	adcs	r2, r2
    2fd6:	0883      	lsrs	r3, r0, #2
    2fd8:	428b      	cmp	r3, r1
    2fda:	d301      	bcc.n	2fe0 <__udivsi3+0xe4>
    2fdc:	008b      	lsls	r3, r1, #2
    2fde:	1ac0      	subs	r0, r0, r3
    2fe0:	4152      	adcs	r2, r2
    2fe2:	0843      	lsrs	r3, r0, #1
    2fe4:	428b      	cmp	r3, r1
    2fe6:	d301      	bcc.n	2fec <__udivsi3+0xf0>
    2fe8:	004b      	lsls	r3, r1, #1
    2fea:	1ac0      	subs	r0, r0, r3
    2fec:	4152      	adcs	r2, r2
    2fee:	1a41      	subs	r1, r0, r1
    2ff0:	d200      	bcs.n	2ff4 <__udivsi3+0xf8>
    2ff2:	4601      	mov	r1, r0
    2ff4:	4152      	adcs	r2, r2
    2ff6:	4610      	mov	r0, r2
    2ff8:	4770      	bx	lr
    2ffa:	e7ff      	b.n	2ffc <__udivsi3+0x100>
    2ffc:	b501      	push	{r0, lr}
    2ffe:	2000      	movs	r0, #0
    3000:	f000 f8f0 	bl	31e4 <__aeabi_idiv0>
    3004:	bd02      	pop	{r1, pc}
    3006:	46c0      	nop			; (mov r8, r8)

00003008 <__aeabi_uidivmod>:
    3008:	2900      	cmp	r1, #0
    300a:	d0f7      	beq.n	2ffc <__udivsi3+0x100>
    300c:	e776      	b.n	2efc <__udivsi3>
    300e:	4770      	bx	lr

00003010 <__divsi3>:
    3010:	4603      	mov	r3, r0
    3012:	430b      	orrs	r3, r1
    3014:	d47f      	bmi.n	3116 <__divsi3+0x106>
    3016:	2200      	movs	r2, #0
    3018:	0843      	lsrs	r3, r0, #1
    301a:	428b      	cmp	r3, r1
    301c:	d374      	bcc.n	3108 <__divsi3+0xf8>
    301e:	0903      	lsrs	r3, r0, #4
    3020:	428b      	cmp	r3, r1
    3022:	d35f      	bcc.n	30e4 <__divsi3+0xd4>
    3024:	0a03      	lsrs	r3, r0, #8
    3026:	428b      	cmp	r3, r1
    3028:	d344      	bcc.n	30b4 <__divsi3+0xa4>
    302a:	0b03      	lsrs	r3, r0, #12
    302c:	428b      	cmp	r3, r1
    302e:	d328      	bcc.n	3082 <__divsi3+0x72>
    3030:	0c03      	lsrs	r3, r0, #16
    3032:	428b      	cmp	r3, r1
    3034:	d30d      	bcc.n	3052 <__divsi3+0x42>
    3036:	22ff      	movs	r2, #255	; 0xff
    3038:	0209      	lsls	r1, r1, #8
    303a:	ba12      	rev	r2, r2
    303c:	0c03      	lsrs	r3, r0, #16
    303e:	428b      	cmp	r3, r1
    3040:	d302      	bcc.n	3048 <__divsi3+0x38>
    3042:	1212      	asrs	r2, r2, #8
    3044:	0209      	lsls	r1, r1, #8
    3046:	d065      	beq.n	3114 <__divsi3+0x104>
    3048:	0b03      	lsrs	r3, r0, #12
    304a:	428b      	cmp	r3, r1
    304c:	d319      	bcc.n	3082 <__divsi3+0x72>
    304e:	e000      	b.n	3052 <__divsi3+0x42>
    3050:	0a09      	lsrs	r1, r1, #8
    3052:	0bc3      	lsrs	r3, r0, #15
    3054:	428b      	cmp	r3, r1
    3056:	d301      	bcc.n	305c <__divsi3+0x4c>
    3058:	03cb      	lsls	r3, r1, #15
    305a:	1ac0      	subs	r0, r0, r3
    305c:	4152      	adcs	r2, r2
    305e:	0b83      	lsrs	r3, r0, #14
    3060:	428b      	cmp	r3, r1
    3062:	d301      	bcc.n	3068 <__divsi3+0x58>
    3064:	038b      	lsls	r3, r1, #14
    3066:	1ac0      	subs	r0, r0, r3
    3068:	4152      	adcs	r2, r2
    306a:	0b43      	lsrs	r3, r0, #13
    306c:	428b      	cmp	r3, r1
    306e:	d301      	bcc.n	3074 <__divsi3+0x64>
    3070:	034b      	lsls	r3, r1, #13
    3072:	1ac0      	subs	r0, r0, r3
    3074:	4152      	adcs	r2, r2
    3076:	0b03      	lsrs	r3, r0, #12
    3078:	428b      	cmp	r3, r1
    307a:	d301      	bcc.n	3080 <__divsi3+0x70>
    307c:	030b      	lsls	r3, r1, #12
    307e:	1ac0      	subs	r0, r0, r3
    3080:	4152      	adcs	r2, r2
    3082:	0ac3      	lsrs	r3, r0, #11
    3084:	428b      	cmp	r3, r1
    3086:	d301      	bcc.n	308c <__divsi3+0x7c>
    3088:	02cb      	lsls	r3, r1, #11
    308a:	1ac0      	subs	r0, r0, r3
    308c:	4152      	adcs	r2, r2
    308e:	0a83      	lsrs	r3, r0, #10
    3090:	428b      	cmp	r3, r1
    3092:	d301      	bcc.n	3098 <__divsi3+0x88>
    3094:	028b      	lsls	r3, r1, #10
    3096:	1ac0      	subs	r0, r0, r3
    3098:	4152      	adcs	r2, r2
    309a:	0a43      	lsrs	r3, r0, #9
    309c:	428b      	cmp	r3, r1
    309e:	d301      	bcc.n	30a4 <__divsi3+0x94>
    30a0:	024b      	lsls	r3, r1, #9
    30a2:	1ac0      	subs	r0, r0, r3
    30a4:	4152      	adcs	r2, r2
    30a6:	0a03      	lsrs	r3, r0, #8
    30a8:	428b      	cmp	r3, r1
    30aa:	d301      	bcc.n	30b0 <__divsi3+0xa0>
    30ac:	020b      	lsls	r3, r1, #8
    30ae:	1ac0      	subs	r0, r0, r3
    30b0:	4152      	adcs	r2, r2
    30b2:	d2cd      	bcs.n	3050 <__divsi3+0x40>
    30b4:	09c3      	lsrs	r3, r0, #7
    30b6:	428b      	cmp	r3, r1
    30b8:	d301      	bcc.n	30be <__divsi3+0xae>
    30ba:	01cb      	lsls	r3, r1, #7
    30bc:	1ac0      	subs	r0, r0, r3
    30be:	4152      	adcs	r2, r2
    30c0:	0983      	lsrs	r3, r0, #6
    30c2:	428b      	cmp	r3, r1
    30c4:	d301      	bcc.n	30ca <__divsi3+0xba>
    30c6:	018b      	lsls	r3, r1, #6
    30c8:	1ac0      	subs	r0, r0, r3
    30ca:	4152      	adcs	r2, r2
    30cc:	0943      	lsrs	r3, r0, #5
    30ce:	428b      	cmp	r3, r1
    30d0:	d301      	bcc.n	30d6 <__divsi3+0xc6>
    30d2:	014b      	lsls	r3, r1, #5
    30d4:	1ac0      	subs	r0, r0, r3
    30d6:	4152      	adcs	r2, r2
    30d8:	0903      	lsrs	r3, r0, #4
    30da:	428b      	cmp	r3, r1
    30dc:	d301      	bcc.n	30e2 <__divsi3+0xd2>
    30de:	010b      	lsls	r3, r1, #4
    30e0:	1ac0      	subs	r0, r0, r3
    30e2:	4152      	adcs	r2, r2
    30e4:	08c3      	lsrs	r3, r0, #3
    30e6:	428b      	cmp	r3, r1
    30e8:	d301      	bcc.n	30ee <__divsi3+0xde>
    30ea:	00cb      	lsls	r3, r1, #3
    30ec:	1ac0      	subs	r0, r0, r3
    30ee:	4152      	adcs	r2, r2
    30f0:	0883      	lsrs	r3, r0, #2
    30f2:	428b      	cmp	r3, r1
    30f4:	d301      	bcc.n	30fa <__divsi3+0xea>
    30f6:	008b      	lsls	r3, r1, #2
    30f8:	1ac0      	subs	r0, r0, r3
    30fa:	4152      	adcs	r2, r2
    30fc:	0843      	lsrs	r3, r0, #1
    30fe:	428b      	cmp	r3, r1
    3100:	d301      	bcc.n	3106 <__divsi3+0xf6>
    3102:	004b      	lsls	r3, r1, #1
    3104:	1ac0      	subs	r0, r0, r3
    3106:	4152      	adcs	r2, r2
    3108:	1a41      	subs	r1, r0, r1
    310a:	d200      	bcs.n	310e <__divsi3+0xfe>
    310c:	4601      	mov	r1, r0
    310e:	4152      	adcs	r2, r2
    3110:	4610      	mov	r0, r2
    3112:	4770      	bx	lr
    3114:	e05d      	b.n	31d2 <__divsi3+0x1c2>
    3116:	0fca      	lsrs	r2, r1, #31
    3118:	d000      	beq.n	311c <__divsi3+0x10c>
    311a:	4249      	negs	r1, r1
    311c:	1003      	asrs	r3, r0, #32
    311e:	d300      	bcc.n	3122 <__divsi3+0x112>
    3120:	4240      	negs	r0, r0
    3122:	4053      	eors	r3, r2
    3124:	2200      	movs	r2, #0
    3126:	469c      	mov	ip, r3
    3128:	0903      	lsrs	r3, r0, #4
    312a:	428b      	cmp	r3, r1
    312c:	d32d      	bcc.n	318a <__divsi3+0x17a>
    312e:	0a03      	lsrs	r3, r0, #8
    3130:	428b      	cmp	r3, r1
    3132:	d312      	bcc.n	315a <__divsi3+0x14a>
    3134:	22fc      	movs	r2, #252	; 0xfc
    3136:	0189      	lsls	r1, r1, #6
    3138:	ba12      	rev	r2, r2
    313a:	0a03      	lsrs	r3, r0, #8
    313c:	428b      	cmp	r3, r1
    313e:	d30c      	bcc.n	315a <__divsi3+0x14a>
    3140:	0189      	lsls	r1, r1, #6
    3142:	1192      	asrs	r2, r2, #6
    3144:	428b      	cmp	r3, r1
    3146:	d308      	bcc.n	315a <__divsi3+0x14a>
    3148:	0189      	lsls	r1, r1, #6
    314a:	1192      	asrs	r2, r2, #6
    314c:	428b      	cmp	r3, r1
    314e:	d304      	bcc.n	315a <__divsi3+0x14a>
    3150:	0189      	lsls	r1, r1, #6
    3152:	d03a      	beq.n	31ca <__divsi3+0x1ba>
    3154:	1192      	asrs	r2, r2, #6
    3156:	e000      	b.n	315a <__divsi3+0x14a>
    3158:	0989      	lsrs	r1, r1, #6
    315a:	09c3      	lsrs	r3, r0, #7
    315c:	428b      	cmp	r3, r1
    315e:	d301      	bcc.n	3164 <__divsi3+0x154>
    3160:	01cb      	lsls	r3, r1, #7
    3162:	1ac0      	subs	r0, r0, r3
    3164:	4152      	adcs	r2, r2
    3166:	0983      	lsrs	r3, r0, #6
    3168:	428b      	cmp	r3, r1
    316a:	d301      	bcc.n	3170 <__divsi3+0x160>
    316c:	018b      	lsls	r3, r1, #6
    316e:	1ac0      	subs	r0, r0, r3
    3170:	4152      	adcs	r2, r2
    3172:	0943      	lsrs	r3, r0, #5
    3174:	428b      	cmp	r3, r1
    3176:	d301      	bcc.n	317c <__divsi3+0x16c>
    3178:	014b      	lsls	r3, r1, #5
    317a:	1ac0      	subs	r0, r0, r3
    317c:	4152      	adcs	r2, r2
    317e:	0903      	lsrs	r3, r0, #4
    3180:	428b      	cmp	r3, r1
    3182:	d301      	bcc.n	3188 <__divsi3+0x178>
    3184:	010b      	lsls	r3, r1, #4
    3186:	1ac0      	subs	r0, r0, r3
    3188:	4152      	adcs	r2, r2
    318a:	08c3      	lsrs	r3, r0, #3
    318c:	428b      	cmp	r3, r1
    318e:	d301      	bcc.n	3194 <__divsi3+0x184>
    3190:	00cb      	lsls	r3, r1, #3
    3192:	1ac0      	subs	r0, r0, r3
    3194:	4152      	adcs	r2, r2
    3196:	0883      	lsrs	r3, r0, #2
    3198:	428b      	cmp	r3, r1
    319a:	d301      	bcc.n	31a0 <__divsi3+0x190>
    319c:	008b      	lsls	r3, r1, #2
    319e:	1ac0      	subs	r0, r0, r3
    31a0:	4152      	adcs	r2, r2
    31a2:	d2d9      	bcs.n	3158 <__divsi3+0x148>
    31a4:	0843      	lsrs	r3, r0, #1
    31a6:	428b      	cmp	r3, r1
    31a8:	d301      	bcc.n	31ae <__divsi3+0x19e>
    31aa:	004b      	lsls	r3, r1, #1
    31ac:	1ac0      	subs	r0, r0, r3
    31ae:	4152      	adcs	r2, r2
    31b0:	1a41      	subs	r1, r0, r1
    31b2:	d200      	bcs.n	31b6 <__divsi3+0x1a6>
    31b4:	4601      	mov	r1, r0
    31b6:	4663      	mov	r3, ip
    31b8:	4152      	adcs	r2, r2
    31ba:	105b      	asrs	r3, r3, #1
    31bc:	4610      	mov	r0, r2
    31be:	d301      	bcc.n	31c4 <__divsi3+0x1b4>
    31c0:	4240      	negs	r0, r0
    31c2:	2b00      	cmp	r3, #0
    31c4:	d500      	bpl.n	31c8 <__divsi3+0x1b8>
    31c6:	4249      	negs	r1, r1
    31c8:	4770      	bx	lr
    31ca:	4663      	mov	r3, ip
    31cc:	105b      	asrs	r3, r3, #1
    31ce:	d300      	bcc.n	31d2 <__divsi3+0x1c2>
    31d0:	4240      	negs	r0, r0
    31d2:	b501      	push	{r0, lr}
    31d4:	2000      	movs	r0, #0
    31d6:	f000 f805 	bl	31e4 <__aeabi_idiv0>
    31da:	bd02      	pop	{r1, pc}

000031dc <__aeabi_idivmod>:
    31dc:	2900      	cmp	r1, #0
    31de:	d0f8      	beq.n	31d2 <__divsi3+0x1c2>
    31e0:	e716      	b.n	3010 <__divsi3>
    31e2:	4770      	bx	lr

000031e4 <__aeabi_idiv0>:
    31e4:	4770      	bx	lr
    31e6:	46c0      	nop			; (mov r8, r8)

000031e8 <__aeabi_lmul>:
    31e8:	b5f0      	push	{r4, r5, r6, r7, lr}
    31ea:	46ce      	mov	lr, r9
    31ec:	4647      	mov	r7, r8
    31ee:	0415      	lsls	r5, r2, #16
    31f0:	0c2d      	lsrs	r5, r5, #16
    31f2:	002e      	movs	r6, r5
    31f4:	b580      	push	{r7, lr}
    31f6:	0407      	lsls	r7, r0, #16
    31f8:	0c14      	lsrs	r4, r2, #16
    31fa:	0c3f      	lsrs	r7, r7, #16
    31fc:	4699      	mov	r9, r3
    31fe:	0c03      	lsrs	r3, r0, #16
    3200:	437e      	muls	r6, r7
    3202:	435d      	muls	r5, r3
    3204:	4367      	muls	r7, r4
    3206:	4363      	muls	r3, r4
    3208:	197f      	adds	r7, r7, r5
    320a:	0c34      	lsrs	r4, r6, #16
    320c:	19e4      	adds	r4, r4, r7
    320e:	469c      	mov	ip, r3
    3210:	42a5      	cmp	r5, r4
    3212:	d903      	bls.n	321c <__aeabi_lmul+0x34>
    3214:	2380      	movs	r3, #128	; 0x80
    3216:	025b      	lsls	r3, r3, #9
    3218:	4698      	mov	r8, r3
    321a:	44c4      	add	ip, r8
    321c:	464b      	mov	r3, r9
    321e:	4351      	muls	r1, r2
    3220:	4343      	muls	r3, r0
    3222:	0436      	lsls	r6, r6, #16
    3224:	0c36      	lsrs	r6, r6, #16
    3226:	0c25      	lsrs	r5, r4, #16
    3228:	0424      	lsls	r4, r4, #16
    322a:	4465      	add	r5, ip
    322c:	19a4      	adds	r4, r4, r6
    322e:	1859      	adds	r1, r3, r1
    3230:	1949      	adds	r1, r1, r5
    3232:	0020      	movs	r0, r4
    3234:	bc0c      	pop	{r2, r3}
    3236:	4690      	mov	r8, r2
    3238:	4699      	mov	r9, r3
    323a:	bdf0      	pop	{r4, r5, r6, r7, pc}

0000323c <__libc_init_array>:
    323c:	b570      	push	{r4, r5, r6, lr}
    323e:	2600      	movs	r6, #0
    3240:	4d0c      	ldr	r5, [pc, #48]	; (3274 <__libc_init_array+0x38>)
    3242:	4c0d      	ldr	r4, [pc, #52]	; (3278 <__libc_init_array+0x3c>)
    3244:	1b64      	subs	r4, r4, r5
    3246:	10a4      	asrs	r4, r4, #2
    3248:	42a6      	cmp	r6, r4
    324a:	d109      	bne.n	3260 <__libc_init_array+0x24>
    324c:	2600      	movs	r6, #0
    324e:	f000 fde3 	bl	3e18 <_init>
    3252:	4d0a      	ldr	r5, [pc, #40]	; (327c <__libc_init_array+0x40>)
    3254:	4c0a      	ldr	r4, [pc, #40]	; (3280 <__libc_init_array+0x44>)
    3256:	1b64      	subs	r4, r4, r5
    3258:	10a4      	asrs	r4, r4, #2
    325a:	42a6      	cmp	r6, r4
    325c:	d105      	bne.n	326a <__libc_init_array+0x2e>
    325e:	bd70      	pop	{r4, r5, r6, pc}
    3260:	00b3      	lsls	r3, r6, #2
    3262:	58eb      	ldr	r3, [r5, r3]
    3264:	4798      	blx	r3
    3266:	3601      	adds	r6, #1
    3268:	e7ee      	b.n	3248 <__libc_init_array+0xc>
    326a:	00b3      	lsls	r3, r6, #2
    326c:	58eb      	ldr	r3, [r5, r3]
    326e:	4798      	blx	r3
    3270:	3601      	adds	r6, #1
    3272:	e7f2      	b.n	325a <__libc_init_array+0x1e>
    3274:	00003e24 	.word	0x00003e24
    3278:	00003e24 	.word	0x00003e24
    327c:	00003e24 	.word	0x00003e24
    3280:	00003e28 	.word	0x00003e28

00003284 <memcpy>:
    3284:	2300      	movs	r3, #0
    3286:	b510      	push	{r4, lr}
    3288:	429a      	cmp	r2, r3
    328a:	d100      	bne.n	328e <memcpy+0xa>
    328c:	bd10      	pop	{r4, pc}
    328e:	5ccc      	ldrb	r4, [r1, r3]
    3290:	54c4      	strb	r4, [r0, r3]
    3292:	3301      	adds	r3, #1
    3294:	e7f8      	b.n	3288 <memcpy+0x4>
	...

00003298 <siprintf>:
    3298:	b40e      	push	{r1, r2, r3}
    329a:	b510      	push	{r4, lr}
    329c:	b09d      	sub	sp, #116	; 0x74
    329e:	a902      	add	r1, sp, #8
    32a0:	9002      	str	r0, [sp, #8]
    32a2:	6108      	str	r0, [r1, #16]
    32a4:	480b      	ldr	r0, [pc, #44]	; (32d4 <siprintf+0x3c>)
    32a6:	2482      	movs	r4, #130	; 0x82
    32a8:	6088      	str	r0, [r1, #8]
    32aa:	6148      	str	r0, [r1, #20]
    32ac:	2001      	movs	r0, #1
    32ae:	4240      	negs	r0, r0
    32b0:	ab1f      	add	r3, sp, #124	; 0x7c
    32b2:	81c8      	strh	r0, [r1, #14]
    32b4:	4808      	ldr	r0, [pc, #32]	; (32d8 <siprintf+0x40>)
    32b6:	cb04      	ldmia	r3!, {r2}
    32b8:	00a4      	lsls	r4, r4, #2
    32ba:	6800      	ldr	r0, [r0, #0]
    32bc:	9301      	str	r3, [sp, #4]
    32be:	818c      	strh	r4, [r1, #12]
    32c0:	f000 f86e 	bl	33a0 <_svfiprintf_r>
    32c4:	2300      	movs	r3, #0
    32c6:	9a02      	ldr	r2, [sp, #8]
    32c8:	7013      	strb	r3, [r2, #0]
    32ca:	b01d      	add	sp, #116	; 0x74
    32cc:	bc10      	pop	{r4}
    32ce:	bc08      	pop	{r3}
    32d0:	b003      	add	sp, #12
    32d2:	4718      	bx	r3
    32d4:	7fffffff 	.word	0x7fffffff
    32d8:	2000000c 	.word	0x2000000c

000032dc <__ssputs_r>:
    32dc:	b5f0      	push	{r4, r5, r6, r7, lr}
    32de:	688e      	ldr	r6, [r1, #8]
    32e0:	b085      	sub	sp, #20
    32e2:	0007      	movs	r7, r0
    32e4:	000c      	movs	r4, r1
    32e6:	9203      	str	r2, [sp, #12]
    32e8:	9301      	str	r3, [sp, #4]
    32ea:	429e      	cmp	r6, r3
    32ec:	d839      	bhi.n	3362 <__ssputs_r+0x86>
    32ee:	2390      	movs	r3, #144	; 0x90
    32f0:	898a      	ldrh	r2, [r1, #12]
    32f2:	00db      	lsls	r3, r3, #3
    32f4:	421a      	tst	r2, r3
    32f6:	d034      	beq.n	3362 <__ssputs_r+0x86>
    32f8:	2503      	movs	r5, #3
    32fa:	6909      	ldr	r1, [r1, #16]
    32fc:	6823      	ldr	r3, [r4, #0]
    32fe:	1a5b      	subs	r3, r3, r1
    3300:	9302      	str	r3, [sp, #8]
    3302:	6963      	ldr	r3, [r4, #20]
    3304:	9802      	ldr	r0, [sp, #8]
    3306:	435d      	muls	r5, r3
    3308:	0feb      	lsrs	r3, r5, #31
    330a:	195d      	adds	r5, r3, r5
    330c:	9b01      	ldr	r3, [sp, #4]
    330e:	106d      	asrs	r5, r5, #1
    3310:	3301      	adds	r3, #1
    3312:	181b      	adds	r3, r3, r0
    3314:	42ab      	cmp	r3, r5
    3316:	d900      	bls.n	331a <__ssputs_r+0x3e>
    3318:	001d      	movs	r5, r3
    331a:	0553      	lsls	r3, r2, #21
    331c:	d532      	bpl.n	3384 <__ssputs_r+0xa8>
    331e:	0029      	movs	r1, r5
    3320:	0038      	movs	r0, r7
    3322:	f000 fb31 	bl	3988 <_malloc_r>
    3326:	1e06      	subs	r6, r0, #0
    3328:	d109      	bne.n	333e <__ssputs_r+0x62>
    332a:	230c      	movs	r3, #12
    332c:	603b      	str	r3, [r7, #0]
    332e:	2340      	movs	r3, #64	; 0x40
    3330:	2001      	movs	r0, #1
    3332:	89a2      	ldrh	r2, [r4, #12]
    3334:	4240      	negs	r0, r0
    3336:	4313      	orrs	r3, r2
    3338:	81a3      	strh	r3, [r4, #12]
    333a:	b005      	add	sp, #20
    333c:	bdf0      	pop	{r4, r5, r6, r7, pc}
    333e:	9a02      	ldr	r2, [sp, #8]
    3340:	6921      	ldr	r1, [r4, #16]
    3342:	f7ff ff9f 	bl	3284 <memcpy>
    3346:	89a3      	ldrh	r3, [r4, #12]
    3348:	4a14      	ldr	r2, [pc, #80]	; (339c <__ssputs_r+0xc0>)
    334a:	401a      	ands	r2, r3
    334c:	2380      	movs	r3, #128	; 0x80
    334e:	4313      	orrs	r3, r2
    3350:	81a3      	strh	r3, [r4, #12]
    3352:	9b02      	ldr	r3, [sp, #8]
    3354:	6126      	str	r6, [r4, #16]
    3356:	18f6      	adds	r6, r6, r3
    3358:	6026      	str	r6, [r4, #0]
    335a:	6165      	str	r5, [r4, #20]
    335c:	9e01      	ldr	r6, [sp, #4]
    335e:	1aed      	subs	r5, r5, r3
    3360:	60a5      	str	r5, [r4, #8]
    3362:	9b01      	ldr	r3, [sp, #4]
    3364:	42b3      	cmp	r3, r6
    3366:	d200      	bcs.n	336a <__ssputs_r+0x8e>
    3368:	001e      	movs	r6, r3
    336a:	0032      	movs	r2, r6
    336c:	9903      	ldr	r1, [sp, #12]
    336e:	6820      	ldr	r0, [r4, #0]
    3370:	f000 faad 	bl	38ce <memmove>
    3374:	68a3      	ldr	r3, [r4, #8]
    3376:	2000      	movs	r0, #0
    3378:	1b9b      	subs	r3, r3, r6
    337a:	60a3      	str	r3, [r4, #8]
    337c:	6823      	ldr	r3, [r4, #0]
    337e:	199e      	adds	r6, r3, r6
    3380:	6026      	str	r6, [r4, #0]
    3382:	e7da      	b.n	333a <__ssputs_r+0x5e>
    3384:	002a      	movs	r2, r5
    3386:	0038      	movs	r0, r7
    3388:	f000 fb5c 	bl	3a44 <_realloc_r>
    338c:	1e06      	subs	r6, r0, #0
    338e:	d1e0      	bne.n	3352 <__ssputs_r+0x76>
    3390:	6921      	ldr	r1, [r4, #16]
    3392:	0038      	movs	r0, r7
    3394:	f000 faae 	bl	38f4 <_free_r>
    3398:	e7c7      	b.n	332a <__ssputs_r+0x4e>
    339a:	46c0      	nop			; (mov r8, r8)
    339c:	fffffb7f 	.word	0xfffffb7f

000033a0 <_svfiprintf_r>:
    33a0:	b5f0      	push	{r4, r5, r6, r7, lr}
    33a2:	b09f      	sub	sp, #124	; 0x7c
    33a4:	9002      	str	r0, [sp, #8]
    33a6:	9305      	str	r3, [sp, #20]
    33a8:	898b      	ldrh	r3, [r1, #12]
    33aa:	000f      	movs	r7, r1
    33ac:	0016      	movs	r6, r2
    33ae:	061b      	lsls	r3, r3, #24
    33b0:	d511      	bpl.n	33d6 <_svfiprintf_r+0x36>
    33b2:	690b      	ldr	r3, [r1, #16]
    33b4:	2b00      	cmp	r3, #0
    33b6:	d10e      	bne.n	33d6 <_svfiprintf_r+0x36>
    33b8:	2140      	movs	r1, #64	; 0x40
    33ba:	f000 fae5 	bl	3988 <_malloc_r>
    33be:	6038      	str	r0, [r7, #0]
    33c0:	6138      	str	r0, [r7, #16]
    33c2:	2800      	cmp	r0, #0
    33c4:	d105      	bne.n	33d2 <_svfiprintf_r+0x32>
    33c6:	230c      	movs	r3, #12
    33c8:	9a02      	ldr	r2, [sp, #8]
    33ca:	3801      	subs	r0, #1
    33cc:	6013      	str	r3, [r2, #0]
    33ce:	b01f      	add	sp, #124	; 0x7c
    33d0:	bdf0      	pop	{r4, r5, r6, r7, pc}
    33d2:	2340      	movs	r3, #64	; 0x40
    33d4:	617b      	str	r3, [r7, #20]
    33d6:	2300      	movs	r3, #0
    33d8:	ad06      	add	r5, sp, #24
    33da:	616b      	str	r3, [r5, #20]
    33dc:	3320      	adds	r3, #32
    33de:	766b      	strb	r3, [r5, #25]
    33e0:	3310      	adds	r3, #16
    33e2:	76ab      	strb	r3, [r5, #26]
    33e4:	0034      	movs	r4, r6
    33e6:	7823      	ldrb	r3, [r4, #0]
    33e8:	2b00      	cmp	r3, #0
    33ea:	d147      	bne.n	347c <_svfiprintf_r+0xdc>
    33ec:	1ba3      	subs	r3, r4, r6
    33ee:	9304      	str	r3, [sp, #16]
    33f0:	d00d      	beq.n	340e <_svfiprintf_r+0x6e>
    33f2:	1ba3      	subs	r3, r4, r6
    33f4:	0032      	movs	r2, r6
    33f6:	0039      	movs	r1, r7
    33f8:	9802      	ldr	r0, [sp, #8]
    33fa:	f7ff ff6f 	bl	32dc <__ssputs_r>
    33fe:	1c43      	adds	r3, r0, #1
    3400:	d100      	bne.n	3404 <_svfiprintf_r+0x64>
    3402:	e0b5      	b.n	3570 <_svfiprintf_r+0x1d0>
    3404:	696a      	ldr	r2, [r5, #20]
    3406:	9b04      	ldr	r3, [sp, #16]
    3408:	4694      	mov	ip, r2
    340a:	4463      	add	r3, ip
    340c:	616b      	str	r3, [r5, #20]
    340e:	7823      	ldrb	r3, [r4, #0]
    3410:	2b00      	cmp	r3, #0
    3412:	d100      	bne.n	3416 <_svfiprintf_r+0x76>
    3414:	e0ac      	b.n	3570 <_svfiprintf_r+0x1d0>
    3416:	2201      	movs	r2, #1
    3418:	2300      	movs	r3, #0
    341a:	4252      	negs	r2, r2
    341c:	606a      	str	r2, [r5, #4]
    341e:	a902      	add	r1, sp, #8
    3420:	3254      	adds	r2, #84	; 0x54
    3422:	1852      	adds	r2, r2, r1
    3424:	3401      	adds	r4, #1
    3426:	602b      	str	r3, [r5, #0]
    3428:	60eb      	str	r3, [r5, #12]
    342a:	60ab      	str	r3, [r5, #8]
    342c:	7013      	strb	r3, [r2, #0]
    342e:	65ab      	str	r3, [r5, #88]	; 0x58
    3430:	4e58      	ldr	r6, [pc, #352]	; (3594 <_svfiprintf_r+0x1f4>)
    3432:	2205      	movs	r2, #5
    3434:	7821      	ldrb	r1, [r4, #0]
    3436:	0030      	movs	r0, r6
    3438:	f000 fa3e 	bl	38b8 <memchr>
    343c:	1c62      	adds	r2, r4, #1
    343e:	2800      	cmp	r0, #0
    3440:	d120      	bne.n	3484 <_svfiprintf_r+0xe4>
    3442:	6829      	ldr	r1, [r5, #0]
    3444:	06cb      	lsls	r3, r1, #27
    3446:	d504      	bpl.n	3452 <_svfiprintf_r+0xb2>
    3448:	2353      	movs	r3, #83	; 0x53
    344a:	ae02      	add	r6, sp, #8
    344c:	3020      	adds	r0, #32
    344e:	199b      	adds	r3, r3, r6
    3450:	7018      	strb	r0, [r3, #0]
    3452:	070b      	lsls	r3, r1, #28
    3454:	d504      	bpl.n	3460 <_svfiprintf_r+0xc0>
    3456:	2353      	movs	r3, #83	; 0x53
    3458:	202b      	movs	r0, #43	; 0x2b
    345a:	ae02      	add	r6, sp, #8
    345c:	199b      	adds	r3, r3, r6
    345e:	7018      	strb	r0, [r3, #0]
    3460:	7823      	ldrb	r3, [r4, #0]
    3462:	2b2a      	cmp	r3, #42	; 0x2a
    3464:	d016      	beq.n	3494 <_svfiprintf_r+0xf4>
    3466:	2000      	movs	r0, #0
    3468:	210a      	movs	r1, #10
    346a:	9b09      	ldr	r3, [sp, #36]	; 0x24
    346c:	7822      	ldrb	r2, [r4, #0]
    346e:	3a30      	subs	r2, #48	; 0x30
    3470:	2a09      	cmp	r2, #9
    3472:	d955      	bls.n	3520 <_svfiprintf_r+0x180>
    3474:	2800      	cmp	r0, #0
    3476:	d015      	beq.n	34a4 <_svfiprintf_r+0x104>
    3478:	9309      	str	r3, [sp, #36]	; 0x24
    347a:	e013      	b.n	34a4 <_svfiprintf_r+0x104>
    347c:	2b25      	cmp	r3, #37	; 0x25
    347e:	d0b5      	beq.n	33ec <_svfiprintf_r+0x4c>
    3480:	3401      	adds	r4, #1
    3482:	e7b0      	b.n	33e6 <_svfiprintf_r+0x46>
    3484:	2301      	movs	r3, #1
    3486:	1b80      	subs	r0, r0, r6
    3488:	4083      	lsls	r3, r0
    348a:	6829      	ldr	r1, [r5, #0]
    348c:	0014      	movs	r4, r2
    348e:	430b      	orrs	r3, r1
    3490:	602b      	str	r3, [r5, #0]
    3492:	e7cd      	b.n	3430 <_svfiprintf_r+0x90>
    3494:	9b05      	ldr	r3, [sp, #20]
    3496:	1d18      	adds	r0, r3, #4
    3498:	681b      	ldr	r3, [r3, #0]
    349a:	9005      	str	r0, [sp, #20]
    349c:	2b00      	cmp	r3, #0
    349e:	db39      	blt.n	3514 <_svfiprintf_r+0x174>
    34a0:	9309      	str	r3, [sp, #36]	; 0x24
    34a2:	0014      	movs	r4, r2
    34a4:	7823      	ldrb	r3, [r4, #0]
    34a6:	2b2e      	cmp	r3, #46	; 0x2e
    34a8:	d10b      	bne.n	34c2 <_svfiprintf_r+0x122>
    34aa:	7863      	ldrb	r3, [r4, #1]
    34ac:	1c62      	adds	r2, r4, #1
    34ae:	2b2a      	cmp	r3, #42	; 0x2a
    34b0:	d13e      	bne.n	3530 <_svfiprintf_r+0x190>
    34b2:	9b05      	ldr	r3, [sp, #20]
    34b4:	3402      	adds	r4, #2
    34b6:	1d1a      	adds	r2, r3, #4
    34b8:	681b      	ldr	r3, [r3, #0]
    34ba:	9205      	str	r2, [sp, #20]
    34bc:	2b00      	cmp	r3, #0
    34be:	db34      	blt.n	352a <_svfiprintf_r+0x18a>
    34c0:	9307      	str	r3, [sp, #28]
    34c2:	4e35      	ldr	r6, [pc, #212]	; (3598 <_svfiprintf_r+0x1f8>)
    34c4:	7821      	ldrb	r1, [r4, #0]
    34c6:	2203      	movs	r2, #3
    34c8:	0030      	movs	r0, r6
    34ca:	f000 f9f5 	bl	38b8 <memchr>
    34ce:	2800      	cmp	r0, #0
    34d0:	d006      	beq.n	34e0 <_svfiprintf_r+0x140>
    34d2:	2340      	movs	r3, #64	; 0x40
    34d4:	1b80      	subs	r0, r0, r6
    34d6:	4083      	lsls	r3, r0
    34d8:	682a      	ldr	r2, [r5, #0]
    34da:	3401      	adds	r4, #1
    34dc:	4313      	orrs	r3, r2
    34de:	602b      	str	r3, [r5, #0]
    34e0:	7821      	ldrb	r1, [r4, #0]
    34e2:	2206      	movs	r2, #6
    34e4:	482d      	ldr	r0, [pc, #180]	; (359c <_svfiprintf_r+0x1fc>)
    34e6:	1c66      	adds	r6, r4, #1
    34e8:	7629      	strb	r1, [r5, #24]
    34ea:	f000 f9e5 	bl	38b8 <memchr>
    34ee:	2800      	cmp	r0, #0
    34f0:	d046      	beq.n	3580 <_svfiprintf_r+0x1e0>
    34f2:	4b2b      	ldr	r3, [pc, #172]	; (35a0 <_svfiprintf_r+0x200>)
    34f4:	2b00      	cmp	r3, #0
    34f6:	d12f      	bne.n	3558 <_svfiprintf_r+0x1b8>
    34f8:	6829      	ldr	r1, [r5, #0]
    34fa:	9b05      	ldr	r3, [sp, #20]
    34fc:	2207      	movs	r2, #7
    34fe:	05c9      	lsls	r1, r1, #23
    3500:	d528      	bpl.n	3554 <_svfiprintf_r+0x1b4>
    3502:	189b      	adds	r3, r3, r2
    3504:	4393      	bics	r3, r2
    3506:	3308      	adds	r3, #8
    3508:	9305      	str	r3, [sp, #20]
    350a:	696b      	ldr	r3, [r5, #20]
    350c:	9a03      	ldr	r2, [sp, #12]
    350e:	189b      	adds	r3, r3, r2
    3510:	616b      	str	r3, [r5, #20]
    3512:	e767      	b.n	33e4 <_svfiprintf_r+0x44>
    3514:	425b      	negs	r3, r3
    3516:	60eb      	str	r3, [r5, #12]
    3518:	2302      	movs	r3, #2
    351a:	430b      	orrs	r3, r1
    351c:	602b      	str	r3, [r5, #0]
    351e:	e7c0      	b.n	34a2 <_svfiprintf_r+0x102>
    3520:	434b      	muls	r3, r1
    3522:	3401      	adds	r4, #1
    3524:	189b      	adds	r3, r3, r2
    3526:	2001      	movs	r0, #1
    3528:	e7a0      	b.n	346c <_svfiprintf_r+0xcc>
    352a:	2301      	movs	r3, #1
    352c:	425b      	negs	r3, r3
    352e:	e7c7      	b.n	34c0 <_svfiprintf_r+0x120>
    3530:	2300      	movs	r3, #0
    3532:	0014      	movs	r4, r2
    3534:	200a      	movs	r0, #10
    3536:	001a      	movs	r2, r3
    3538:	606b      	str	r3, [r5, #4]
    353a:	7821      	ldrb	r1, [r4, #0]
    353c:	3930      	subs	r1, #48	; 0x30
    353e:	2909      	cmp	r1, #9
    3540:	d903      	bls.n	354a <_svfiprintf_r+0x1aa>
    3542:	2b00      	cmp	r3, #0
    3544:	d0bd      	beq.n	34c2 <_svfiprintf_r+0x122>
    3546:	9207      	str	r2, [sp, #28]
    3548:	e7bb      	b.n	34c2 <_svfiprintf_r+0x122>
    354a:	4342      	muls	r2, r0
    354c:	3401      	adds	r4, #1
    354e:	1852      	adds	r2, r2, r1
    3550:	2301      	movs	r3, #1
    3552:	e7f2      	b.n	353a <_svfiprintf_r+0x19a>
    3554:	3307      	adds	r3, #7
    3556:	e7d5      	b.n	3504 <_svfiprintf_r+0x164>
    3558:	ab05      	add	r3, sp, #20
    355a:	9300      	str	r3, [sp, #0]
    355c:	003a      	movs	r2, r7
    355e:	4b11      	ldr	r3, [pc, #68]	; (35a4 <_svfiprintf_r+0x204>)
    3560:	0029      	movs	r1, r5
    3562:	9802      	ldr	r0, [sp, #8]
    3564:	e000      	b.n	3568 <_svfiprintf_r+0x1c8>
    3566:	bf00      	nop
    3568:	9003      	str	r0, [sp, #12]
    356a:	9b03      	ldr	r3, [sp, #12]
    356c:	3301      	adds	r3, #1
    356e:	d1cc      	bne.n	350a <_svfiprintf_r+0x16a>
    3570:	89bb      	ldrh	r3, [r7, #12]
    3572:	980b      	ldr	r0, [sp, #44]	; 0x2c
    3574:	065b      	lsls	r3, r3, #25
    3576:	d400      	bmi.n	357a <_svfiprintf_r+0x1da>
    3578:	e729      	b.n	33ce <_svfiprintf_r+0x2e>
    357a:	2001      	movs	r0, #1
    357c:	4240      	negs	r0, r0
    357e:	e726      	b.n	33ce <_svfiprintf_r+0x2e>
    3580:	ab05      	add	r3, sp, #20
    3582:	9300      	str	r3, [sp, #0]
    3584:	003a      	movs	r2, r7
    3586:	4b07      	ldr	r3, [pc, #28]	; (35a4 <_svfiprintf_r+0x204>)
    3588:	0029      	movs	r1, r5
    358a:	9802      	ldr	r0, [sp, #8]
    358c:	f000 f87a 	bl	3684 <_printf_i>
    3590:	e7ea      	b.n	3568 <_svfiprintf_r+0x1c8>
    3592:	46c0      	nop			; (mov r8, r8)
    3594:	00003de4 	.word	0x00003de4
    3598:	00003dea 	.word	0x00003dea
    359c:	00003dee 	.word	0x00003dee
    35a0:	00000000 	.word	0x00000000
    35a4:	000032dd 	.word	0x000032dd

000035a8 <_printf_common>:
    35a8:	b5f7      	push	{r0, r1, r2, r4, r5, r6, r7, lr}
    35aa:	0015      	movs	r5, r2
    35ac:	9301      	str	r3, [sp, #4]
    35ae:	688a      	ldr	r2, [r1, #8]
    35b0:	690b      	ldr	r3, [r1, #16]
    35b2:	9000      	str	r0, [sp, #0]
    35b4:	000c      	movs	r4, r1
    35b6:	4293      	cmp	r3, r2
    35b8:	da00      	bge.n	35bc <_printf_common+0x14>
    35ba:	0013      	movs	r3, r2
    35bc:	0022      	movs	r2, r4
    35be:	602b      	str	r3, [r5, #0]
    35c0:	3243      	adds	r2, #67	; 0x43
    35c2:	7812      	ldrb	r2, [r2, #0]
    35c4:	2a00      	cmp	r2, #0
    35c6:	d001      	beq.n	35cc <_printf_common+0x24>
    35c8:	3301      	adds	r3, #1
    35ca:	602b      	str	r3, [r5, #0]
    35cc:	6823      	ldr	r3, [r4, #0]
    35ce:	069b      	lsls	r3, r3, #26
    35d0:	d502      	bpl.n	35d8 <_printf_common+0x30>
    35d2:	682b      	ldr	r3, [r5, #0]
    35d4:	3302      	adds	r3, #2
    35d6:	602b      	str	r3, [r5, #0]
    35d8:	2706      	movs	r7, #6
    35da:	6823      	ldr	r3, [r4, #0]
    35dc:	401f      	ands	r7, r3
    35de:	d027      	beq.n	3630 <_printf_common+0x88>
    35e0:	0023      	movs	r3, r4
    35e2:	3343      	adds	r3, #67	; 0x43
    35e4:	781b      	ldrb	r3, [r3, #0]
    35e6:	1e5a      	subs	r2, r3, #1
    35e8:	4193      	sbcs	r3, r2
    35ea:	6822      	ldr	r2, [r4, #0]
    35ec:	0692      	lsls	r2, r2, #26
    35ee:	d430      	bmi.n	3652 <_printf_common+0xaa>
    35f0:	0022      	movs	r2, r4
    35f2:	9901      	ldr	r1, [sp, #4]
    35f4:	3243      	adds	r2, #67	; 0x43
    35f6:	9800      	ldr	r0, [sp, #0]
    35f8:	9e08      	ldr	r6, [sp, #32]
    35fa:	47b0      	blx	r6
    35fc:	1c43      	adds	r3, r0, #1
    35fe:	d025      	beq.n	364c <_printf_common+0xa4>
    3600:	2306      	movs	r3, #6
    3602:	6820      	ldr	r0, [r4, #0]
    3604:	682a      	ldr	r2, [r5, #0]
    3606:	68e1      	ldr	r1, [r4, #12]
    3608:	4003      	ands	r3, r0
    360a:	2500      	movs	r5, #0
    360c:	2b04      	cmp	r3, #4
    360e:	d103      	bne.n	3618 <_printf_common+0x70>
    3610:	1a8d      	subs	r5, r1, r2
    3612:	43eb      	mvns	r3, r5
    3614:	17db      	asrs	r3, r3, #31
    3616:	401d      	ands	r5, r3
    3618:	68a3      	ldr	r3, [r4, #8]
    361a:	6922      	ldr	r2, [r4, #16]
    361c:	4293      	cmp	r3, r2
    361e:	dd01      	ble.n	3624 <_printf_common+0x7c>
    3620:	1a9b      	subs	r3, r3, r2
    3622:	18ed      	adds	r5, r5, r3
    3624:	2700      	movs	r7, #0
    3626:	42bd      	cmp	r5, r7
    3628:	d120      	bne.n	366c <_printf_common+0xc4>
    362a:	2000      	movs	r0, #0
    362c:	e010      	b.n	3650 <_printf_common+0xa8>
    362e:	3701      	adds	r7, #1
    3630:	68e3      	ldr	r3, [r4, #12]
    3632:	682a      	ldr	r2, [r5, #0]
    3634:	1a9b      	subs	r3, r3, r2
    3636:	429f      	cmp	r7, r3
    3638:	dad2      	bge.n	35e0 <_printf_common+0x38>
    363a:	0022      	movs	r2, r4
    363c:	2301      	movs	r3, #1
    363e:	3219      	adds	r2, #25
    3640:	9901      	ldr	r1, [sp, #4]
    3642:	9800      	ldr	r0, [sp, #0]
    3644:	9e08      	ldr	r6, [sp, #32]
    3646:	47b0      	blx	r6
    3648:	1c43      	adds	r3, r0, #1
    364a:	d1f0      	bne.n	362e <_printf_common+0x86>
    364c:	2001      	movs	r0, #1
    364e:	4240      	negs	r0, r0
    3650:	bdfe      	pop	{r1, r2, r3, r4, r5, r6, r7, pc}
    3652:	2030      	movs	r0, #48	; 0x30
    3654:	18e1      	adds	r1, r4, r3
    3656:	3143      	adds	r1, #67	; 0x43
    3658:	7008      	strb	r0, [r1, #0]
    365a:	0021      	movs	r1, r4
    365c:	1c5a      	adds	r2, r3, #1
    365e:	3145      	adds	r1, #69	; 0x45
    3660:	7809      	ldrb	r1, [r1, #0]
    3662:	18a2      	adds	r2, r4, r2
    3664:	3243      	adds	r2, #67	; 0x43
    3666:	3302      	adds	r3, #2
    3668:	7011      	strb	r1, [r2, #0]
    366a:	e7c1      	b.n	35f0 <_printf_common+0x48>
    366c:	0022      	movs	r2, r4
    366e:	2301      	movs	r3, #1
    3670:	321a      	adds	r2, #26
    3672:	9901      	ldr	r1, [sp, #4]
    3674:	9800      	ldr	r0, [sp, #0]
    3676:	9e08      	ldr	r6, [sp, #32]
    3678:	47b0      	blx	r6
    367a:	1c43      	adds	r3, r0, #1
    367c:	d0e6      	beq.n	364c <_printf_common+0xa4>
    367e:	3701      	adds	r7, #1
    3680:	e7d1      	b.n	3626 <_printf_common+0x7e>
	...

00003684 <_printf_i>:
    3684:	b5f0      	push	{r4, r5, r6, r7, lr}
    3686:	b08b      	sub	sp, #44	; 0x2c
    3688:	9206      	str	r2, [sp, #24]
    368a:	000a      	movs	r2, r1
    368c:	3243      	adds	r2, #67	; 0x43
    368e:	9307      	str	r3, [sp, #28]
    3690:	9005      	str	r0, [sp, #20]
    3692:	9204      	str	r2, [sp, #16]
    3694:	7e0a      	ldrb	r2, [r1, #24]
    3696:	000c      	movs	r4, r1
    3698:	9b10      	ldr	r3, [sp, #64]	; 0x40
    369a:	2a6e      	cmp	r2, #110	; 0x6e
    369c:	d100      	bne.n	36a0 <_printf_i+0x1c>
    369e:	e08f      	b.n	37c0 <_printf_i+0x13c>
    36a0:	d817      	bhi.n	36d2 <_printf_i+0x4e>
    36a2:	2a63      	cmp	r2, #99	; 0x63
    36a4:	d02c      	beq.n	3700 <_printf_i+0x7c>
    36a6:	d808      	bhi.n	36ba <_printf_i+0x36>
    36a8:	2a00      	cmp	r2, #0
    36aa:	d100      	bne.n	36ae <_printf_i+0x2a>
    36ac:	e099      	b.n	37e2 <_printf_i+0x15e>
    36ae:	2a58      	cmp	r2, #88	; 0x58
    36b0:	d054      	beq.n	375c <_printf_i+0xd8>
    36b2:	0026      	movs	r6, r4
    36b4:	3642      	adds	r6, #66	; 0x42
    36b6:	7032      	strb	r2, [r6, #0]
    36b8:	e029      	b.n	370e <_printf_i+0x8a>
    36ba:	2a64      	cmp	r2, #100	; 0x64
    36bc:	d001      	beq.n	36c2 <_printf_i+0x3e>
    36be:	2a69      	cmp	r2, #105	; 0x69
    36c0:	d1f7      	bne.n	36b2 <_printf_i+0x2e>
    36c2:	6821      	ldr	r1, [r4, #0]
    36c4:	681a      	ldr	r2, [r3, #0]
    36c6:	0608      	lsls	r0, r1, #24
    36c8:	d523      	bpl.n	3712 <_printf_i+0x8e>
    36ca:	1d11      	adds	r1, r2, #4
    36cc:	6019      	str	r1, [r3, #0]
    36ce:	6815      	ldr	r5, [r2, #0]
    36d0:	e025      	b.n	371e <_printf_i+0x9a>
    36d2:	2a73      	cmp	r2, #115	; 0x73
    36d4:	d100      	bne.n	36d8 <_printf_i+0x54>
    36d6:	e088      	b.n	37ea <_printf_i+0x166>
    36d8:	d808      	bhi.n	36ec <_printf_i+0x68>
    36da:	2a6f      	cmp	r2, #111	; 0x6f
    36dc:	d029      	beq.n	3732 <_printf_i+0xae>
    36de:	2a70      	cmp	r2, #112	; 0x70
    36e0:	d1e7      	bne.n	36b2 <_printf_i+0x2e>
    36e2:	2220      	movs	r2, #32
    36e4:	6809      	ldr	r1, [r1, #0]
    36e6:	430a      	orrs	r2, r1
    36e8:	6022      	str	r2, [r4, #0]
    36ea:	e003      	b.n	36f4 <_printf_i+0x70>
    36ec:	2a75      	cmp	r2, #117	; 0x75
    36ee:	d020      	beq.n	3732 <_printf_i+0xae>
    36f0:	2a78      	cmp	r2, #120	; 0x78
    36f2:	d1de      	bne.n	36b2 <_printf_i+0x2e>
    36f4:	0022      	movs	r2, r4
    36f6:	2178      	movs	r1, #120	; 0x78
    36f8:	3245      	adds	r2, #69	; 0x45
    36fa:	7011      	strb	r1, [r2, #0]
    36fc:	4a6c      	ldr	r2, [pc, #432]	; (38b0 <_printf_i+0x22c>)
    36fe:	e030      	b.n	3762 <_printf_i+0xde>
    3700:	000e      	movs	r6, r1
    3702:	681a      	ldr	r2, [r3, #0]
    3704:	3642      	adds	r6, #66	; 0x42
    3706:	1d11      	adds	r1, r2, #4
    3708:	6019      	str	r1, [r3, #0]
    370a:	6813      	ldr	r3, [r2, #0]
    370c:	7033      	strb	r3, [r6, #0]
    370e:	2301      	movs	r3, #1
    3710:	e079      	b.n	3806 <_printf_i+0x182>
    3712:	0649      	lsls	r1, r1, #25
    3714:	d5d9      	bpl.n	36ca <_printf_i+0x46>
    3716:	1d11      	adds	r1, r2, #4
    3718:	6019      	str	r1, [r3, #0]
    371a:	2300      	movs	r3, #0
    371c:	5ed5      	ldrsh	r5, [r2, r3]
    371e:	2d00      	cmp	r5, #0
    3720:	da03      	bge.n	372a <_printf_i+0xa6>
    3722:	232d      	movs	r3, #45	; 0x2d
    3724:	9a04      	ldr	r2, [sp, #16]
    3726:	426d      	negs	r5, r5
    3728:	7013      	strb	r3, [r2, #0]
    372a:	4b62      	ldr	r3, [pc, #392]	; (38b4 <_printf_i+0x230>)
    372c:	270a      	movs	r7, #10
    372e:	9303      	str	r3, [sp, #12]
    3730:	e02f      	b.n	3792 <_printf_i+0x10e>
    3732:	6820      	ldr	r0, [r4, #0]
    3734:	6819      	ldr	r1, [r3, #0]
    3736:	0605      	lsls	r5, r0, #24
    3738:	d503      	bpl.n	3742 <_printf_i+0xbe>
    373a:	1d08      	adds	r0, r1, #4
    373c:	6018      	str	r0, [r3, #0]
    373e:	680d      	ldr	r5, [r1, #0]
    3740:	e005      	b.n	374e <_printf_i+0xca>
    3742:	0640      	lsls	r0, r0, #25
    3744:	d5f9      	bpl.n	373a <_printf_i+0xb6>
    3746:	680d      	ldr	r5, [r1, #0]
    3748:	1d08      	adds	r0, r1, #4
    374a:	6018      	str	r0, [r3, #0]
    374c:	b2ad      	uxth	r5, r5
    374e:	4b59      	ldr	r3, [pc, #356]	; (38b4 <_printf_i+0x230>)
    3750:	2708      	movs	r7, #8
    3752:	9303      	str	r3, [sp, #12]
    3754:	2a6f      	cmp	r2, #111	; 0x6f
    3756:	d018      	beq.n	378a <_printf_i+0x106>
    3758:	270a      	movs	r7, #10
    375a:	e016      	b.n	378a <_printf_i+0x106>
    375c:	3145      	adds	r1, #69	; 0x45
    375e:	700a      	strb	r2, [r1, #0]
    3760:	4a54      	ldr	r2, [pc, #336]	; (38b4 <_printf_i+0x230>)
    3762:	9203      	str	r2, [sp, #12]
    3764:	681a      	ldr	r2, [r3, #0]
    3766:	6821      	ldr	r1, [r4, #0]
    3768:	1d10      	adds	r0, r2, #4
    376a:	6018      	str	r0, [r3, #0]
    376c:	6815      	ldr	r5, [r2, #0]
    376e:	0608      	lsls	r0, r1, #24
    3770:	d522      	bpl.n	37b8 <_printf_i+0x134>
    3772:	07cb      	lsls	r3, r1, #31
    3774:	d502      	bpl.n	377c <_printf_i+0xf8>
    3776:	2320      	movs	r3, #32
    3778:	4319      	orrs	r1, r3
    377a:	6021      	str	r1, [r4, #0]
    377c:	2710      	movs	r7, #16
    377e:	2d00      	cmp	r5, #0
    3780:	d103      	bne.n	378a <_printf_i+0x106>
    3782:	2320      	movs	r3, #32
    3784:	6822      	ldr	r2, [r4, #0]
    3786:	439a      	bics	r2, r3
    3788:	6022      	str	r2, [r4, #0]
    378a:	0023      	movs	r3, r4
    378c:	2200      	movs	r2, #0
    378e:	3343      	adds	r3, #67	; 0x43
    3790:	701a      	strb	r2, [r3, #0]
    3792:	6863      	ldr	r3, [r4, #4]
    3794:	60a3      	str	r3, [r4, #8]
    3796:	2b00      	cmp	r3, #0
    3798:	db5c      	blt.n	3854 <_printf_i+0x1d0>
    379a:	2204      	movs	r2, #4
    379c:	6821      	ldr	r1, [r4, #0]
    379e:	4391      	bics	r1, r2
    37a0:	6021      	str	r1, [r4, #0]
    37a2:	2d00      	cmp	r5, #0
    37a4:	d158      	bne.n	3858 <_printf_i+0x1d4>
    37a6:	9e04      	ldr	r6, [sp, #16]
    37a8:	2b00      	cmp	r3, #0
    37aa:	d064      	beq.n	3876 <_printf_i+0x1f2>
    37ac:	0026      	movs	r6, r4
    37ae:	9b03      	ldr	r3, [sp, #12]
    37b0:	3642      	adds	r6, #66	; 0x42
    37b2:	781b      	ldrb	r3, [r3, #0]
    37b4:	7033      	strb	r3, [r6, #0]
    37b6:	e05e      	b.n	3876 <_printf_i+0x1f2>
    37b8:	0648      	lsls	r0, r1, #25
    37ba:	d5da      	bpl.n	3772 <_printf_i+0xee>
    37bc:	b2ad      	uxth	r5, r5
    37be:	e7d8      	b.n	3772 <_printf_i+0xee>
    37c0:	6809      	ldr	r1, [r1, #0]
    37c2:	681a      	ldr	r2, [r3, #0]
    37c4:	0608      	lsls	r0, r1, #24
    37c6:	d505      	bpl.n	37d4 <_printf_i+0x150>
    37c8:	1d11      	adds	r1, r2, #4
    37ca:	6019      	str	r1, [r3, #0]
    37cc:	6813      	ldr	r3, [r2, #0]
    37ce:	6962      	ldr	r2, [r4, #20]
    37d0:	601a      	str	r2, [r3, #0]
    37d2:	e006      	b.n	37e2 <_printf_i+0x15e>
    37d4:	0649      	lsls	r1, r1, #25
    37d6:	d5f7      	bpl.n	37c8 <_printf_i+0x144>
    37d8:	1d11      	adds	r1, r2, #4
    37da:	6019      	str	r1, [r3, #0]
    37dc:	6813      	ldr	r3, [r2, #0]
    37de:	8aa2      	ldrh	r2, [r4, #20]
    37e0:	801a      	strh	r2, [r3, #0]
    37e2:	2300      	movs	r3, #0
    37e4:	9e04      	ldr	r6, [sp, #16]
    37e6:	6123      	str	r3, [r4, #16]
    37e8:	e054      	b.n	3894 <_printf_i+0x210>
    37ea:	681a      	ldr	r2, [r3, #0]
    37ec:	1d11      	adds	r1, r2, #4
    37ee:	6019      	str	r1, [r3, #0]
    37f0:	6816      	ldr	r6, [r2, #0]
    37f2:	2100      	movs	r1, #0
    37f4:	6862      	ldr	r2, [r4, #4]
    37f6:	0030      	movs	r0, r6
    37f8:	f000 f85e 	bl	38b8 <memchr>
    37fc:	2800      	cmp	r0, #0
    37fe:	d001      	beq.n	3804 <_printf_i+0x180>
    3800:	1b80      	subs	r0, r0, r6
    3802:	6060      	str	r0, [r4, #4]
    3804:	6863      	ldr	r3, [r4, #4]
    3806:	6123      	str	r3, [r4, #16]
    3808:	2300      	movs	r3, #0
    380a:	9a04      	ldr	r2, [sp, #16]
    380c:	7013      	strb	r3, [r2, #0]
    380e:	e041      	b.n	3894 <_printf_i+0x210>
    3810:	6923      	ldr	r3, [r4, #16]
    3812:	0032      	movs	r2, r6
    3814:	9906      	ldr	r1, [sp, #24]
    3816:	9805      	ldr	r0, [sp, #20]
    3818:	9d07      	ldr	r5, [sp, #28]
    381a:	47a8      	blx	r5
    381c:	1c43      	adds	r3, r0, #1
    381e:	d043      	beq.n	38a8 <_printf_i+0x224>
    3820:	6823      	ldr	r3, [r4, #0]
    3822:	2500      	movs	r5, #0
    3824:	079b      	lsls	r3, r3, #30
    3826:	d40f      	bmi.n	3848 <_printf_i+0x1c4>
    3828:	9b09      	ldr	r3, [sp, #36]	; 0x24
    382a:	68e0      	ldr	r0, [r4, #12]
    382c:	4298      	cmp	r0, r3
    382e:	da3d      	bge.n	38ac <_printf_i+0x228>
    3830:	0018      	movs	r0, r3
    3832:	e03b      	b.n	38ac <_printf_i+0x228>
    3834:	0022      	movs	r2, r4
    3836:	2301      	movs	r3, #1
    3838:	3219      	adds	r2, #25
    383a:	9906      	ldr	r1, [sp, #24]
    383c:	9805      	ldr	r0, [sp, #20]
    383e:	9e07      	ldr	r6, [sp, #28]
    3840:	47b0      	blx	r6
    3842:	1c43      	adds	r3, r0, #1
    3844:	d030      	beq.n	38a8 <_printf_i+0x224>
    3846:	3501      	adds	r5, #1
    3848:	68e3      	ldr	r3, [r4, #12]
    384a:	9a09      	ldr	r2, [sp, #36]	; 0x24
    384c:	1a9b      	subs	r3, r3, r2
    384e:	429d      	cmp	r5, r3
    3850:	dbf0      	blt.n	3834 <_printf_i+0x1b0>
    3852:	e7e9      	b.n	3828 <_printf_i+0x1a4>
    3854:	2d00      	cmp	r5, #0
    3856:	d0a9      	beq.n	37ac <_printf_i+0x128>
    3858:	9e04      	ldr	r6, [sp, #16]
    385a:	0028      	movs	r0, r5
    385c:	0039      	movs	r1, r7
    385e:	f7ff fbd3 	bl	3008 <__aeabi_uidivmod>
    3862:	9b03      	ldr	r3, [sp, #12]
    3864:	3e01      	subs	r6, #1
    3866:	5c5b      	ldrb	r3, [r3, r1]
    3868:	0028      	movs	r0, r5
    386a:	7033      	strb	r3, [r6, #0]
    386c:	0039      	movs	r1, r7
    386e:	f7ff fb45 	bl	2efc <__udivsi3>
    3872:	1e05      	subs	r5, r0, #0
    3874:	d1f1      	bne.n	385a <_printf_i+0x1d6>
    3876:	2f08      	cmp	r7, #8
    3878:	d109      	bne.n	388e <_printf_i+0x20a>
    387a:	6823      	ldr	r3, [r4, #0]
    387c:	07db      	lsls	r3, r3, #31
    387e:	d506      	bpl.n	388e <_printf_i+0x20a>
    3880:	6863      	ldr	r3, [r4, #4]
    3882:	6922      	ldr	r2, [r4, #16]
    3884:	4293      	cmp	r3, r2
    3886:	dc02      	bgt.n	388e <_printf_i+0x20a>
    3888:	2330      	movs	r3, #48	; 0x30
    388a:	3e01      	subs	r6, #1
    388c:	7033      	strb	r3, [r6, #0]
    388e:	9b04      	ldr	r3, [sp, #16]
    3890:	1b9b      	subs	r3, r3, r6
    3892:	6123      	str	r3, [r4, #16]
    3894:	9b07      	ldr	r3, [sp, #28]
    3896:	aa09      	add	r2, sp, #36	; 0x24
    3898:	9300      	str	r3, [sp, #0]
    389a:	0021      	movs	r1, r4
    389c:	9b06      	ldr	r3, [sp, #24]
    389e:	9805      	ldr	r0, [sp, #20]
    38a0:	f7ff fe82 	bl	35a8 <_printf_common>
    38a4:	1c43      	adds	r3, r0, #1
    38a6:	d1b3      	bne.n	3810 <_printf_i+0x18c>
    38a8:	2001      	movs	r0, #1
    38aa:	4240      	negs	r0, r0
    38ac:	b00b      	add	sp, #44	; 0x2c
    38ae:	bdf0      	pop	{r4, r5, r6, r7, pc}
    38b0:	00003e06 	.word	0x00003e06
    38b4:	00003df5 	.word	0x00003df5

000038b8 <memchr>:
    38b8:	b2c9      	uxtb	r1, r1
    38ba:	1882      	adds	r2, r0, r2
    38bc:	4290      	cmp	r0, r2
    38be:	d101      	bne.n	38c4 <memchr+0xc>
    38c0:	2000      	movs	r0, #0
    38c2:	4770      	bx	lr
    38c4:	7803      	ldrb	r3, [r0, #0]
    38c6:	428b      	cmp	r3, r1
    38c8:	d0fb      	beq.n	38c2 <memchr+0xa>
    38ca:	3001      	adds	r0, #1
    38cc:	e7f6      	b.n	38bc <memchr+0x4>

000038ce <memmove>:
    38ce:	b510      	push	{r4, lr}
    38d0:	4288      	cmp	r0, r1
    38d2:	d902      	bls.n	38da <memmove+0xc>
    38d4:	188b      	adds	r3, r1, r2
    38d6:	4298      	cmp	r0, r3
    38d8:	d308      	bcc.n	38ec <memmove+0x1e>
    38da:	2300      	movs	r3, #0
    38dc:	429a      	cmp	r2, r3
    38de:	d007      	beq.n	38f0 <memmove+0x22>
    38e0:	5ccc      	ldrb	r4, [r1, r3]
    38e2:	54c4      	strb	r4, [r0, r3]
    38e4:	3301      	adds	r3, #1
    38e6:	e7f9      	b.n	38dc <memmove+0xe>
    38e8:	5c8b      	ldrb	r3, [r1, r2]
    38ea:	5483      	strb	r3, [r0, r2]
    38ec:	3a01      	subs	r2, #1
    38ee:	d2fb      	bcs.n	38e8 <memmove+0x1a>
    38f0:	bd10      	pop	{r4, pc}
	...

000038f4 <_free_r>:
    38f4:	b570      	push	{r4, r5, r6, lr}
    38f6:	0005      	movs	r5, r0
    38f8:	2900      	cmp	r1, #0
    38fa:	d010      	beq.n	391e <_free_r+0x2a>
    38fc:	1f0c      	subs	r4, r1, #4
    38fe:	6823      	ldr	r3, [r4, #0]
    3900:	2b00      	cmp	r3, #0
    3902:	da00      	bge.n	3906 <_free_r+0x12>
    3904:	18e4      	adds	r4, r4, r3
    3906:	0028      	movs	r0, r5
    3908:	f000 f8d4 	bl	3ab4 <__malloc_lock>
    390c:	4a1d      	ldr	r2, [pc, #116]	; (3984 <_free_r+0x90>)
    390e:	6813      	ldr	r3, [r2, #0]
    3910:	2b00      	cmp	r3, #0
    3912:	d105      	bne.n	3920 <_free_r+0x2c>
    3914:	6063      	str	r3, [r4, #4]
    3916:	6014      	str	r4, [r2, #0]
    3918:	0028      	movs	r0, r5
    391a:	f000 f8cc 	bl	3ab6 <__malloc_unlock>
    391e:	bd70      	pop	{r4, r5, r6, pc}
    3920:	42a3      	cmp	r3, r4
    3922:	d909      	bls.n	3938 <_free_r+0x44>
    3924:	6821      	ldr	r1, [r4, #0]
    3926:	1860      	adds	r0, r4, r1
    3928:	4283      	cmp	r3, r0
    392a:	d1f3      	bne.n	3914 <_free_r+0x20>
    392c:	6818      	ldr	r0, [r3, #0]
    392e:	685b      	ldr	r3, [r3, #4]
    3930:	1841      	adds	r1, r0, r1
    3932:	6021      	str	r1, [r4, #0]
    3934:	e7ee      	b.n	3914 <_free_r+0x20>
    3936:	0013      	movs	r3, r2
    3938:	685a      	ldr	r2, [r3, #4]
    393a:	2a00      	cmp	r2, #0
    393c:	d001      	beq.n	3942 <_free_r+0x4e>
    393e:	42a2      	cmp	r2, r4
    3940:	d9f9      	bls.n	3936 <_free_r+0x42>
    3942:	6819      	ldr	r1, [r3, #0]
    3944:	1858      	adds	r0, r3, r1
    3946:	42a0      	cmp	r0, r4
    3948:	d10b      	bne.n	3962 <_free_r+0x6e>
    394a:	6820      	ldr	r0, [r4, #0]
    394c:	1809      	adds	r1, r1, r0
    394e:	1858      	adds	r0, r3, r1
    3950:	6019      	str	r1, [r3, #0]
    3952:	4282      	cmp	r2, r0
    3954:	d1e0      	bne.n	3918 <_free_r+0x24>
    3956:	6810      	ldr	r0, [r2, #0]
    3958:	6852      	ldr	r2, [r2, #4]
    395a:	1841      	adds	r1, r0, r1
    395c:	6019      	str	r1, [r3, #0]
    395e:	605a      	str	r2, [r3, #4]
    3960:	e7da      	b.n	3918 <_free_r+0x24>
    3962:	42a0      	cmp	r0, r4
    3964:	d902      	bls.n	396c <_free_r+0x78>
    3966:	230c      	movs	r3, #12
    3968:	602b      	str	r3, [r5, #0]
    396a:	e7d5      	b.n	3918 <_free_r+0x24>
    396c:	6821      	ldr	r1, [r4, #0]
    396e:	1860      	adds	r0, r4, r1
    3970:	4282      	cmp	r2, r0
    3972:	d103      	bne.n	397c <_free_r+0x88>
    3974:	6810      	ldr	r0, [r2, #0]
    3976:	6852      	ldr	r2, [r2, #4]
    3978:	1841      	adds	r1, r0, r1
    397a:	6021      	str	r1, [r4, #0]
    397c:	6062      	str	r2, [r4, #4]
    397e:	605c      	str	r4, [r3, #4]
    3980:	e7ca      	b.n	3918 <_free_r+0x24>
    3982:	46c0      	nop			; (mov r8, r8)
    3984:	200000ec 	.word	0x200000ec

00003988 <_malloc_r>:
    3988:	2303      	movs	r3, #3
    398a:	b570      	push	{r4, r5, r6, lr}
    398c:	1ccd      	adds	r5, r1, #3
    398e:	439d      	bics	r5, r3
    3990:	3508      	adds	r5, #8
    3992:	0006      	movs	r6, r0
    3994:	2d0c      	cmp	r5, #12
    3996:	d21e      	bcs.n	39d6 <_malloc_r+0x4e>
    3998:	250c      	movs	r5, #12
    399a:	42a9      	cmp	r1, r5
    399c:	d81d      	bhi.n	39da <_malloc_r+0x52>
    399e:	0030      	movs	r0, r6
    39a0:	f000 f888 	bl	3ab4 <__malloc_lock>
    39a4:	4a25      	ldr	r2, [pc, #148]	; (3a3c <_malloc_r+0xb4>)
    39a6:	6814      	ldr	r4, [r2, #0]
    39a8:	0021      	movs	r1, r4
    39aa:	2900      	cmp	r1, #0
    39ac:	d119      	bne.n	39e2 <_malloc_r+0x5a>
    39ae:	4c24      	ldr	r4, [pc, #144]	; (3a40 <_malloc_r+0xb8>)
    39b0:	6823      	ldr	r3, [r4, #0]
    39b2:	2b00      	cmp	r3, #0
    39b4:	d103      	bne.n	39be <_malloc_r+0x36>
    39b6:	0030      	movs	r0, r6
    39b8:	f000 f86a 	bl	3a90 <_sbrk_r>
    39bc:	6020      	str	r0, [r4, #0]
    39be:	0029      	movs	r1, r5
    39c0:	0030      	movs	r0, r6
    39c2:	f000 f865 	bl	3a90 <_sbrk_r>
    39c6:	1c43      	adds	r3, r0, #1
    39c8:	d12c      	bne.n	3a24 <_malloc_r+0x9c>
    39ca:	230c      	movs	r3, #12
    39cc:	0030      	movs	r0, r6
    39ce:	6033      	str	r3, [r6, #0]
    39d0:	f000 f871 	bl	3ab6 <__malloc_unlock>
    39d4:	e003      	b.n	39de <_malloc_r+0x56>
    39d6:	2d00      	cmp	r5, #0
    39d8:	dadf      	bge.n	399a <_malloc_r+0x12>
    39da:	230c      	movs	r3, #12
    39dc:	6033      	str	r3, [r6, #0]
    39de:	2000      	movs	r0, #0
    39e0:	bd70      	pop	{r4, r5, r6, pc}
    39e2:	680b      	ldr	r3, [r1, #0]
    39e4:	1b5b      	subs	r3, r3, r5
    39e6:	d41a      	bmi.n	3a1e <_malloc_r+0x96>
    39e8:	2b0b      	cmp	r3, #11
    39ea:	d903      	bls.n	39f4 <_malloc_r+0x6c>
    39ec:	600b      	str	r3, [r1, #0]
    39ee:	18cc      	adds	r4, r1, r3
    39f0:	6025      	str	r5, [r4, #0]
    39f2:	e003      	b.n	39fc <_malloc_r+0x74>
    39f4:	428c      	cmp	r4, r1
    39f6:	d10e      	bne.n	3a16 <_malloc_r+0x8e>
    39f8:	6863      	ldr	r3, [r4, #4]
    39fa:	6013      	str	r3, [r2, #0]
    39fc:	0030      	movs	r0, r6
    39fe:	f000 f85a 	bl	3ab6 <__malloc_unlock>
    3a02:	0020      	movs	r0, r4
    3a04:	2207      	movs	r2, #7
    3a06:	300b      	adds	r0, #11
    3a08:	1d23      	adds	r3, r4, #4
    3a0a:	4390      	bics	r0, r2
    3a0c:	1ac3      	subs	r3, r0, r3
    3a0e:	d0e7      	beq.n	39e0 <_malloc_r+0x58>
    3a10:	425a      	negs	r2, r3
    3a12:	50e2      	str	r2, [r4, r3]
    3a14:	e7e4      	b.n	39e0 <_malloc_r+0x58>
    3a16:	684b      	ldr	r3, [r1, #4]
    3a18:	6063      	str	r3, [r4, #4]
    3a1a:	000c      	movs	r4, r1
    3a1c:	e7ee      	b.n	39fc <_malloc_r+0x74>
    3a1e:	000c      	movs	r4, r1
    3a20:	6849      	ldr	r1, [r1, #4]
    3a22:	e7c2      	b.n	39aa <_malloc_r+0x22>
    3a24:	2303      	movs	r3, #3
    3a26:	1cc4      	adds	r4, r0, #3
    3a28:	439c      	bics	r4, r3
    3a2a:	42a0      	cmp	r0, r4
    3a2c:	d0e0      	beq.n	39f0 <_malloc_r+0x68>
    3a2e:	1a21      	subs	r1, r4, r0
    3a30:	0030      	movs	r0, r6
    3a32:	f000 f82d 	bl	3a90 <_sbrk_r>
    3a36:	1c43      	adds	r3, r0, #1
    3a38:	d1da      	bne.n	39f0 <_malloc_r+0x68>
    3a3a:	e7c6      	b.n	39ca <_malloc_r+0x42>
    3a3c:	200000ec 	.word	0x200000ec
    3a40:	200000f0 	.word	0x200000f0

00003a44 <_realloc_r>:
    3a44:	b5f8      	push	{r3, r4, r5, r6, r7, lr}
    3a46:	0007      	movs	r7, r0
    3a48:	000d      	movs	r5, r1
    3a4a:	0016      	movs	r6, r2
    3a4c:	2900      	cmp	r1, #0
    3a4e:	d105      	bne.n	3a5c <_realloc_r+0x18>
    3a50:	0011      	movs	r1, r2
    3a52:	f7ff ff99 	bl	3988 <_malloc_r>
    3a56:	0004      	movs	r4, r0
    3a58:	0020      	movs	r0, r4
    3a5a:	bdf8      	pop	{r3, r4, r5, r6, r7, pc}
    3a5c:	2a00      	cmp	r2, #0
    3a5e:	d103      	bne.n	3a68 <_realloc_r+0x24>
    3a60:	f7ff ff48 	bl	38f4 <_free_r>
    3a64:	0034      	movs	r4, r6
    3a66:	e7f7      	b.n	3a58 <_realloc_r+0x14>
    3a68:	f000 f826 	bl	3ab8 <_malloc_usable_size_r>
    3a6c:	002c      	movs	r4, r5
    3a6e:	4286      	cmp	r6, r0
    3a70:	d9f2      	bls.n	3a58 <_realloc_r+0x14>
    3a72:	0031      	movs	r1, r6
    3a74:	0038      	movs	r0, r7
    3a76:	f7ff ff87 	bl	3988 <_malloc_r>
    3a7a:	1e04      	subs	r4, r0, #0
    3a7c:	d0ec      	beq.n	3a58 <_realloc_r+0x14>
    3a7e:	0029      	movs	r1, r5
    3a80:	0032      	movs	r2, r6
    3a82:	f7ff fbff 	bl	3284 <memcpy>
    3a86:	0029      	movs	r1, r5
    3a88:	0038      	movs	r0, r7
    3a8a:	f7ff ff33 	bl	38f4 <_free_r>
    3a8e:	e7e3      	b.n	3a58 <_realloc_r+0x14>

00003a90 <_sbrk_r>:
    3a90:	2300      	movs	r3, #0
    3a92:	b570      	push	{r4, r5, r6, lr}
    3a94:	4c06      	ldr	r4, [pc, #24]	; (3ab0 <_sbrk_r+0x20>)
    3a96:	0005      	movs	r5, r0
    3a98:	0008      	movs	r0, r1
    3a9a:	6023      	str	r3, [r4, #0]
    3a9c:	f7ff f994 	bl	2dc8 <_sbrk>
    3aa0:	1c43      	adds	r3, r0, #1
    3aa2:	d103      	bne.n	3aac <_sbrk_r+0x1c>
    3aa4:	6823      	ldr	r3, [r4, #0]
    3aa6:	2b00      	cmp	r3, #0
    3aa8:	d000      	beq.n	3aac <_sbrk_r+0x1c>
    3aaa:	602b      	str	r3, [r5, #0]
    3aac:	bd70      	pop	{r4, r5, r6, pc}
    3aae:	46c0      	nop			; (mov r8, r8)
    3ab0:	2000554c 	.word	0x2000554c

00003ab4 <__malloc_lock>:
    3ab4:	4770      	bx	lr

00003ab6 <__malloc_unlock>:
    3ab6:	4770      	bx	lr

00003ab8 <_malloc_usable_size_r>:
    3ab8:	1f0b      	subs	r3, r1, #4
    3aba:	681b      	ldr	r3, [r3, #0]
    3abc:	1f18      	subs	r0, r3, #4
    3abe:	2b00      	cmp	r3, #0
    3ac0:	da01      	bge.n	3ac6 <_malloc_usable_size_r+0xe>
    3ac2:	580b      	ldr	r3, [r1, r0]
    3ac4:	18c0      	adds	r0, r0, r3
    3ac6:	4770      	bx	lr
    3ac8:	0000005b 	.word	0x0000005b
    3acc:	6d75445f 	.word	0x6d75445f
    3ad0:	625f796d 	.word	0x625f796d
    3ad4:	65666675 	.word	0x65666675
    3ad8:	4b4f2072 	.word	0x4b4f2072
    3adc:	0000205d 	.word	0x0000205d
    3ae0:	6d75445f 	.word	0x6d75445f
    3ae4:	625f796d 	.word	0x625f796d
    3ae8:	65666675 	.word	0x65666675
    3aec:	474e2072 	.word	0x474e2072
    3af0:	0000205d 	.word	0x0000205d
    3af4:	5d4b4f20 	.word	0x5d4b4f20
    3af8:	00000020 	.word	0x00000020
    3afc:	5d474e20 	.word	0x5d474e20
    3b00:	00000020 	.word	0x00000020
    3b04:	3e2d2d20 	.word	0x3e2d2d20
    3b08:	45455b20 	.word	0x45455b20
    3b0c:	4d4f4550 	.word	0x4d4f4550
    3b10:	6972575f 	.word	0x6972575f
    3b14:	00206574 	.word	0x00206574
    3b18:	005d4b4f 	.word	0x005d4b4f
    3b1c:	005d474e 	.word	0x005d474e
    3b20:	6f4c200d 	.word	0x6f4c200d
    3b24:	5b206461 	.word	0x5b206461
    3b28:	7461476d 	.word	0x7461476d
    3b2c:	79617765 	.word	0x79617765
    3b30:	4d45752e 	.word	0x4d45752e
    3b34:	4d752e53 	.word	0x4d752e53
    3b38:	6c75646f 	.word	0x6c75646f
    3b3c:	49752e65 	.word	0x49752e65
    3b40:	3d205d44 	.word	0x3d205d44
    3b44:	25783020 	.word	0x25783020
    3b48:	00583830 	.word	0x00583830
    3b4c:	6153200d 	.word	0x6153200d
    3b50:	5b206576 	.word	0x5b206576
    3b54:	7461476d 	.word	0x7461476d
    3b58:	79617765 	.word	0x79617765
    3b5c:	4d45752e 	.word	0x4d45752e
    3b60:	4d752e53 	.word	0x4d752e53
    3b64:	6c75646f 	.word	0x6c75646f
    3b68:	49752e65 	.word	0x49752e65
    3b6c:	3d205d44 	.word	0x3d205d44
    3b70:	25783020 	.word	0x25783020
    3b74:	00583830 	.word	0x00583830
    3b78:	4965200d 	.word	0x4965200d
    3b7c:	6e695f44 	.word	0x6e695f44
    3b80:	61697469 	.word	0x61697469
    3b84:	3b29286c 	.word	0x3b29286c
    3b88:	00000000 	.word	0x00000000
    3b8c:	636d200d 	.word	0x636d200d
    3b90:	755b2075 	.word	0x755b2075
    3b94:	5d747261 	.word	0x5d747261
    3b98:	00000000 	.word	0x00000000
    3b9c:	636d200d 	.word	0x636d200d
    3ba0:	695b2075 	.word	0x695b2075
    3ba4:	005d6332 	.word	0x005d6332
    3ba8:	636d200d 	.word	0x636d200d
    3bac:	615b2075 	.word	0x615b2075
    3bb0:	005d6364 	.word	0x005d6364
    3bb4:	636d200d 	.word	0x636d200d
    3bb8:	745b2075 	.word	0x745b2075
    3bbc:	72656d69 	.word	0x72656d69
    3bc0:	0000005d 	.word	0x0000005d
    3bc4:	636d200d 	.word	0x636d200d
    3bc8:	655b2075 	.word	0x655b2075
    3bcc:	746e6978 	.word	0x746e6978
    3bd0:	0000005d 	.word	0x0000005d
    3bd4:	636d200d 	.word	0x636d200d
    3bd8:	775b2075 	.word	0x775b2075
    3bdc:	005d7464 	.word	0x005d7464
    3be0:	636d200d 	.word	0x636d200d
    3be4:	6e5b2075 	.word	0x6e5b2075
    3be8:	005d6d76 	.word	0x005d6d76
    3bec:	636d200d 	.word	0x636d200d
    3bf0:	695b2075 	.word	0x695b2075
    3bf4:	6f20746e 	.word	0x6f20746e
    3bf8:	00005d6e 	.word	0x00005d6e
    3bfc:	4d205041 	.word	0x4d205041
    3c00:	2065646f 	.word	0x2065646f
    3c04:	2e2e4e4f 	.word	0x2e2e4e4f
    3c08:	0000000d 	.word	0x0000000d
    3c0c:	4d205041 	.word	0x4d205041
    3c10:	2065646f 	.word	0x2065646f
    3c14:	2e46464f 	.word	0x2e46464f
    3c18:	00000d2e 	.word	0x00000d2e

00003c1c <tc_interrupt_vectors.10753>:
    3c1c:	100f0e0d 00001211 00001578 000017d6     ........x.......
    3c2c:	000017d6 000017d6 000017d6 000017d6     ................
    3c3c:	000017d6 000017d6 000017d6 000017d6     ................
    3c4c:	000017d6 000017d6 000017d6 000017d6     ................
    3c5c:	000017d6 000017d6 00001558 000017d6     ........X.......
    3c6c:	000017d6 000017d6 000017d6 000017d6     ................
    3c7c:	000017d6 000017d6 000017d6 000017d6     ................
    3c8c:	000017d6 000017d6 000017d6 000017d6     ................
    3c9c:	000017d6 000017d6 00001570 000017d6     ........p.......
    3cac:	000017d6 000017d6 000017d6 000017d6     ................
    3cbc:	000017d6 000017d6 000017d6 000017d6     ................
    3ccc:	000017d6 000017d6 000017d6 000017d6     ................
    3cdc:	000017d6 000017d6 00001568 00001580     ........h.......
    3cec:	00001538 00001548 00001540 00000002     8...H...@.......
    3cfc:	00000003 0000ffff 0000ffff 00000004     ................
    3d0c:	00000005 00000006 00000007 0000ffff     ................
    3d1c:	0000ffff 0000ffff 0000ffff 0000ffff     ................
    3d2c:	0000ffff 0000ffff 0000ffff 00000008     ................
    3d3c:	00000009 0000000a 0000000b 42002000     ............. .B
    3d4c:	42002400 42002800 42002c00 42003000     .$.B.(.B.,.B.0.B
    3d5c:	42003400 02000100 08000400 20001000     .4.B........... 
    3d6c:	42000800 42000c00 42001000 42001400     ...B...B...B...B
    3d7c:	00002762 0000275e 0000275e 000027ae     b'..^'..^'...'..
    3d8c:	000027ae 00002776 00002768 0000277c     .'..v'..h'..|'..
    3d9c:	00002834 00002814 00002814 00002884     4(...(...(...(..
    3dac:	00002826 00002842 00002818 00002850     &(..B(...(..P(..
    3dbc:	544e200d 6f4e5f43 2031305f 2528203d     . NTC_No_01 = (%
    3dcc:	29643630 00000020 6e75525b 0000005d     06d) ...[Run]...
    3ddc:	65525b0d 005d6461 2b302d23 6c680020     .[Read].#-0+ .hl
    3dec:	6665004c 47464567 32313000 36353433     L.efgEFG.0123456
    3dfc:	41393837 45444342 31300046 35343332     789ABCDEF.012345
    3e0c:	39383736 64636261 00006665              6789abcdef..

00003e18 <_init>:
    3e18:	b5f8      	push	{r3, r4, r5, r6, r7, lr}
    3e1a:	46c0      	nop			; (mov r8, r8)
    3e1c:	bcf8      	pop	{r3, r4, r5, r6, r7}
    3e1e:	bc08      	pop	{r3}
    3e20:	469e      	mov	lr, r3
    3e22:	4770      	bx	lr

00003e24 <__init_array_start>:
    3e24:	000000cd 	.word	0x000000cd

00003e28 <_fini>:
    3e28:	b5f8      	push	{r3, r4, r5, r6, r7, lr}
    3e2a:	46c0      	nop			; (mov r8, r8)
    3e2c:	bcf8      	pop	{r3, r4, r5, r6, r7}
    3e2e:	bc08      	pop	{r3}
    3e30:	469e      	mov	lr, r3
    3e32:	4770      	bx	lr

00003e34 <__fini_array_start>:
    3e34:	000000a5 	.word	0x000000a5
