
SHH_LoRA_New.elf:     file format elf32-littlearm

Sections:
Idx Name          Size      VMA       LMA       File off  Algn
  0 .text         00007360  00000000  00000000  00010000  2**2
                  CONTENTS, ALLOC, LOAD, READONLY, CODE
  1 .relocate     000001cc  20000000  00007360  00020000  2**2
                  CONTENTS, ALLOC, LOAD, DATA
  2 .bss          00003360  200001cc  0000752c  000201cc  2**2
                  ALLOC
  3 .stack        00002004  2000352c  0000a88c  000201cc  2**0
                  ALLOC
  4 .ARM.attributes 00000028  00000000  00000000  000201cc  2**0
                  CONTENTS, READONLY
  5 .comment      00000059  00000000  00000000  000201f4  2**0
                  CONTENTS, READONLY
  6 .debug_info   000bfebb  00000000  00000000  0002024d  2**0
                  CONTENTS, READONLY, DEBUGGING
  7 .debug_abbrev 0000ad96  00000000  00000000  000e0108  2**0
                  CONTENTS, READONLY, DEBUGGING
  8 .debug_loc    0000ae9a  00000000  00000000  000eae9e  2**0
                  CONTENTS, READONLY, DEBUGGING
  9 .debug_aranges 00000d60  00000000  00000000  000f5d38  2**0
                  CONTENTS, READONLY, DEBUGGING
 10 .debug_ranges 00000de0  00000000  00000000  000f6a98  2**0
                  CONTENTS, READONLY, DEBUGGING
 11 .debug_macro  000205a9  00000000  00000000  000f7878  2**0
                  CONTENTS, READONLY, DEBUGGING
 12 .debug_line   000293c0  00000000  00000000  00117e21  2**0
                  CONTENTS, READONLY, DEBUGGING
 13 .debug_str    000607f4  00000000  00000000  001411e1  2**0
                  CONTENTS, READONLY, DEBUGGING
 14 .debug_frame  00001f84  00000000  00000000  001a19d8  2**2
                  CONTENTS, READONLY, DEBUGGING

Disassembly of section .text:

00000000 <exception_table>:
       0:	30 55 00 20 ad 62 00 00 a9 62 00 00 a9 62 00 00     0U. .b...b...b..
	...
      2c:	a9 62 00 00 00 00 00 00 00 00 00 00 a9 62 00 00     .b...........b..
      3c:	a9 62 00 00 a9 62 00 00 a9 62 00 00 99 3f 00 00     .b...b...b...?..
      4c:	a9 62 00 00 69 39 00 00 a9 62 00 00 a9 62 00 00     .b..i9...b...b..
      5c:	71 58 00 00 81 58 00 00 91 58 00 00 a1 58 00 00     qX...X...X...X..
	...
      74:	65 3b 00 00 75 3b 00 00 85 3b 00 00 95 3b 00 00     e;..u;...;...;..
      84:	a5 3b 00 00 b5 3b 00 00 00 00 00 00 00 00 00 00     .;...;..........
      94:	a9 62 00 00 a9 62 00 00 a9 62 00 00 a9 62 00 00     .b...b...b...b..

000000a4 <__do_global_dtors_aux>:
      a4:	b510      	push	{r4, lr}
      a6:	4c06      	ldr	r4, [pc, #24]	; (c0 <__do_global_dtors_aux+0x1c>)
      a8:	7823      	ldrb	r3, [r4, #0]
      aa:	2b00      	cmp	r3, #0
      ac:	d107      	bne.n	be <__do_global_dtors_aux+0x1a>
      ae:	4b05      	ldr	r3, [pc, #20]	; (c4 <__do_global_dtors_aux+0x20>)
      b0:	2b00      	cmp	r3, #0
      b2:	d002      	beq.n	ba <__do_global_dtors_aux+0x16>
      b4:	4804      	ldr	r0, [pc, #16]	; (c8 <__do_global_dtors_aux+0x24>)
      b6:	e000      	b.n	ba <__do_global_dtors_aux+0x16>
      b8:	bf00      	nop
      ba:	2301      	movs	r3, #1
      bc:	7023      	strb	r3, [r4, #0]
      be:	bd10      	pop	{r4, pc}
      c0:	200001cc 	.word	0x200001cc
      c4:	00000000 	.word	0x00000000
      c8:	00007360 	.word	0x00007360

000000cc <frame_dummy>:
      cc:	4b08      	ldr	r3, [pc, #32]	; (f0 <frame_dummy+0x24>)
      ce:	b510      	push	{r4, lr}
      d0:	2b00      	cmp	r3, #0
      d2:	d003      	beq.n	dc <frame_dummy+0x10>
      d4:	4907      	ldr	r1, [pc, #28]	; (f4 <frame_dummy+0x28>)
      d6:	4808      	ldr	r0, [pc, #32]	; (f8 <frame_dummy+0x2c>)
      d8:	e000      	b.n	dc <frame_dummy+0x10>
      da:	bf00      	nop
      dc:	4807      	ldr	r0, [pc, #28]	; (fc <frame_dummy+0x30>)
      de:	6803      	ldr	r3, [r0, #0]
      e0:	2b00      	cmp	r3, #0
      e2:	d100      	bne.n	e6 <frame_dummy+0x1a>
      e4:	bd10      	pop	{r4, pc}
      e6:	4b06      	ldr	r3, [pc, #24]	; (100 <frame_dummy+0x34>)
      e8:	2b00      	cmp	r3, #0
      ea:	d0fb      	beq.n	e4 <frame_dummy+0x18>
      ec:	4798      	blx	r3
      ee:	e7f9      	b.n	e4 <frame_dummy+0x18>
      f0:	00000000 	.word	0x00000000
      f4:	200001d0 	.word	0x200001d0
      f8:	00007360 	.word	0x00007360
      fc:	00007360 	.word	0x00007360
     100:	00000000 	.word	0x00000000

00000104 <nvm_set_config>:
	fusebits[1] |= fb->wdt_early_warning_offset << WDT_FUSES_EWOFFSET_Pos;

	fusebits[1] &= (~WDT_FUSES_WEN_Msk);
	fusebits[1] |= fb->wdt_window_mode_enable_at_poweron << WDT_FUSES_WEN_Pos;

	fusebits[1] &= (~NVMCTRL_FUSES_REGION_LOCKS_Msk);
     104:	b510      	push	{r4, lr}
	fusebits[1] |= fb->lockbits << NVMCTRL_FUSES_REGION_LOCKS_Pos;
     106:	4a1e      	ldr	r2, [pc, #120]	; (180 <nvm_set_config+0x7c>)
     108:	69d3      	ldr	r3, [r2, #28]
	if (error_code != STATUS_OK) {
		return error_code;
	}

	*((uint32_t *)NVMCTRL_AUX0_ADDRESS) = fusebits[0];
    *(((uint32_t *)NVMCTRL_AUX0_ADDRESS) + 1) = fusebits[1];
     10a:	2104      	movs	r1, #4
     10c:	430b      	orrs	r3, r1

	error_code = nvm_execute_command(NVM_COMMAND_WRITE_AUX_ROW,NVMCTRL_AUX0_ADDRESS,0);
     10e:	61d3      	str	r3, [r2, #28]
     110:	4b1c      	ldr	r3, [pc, #112]	; (184 <nvm_set_config+0x80>)
     112:	2220      	movs	r2, #32
     114:	32ff      	adds	r2, #255	; 0xff
     116:	831a      	strh	r2, [r3, #24]
     118:	7d1a      	ldrb	r2, [r3, #20]
     11a:	2305      	movs	r3, #5
     11c:	07d2      	lsls	r2, r2, #31
     11e:	d401      	bmi.n	124 <nvm_set_config+0x20>
     120:	0018      	movs	r0, r3
     122:	bd10      	pop	{r4, pc}
     124:	7803      	ldrb	r3, [r0, #0]
     126:	021b      	lsls	r3, r3, #8
     128:	22c0      	movs	r2, #192	; 0xc0
     12a:	0092      	lsls	r2, r2, #2
     12c:	4013      	ands	r3, r2
     12e:	7841      	ldrb	r1, [r0, #1]
     130:	01c9      	lsls	r1, r1, #7
     132:	22ff      	movs	r2, #255	; 0xff
     134:	400a      	ands	r2, r1
     136:	4313      	orrs	r3, r2
     138:	7881      	ldrb	r1, [r0, #2]
     13a:	0049      	lsls	r1, r1, #1
     13c:	221e      	movs	r2, #30
     13e:	400a      	ands	r2, r1
     140:	4313      	orrs	r3, r2
     142:	78c2      	ldrb	r2, [r0, #3]
			((config->disable_cache & 0x01) << NVMCTRL_CTRLB_CACHEDIS_Pos) |
     144:	0492      	lsls	r2, r2, #18
     146:	2180      	movs	r1, #128	; 0x80
     148:	02c9      	lsls	r1, r1, #11
     14a:	400a      	ands	r2, r1
			NVMCTRL_CTRLB_RWS(config->wait_states) |
     14c:	4313      	orrs	r3, r2
			NVMCTRL_CTRLB_READMODE(config->cache_readmode);
     14e:	7902      	ldrb	r2, [r0, #4]
     150:	0412      	lsls	r2, r2, #16
     152:	21c0      	movs	r1, #192	; 0xc0
     154:	0289      	lsls	r1, r1, #10
     156:	400a      	ands	r2, r1
			((config->disable_cache & 0x01) << NVMCTRL_CTRLB_CACHEDIS_Pos) |
     158:	4313      	orrs	r3, r2
	nvm_module->CTRLB.reg =
     15a:	4a0a      	ldr	r2, [pc, #40]	; (184 <nvm_set_config+0x80>)
     15c:	6053      	str	r3, [r2, #4]
	_nvm_dev.page_size         = (8 << nvm_module->PARAM.bit.PSZ);
     15e:	6893      	ldr	r3, [r2, #8]
     160:	035b      	lsls	r3, r3, #13
     162:	0f5b      	lsrs	r3, r3, #29
     164:	4908      	ldr	r1, [pc, #32]	; (188 <nvm_set_config+0x84>)
     166:	2408      	movs	r4, #8
     168:	409c      	lsls	r4, r3
     16a:	800c      	strh	r4, [r1, #0]
	_nvm_dev.number_of_pages   = nvm_module->PARAM.bit.NVMP;
     16c:	6893      	ldr	r3, [r2, #8]
     16e:	804b      	strh	r3, [r1, #2]
	_nvm_dev.manual_page_write = config->manual_page_write;
     170:	7843      	ldrb	r3, [r0, #1]
     172:	710b      	strb	r3, [r1, #4]
	if (nvm_module->STATUS.reg & NVMCTRL_STATUS_SB) {
     174:	8b13      	ldrh	r3, [r2, #24]
     176:	05db      	lsls	r3, r3, #23
	return STATUS_OK;
     178:	0fdb      	lsrs	r3, r3, #31
     17a:	011b      	lsls	r3, r3, #4
     17c:	e7d0      	b.n	120 <nvm_set_config+0x1c>
     17e:	46c0      	nop			; (mov r8, r8)
     180:	40000400 	.word	0x40000400
     184:	41004000 	.word	0x41004000
     188:	200001e8 	.word	0x200001e8

0000018c <nvm_execute_command>:
{
     18c:	b530      	push	{r4, r5, lr}
     18e:	0004      	movs	r4, r0
	if (address > ((uint32_t)_nvm_dev.page_size * _nvm_dev.number_of_pages)
     190:	4a22      	ldr	r2, [pc, #136]	; (21c <nvm_execute_command+0x90>)
     192:	8810      	ldrh	r0, [r2, #0]
     194:	8853      	ldrh	r3, [r2, #2]
     196:	4343      	muls	r3, r0
     198:	428b      	cmp	r3, r1
     19a:	d206      	bcs.n	1aa <nvm_execute_command+0x1e>
		&& !(address >= NVMCTRL_AUX0_ADDRESS && address <= NVMCTRL_AUX1_ADDRESS )){
     19c:	2280      	movs	r2, #128	; 0x80
     19e:	0192      	lsls	r2, r2, #6
		return STATUS_ERR_BAD_ADDRESS;
     1a0:	2018      	movs	r0, #24
		&& !(address >= NVMCTRL_AUX0_ADDRESS && address <= NVMCTRL_AUX1_ADDRESS )){
     1a2:	4b1f      	ldr	r3, [pc, #124]	; (220 <nvm_execute_command+0x94>)
     1a4:	18cb      	adds	r3, r1, r3
     1a6:	4293      	cmp	r3, r2
     1a8:	d80e      	bhi.n	1c8 <nvm_execute_command+0x3c>
	ctrlb_bak = nvm_module->CTRLB.reg;
     1aa:	4b1e      	ldr	r3, [pc, #120]	; (224 <nvm_execute_command+0x98>)
     1ac:	685d      	ldr	r5, [r3, #4]
	nvm_module->CTRLB.reg = ctrlb_bak | NVMCTRL_CTRLB_CACHEDIS;
     1ae:	2280      	movs	r2, #128	; 0x80
     1b0:	02d2      	lsls	r2, r2, #11
     1b2:	432a      	orrs	r2, r5
     1b4:	605a      	str	r2, [r3, #4]
	nvm_module->STATUS.reg = NVMCTRL_STATUS_MASK;
     1b6:	2220      	movs	r2, #32
     1b8:	32ff      	adds	r2, #255	; 0xff
     1ba:	831a      	strh	r2, [r3, #24]
static inline bool nvm_is_ready(void)
{
	/* Get a pointer to the module hardware instance */
	Nvmctrl *const nvm_module = NVMCTRL;

	return nvm_module->INTFLAG.reg & NVMCTRL_INTFLAG_READY;
     1bc:	7d1b      	ldrb	r3, [r3, #20]
	if (!nvm_is_ready()) {
     1be:	07db      	lsls	r3, r3, #31
     1c0:	d403      	bmi.n	1ca <nvm_execute_command+0x3e>
		nvm_module->CTRLB.reg = ctrlb_bak;
     1c2:	4b18      	ldr	r3, [pc, #96]	; (224 <nvm_execute_command+0x98>)
     1c4:	605d      	str	r5, [r3, #4]
		return STATUS_BUSY;
     1c6:	2005      	movs	r0, #5
}
     1c8:	bd30      	pop	{r4, r5, pc}
	switch (command) {
     1ca:	2c45      	cmp	r4, #69	; 0x45
     1cc:	d822      	bhi.n	214 <nvm_execute_command+0x88>
     1ce:	00a3      	lsls	r3, r4, #2
     1d0:	4a15      	ldr	r2, [pc, #84]	; (228 <nvm_execute_command+0x9c>)
     1d2:	58d3      	ldr	r3, [r2, r3]
     1d4:	469f      	mov	pc, r3
			if (nvm_module->STATUS.reg & NVMCTRL_STATUS_SB) {
     1d6:	4b13      	ldr	r3, [pc, #76]	; (224 <nvm_execute_command+0x98>)
     1d8:	8b1b      	ldrh	r3, [r3, #24]
     1da:	05db      	lsls	r3, r3, #23
     1dc:	d503      	bpl.n	1e6 <nvm_execute_command+0x5a>
				nvm_module->CTRLB.reg = ctrlb_bak;
     1de:	4b11      	ldr	r3, [pc, #68]	; (224 <nvm_execute_command+0x98>)
     1e0:	605d      	str	r5, [r3, #4]
				return STATUS_ERR_IO;
     1e2:	2010      	movs	r0, #16
     1e4:	e7f0      	b.n	1c8 <nvm_execute_command+0x3c>
			nvm_module->ADDR.reg = (uintptr_t)&NVM_MEMORY[address / 4];
     1e6:	0889      	lsrs	r1, r1, #2
     1e8:	0049      	lsls	r1, r1, #1
     1ea:	4b0e      	ldr	r3, [pc, #56]	; (224 <nvm_execute_command+0x98>)
     1ec:	61d9      	str	r1, [r3, #28]
			break;
     1ee:	e003      	b.n	1f8 <nvm_execute_command+0x6c>
			nvm_module->ADDR.reg = (uintptr_t)&NVM_MEMORY[address / 4];
     1f0:	0889      	lsrs	r1, r1, #2
     1f2:	0049      	lsls	r1, r1, #1
     1f4:	4b0b      	ldr	r3, [pc, #44]	; (224 <nvm_execute_command+0x98>)
     1f6:	61d9      	str	r1, [r3, #28]
	nvm_module->CTRLA.reg = command | NVMCTRL_CTRLA_CMDEX_KEY;
     1f8:	20a5      	movs	r0, #165	; 0xa5
     1fa:	0200      	lsls	r0, r0, #8
     1fc:	4304      	orrs	r4, r0
     1fe:	4b09      	ldr	r3, [pc, #36]	; (224 <nvm_execute_command+0x98>)
     200:	801c      	strh	r4, [r3, #0]
     202:	0019      	movs	r1, r3
	while (!nvm_is_ready()) {
     204:	2201      	movs	r2, #1
     206:	7d0b      	ldrb	r3, [r1, #20]
     208:	4213      	tst	r3, r2
     20a:	d0fc      	beq.n	206 <nvm_execute_command+0x7a>
	nvm_module->CTRLB.reg = ctrlb_bak;
     20c:	4b05      	ldr	r3, [pc, #20]	; (224 <nvm_execute_command+0x98>)
     20e:	605d      	str	r5, [r3, #4]
	return STATUS_OK;
     210:	2000      	movs	r0, #0
     212:	e7d9      	b.n	1c8 <nvm_execute_command+0x3c>
			nvm_module->CTRLB.reg = ctrlb_bak;
     214:	4b03      	ldr	r3, [pc, #12]	; (224 <nvm_execute_command+0x98>)
     216:	605d      	str	r5, [r3, #4]
			return STATUS_ERR_INVALID_ARG;
     218:	2017      	movs	r0, #23
     21a:	e7d5      	b.n	1c8 <nvm_execute_command+0x3c>
     21c:	200001e8 	.word	0x200001e8
     220:	ff7fc000 	.word	0xff7fc000
     224:	41004000 	.word	0x41004000
     228:	00006b30 	.word	0x00006b30

0000022c <nvm_write_buffer>:
{
     22c:	b5f8      	push	{r3, r4, r5, r6, r7, lr}
			((uint32_t)_nvm_dev.page_size * _nvm_dev.number_of_pages)) {
     22e:	4b25      	ldr	r3, [pc, #148]	; (2c4 <nvm_write_buffer+0x98>)
     230:	881d      	ldrh	r5, [r3, #0]
     232:	885b      	ldrh	r3, [r3, #2]
     234:	436b      	muls	r3, r5
		return STATUS_ERR_BAD_ADDRESS;
     236:	2418      	movs	r4, #24
	if (destination_address >
     238:	4283      	cmp	r3, r0
     23a:	d201      	bcs.n	240 <nvm_write_buffer+0x14>
}
     23c:	0020      	movs	r0, r4
     23e:	bdf8      	pop	{r3, r4, r5, r6, r7, pc}
	if (destination_address & (_nvm_dev.page_size - 1)) {
     240:	1e6b      	subs	r3, r5, #1
     242:	4218      	tst	r0, r3
     244:	d1fa      	bne.n	23c <nvm_write_buffer+0x10>
		return STATUS_ERR_INVALID_ARG;
     246:	3c01      	subs	r4, #1
	if (length > _nvm_dev.page_size) {
     248:	4295      	cmp	r5, r2
     24a:	d3f7      	bcc.n	23c <nvm_write_buffer+0x10>
     24c:	4b1e      	ldr	r3, [pc, #120]	; (2c8 <nvm_write_buffer+0x9c>)
     24e:	7d1b      	ldrb	r3, [r3, #20]
		return STATUS_BUSY;
     250:	3c12      	subs	r4, #18
	if (!nvm_is_ready()) {
     252:	07db      	lsls	r3, r3, #31
     254:	d5f2      	bpl.n	23c <nvm_write_buffer+0x10>
	nvm_module->CTRLA.reg = NVM_COMMAND_PAGE_BUFFER_CLEAR | NVMCTRL_CTRLA_CMDEX_KEY;
     256:	4c1d      	ldr	r4, [pc, #116]	; (2cc <nvm_write_buffer+0xa0>)
     258:	4b1b      	ldr	r3, [pc, #108]	; (2c8 <nvm_write_buffer+0x9c>)
     25a:	801c      	strh	r4, [r3, #0]
     25c:	001d      	movs	r5, r3
	while (!nvm_is_ready()) {
     25e:	2401      	movs	r4, #1
     260:	7d2b      	ldrb	r3, [r5, #20]
     262:	4223      	tst	r3, r4
     264:	d0fc      	beq.n	260 <nvm_write_buffer+0x34>
	nvm_module->STATUS.reg = NVMCTRL_STATUS_MASK;
     266:	2420      	movs	r4, #32
     268:	34ff      	adds	r4, #255	; 0xff
     26a:	4b17      	ldr	r3, [pc, #92]	; (2c8 <nvm_write_buffer+0x9c>)
     26c:	831c      	strh	r4, [r3, #24]
	for (uint16_t i = 0; i < length; i += 2) {
     26e:	2a00      	cmp	r2, #0
     270:	d022      	beq.n	2b8 <nvm_write_buffer+0x8c>
     272:	2301      	movs	r3, #1
     274:	0005      	movs	r5, r0
     276:	439d      	bics	r5, r3
     278:	2300      	movs	r3, #0
		if (i < (length - 1)) {
     27a:	1e57      	subs	r7, r2, #1
     27c:	e009      	b.n	292 <nvm_write_buffer+0x66>
			data |= (buffer[i + 1] << 8);
     27e:	18ce      	adds	r6, r1, r3
     280:	7876      	ldrb	r6, [r6, #1]
     282:	0236      	lsls	r6, r6, #8
     284:	4334      	orrs	r4, r6
		NVM_MEMORY[nvm_address++] = data;
     286:	802c      	strh	r4, [r5, #0]
	for (uint16_t i = 0; i < length; i += 2) {
     288:	3302      	adds	r3, #2
     28a:	b29b      	uxth	r3, r3
     28c:	3502      	adds	r5, #2
     28e:	429a      	cmp	r2, r3
     290:	d904      	bls.n	29c <nvm_write_buffer+0x70>
		data = buffer[i];
     292:	5ccc      	ldrb	r4, [r1, r3]
		if (i < (length - 1)) {
     294:	42bb      	cmp	r3, r7
     296:	dbf2      	blt.n	27e <nvm_write_buffer+0x52>
		data = buffer[i];
     298:	b2a4      	uxth	r4, r4
     29a:	e7f4      	b.n	286 <nvm_write_buffer+0x5a>
	if ((_nvm_dev.manual_page_write == false) && (length < NVMCTRL_PAGE_SIZE)) {
     29c:	4b09      	ldr	r3, [pc, #36]	; (2c4 <nvm_write_buffer+0x98>)
     29e:	791b      	ldrb	r3, [r3, #4]
	return STATUS_OK;
     2a0:	2400      	movs	r4, #0
	if ((_nvm_dev.manual_page_write == false) && (length < NVMCTRL_PAGE_SIZE)) {
     2a2:	2b00      	cmp	r3, #0
     2a4:	d1ca      	bne.n	23c <nvm_write_buffer+0x10>
     2a6:	2a3f      	cmp	r2, #63	; 0x3f
     2a8:	d8c8      	bhi.n	23c <nvm_write_buffer+0x10>
		return nvm_execute_command(NVM_COMMAND_WRITE_PAGE,
     2aa:	2200      	movs	r2, #0
     2ac:	0001      	movs	r1, r0
     2ae:	2004      	movs	r0, #4
     2b0:	4b07      	ldr	r3, [pc, #28]	; (2d0 <nvm_write_buffer+0xa4>)
     2b2:	4798      	blx	r3
     2b4:	0004      	movs	r4, r0
     2b6:	e7c1      	b.n	23c <nvm_write_buffer+0x10>
	if ((_nvm_dev.manual_page_write == false) && (length < NVMCTRL_PAGE_SIZE)) {
     2b8:	4b02      	ldr	r3, [pc, #8]	; (2c4 <nvm_write_buffer+0x98>)
     2ba:	791b      	ldrb	r3, [r3, #4]
	return STATUS_OK;
     2bc:	2400      	movs	r4, #0
	if ((_nvm_dev.manual_page_write == false) && (length < NVMCTRL_PAGE_SIZE)) {
     2be:	2b00      	cmp	r3, #0
     2c0:	d0f3      	beq.n	2aa <nvm_write_buffer+0x7e>
     2c2:	e7bb      	b.n	23c <nvm_write_buffer+0x10>
     2c4:	200001e8 	.word	0x200001e8
     2c8:	41004000 	.word	0x41004000
     2cc:	ffffa544 	.word	0xffffa544
     2d0:	0000018d 	.word	0x0000018d

000002d4 <nvm_read_buffer>:
{
     2d4:	b570      	push	{r4, r5, r6, lr}
			((uint32_t)_nvm_dev.page_size * _nvm_dev.number_of_pages)) {
     2d6:	4b18      	ldr	r3, [pc, #96]	; (338 <nvm_read_buffer+0x64>)
     2d8:	881d      	ldrh	r5, [r3, #0]
     2da:	885b      	ldrh	r3, [r3, #2]
     2dc:	436b      	muls	r3, r5
		return STATUS_ERR_BAD_ADDRESS;
     2de:	2418      	movs	r4, #24
	if (source_address >
     2e0:	4283      	cmp	r3, r0
     2e2:	d201      	bcs.n	2e8 <nvm_read_buffer+0x14>
}
     2e4:	0020      	movs	r0, r4
     2e6:	bd70      	pop	{r4, r5, r6, pc}
	if (source_address & (_nvm_dev.page_size - 1)) {
     2e8:	1e6b      	subs	r3, r5, #1
     2ea:	4218      	tst	r0, r3
     2ec:	d1fa      	bne.n	2e4 <nvm_read_buffer+0x10>
		return STATUS_ERR_INVALID_ARG;
     2ee:	3c01      	subs	r4, #1
	if (length > _nvm_dev.page_size) {
     2f0:	4295      	cmp	r5, r2
     2f2:	d3f7      	bcc.n	2e4 <nvm_read_buffer+0x10>
     2f4:	4b11      	ldr	r3, [pc, #68]	; (33c <nvm_read_buffer+0x68>)
     2f6:	7d1b      	ldrb	r3, [r3, #20]
		return STATUS_BUSY;
     2f8:	3c12      	subs	r4, #18
	if (!nvm_is_ready()) {
     2fa:	07db      	lsls	r3, r3, #31
     2fc:	d5f2      	bpl.n	2e4 <nvm_read_buffer+0x10>
	nvm_module->STATUS.reg = NVMCTRL_STATUS_MASK;
     2fe:	2420      	movs	r4, #32
     300:	34ff      	adds	r4, #255	; 0xff
     302:	4b0e      	ldr	r3, [pc, #56]	; (33c <nvm_read_buffer+0x68>)
     304:	831c      	strh	r4, [r3, #24]
	for (uint16_t i = 0; i < length; i += 2) {
     306:	2a00      	cmp	r2, #0
     308:	d014      	beq.n	334 <nvm_read_buffer+0x60>
     30a:	2301      	movs	r3, #1
     30c:	4398      	bics	r0, r3
     30e:	2300      	movs	r3, #0
		if (i < (length - 1)) {
     310:	1e56      	subs	r6, r2, #1
     312:	e004      	b.n	31e <nvm_read_buffer+0x4a>
	for (uint16_t i = 0; i < length; i += 2) {
     314:	3302      	adds	r3, #2
     316:	b29b      	uxth	r3, r3
     318:	3002      	adds	r0, #2
     31a:	429a      	cmp	r2, r3
     31c:	d908      	bls.n	330 <nvm_read_buffer+0x5c>
		uint16_t data = NVM_MEMORY[page_address++];
     31e:	8804      	ldrh	r4, [r0, #0]
     320:	b2a4      	uxth	r4, r4
		buffer[i] = (data & 0xFF);
     322:	54cc      	strb	r4, [r1, r3]
		if (i < (length - 1)) {
     324:	42b3      	cmp	r3, r6
     326:	daf5      	bge.n	314 <nvm_read_buffer+0x40>
			buffer[i + 1] = (data >> 8);
     328:	18cd      	adds	r5, r1, r3
     32a:	0a24      	lsrs	r4, r4, #8
     32c:	706c      	strb	r4, [r5, #1]
     32e:	e7f1      	b.n	314 <nvm_read_buffer+0x40>
	return STATUS_OK;
     330:	2400      	movs	r4, #0
     332:	e7d7      	b.n	2e4 <nvm_read_buffer+0x10>
     334:	2400      	movs	r4, #0
     336:	e7d5      	b.n	2e4 <nvm_read_buffer+0x10>
     338:	200001e8 	.word	0x200001e8
     33c:	41004000 	.word	0x41004000

00000340 <nvm_erase_row>:
			((uint32_t)_nvm_dev.page_size * _nvm_dev.number_of_pages)) {
     340:	4b13      	ldr	r3, [pc, #76]	; (390 <nvm_erase_row+0x50>)
     342:	881a      	ldrh	r2, [r3, #0]
     344:	885b      	ldrh	r3, [r3, #2]
     346:	4353      	muls	r3, r2
		return STATUS_ERR_BAD_ADDRESS;
     348:	2118      	movs	r1, #24
	if (row_address >
     34a:	4283      	cmp	r3, r0
     34c:	d201      	bcs.n	352 <nvm_erase_row+0x12>
}
     34e:	0008      	movs	r0, r1
     350:	4770      	bx	lr
	if (row_address & ((_nvm_dev.page_size * NVMCTRL_ROW_PAGES) - 1)) {
     352:	0092      	lsls	r2, r2, #2
     354:	3a01      	subs	r2, #1
     356:	4210      	tst	r0, r2
     358:	d1f9      	bne.n	34e <nvm_erase_row+0xe>
     35a:	4b0e      	ldr	r3, [pc, #56]	; (394 <nvm_erase_row+0x54>)
     35c:	7d1b      	ldrb	r3, [r3, #20]
		return STATUS_BUSY;
     35e:	3913      	subs	r1, #19
	if (!nvm_is_ready()) {
     360:	07db      	lsls	r3, r3, #31
     362:	d5f4      	bpl.n	34e <nvm_erase_row+0xe>
	nvm_module->STATUS.reg = NVMCTRL_STATUS_MASK;
     364:	4b0b      	ldr	r3, [pc, #44]	; (394 <nvm_erase_row+0x54>)
     366:	2220      	movs	r2, #32
     368:	32ff      	adds	r2, #255	; 0xff
     36a:	831a      	strh	r2, [r3, #24]
	nvm_module->ADDR.reg  = (uintptr_t)&NVM_MEMORY[row_address / 4];
     36c:	0880      	lsrs	r0, r0, #2
     36e:	0040      	lsls	r0, r0, #1
     370:	61d8      	str	r0, [r3, #28]
	nvm_module->CTRLA.reg = NVM_COMMAND_ERASE_ROW | NVMCTRL_CTRLA_CMDEX_KEY;
     372:	4a09      	ldr	r2, [pc, #36]	; (398 <nvm_erase_row+0x58>)
     374:	801a      	strh	r2, [r3, #0]
     376:	0019      	movs	r1, r3
	while (!nvm_is_ready()) {
     378:	2201      	movs	r2, #1
     37a:	7d0b      	ldrb	r3, [r1, #20]
     37c:	4213      	tst	r3, r2
     37e:	d0fc      	beq.n	37a <nvm_erase_row+0x3a>
	if ((enum nvm_error)(nvm_module->STATUS.reg & NVM_ERRORS_MASK) != NVM_ERROR_NONE) {
     380:	4b04      	ldr	r3, [pc, #16]	; (394 <nvm_erase_row+0x54>)
     382:	8b19      	ldrh	r1, [r3, #24]
     384:	201c      	movs	r0, #28
     386:	4001      	ands	r1, r0
	return STATUS_OK;
     388:	1e48      	subs	r0, r1, #1
     38a:	4181      	sbcs	r1, r0
     38c:	0089      	lsls	r1, r1, #2
     38e:	e7de      	b.n	34e <nvm_erase_row+0xe>
     390:	200001e8 	.word	0x200001e8
     394:	41004000 	.word	0x41004000
     398:	ffffa502 	.word	0xffffa502

0000039c <Judg_KEY_ADD>:
#include "myDefine.h"



void Judg_KEY_ADD(volatile LORA_Dev_List_t *tmp_LORA_Dev_List_Index)
{
     39c:	b5f0      	push	{r4, r5, r6, r7, lr}
     39e:	46d6      	mov	lr, sl
     3a0:	464f      	mov	r7, r9
     3a2:	b580      	push	{r7, lr}
     3a4:	b083      	sub	sp, #12
     3a6:	0004      	movs	r4, r0
	unsigned char tmp_list_table_index;
	
	if(	ascii_to_hex(UserKeyInBuf[0]) == KEYA &&
     3a8:	4b3b      	ldr	r3, [pc, #236]	; (498 <Judg_KEY_ADD+0xfc>)
     3aa:	7818      	ldrb	r0, [r3, #0]
     3ac:	4b3b      	ldr	r3, [pc, #236]	; (49c <Judg_KEY_ADD+0x100>)
     3ae:	4798      	blx	r3
     3b0:	280a      	cmp	r0, #10
     3b2:	d004      	beq.n	3be <Judg_KEY_ADD+0x22>
				uTXByte(Debug_COM, 0x0d);
				uTXByte(Debug_COM, 0x0d);
			}
		}
	}
     3b4:	b003      	add	sp, #12
     3b6:	bc0c      	pop	{r2, r3}
     3b8:	4691      	mov	r9, r2
     3ba:	469a      	mov	sl, r3
     3bc:	bdf0      	pop	{r4, r5, r6, r7, pc}
		ascii_to_hex(UserKeyInBuf[1]) == KEYD &&
     3be:	4b36      	ldr	r3, [pc, #216]	; (498 <Judg_KEY_ADD+0xfc>)
     3c0:	7858      	ldrb	r0, [r3, #1]
     3c2:	4b36      	ldr	r3, [pc, #216]	; (49c <Judg_KEY_ADD+0x100>)
     3c4:	4798      	blx	r3
	if(	ascii_to_hex(UserKeyInBuf[0]) == KEYA &&
     3c6:	280d      	cmp	r0, #13
     3c8:	d1f4      	bne.n	3b4 <Judg_KEY_ADD+0x18>
		ascii_to_hex(UserKeyInBuf[2]) == KEYD )	//	add device
     3ca:	4b33      	ldr	r3, [pc, #204]	; (498 <Judg_KEY_ADD+0xfc>)
     3cc:	7898      	ldrb	r0, [r3, #2]
     3ce:	4b33      	ldr	r3, [pc, #204]	; (49c <Judg_KEY_ADD+0x100>)
     3d0:	4798      	blx	r3
		ascii_to_hex(UserKeyInBuf[1]) == KEYD &&
     3d2:	280d      	cmp	r0, #13
     3d4:	d1ee      	bne.n	3b4 <Judg_KEY_ADD+0x18>
		if(UserKeyInBufCount == 17 && UserKeyInBuf[16] == 0x0d)
     3d6:	4b32      	ldr	r3, [pc, #200]	; (4a0 <Judg_KEY_ADD+0x104>)
     3d8:	781b      	ldrb	r3, [r3, #0]
     3da:	2b11      	cmp	r3, #17
     3dc:	d1ea      	bne.n	3b4 <Judg_KEY_ADD+0x18>
     3de:	4b2e      	ldr	r3, [pc, #184]	; (498 <Judg_KEY_ADD+0xfc>)
     3e0:	7c1b      	ldrb	r3, [r3, #16]
     3e2:	2b0d      	cmp	r3, #13
     3e4:	d1e6      	bne.n	3b4 <Judg_KEY_ADD+0x18>
			tmp_list_table_index =	Cal_list_table_index(UserKeyInBuf[4], UserKeyInBuf[5], UserKeyInBuf[6]);
     3e6:	4b2c      	ldr	r3, [pc, #176]	; (498 <Judg_KEY_ADD+0xfc>)
     3e8:	799a      	ldrb	r2, [r3, #6]
     3ea:	7959      	ldrb	r1, [r3, #5]
     3ec:	7918      	ldrb	r0, [r3, #4]
     3ee:	4b2d      	ldr	r3, [pc, #180]	; (4a4 <Judg_KEY_ADD+0x108>)
     3f0:	4798      	blx	r3
     3f2:	b2c0      	uxtb	r0, r0
			if(tmp_list_table_index > Dev_Item_MAX) return;
     3f4:	2864      	cmp	r0, #100	; 0x64
     3f6:	d8dd      	bhi.n	3b4 <Judg_KEY_ADD+0x18>
			tmp_list_table_index =  Search_list_table_index(tmp_list_table_index, tmp_LORA_Dev_List_Index);
     3f8:	0021      	movs	r1, r4
     3fa:	4b2b      	ldr	r3, [pc, #172]	; (4a8 <Judg_KEY_ADD+0x10c>)
     3fc:	4798      	blx	r3
     3fe:	0005      	movs	r5, r0
			if(tmp_list_table_index != Not_found_Index)
     400:	28ff      	cmp	r0, #255	; 0xff
     402:	d0d7      	beq.n	3b4 <Judg_KEY_ADD+0x18>
				Print_Find_Msg();
     404:	4b29      	ldr	r3, [pc, #164]	; (4ac <Judg_KEY_ADD+0x110>)
     406:	4798      	blx	r3
				Print_One_Form_List_Table(tmp_list_table_index, tmp_LORA_Dev_List_Index);
     408:	0021      	movs	r1, r4
     40a:	0028      	movs	r0, r5
     40c:	4b28      	ldr	r3, [pc, #160]	; (4b0 <Judg_KEY_ADD+0x114>)
     40e:	469a      	mov	sl, r3
     410:	4798      	blx	r3
				Print_Arrow_Right();
     412:	4b28      	ldr	r3, [pc, #160]	; (4b4 <Judg_KEY_ADD+0x118>)
     414:	4798      	blx	r3
				tmp_LORA_Dev_List_Index[tmp_list_table_index].Dev_En_Flag = Dev_Dis;
     416:	9501      	str	r5, [sp, #4]
     418:	012f      	lsls	r7, r5, #4
     41a:	19e7      	adds	r7, r4, r7
     41c:	2300      	movs	r3, #0
     41e:	707b      	strb	r3, [r7, #1]
				tmp_LORA_Dev_List_Index[tmp_list_table_index].MAC_ID.byte[0] = (ascii_to_hex(UserKeyInBuf[8])  << 4) | (ascii_to_hex(UserKeyInBuf[9] ));
     420:	4e1d      	ldr	r6, [pc, #116]	; (498 <Judg_KEY_ADD+0xfc>)
     422:	7a30      	ldrb	r0, [r6, #8]
     424:	4d1d      	ldr	r5, [pc, #116]	; (49c <Judg_KEY_ADD+0x100>)
     426:	47a8      	blx	r5
     428:	4681      	mov	r9, r0
     42a:	7a70      	ldrb	r0, [r6, #9]
     42c:	47a8      	blx	r5
     42e:	464a      	mov	r2, r9
     430:	0113      	lsls	r3, r2, #4
     432:	4303      	orrs	r3, r0
     434:	b2db      	uxtb	r3, r3
     436:	713b      	strb	r3, [r7, #4]
				tmp_LORA_Dev_List_Index[tmp_list_table_index].MAC_ID.byte[1] = (ascii_to_hex(UserKeyInBuf[10]) << 4) | (ascii_to_hex(UserKeyInBuf[11]));
     438:	7ab0      	ldrb	r0, [r6, #10]
     43a:	47a8      	blx	r5
     43c:	4681      	mov	r9, r0
     43e:	7af0      	ldrb	r0, [r6, #11]
     440:	47a8      	blx	r5
     442:	464a      	mov	r2, r9
     444:	0113      	lsls	r3, r2, #4
     446:	4303      	orrs	r3, r0
     448:	b2db      	uxtb	r3, r3
     44a:	717b      	strb	r3, [r7, #5]
				tmp_LORA_Dev_List_Index[tmp_list_table_index].MAC_ID.byte[2] = (ascii_to_hex(UserKeyInBuf[12]) << 4) | (ascii_to_hex(UserKeyInBuf[13]));
     44c:	7b30      	ldrb	r0, [r6, #12]
     44e:	47a8      	blx	r5
     450:	4681      	mov	r9, r0
     452:	7b70      	ldrb	r0, [r6, #13]
     454:	47a8      	blx	r5
     456:	464a      	mov	r2, r9
     458:	0113      	lsls	r3, r2, #4
     45a:	4303      	orrs	r3, r0
     45c:	b2db      	uxtb	r3, r3
     45e:	71bb      	strb	r3, [r7, #6]
				tmp_LORA_Dev_List_Index[tmp_list_table_index].MAC_ID.byte[3] = (ascii_to_hex(UserKeyInBuf[14]) << 4) | (ascii_to_hex(UserKeyInBuf[15]));
     460:	7bb0      	ldrb	r0, [r6, #14]
     462:	47a8      	blx	r5
     464:	4681      	mov	r9, r0
     466:	7bf0      	ldrb	r0, [r6, #15]
     468:	47a8      	blx	r5
     46a:	464a      	mov	r2, r9
     46c:	0113      	lsls	r3, r2, #4
     46e:	4303      	orrs	r3, r0
     470:	b2db      	uxtb	r3, r3
     472:	71fb      	strb	r3, [r7, #7]
				Save_List_in_NVM(tmp_LORA_Dev_List_Index);
     474:	0020      	movs	r0, r4
     476:	4b10      	ldr	r3, [pc, #64]	; (4b8 <Judg_KEY_ADD+0x11c>)
     478:	4798      	blx	r3
				Load_List_Form_NVM(tmp_LORA_Dev_List_Index);
     47a:	0020      	movs	r0, r4
     47c:	4b0f      	ldr	r3, [pc, #60]	; (4bc <Judg_KEY_ADD+0x120>)
     47e:	4798      	blx	r3
				Print_One_Form_List_Table(tmp_list_table_index, tmp_LORA_Dev_List_Index);
     480:	0021      	movs	r1, r4
     482:	9801      	ldr	r0, [sp, #4]
     484:	47d0      	blx	sl
				uTXByte(Debug_COM, 0x0d);
     486:	4d0e      	ldr	r5, [pc, #56]	; (4c0 <Judg_KEY_ADD+0x124>)
     488:	210d      	movs	r1, #13
     48a:	0028      	movs	r0, r5
     48c:	4c0d      	ldr	r4, [pc, #52]	; (4c4 <Judg_KEY_ADD+0x128>)
     48e:	47a0      	blx	r4
				uTXByte(Debug_COM, 0x0d);
     490:	210d      	movs	r1, #13
     492:	0028      	movs	r0, r5
     494:	47a0      	blx	r4
     496:	e78d      	b.n	3b4 <Judg_KEY_ADD+0x18>
     498:	200002d4 	.word	0x200002d4
     49c:	0000283d 	.word	0x0000283d
     4a0:	20000322 	.word	0x20000322
     4a4:	00002af1 	.word	0x00002af1
     4a8:	00002f99 	.word	0x00002f99
     4ac:	0000307d 	.word	0x0000307d
     4b0:	000030f9 	.word	0x000030f9
     4b4:	000031ad 	.word	0x000031ad
     4b8:	000024c1 	.word	0x000024c1
     4bc:	0000255d 	.word	0x0000255d
     4c0:	20000270 	.word	0x20000270
     4c4:	00002725 	.word	0x00002725

000004c8 <Judg_KEY_CH>:
﻿#include <asf.h>
#include <stdio.h>
#include "myDefine.h"

void Judg_KEY_CH(void)
{
     4c8:	b5f0      	push	{r4, r5, r6, r7, lr}
     4ca:	46de      	mov	lr, fp
     4cc:	4657      	mov	r7, sl
     4ce:	464e      	mov	r6, r9
     4d0:	4645      	mov	r5, r8
     4d2:	b5e0      	push	{r5, r6, r7, lr}
     4d4:	b083      	sub	sp, #12
	UINT16u_t tmp16;
	unsigned int tmp_value;
	unsigned char tmp_index;
	
	
	if(	ascii_to_hex(UserKeyInBuf[0]) == KEYC && ascii_to_hex(UserKeyInBuf[1]) == KEYH )
     4d6:	4b6a      	ldr	r3, [pc, #424]	; (680 <Judg_KEY_CH+0x1b8>)
     4d8:	7818      	ldrb	r0, [r3, #0]
     4da:	4b6a      	ldr	r3, [pc, #424]	; (684 <Judg_KEY_CH+0x1bc>)
     4dc:	4798      	blx	r3
     4de:	280c      	cmp	r0, #12
     4e0:	d006      	beq.n	4f0 <Judg_KEY_CH+0x28>
				}
				uTXByte(Debug_COM, 0x0d);
			}
		}
	}
     4e2:	b003      	add	sp, #12
     4e4:	bc3c      	pop	{r2, r3, r4, r5}
     4e6:	4690      	mov	r8, r2
     4e8:	4699      	mov	r9, r3
     4ea:	46a2      	mov	sl, r4
     4ec:	46ab      	mov	fp, r5
     4ee:	bdf0      	pop	{r4, r5, r6, r7, pc}
	if(	ascii_to_hex(UserKeyInBuf[0]) == KEYC && ascii_to_hex(UserKeyInBuf[1]) == KEYH )
     4f0:	4b63      	ldr	r3, [pc, #396]	; (680 <Judg_KEY_CH+0x1b8>)
     4f2:	7858      	ldrb	r0, [r3, #1]
     4f4:	4b63      	ldr	r3, [pc, #396]	; (684 <Judg_KEY_CH+0x1bc>)
     4f6:	4798      	blx	r3
     4f8:	2811      	cmp	r0, #17
     4fa:	d1f2      	bne.n	4e2 <Judg_KEY_CH+0x1a>
		if(UserKeyInBufCount == 9 && UserKeyInBuf[8] == 0x0d  && UserKeyInBuf[3] == ' ')
     4fc:	4b62      	ldr	r3, [pc, #392]	; (688 <Judg_KEY_CH+0x1c0>)
     4fe:	781b      	ldrb	r3, [r3, #0]
     500:	2b09      	cmp	r3, #9
     502:	d033      	beq.n	56c <Judg_KEY_CH+0xa4>
		else if(UserKeyInBufCount == 3 && UserKeyInBuf[2] == 0x0d)
     504:	2b03      	cmp	r3, #3
     506:	d1ec      	bne.n	4e2 <Judg_KEY_CH+0x1a>
     508:	4b5d      	ldr	r3, [pc, #372]	; (680 <Judg_KEY_CH+0x1b8>)
     50a:	789b      	ldrb	r3, [r3, #2]
     50c:	2b0d      	cmp	r3, #13
     50e:	d1e8      	bne.n	4e2 <Judg_KEY_CH+0x1a>
     510:	2400      	movs	r4, #0
     512:	2630      	movs	r6, #48	; 0x30
					uart_str("CH\0");
     514:	4f5d      	ldr	r7, [pc, #372]	; (68c <Judg_KEY_CH+0x1c4>)
     516:	485e      	ldr	r0, [pc, #376]	; (690 <Judg_KEY_CH+0x1c8>)
     518:	47b8      	blx	r7
					uTXByte(Debug_COM, 0x30 + i);
     51a:	0031      	movs	r1, r6
     51c:	485d      	ldr	r0, [pc, #372]	; (694 <Judg_KEY_CH+0x1cc>)
     51e:	4d5e      	ldr	r5, [pc, #376]	; (698 <Judg_KEY_CH+0x1d0>)
     520:	47a8      	blx	r5
					uTXByte(Debug_COM, ':');
     522:	213a      	movs	r1, #58	; 0x3a
     524:	485b      	ldr	r0, [pc, #364]	; (694 <Judg_KEY_CH+0x1cc>)
     526:	47a8      	blx	r5
					uart_send_word(Debug_COM, hex_to_bcd(CH_Formula[i]));
     528:	4b5c      	ldr	r3, [pc, #368]	; (69c <Judg_KEY_CH+0x1d4>)
     52a:	5918      	ldr	r0, [r3, r4]
     52c:	4b5c      	ldr	r3, [pc, #368]	; (6a0 <Judg_KEY_CH+0x1d8>)
     52e:	4798      	blx	r3
     530:	0001      	movs	r1, r0
     532:	4858      	ldr	r0, [pc, #352]	; (694 <Judg_KEY_CH+0x1cc>)
     534:	4b5b      	ldr	r3, [pc, #364]	; (6a4 <Judg_KEY_CH+0x1dc>)
     536:	469b      	mov	fp, r3
     538:	4798      	blx	r3
					uTXByte(Debug_COM, ' ');
     53a:	2120      	movs	r1, #32
     53c:	4855      	ldr	r0, [pc, #340]	; (694 <Judg_KEY_CH+0x1cc>)
     53e:	47a8      	blx	r5
					uTXByte(Debug_COM, '(');
     540:	2128      	movs	r1, #40	; 0x28
     542:	4854      	ldr	r0, [pc, #336]	; (694 <Judg_KEY_CH+0x1cc>)
     544:	47a8      	blx	r5
					uart_send_word(Debug_COM, CH_Formula_base[i]);
     546:	4b58      	ldr	r3, [pc, #352]	; (6a8 <Judg_KEY_CH+0x1e0>)
     548:	5919      	ldr	r1, [r3, r4]
     54a:	4852      	ldr	r0, [pc, #328]	; (694 <Judg_KEY_CH+0x1cc>)
     54c:	47d8      	blx	fp
					uTXByte(Debug_COM, ')');
     54e:	2129      	movs	r1, #41	; 0x29
     550:	4850      	ldr	r0, [pc, #320]	; (694 <Judg_KEY_CH+0x1cc>)
     552:	47a8      	blx	r5
					uart_str("\t\0");
     554:	4855      	ldr	r0, [pc, #340]	; (6ac <Judg_KEY_CH+0x1e4>)
     556:	47b8      	blx	r7
     558:	3601      	adds	r6, #1
     55a:	b2f6      	uxtb	r6, r6
     55c:	3404      	adds	r4, #4
				for (unsigned char i = 0 ; i < 4; i++)
     55e:	2c10      	cmp	r4, #16
     560:	d1d9      	bne.n	516 <Judg_KEY_CH+0x4e>
				uTXByte(Debug_COM, 0x0d);
     562:	210d      	movs	r1, #13
     564:	484b      	ldr	r0, [pc, #300]	; (694 <Judg_KEY_CH+0x1cc>)
     566:	4b4c      	ldr	r3, [pc, #304]	; (698 <Judg_KEY_CH+0x1d0>)
     568:	4798      	blx	r3
     56a:	e7ba      	b.n	4e2 <Judg_KEY_CH+0x1a>
		if(UserKeyInBufCount == 9 && UserKeyInBuf[8] == 0x0d  && UserKeyInBuf[3] == ' ')
     56c:	4b44      	ldr	r3, [pc, #272]	; (680 <Judg_KEY_CH+0x1b8>)
     56e:	7a1b      	ldrb	r3, [r3, #8]
     570:	2b0d      	cmp	r3, #13
     572:	d1b6      	bne.n	4e2 <Judg_KEY_CH+0x1a>
     574:	4b42      	ldr	r3, [pc, #264]	; (680 <Judg_KEY_CH+0x1b8>)
     576:	78db      	ldrb	r3, [r3, #3]
     578:	2b20      	cmp	r3, #32
     57a:	d1b2      	bne.n	4e2 <Judg_KEY_CH+0x1a>
			tmp_index = ascii_to_hex(UserKeyInBuf[2]);
     57c:	4e40      	ldr	r6, [pc, #256]	; (680 <Judg_KEY_CH+0x1b8>)
     57e:	78b0      	ldrb	r0, [r6, #2]
     580:	4d40      	ldr	r5, [pc, #256]	; (684 <Judg_KEY_CH+0x1bc>)
     582:	47a8      	blx	r5
     584:	4681      	mov	r9, r0
			tmp_value  = ascii_to_hex(UserKeyInBuf[4]) * 1000;
     586:	7930      	ldrb	r0, [r6, #4]
     588:	47a8      	blx	r5
     58a:	27fa      	movs	r7, #250	; 0xfa
     58c:	00bf      	lsls	r7, r7, #2
     58e:	4347      	muls	r7, r0
			tmp_value += ascii_to_hex(UserKeyInBuf[5]) * 100;
     590:	7970      	ldrb	r0, [r6, #5]
     592:	47a8      	blx	r5
     594:	2464      	movs	r4, #100	; 0x64
     596:	4344      	muls	r4, r0
     598:	19e4      	adds	r4, r4, r7
			tmp_value += ascii_to_hex(UserKeyInBuf[6]) * 10;
     59a:	79b0      	ldrb	r0, [r6, #6]
     59c:	47a8      	blx	r5
     59e:	0007      	movs	r7, r0
			tmp_value += ascii_to_hex(UserKeyInBuf[7]);
     5a0:	79f0      	ldrb	r0, [r6, #7]
     5a2:	47a8      	blx	r5
     5a4:	1904      	adds	r4, r0, r4
			tmp_value += ascii_to_hex(UserKeyInBuf[6]) * 10;
     5a6:	200a      	movs	r0, #10
     5a8:	4378      	muls	r0, r7
			tmp_value += ascii_to_hex(UserKeyInBuf[7]);
     5aa:	1903      	adds	r3, r0, r4
     5ac:	9301      	str	r3, [sp, #4]
     5ae:	2400      	movs	r4, #0
     5b0:	2630      	movs	r6, #48	; 0x30
				uart_str("CH\0");
     5b2:	4f36      	ldr	r7, [pc, #216]	; (68c <Judg_KEY_CH+0x1c4>)
     5b4:	4836      	ldr	r0, [pc, #216]	; (690 <Judg_KEY_CH+0x1c8>)
     5b6:	47b8      	blx	r7
				uTXByte(Debug_COM, 0x30 + i);
     5b8:	0031      	movs	r1, r6
     5ba:	4836      	ldr	r0, [pc, #216]	; (694 <Judg_KEY_CH+0x1cc>)
     5bc:	4d36      	ldr	r5, [pc, #216]	; (698 <Judg_KEY_CH+0x1d0>)
     5be:	47a8      	blx	r5
				uTXByte(Debug_COM, ':');
     5c0:	213a      	movs	r1, #58	; 0x3a
     5c2:	4834      	ldr	r0, [pc, #208]	; (694 <Judg_KEY_CH+0x1cc>)
     5c4:	47a8      	blx	r5
				uart_send_word(Debug_COM, hex_to_bcd(CH_Formula[i]));
     5c6:	4b35      	ldr	r3, [pc, #212]	; (69c <Judg_KEY_CH+0x1d4>)
     5c8:	5918      	ldr	r0, [r3, r4]
     5ca:	4b35      	ldr	r3, [pc, #212]	; (6a0 <Judg_KEY_CH+0x1d8>)
     5cc:	4798      	blx	r3
     5ce:	0001      	movs	r1, r0
     5d0:	4830      	ldr	r0, [pc, #192]	; (694 <Judg_KEY_CH+0x1cc>)
     5d2:	4b34      	ldr	r3, [pc, #208]	; (6a4 <Judg_KEY_CH+0x1dc>)
     5d4:	469a      	mov	sl, r3
     5d6:	4798      	blx	r3
				uTXByte(Debug_COM, ' ');
     5d8:	2120      	movs	r1, #32
     5da:	482e      	ldr	r0, [pc, #184]	; (694 <Judg_KEY_CH+0x1cc>)
     5dc:	47a8      	blx	r5
				uTXByte(Debug_COM, '(');
     5de:	2128      	movs	r1, #40	; 0x28
     5e0:	482c      	ldr	r0, [pc, #176]	; (694 <Judg_KEY_CH+0x1cc>)
     5e2:	47a8      	blx	r5
				uart_send_word(Debug_COM, CH_Formula_base[i]);
     5e4:	4b30      	ldr	r3, [pc, #192]	; (6a8 <Judg_KEY_CH+0x1e0>)
     5e6:	5919      	ldr	r1, [r3, r4]
     5e8:	482a      	ldr	r0, [pc, #168]	; (694 <Judg_KEY_CH+0x1cc>)
     5ea:	47d0      	blx	sl
				uTXByte(Debug_COM, ')');
     5ec:	2129      	movs	r1, #41	; 0x29
     5ee:	4829      	ldr	r0, [pc, #164]	; (694 <Judg_KEY_CH+0x1cc>)
     5f0:	47a8      	blx	r5
				uart_str("\t\0");
     5f2:	482e      	ldr	r0, [pc, #184]	; (6ac <Judg_KEY_CH+0x1e4>)
     5f4:	47b8      	blx	r7
     5f6:	3601      	adds	r6, #1
     5f8:	b2f6      	uxtb	r6, r6
     5fa:	3404      	adds	r4, #4
			for (unsigned char i = 0 ; i < 4; i++)
     5fc:	2c10      	cmp	r4, #16
     5fe:	d1d9      	bne.n	5b4 <Judg_KEY_CH+0xec>
			uTXByte(Debug_COM, 0x0d);
     600:	4c24      	ldr	r4, [pc, #144]	; (694 <Judg_KEY_CH+0x1cc>)
     602:	210d      	movs	r1, #13
     604:	0020      	movs	r0, r4
     606:	4d24      	ldr	r5, [pc, #144]	; (698 <Judg_KEY_CH+0x1d0>)
     608:	47a8      	blx	r5
			uart_str("CH\0");
     60a:	4821      	ldr	r0, [pc, #132]	; (690 <Judg_KEY_CH+0x1c8>)
     60c:	4b1f      	ldr	r3, [pc, #124]	; (68c <Judg_KEY_CH+0x1c4>)
     60e:	469b      	mov	fp, r3
     610:	4798      	blx	r3
			uTXByte(Debug_COM, UserKeyInBuf[2]);
     612:	4b1b      	ldr	r3, [pc, #108]	; (680 <Judg_KEY_CH+0x1b8>)
     614:	469a      	mov	sl, r3
     616:	7899      	ldrb	r1, [r3, #2]
     618:	0020      	movs	r0, r4
     61a:	47a8      	blx	r5
			uTXByte(Debug_COM, ':');
     61c:	213a      	movs	r1, #58	; 0x3a
     61e:	0020      	movs	r0, r4
     620:	47a8      	blx	r5
			uart_send_word(Debug_COM, hex_to_bcd(CH_Formula[tmp_index]));
     622:	4f1e      	ldr	r7, [pc, #120]	; (69c <Judg_KEY_CH+0x1d4>)
     624:	464b      	mov	r3, r9
     626:	009e      	lsls	r6, r3, #2
     628:	59f0      	ldr	r0, [r6, r7]
     62a:	4b1d      	ldr	r3, [pc, #116]	; (6a0 <Judg_KEY_CH+0x1d8>)
     62c:	4699      	mov	r9, r3
     62e:	4798      	blx	r3
     630:	0001      	movs	r1, r0
     632:	0020      	movs	r0, r4
     634:	4b1b      	ldr	r3, [pc, #108]	; (6a4 <Judg_KEY_CH+0x1dc>)
     636:	4698      	mov	r8, r3
     638:	4798      	blx	r3
			Print_Arrow_Right();
     63a:	4b1d      	ldr	r3, [pc, #116]	; (6b0 <Judg_KEY_CH+0x1e8>)
     63c:	4798      	blx	r3
			CH_Formula[tmp_index] = tmp_value;
     63e:	9b01      	ldr	r3, [sp, #4]
     640:	51f3      	str	r3, [r6, r7]
			uart_str("CH\0");
     642:	4813      	ldr	r0, [pc, #76]	; (690 <Judg_KEY_CH+0x1c8>)
     644:	47d8      	blx	fp
			uTXByte(Debug_COM, UserKeyInBuf[2]);
     646:	4653      	mov	r3, sl
     648:	7899      	ldrb	r1, [r3, #2]
     64a:	0020      	movs	r0, r4
     64c:	47a8      	blx	r5
			uTXByte(Debug_COM, ':');
     64e:	213a      	movs	r1, #58	; 0x3a
     650:	0020      	movs	r0, r4
     652:	47a8      	blx	r5
			uart_send_word(Debug_COM, hex_to_bcd(CH_Formula[tmp_index]));
     654:	59f0      	ldr	r0, [r6, r7]
     656:	47c8      	blx	r9
     658:	0001      	movs	r1, r0
     65a:	0020      	movs	r0, r4
     65c:	47c0      	blx	r8
			uTXByte(Debug_COM, 0x0d);
     65e:	210d      	movs	r1, #13
     660:	0020      	movs	r0, r4
     662:	47a8      	blx	r5
			uTXByte(Debug_COM, 0x0d);
     664:	210d      	movs	r1, #13
     666:	0020      	movs	r0, r4
     668:	47a8      	blx	r5
			Save_LoRa_Profile_in_NVM(LORA01);
     66a:	4e12      	ldr	r6, [pc, #72]	; (6b4 <Judg_KEY_CH+0x1ec>)
     66c:	6830      	ldr	r0, [r6, #0]
     66e:	4b12      	ldr	r3, [pc, #72]	; (6b8 <Judg_KEY_CH+0x1f0>)
     670:	4798      	blx	r3
			Load_LoRa_Profile_in_NVM(LORA01);
     672:	6830      	ldr	r0, [r6, #0]
     674:	4b11      	ldr	r3, [pc, #68]	; (6bc <Judg_KEY_CH+0x1f4>)
     676:	4798      	blx	r3
			uTXByte(Debug_COM, 0x0d);
     678:	210d      	movs	r1, #13
     67a:	0020      	movs	r0, r4
     67c:	47a8      	blx	r5
     67e:	e730      	b.n	4e2 <Judg_KEY_CH+0x1a>
     680:	200002d4 	.word	0x200002d4
     684:	0000283d 	.word	0x0000283d
     688:	20000322 	.word	0x20000322
     68c:	00002ffd 	.word	0x00002ffd
     690:	00006c48 	.word	0x00006c48
     694:	20000270 	.word	0x20000270
     698:	00002725 	.word	0x00002725
     69c:	200018c0 	.word	0x200018c0
     6a0:	000029e5 	.word	0x000029e5
     6a4:	000027b9 	.word	0x000027b9
     6a8:	20001660 	.word	0x20001660
     6ac:	00006c4c 	.word	0x00006c4c
     6b0:	000031ad 	.word	0x000031ad
     6b4:	200018bc 	.word	0x200018bc
     6b8:	00002379 	.word	0x00002379
     6bc:	0000204d 	.word	0x0000204d

000006c0 <Print_Debug_Msg>:
#include <stdio.h>
#include "myDefine.h"


void Print_Debug_Msg(void)
{
     6c0:	b570      	push	{r4, r5, r6, lr}
	uTXByte(Debug_COM, 'D');
     6c2:	4d0a      	ldr	r5, [pc, #40]	; (6ec <Print_Debug_Msg+0x2c>)
     6c4:	2144      	movs	r1, #68	; 0x44
     6c6:	0028      	movs	r0, r5
     6c8:	4c09      	ldr	r4, [pc, #36]	; (6f0 <Print_Debug_Msg+0x30>)
     6ca:	47a0      	blx	r4
	uTXByte(Debug_COM, 'e');
     6cc:	2165      	movs	r1, #101	; 0x65
     6ce:	0028      	movs	r0, r5
     6d0:	47a0      	blx	r4
	uTXByte(Debug_COM, 'B');
     6d2:	2142      	movs	r1, #66	; 0x42
     6d4:	0028      	movs	r0, r5
     6d6:	47a0      	blx	r4
	uTXByte(Debug_COM, 'u');
     6d8:	2175      	movs	r1, #117	; 0x75
     6da:	0028      	movs	r0, r5
     6dc:	47a0      	blx	r4
	uTXByte(Debug_COM, 'g');
     6de:	2167      	movs	r1, #103	; 0x67
     6e0:	0028      	movs	r0, r5
     6e2:	47a0      	blx	r4
	uTXByte(Debug_COM, ' ');	
     6e4:	2120      	movs	r1, #32
     6e6:	0028      	movs	r0, r5
     6e8:	47a0      	blx	r4
}
     6ea:	bd70      	pop	{r4, r5, r6, pc}
     6ec:	20000270 	.word	0x20000270
     6f0:	00002725 	.word	0x00002725

000006f4 <Print_Debug_Mode_ON_Msg>:

void Print_Debug_Mode_ON_Msg(void)
{
     6f4:	b570      	push	{r4, r5, r6, lr}
	Print_Debug_Msg();
     6f6:	4b05      	ldr	r3, [pc, #20]	; (70c <Print_Debug_Mode_ON_Msg+0x18>)
     6f8:	4798      	blx	r3
	uTXByte(Debug_COM, 'O');
     6fa:	4d05      	ldr	r5, [pc, #20]	; (710 <Print_Debug_Mode_ON_Msg+0x1c>)
     6fc:	214f      	movs	r1, #79	; 0x4f
     6fe:	0028      	movs	r0, r5
     700:	4c04      	ldr	r4, [pc, #16]	; (714 <Print_Debug_Mode_ON_Msg+0x20>)
     702:	47a0      	blx	r4
	uTXByte(Debug_COM, 'N');
     704:	214e      	movs	r1, #78	; 0x4e
     706:	0028      	movs	r0, r5
     708:	47a0      	blx	r4
}
     70a:	bd70      	pop	{r4, r5, r6, pc}
     70c:	000006c1 	.word	0x000006c1
     710:	20000270 	.word	0x20000270
     714:	00002725 	.word	0x00002725

00000718 <Print_Debug_Mode_OFF_Msg>:

void Print_Debug_Mode_OFF_Msg(void)
{
     718:	b570      	push	{r4, r5, r6, lr}
	Print_Debug_Msg();
     71a:	4b07      	ldr	r3, [pc, #28]	; (738 <Print_Debug_Mode_OFF_Msg+0x20>)
     71c:	4798      	blx	r3
	uTXByte(Debug_COM, 'O');
     71e:	4d07      	ldr	r5, [pc, #28]	; (73c <Print_Debug_Mode_OFF_Msg+0x24>)
     720:	214f      	movs	r1, #79	; 0x4f
     722:	0028      	movs	r0, r5
     724:	4c06      	ldr	r4, [pc, #24]	; (740 <Print_Debug_Mode_OFF_Msg+0x28>)
     726:	47a0      	blx	r4
	uTXByte(Debug_COM, 'F');
     728:	2146      	movs	r1, #70	; 0x46
     72a:	0028      	movs	r0, r5
     72c:	47a0      	blx	r4
	uTXByte(Debug_COM, 'F');
     72e:	2146      	movs	r1, #70	; 0x46
     730:	0028      	movs	r0, r5
     732:	47a0      	blx	r4
}
     734:	bd70      	pop	{r4, r5, r6, pc}
     736:	46c0      	nop			; (mov r8, r8)
     738:	000006c1 	.word	0x000006c1
     73c:	20000270 	.word	0x20000270
     740:	00002725 	.word	0x00002725

00000744 <Debug_Mode_Func>:

void Debug_Mode_Func(volatile LORA_DEFINE_t *tmp_LORA)
{
     744:	b510      	push	{r4, lr}
     746:	0004      	movs	r4, r0
	Print_Lora_number(tmp_LORA);
     748:	4b0c      	ldr	r3, [pc, #48]	; (77c <Debug_Mode_Func+0x38>)
     74a:	4798      	blx	r3
	if(tmp_LORA->Lora_Debug_Flag == NeedDebug)
     74c:	2388      	movs	r3, #136	; 0x88
     74e:	009b      	lsls	r3, r3, #2
     750:	5ce3      	ldrb	r3, [r4, r3]
     752:	2b01      	cmp	r3, #1
     754:	d00a      	beq.n	76c <Debug_Mode_Func+0x28>
		tmp_LORA->Lora_Debug_Flag = NoDebug;
		Print_Debug_Mode_OFF_Msg();
	}
	else
	{
		tmp_LORA->Lora_Debug_Flag = NeedDebug;
     756:	2201      	movs	r2, #1
     758:	2388      	movs	r3, #136	; 0x88
     75a:	009b      	lsls	r3, r3, #2
     75c:	54e2      	strb	r2, [r4, r3]
		Print_Debug_Mode_ON_Msg();
     75e:	4b08      	ldr	r3, [pc, #32]	; (780 <Debug_Mode_Func+0x3c>)
     760:	4798      	blx	r3
	}
	uTXByte(Debug_COM, 0x0d);
     762:	210d      	movs	r1, #13
     764:	4807      	ldr	r0, [pc, #28]	; (784 <Debug_Mode_Func+0x40>)
     766:	4b08      	ldr	r3, [pc, #32]	; (788 <Debug_Mode_Func+0x44>)
     768:	4798      	blx	r3
}
     76a:	bd10      	pop	{r4, pc}
		tmp_LORA->Lora_Debug_Flag = NoDebug;
     76c:	2200      	movs	r2, #0
     76e:	2388      	movs	r3, #136	; 0x88
     770:	009b      	lsls	r3, r3, #2
     772:	54e2      	strb	r2, [r4, r3]
		Print_Debug_Mode_OFF_Msg();
     774:	4b05      	ldr	r3, [pc, #20]	; (78c <Debug_Mode_Func+0x48>)
     776:	4798      	blx	r3
     778:	e7f3      	b.n	762 <Debug_Mode_Func+0x1e>
     77a:	46c0      	nop			; (mov r8, r8)
     77c:	00003021 	.word	0x00003021
     780:	000006f5 	.word	0x000006f5
     784:	20000270 	.word	0x20000270
     788:	00002725 	.word	0x00002725
     78c:	00000719 	.word	0x00000719

00000790 <Judg_KEY_D>:

void Judg_KEY_D(void)
{
     790:	b510      	push	{r4, lr}
	// Example: D1←
	//  D  1  ←
	// [0][1][2]
	// UserKeyInBufCount = 3
	// ← = 0x0d
	if(ascii_to_hex(UserKeyInBuf[0]) == KEYD)
     792:	4b15      	ldr	r3, [pc, #84]	; (7e8 <Judg_KEY_D+0x58>)
     794:	7818      	ldrb	r0, [r3, #0]
     796:	4b15      	ldr	r3, [pc, #84]	; (7ec <Judg_KEY_D+0x5c>)
     798:	4798      	blx	r3
     79a:	280d      	cmp	r0, #13
     79c:	d000      	beq.n	7a0 <Judg_KEY_D+0x10>
		{
			if(ascii_to_hex(UserKeyInBuf[1]) == KEY1)		{	Debug_Mode_Func(LORA01);	CMD_Save_Func(LORA01);}
			else if(ascii_to_hex(UserKeyInBuf[1]) == KEY2)	{	Debug_Mode_Func(LORA02);	CMD_Save_Func(LORA02);}
		}
	}
}
     79e:	bd10      	pop	{r4, pc}
		if(UserKeyInBufCount == 3 && UserKeyInBuf[2] == 0x0d)
     7a0:	4b13      	ldr	r3, [pc, #76]	; (7f0 <Judg_KEY_D+0x60>)
     7a2:	781b      	ldrb	r3, [r3, #0]
     7a4:	2b03      	cmp	r3, #3
     7a6:	d1fa      	bne.n	79e <Judg_KEY_D+0xe>
     7a8:	4b0f      	ldr	r3, [pc, #60]	; (7e8 <Judg_KEY_D+0x58>)
     7aa:	789b      	ldrb	r3, [r3, #2]
     7ac:	2b0d      	cmp	r3, #13
     7ae:	d1f6      	bne.n	79e <Judg_KEY_D+0xe>
			if(ascii_to_hex(UserKeyInBuf[1]) == KEY1)		{	Debug_Mode_Func(LORA01);	CMD_Save_Func(LORA01);}
     7b0:	4b0d      	ldr	r3, [pc, #52]	; (7e8 <Judg_KEY_D+0x58>)
     7b2:	7858      	ldrb	r0, [r3, #1]
     7b4:	4b0d      	ldr	r3, [pc, #52]	; (7ec <Judg_KEY_D+0x5c>)
     7b6:	4798      	blx	r3
     7b8:	2801      	cmp	r0, #1
     7ba:	d00d      	beq.n	7d8 <Judg_KEY_D+0x48>
			else if(ascii_to_hex(UserKeyInBuf[1]) == KEY2)	{	Debug_Mode_Func(LORA02);	CMD_Save_Func(LORA02);}
     7bc:	4b0a      	ldr	r3, [pc, #40]	; (7e8 <Judg_KEY_D+0x58>)
     7be:	7858      	ldrb	r0, [r3, #1]
     7c0:	4b0a      	ldr	r3, [pc, #40]	; (7ec <Judg_KEY_D+0x5c>)
     7c2:	4798      	blx	r3
     7c4:	2802      	cmp	r0, #2
     7c6:	d1ea      	bne.n	79e <Judg_KEY_D+0xe>
     7c8:	4c0a      	ldr	r4, [pc, #40]	; (7f4 <Judg_KEY_D+0x64>)
     7ca:	6820      	ldr	r0, [r4, #0]
     7cc:	4b0a      	ldr	r3, [pc, #40]	; (7f8 <Judg_KEY_D+0x68>)
     7ce:	4798      	blx	r3
     7d0:	6820      	ldr	r0, [r4, #0]
     7d2:	4b0a      	ldr	r3, [pc, #40]	; (7fc <Judg_KEY_D+0x6c>)
     7d4:	4798      	blx	r3
}
     7d6:	e7e2      	b.n	79e <Judg_KEY_D+0xe>
			if(ascii_to_hex(UserKeyInBuf[1]) == KEY1)		{	Debug_Mode_Func(LORA01);	CMD_Save_Func(LORA01);}
     7d8:	4c09      	ldr	r4, [pc, #36]	; (800 <Judg_KEY_D+0x70>)
     7da:	6820      	ldr	r0, [r4, #0]
     7dc:	4b06      	ldr	r3, [pc, #24]	; (7f8 <Judg_KEY_D+0x68>)
     7de:	4798      	blx	r3
     7e0:	6820      	ldr	r0, [r4, #0]
     7e2:	4b06      	ldr	r3, [pc, #24]	; (7fc <Judg_KEY_D+0x6c>)
     7e4:	4798      	blx	r3
     7e6:	e7da      	b.n	79e <Judg_KEY_D+0xe>
     7e8:	200002d4 	.word	0x200002d4
     7ec:	0000283d 	.word	0x0000283d
     7f0:	20000322 	.word	0x20000322
     7f4:	20000c90 	.word	0x20000c90
     7f8:	00000745 	.word	0x00000745
     7fc:	00002b19 	.word	0x00002b19
     800:	200018bc 	.word	0x200018bc

00000804 <Judg_KEY_DL>:
#include <asf.h>
#include <stdio.h>
#include "myDefine.h"

void Judg_KEY_DL(volatile LORA_Dev_List_t *tmp_LORA_Dev_List_Index)
{
     804:	b5f0      	push	{r4, r5, r6, r7, lr}
     806:	46de      	mov	lr, fp
     808:	4657      	mov	r7, sl
     80a:	464e      	mov	r6, r9
     80c:	4645      	mov	r5, r8
     80e:	b5e0      	push	{r5, r6, r7, lr}
     810:	b083      	sub	sp, #12
     812:	0004      	movs	r4, r0
	UINT16u_t tmp16;
	
	if(	ascii_to_hex(UserKeyInBuf[0]) == KEYD && ascii_to_hex(UserKeyInBuf[1]) == KEYL )
     814:	4bc6      	ldr	r3, [pc, #792]	; (b30 <Judg_KEY_DL+0x32c>)
     816:	7818      	ldrb	r0, [r3, #0]
     818:	4bc6      	ldr	r3, [pc, #792]	; (b34 <Judg_KEY_DL+0x330>)
     81a:	4798      	blx	r3
     81c:	280d      	cmp	r0, #13
     81e:	d006      	beq.n	82e <Judg_KEY_DL+0x2a>
				Print_PLC_D_Register_Number(RS485_WR_Index);
			#endif
			uTXByte(Debug_COM, 0x0d);
		}
	}
     820:	b003      	add	sp, #12
     822:	bc3c      	pop	{r2, r3, r4, r5}
     824:	4690      	mov	r8, r2
     826:	4699      	mov	r9, r3
     828:	46a2      	mov	sl, r4
     82a:	46ab      	mov	fp, r5
     82c:	bdf0      	pop	{r4, r5, r6, r7, pc}
	if(	ascii_to_hex(UserKeyInBuf[0]) == KEYD && ascii_to_hex(UserKeyInBuf[1]) == KEYL )
     82e:	4bc0      	ldr	r3, [pc, #768]	; (b30 <Judg_KEY_DL+0x32c>)
     830:	7858      	ldrb	r0, [r3, #1]
     832:	4bc0      	ldr	r3, [pc, #768]	; (b34 <Judg_KEY_DL+0x330>)
     834:	4798      	blx	r3
     836:	2815      	cmp	r0, #21
     838:	d1f2      	bne.n	820 <Judg_KEY_DL+0x1c>
		if(UserKeyInBufCount == 3 && UserKeyInBuf[2] == 0x0d)
     83a:	4bbf      	ldr	r3, [pc, #764]	; (b38 <Judg_KEY_DL+0x334>)
     83c:	781b      	ldrb	r3, [r3, #0]
     83e:	2b03      	cmp	r3, #3
     840:	d1ee      	bne.n	820 <Judg_KEY_DL+0x1c>
     842:	4bbb      	ldr	r3, [pc, #748]	; (b30 <Judg_KEY_DL+0x32c>)
     844:	789b      	ldrb	r3, [r3, #2]
     846:	2b0d      	cmp	r3, #13
     848:	d1ea      	bne.n	820 <Judg_KEY_DL+0x1c>
			uart_str("\t          ID    TP  R0   R1   R2   R3   R4   R5   R6   R7  VR RSSI RSSI        Timer\r\0");
     84a:	48bc      	ldr	r0, [pc, #752]	; (b3c <Judg_KEY_DL+0x338>)
     84c:	4bbc      	ldr	r3, [pc, #752]	; (b40 <Judg_KEY_DL+0x33c>)
     84e:	4798      	blx	r3
     850:	46a0      	mov	r8, r4
     852:	4dbc      	ldr	r5, [pc, #752]	; (b44 <Judg_KEY_DL+0x340>)
     854:	2323      	movs	r3, #35	; 0x23
     856:	469a      	mov	sl, r3
     858:	44aa      	add	sl, r5
			for(unsigned char i= 0; i < Dev_Item_MAX; i++)
     85a:	2300      	movs	r3, #0
     85c:	4699      	mov	r9, r3
					if(LORA01->List_Now == i)
     85e:	4bba      	ldr	r3, [pc, #744]	; (b48 <Judg_KEY_DL+0x344>)
     860:	469b      	mov	fp, r3
					uTXByte(Debug_COM, 'N');
     862:	4cba      	ldr	r4, [pc, #744]	; (b4c <Judg_KEY_DL+0x348>)
     864:	4fba      	ldr	r7, [pc, #744]	; (b50 <Judg_KEY_DL+0x34c>)
     866:	e02c      	b.n	8c2 <Judg_KEY_DL+0xbe>
						uTXByte(Debug_COM, '>');
     868:	213e      	movs	r1, #62	; 0x3e
     86a:	48b8      	ldr	r0, [pc, #736]	; (b4c <Judg_KEY_DL+0x348>)
     86c:	4bb8      	ldr	r3, [pc, #736]	; (b50 <Judg_KEY_DL+0x34c>)
     86e:	4798      	blx	r3
     870:	e037      	b.n	8e2 <Judg_KEY_DL+0xde>
						uTXByte(Debug_COM, ' ');
     872:	2120      	movs	r1, #32
     874:	48b5      	ldr	r0, [pc, #724]	; (b4c <Judg_KEY_DL+0x348>)
     876:	4bb6      	ldr	r3, [pc, #728]	; (b50 <Judg_KEY_DL+0x34c>)
     878:	4798      	blx	r3
     87a:	e113      	b.n	aa4 <Judg_KEY_DL+0x2a0>
						uTXByte(Debug_COM, 'N');
     87c:	214e      	movs	r1, #78	; 0x4e
     87e:	48b3      	ldr	r0, [pc, #716]	; (b4c <Judg_KEY_DL+0x348>)
     880:	4bb3      	ldr	r3, [pc, #716]	; (b50 <Judg_KEY_DL+0x34c>)
     882:	4798      	blx	r3
					uTXByte(Debug_COM, ')');
     884:	2129      	movs	r1, #41	; 0x29
     886:	48b1      	ldr	r0, [pc, #708]	; (b4c <Judg_KEY_DL+0x348>)
     888:	4bb1      	ldr	r3, [pc, #708]	; (b50 <Judg_KEY_DL+0x34c>)
     88a:	4798      	blx	r3
					if(LORA02->List_Now == i)	uTXByte(Debug_COM, '<');
     88c:	4bb1      	ldr	r3, [pc, #708]	; (b54 <Judg_KEY_DL+0x350>)
     88e:	681a      	ldr	r2, [r3, #0]
     890:	235b      	movs	r3, #91	; 0x5b
     892:	5cd3      	ldrb	r3, [r2, r3]
     894:	b2db      	uxtb	r3, r3
     896:	454b      	cmp	r3, r9
     898:	d100      	bne.n	89c <Judg_KEY_DL+0x98>
     89a:	e117      	b.n	acc <Judg_KEY_DL+0x2c8>
					uTXByte(Debug_COM, 0x0d);
     89c:	210d      	movs	r1, #13
     89e:	48ab      	ldr	r0, [pc, #684]	; (b4c <Judg_KEY_DL+0x348>)
     8a0:	4bab      	ldr	r3, [pc, #684]	; (b50 <Judg_KEY_DL+0x34c>)
     8a2:	4798      	blx	r3
			for(unsigned char i= 0; i < Dev_Item_MAX; i++)
     8a4:	464b      	mov	r3, r9
     8a6:	3301      	adds	r3, #1
     8a8:	b2db      	uxtb	r3, r3
     8aa:	4699      	mov	r9, r3
     8ac:	2310      	movs	r3, #16
     8ae:	469c      	mov	ip, r3
     8b0:	44e0      	add	r8, ip
     8b2:	3525      	adds	r5, #37	; 0x25
     8b4:	3315      	adds	r3, #21
     8b6:	469c      	mov	ip, r3
     8b8:	44e2      	add	sl, ip
     8ba:	464b      	mov	r3, r9
     8bc:	2b64      	cmp	r3, #100	; 0x64
     8be:	d100      	bne.n	8c2 <Judg_KEY_DL+0xbe>
     8c0:	e109      	b.n	ad6 <Judg_KEY_DL+0x2d2>
				if(tmp_LORA_Dev_List_Index[i].Dev_En_Flag == Dev_EN)
     8c2:	4643      	mov	r3, r8
     8c4:	9301      	str	r3, [sp, #4]
     8c6:	785b      	ldrb	r3, [r3, #1]
     8c8:	2b01      	cmp	r3, #1
     8ca:	d1eb      	bne.n	8a4 <Judg_KEY_DL+0xa0>
					if(LORA01->List_Now == i)
     8cc:	335a      	adds	r3, #90	; 0x5a
     8ce:	465a      	mov	r2, fp
     8d0:	6812      	ldr	r2, [r2, #0]
     8d2:	5cd3      	ldrb	r3, [r2, r3]
     8d4:	b2db      	uxtb	r3, r3
     8d6:	454b      	cmp	r3, r9
     8d8:	d0c6      	beq.n	868 <Judg_KEY_DL+0x64>
						uTXByte(Debug_COM, ' ');
     8da:	2120      	movs	r1, #32
     8dc:	489b      	ldr	r0, [pc, #620]	; (b4c <Judg_KEY_DL+0x348>)
     8de:	4b9c      	ldr	r3, [pc, #624]	; (b50 <Judg_KEY_DL+0x34c>)
     8e0:	4798      	blx	r3
					uTXByte(Debug_COM, 'N');
     8e2:	214e      	movs	r1, #78	; 0x4e
     8e4:	0020      	movs	r0, r4
     8e6:	47b8      	blx	r7
					uTXByte(Debug_COM, 'o');
     8e8:	216f      	movs	r1, #111	; 0x6f
     8ea:	0020      	movs	r0, r4
     8ec:	47b8      	blx	r7
					uTXByte(Debug_COM, '.');
     8ee:	212e      	movs	r1, #46	; 0x2e
     8f0:	0020      	movs	r0, r4
     8f2:	47b8      	blx	r7
					uart_send_word_for_ListNumber(Debug_COM, hex_to_bcd(tmp_LORA_Dev_List_Index[i].Dev_Number));
     8f4:	9b01      	ldr	r3, [sp, #4]
     8f6:	7818      	ldrb	r0, [r3, #0]
     8f8:	b2c0      	uxtb	r0, r0
     8fa:	4b97      	ldr	r3, [pc, #604]	; (b58 <Judg_KEY_DL+0x354>)
     8fc:	4798      	blx	r3
     8fe:	0001      	movs	r1, r0
     900:	0020      	movs	r0, r4
     902:	4b96      	ldr	r3, [pc, #600]	; (b5c <Judg_KEY_DL+0x358>)
     904:	4798      	blx	r3
					uTXByte(Debug_COM, ' ');
     906:	2120      	movs	r1, #32
     908:	0020      	movs	r0, r4
     90a:	47b8      	blx	r7
					uart_send_ascii_byte(Debug_COM, dev_value[i][0]);
     90c:	7829      	ldrb	r1, [r5, #0]
     90e:	0020      	movs	r0, r4
     910:	4e93      	ldr	r6, [pc, #588]	; (b60 <Judg_KEY_DL+0x35c>)
     912:	47b0      	blx	r6
					uart_send_ascii_byte(Debug_COM, dev_value[i][1]);
     914:	7869      	ldrb	r1, [r5, #1]
     916:	0020      	movs	r0, r4
     918:	47b0      	blx	r6
					uart_send_ascii_byte(Debug_COM, dev_value[i][2]);
     91a:	78a9      	ldrb	r1, [r5, #2]
     91c:	0020      	movs	r0, r4
     91e:	47b0      	blx	r6
					uTXByte(Debug_COM, ' ');
     920:	2120      	movs	r1, #32
     922:	0020      	movs	r0, r4
     924:	47b8      	blx	r7
					uart_send_ascii_byte(Debug_COM, dev_value[i][3]);
     926:	78e9      	ldrb	r1, [r5, #3]
     928:	0020      	movs	r0, r4
     92a:	47b0      	blx	r6
					uart_send_ascii_byte(Debug_COM, dev_value[i][4]);
     92c:	7929      	ldrb	r1, [r5, #4]
     92e:	0020      	movs	r0, r4
     930:	47b0      	blx	r6
					uart_send_ascii_byte(Debug_COM, dev_value[i][5]);
     932:	7969      	ldrb	r1, [r5, #5]
     934:	0020      	movs	r0, r4
     936:	47b0      	blx	r6
					uart_send_ascii_byte(Debug_COM, dev_value[i][6]);
     938:	79a9      	ldrb	r1, [r5, #6]
     93a:	0020      	movs	r0, r4
     93c:	47b0      	blx	r6
					uTXByte(Debug_COM, ' ');
     93e:	2120      	movs	r1, #32
     940:	0020      	movs	r0, r4
     942:	47b8      	blx	r7
					uart_send_ascii_byte(Debug_COM, dev_value[i][7]);
     944:	79e9      	ldrb	r1, [r5, #7]
     946:	0020      	movs	r0, r4
     948:	47b0      	blx	r6
					uTXByte(Debug_COM, ' ');
     94a:	2120      	movs	r1, #32
     94c:	0020      	movs	r0, r4
     94e:	47b8      	blx	r7
					uart_send_ascii_byte(Debug_COM, dev_value[i][8]);
     950:	7a29      	ldrb	r1, [r5, #8]
     952:	0020      	movs	r0, r4
     954:	47b0      	blx	r6
					uart_send_ascii_byte(Debug_COM, dev_value[i][9]);
     956:	7a69      	ldrb	r1, [r5, #9]
     958:	0020      	movs	r0, r4
     95a:	47b0      	blx	r6
					uTXByte(Debug_COM, ' ');
     95c:	2120      	movs	r1, #32
     95e:	0020      	movs	r0, r4
     960:	47b8      	blx	r7
					uart_send_ascii_byte(Debug_COM, dev_value[i][10]);
     962:	7aa9      	ldrb	r1, [r5, #10]
     964:	0020      	movs	r0, r4
     966:	47b0      	blx	r6
					uart_send_ascii_byte(Debug_COM, dev_value[i][11]);
     968:	7ae9      	ldrb	r1, [r5, #11]
     96a:	0020      	movs	r0, r4
     96c:	47b0      	blx	r6
					uTXByte(Debug_COM, ' ');
     96e:	2120      	movs	r1, #32
     970:	0020      	movs	r0, r4
     972:	47b8      	blx	r7
					uart_send_ascii_byte(Debug_COM, dev_value[i][12]);
     974:	7b29      	ldrb	r1, [r5, #12]
     976:	0020      	movs	r0, r4
     978:	47b0      	blx	r6
					uart_send_ascii_byte(Debug_COM, dev_value[i][13]);
     97a:	7b69      	ldrb	r1, [r5, #13]
     97c:	0020      	movs	r0, r4
     97e:	47b0      	blx	r6
					uTXByte(Debug_COM, ' ');
     980:	2120      	movs	r1, #32
     982:	0020      	movs	r0, r4
     984:	47b8      	blx	r7
					uart_send_ascii_byte(Debug_COM, dev_value[i][14]);
     986:	7ba9      	ldrb	r1, [r5, #14]
     988:	0020      	movs	r0, r4
     98a:	47b0      	blx	r6
					uart_send_ascii_byte(Debug_COM, dev_value[i][15]);
     98c:	7be9      	ldrb	r1, [r5, #15]
     98e:	0020      	movs	r0, r4
     990:	47b0      	blx	r6
					uTXByte(Debug_COM, ' ');
     992:	2120      	movs	r1, #32
     994:	0020      	movs	r0, r4
     996:	47b8      	blx	r7
					uart_send_ascii_byte(Debug_COM, dev_value[i][16]);
     998:	7c29      	ldrb	r1, [r5, #16]
     99a:	0020      	movs	r0, r4
     99c:	47b0      	blx	r6
					uart_send_ascii_byte(Debug_COM, dev_value[i][17]);
     99e:	7c69      	ldrb	r1, [r5, #17]
     9a0:	0020      	movs	r0, r4
     9a2:	47b0      	blx	r6
					uTXByte(Debug_COM, ' ');
     9a4:	2120      	movs	r1, #32
     9a6:	0020      	movs	r0, r4
     9a8:	47b8      	blx	r7
					uart_send_ascii_byte(Debug_COM, dev_value[i][18]);
     9aa:	7ca9      	ldrb	r1, [r5, #18]
     9ac:	0020      	movs	r0, r4
     9ae:	47b0      	blx	r6
					uart_send_ascii_byte(Debug_COM, dev_value[i][19]);
     9b0:	7ce9      	ldrb	r1, [r5, #19]
     9b2:	0020      	movs	r0, r4
     9b4:	47b0      	blx	r6
					uTXByte(Debug_COM, ' ');
     9b6:	2120      	movs	r1, #32
     9b8:	0020      	movs	r0, r4
     9ba:	47b8      	blx	r7
					uart_send_ascii_byte(Debug_COM, dev_value[i][20]);
     9bc:	7d29      	ldrb	r1, [r5, #20]
     9be:	0020      	movs	r0, r4
     9c0:	47b0      	blx	r6
					uart_send_ascii_byte(Debug_COM, dev_value[i][21]);
     9c2:	7d69      	ldrb	r1, [r5, #21]
     9c4:	0020      	movs	r0, r4
     9c6:	47b0      	blx	r6
					uTXByte(Debug_COM, ' ');
     9c8:	2120      	movs	r1, #32
     9ca:	0020      	movs	r0, r4
     9cc:	47b8      	blx	r7
					uart_send_ascii_byte(Debug_COM, dev_value[i][22]);
     9ce:	7da9      	ldrb	r1, [r5, #22]
     9d0:	0020      	movs	r0, r4
     9d2:	47b0      	blx	r6
					uart_send_ascii_byte(Debug_COM, dev_value[i][23]);
     9d4:	7de9      	ldrb	r1, [r5, #23]
     9d6:	0020      	movs	r0, r4
     9d8:	47b0      	blx	r6
					uTXByte(Debug_COM, ' ');
     9da:	2120      	movs	r1, #32
     9dc:	0020      	movs	r0, r4
     9de:	47b8      	blx	r7
					uart_send_ascii_byte(Debug_COM, dev_value[i][24]);	//版本
     9e0:	7e29      	ldrb	r1, [r5, #24]
     9e2:	0020      	movs	r0, r4
     9e4:	47b0      	blx	r6
					uTXByte(Debug_COM, ' ');
     9e6:	2120      	movs	r1, #32
     9e8:	0020      	movs	r0, r4
     9ea:	47b8      	blx	r7
					uart_send_ascii_byte(Debug_COM, dev_value[i][25]);	//RSSI
     9ec:	7e69      	ldrb	r1, [r5, #25]
     9ee:	0020      	movs	r0, r4
     9f0:	47b0      	blx	r6
					uart_send_ascii_byte(Debug_COM, dev_value[i][26]);
     9f2:	7ea9      	ldrb	r1, [r5, #26]
     9f4:	0020      	movs	r0, r4
     9f6:	47b0      	blx	r6
					uTXByte(Debug_COM, ' ');
     9f8:	2120      	movs	r1, #32
     9fa:	0020      	movs	r0, r4
     9fc:	47b8      	blx	r7
					uart_send_ascii_byte(Debug_COM, dev_value[i][27]);	//RSSI
     9fe:	7ee9      	ldrb	r1, [r5, #27]
     a00:	0020      	movs	r0, r4
     a02:	47b0      	blx	r6
					uart_send_ascii_byte(Debug_COM, dev_value[i][28]);
     a04:	7f29      	ldrb	r1, [r5, #28]
     a06:	0020      	movs	r0, r4
     a08:	47b0      	blx	r6
					uTXByte(Debug_COM, ' ');
     a0a:	2120      	movs	r1, #32
     a0c:	0020      	movs	r0, r4
     a0e:	47b8      	blx	r7
					uart_send_ascii_byte(Debug_COM, dev_value[i][29]);	//CRC
     a10:	7f69      	ldrb	r1, [r5, #29]
     a12:	0020      	movs	r0, r4
     a14:	47b0      	blx	r6
					uTXByte(Debug_COM, ' ');	
     a16:	2120      	movs	r1, #32
     a18:	0020      	movs	r0, r4
     a1a:	47b8      	blx	r7
					uTXByte(Debug_COM, '{');	
     a1c:	217b      	movs	r1, #123	; 0x7b
     a1e:	0020      	movs	r0, r4
     a20:	47b8      	blx	r7
					uart_send_ascii_byte(Debug_COM, tmp_LORA_Dev_List_Index[i].Dev_Time.byte[1]);
     a22:	9b01      	ldr	r3, [sp, #4]
     a24:	7a59      	ldrb	r1, [r3, #9]
     a26:	b2c9      	uxtb	r1, r1
     a28:	0020      	movs	r0, r4
     a2a:	47b0      	blx	r6
					uart_send_ascii_byte(Debug_COM, tmp_LORA_Dev_List_Index[i].Dev_Time.byte[0]);
     a2c:	9b01      	ldr	r3, [sp, #4]
     a2e:	7a19      	ldrb	r1, [r3, #8]
     a30:	b2c9      	uxtb	r1, r1
     a32:	0020      	movs	r0, r4
     a34:	47b0      	blx	r6
					uTXByte(Debug_COM, ' ');
     a36:	2120      	movs	r1, #32
     a38:	0020      	movs	r0, r4
     a3a:	47b8      	blx	r7
					uTXByte(Debug_COM, '<');
     a3c:	213c      	movs	r1, #60	; 0x3c
     a3e:	0020      	movs	r0, r4
     a40:	47b8      	blx	r7
					uTXByte(Debug_COM, ' ');
     a42:	2120      	movs	r1, #32
     a44:	0020      	movs	r0, r4
     a46:	47b8      	blx	r7
					uart_send_ascii_byte(Debug_COM, tmp_LORA_Dev_List_Index[i].Now_Counter.byte[1]);
     a48:	9b01      	ldr	r3, [sp, #4]
     a4a:	7b59      	ldrb	r1, [r3, #13]
     a4c:	b2c9      	uxtb	r1, r1
     a4e:	0020      	movs	r0, r4
     a50:	47b0      	blx	r6
					uart_send_ascii_byte(Debug_COM, tmp_LORA_Dev_List_Index[i].Now_Counter.byte[0]);
     a52:	9b01      	ldr	r3, [sp, #4]
     a54:	7b19      	ldrb	r1, [r3, #12]
     a56:	b2c9      	uxtb	r1, r1
     a58:	0020      	movs	r0, r4
     a5a:	47b0      	blx	r6
					uTXByte(Debug_COM, '}');	
     a5c:	217d      	movs	r1, #125	; 0x7d
     a5e:	0020      	movs	r0, r4
     a60:	47b8      	blx	r7
					uTXByte(Debug_COM, ' ');
     a62:	2120      	movs	r1, #32
     a64:	0020      	movs	r0, r4
     a66:	47b8      	blx	r7
     a68:	4653      	mov	r3, sl
     a6a:	9301      	str	r3, [sp, #4]
					uart_send_ascii_byte(Debug_COM, dev_value[i][36]);
     a6c:	7859      	ldrb	r1, [r3, #1]
     a6e:	0020      	movs	r0, r4
     a70:	47b0      	blx	r6
					uTXByte(Debug_COM, ' ');
     a72:	2120      	movs	r1, #32
     a74:	0020      	movs	r0, r4
     a76:	47b8      	blx	r7
					tmp16.byte[1] = dev_value[i][27];
     a78:	7eeb      	ldrb	r3, [r5, #27]
					tmp16.byte[0] = dev_value[i][28];
     a7a:	7f28      	ldrb	r0, [r5, #28]
     a7c:	021b      	lsls	r3, r3, #8
     a7e:	4318      	orrs	r0, r3
					tmp16.word = 65536 - tmp16.word;
     a80:	4240      	negs	r0, r0
     a82:	b280      	uxth	r0, r0
					Print_One_RSSI_Msg(tmp16.word);
     a84:	4b37      	ldr	r3, [pc, #220]	; (b64 <Judg_KEY_DL+0x360>)
     a86:	4798      	blx	r3
					uTXByte(Debug_COM, ' ');
     a88:	2120      	movs	r1, #32
     a8a:	0020      	movs	r0, r4
     a8c:	47b8      	blx	r7
					uTXByte(Debug_COM, '[');
     a8e:	215b      	movs	r1, #91	; 0x5b
     a90:	0020      	movs	r0, r4
     a92:	47b8      	blx	r7
					if(dev_value[i][30] == 0x00)	//MISSNODE
     a94:	7fab      	ldrb	r3, [r5, #30]
     a96:	2b00      	cmp	r3, #0
     a98:	d000      	beq.n	a9c <Judg_KEY_DL+0x298>
     a9a:	e6ea      	b.n	872 <Judg_KEY_DL+0x6e>
						uTXByte(Debug_COM, 'X');
     a9c:	2158      	movs	r1, #88	; 0x58
     a9e:	482b      	ldr	r0, [pc, #172]	; (b4c <Judg_KEY_DL+0x348>)
     aa0:	4b2b      	ldr	r3, [pc, #172]	; (b50 <Judg_KEY_DL+0x34c>)
     aa2:	4798      	blx	r3
					uTXByte(Debug_COM, ']');
     aa4:	215d      	movs	r1, #93	; 0x5d
     aa6:	4829      	ldr	r0, [pc, #164]	; (b4c <Judg_KEY_DL+0x348>)
     aa8:	4e29      	ldr	r6, [pc, #164]	; (b50 <Judg_KEY_DL+0x34c>)
     aaa:	47b0      	blx	r6
					uTXByte(Debug_COM, ' ');
     aac:	2120      	movs	r1, #32
     aae:	4827      	ldr	r0, [pc, #156]	; (b4c <Judg_KEY_DL+0x348>)
     ab0:	47b0      	blx	r6
					uTXByte(Debug_COM, '(');
     ab2:	2128      	movs	r1, #40	; 0x28
     ab4:	4825      	ldr	r0, [pc, #148]	; (b4c <Judg_KEY_DL+0x348>)
     ab6:	47b0      	blx	r6
					if(dev_value[i][35] == 0x00)	//New Data
     ab8:	9b01      	ldr	r3, [sp, #4]
     aba:	781b      	ldrb	r3, [r3, #0]
     abc:	2b00      	cmp	r3, #0
     abe:	d000      	beq.n	ac2 <Judg_KEY_DL+0x2be>
     ac0:	e6dc      	b.n	87c <Judg_KEY_DL+0x78>
						uTXByte(Debug_COM, ' ');
     ac2:	2120      	movs	r1, #32
     ac4:	4821      	ldr	r0, [pc, #132]	; (b4c <Judg_KEY_DL+0x348>)
     ac6:	4b22      	ldr	r3, [pc, #136]	; (b50 <Judg_KEY_DL+0x34c>)
     ac8:	4798      	blx	r3
     aca:	e6db      	b.n	884 <Judg_KEY_DL+0x80>
					if(LORA02->List_Now == i)	uTXByte(Debug_COM, '<');
     acc:	213c      	movs	r1, #60	; 0x3c
     ace:	481f      	ldr	r0, [pc, #124]	; (b4c <Judg_KEY_DL+0x348>)
     ad0:	4b1f      	ldr	r3, [pc, #124]	; (b50 <Judg_KEY_DL+0x34c>)
     ad2:	4798      	blx	r3
     ad4:	e6e2      	b.n	89c <Judg_KEY_DL+0x98>
			uart_send_ascii_byte(Debug_COM, LORA01->LastStatus);
     ad6:	4f1c      	ldr	r7, [pc, #112]	; (b48 <Judg_KEY_DL+0x344>)
     ad8:	4b23      	ldr	r3, [pc, #140]	; (b68 <Judg_KEY_DL+0x364>)
     ada:	683a      	ldr	r2, [r7, #0]
     adc:	5cd1      	ldrb	r1, [r2, r3]
     ade:	b2c9      	uxtb	r1, r1
     ae0:	4c1a      	ldr	r4, [pc, #104]	; (b4c <Judg_KEY_DL+0x348>)
     ae2:	0020      	movs	r0, r4
     ae4:	4e1e      	ldr	r6, [pc, #120]	; (b60 <Judg_KEY_DL+0x35c>)
     ae6:	47b0      	blx	r6
			uTXByte(Debug_COM, ' ');
     ae8:	2120      	movs	r1, #32
     aea:	0020      	movs	r0, r4
     aec:	4d18      	ldr	r5, [pc, #96]	; (b50 <Judg_KEY_DL+0x34c>)
     aee:	47a8      	blx	r5
			uart_send_ascii_byte(Debug_COM, LORA01->NowStatus);
     af0:	4b1e      	ldr	r3, [pc, #120]	; (b6c <Judg_KEY_DL+0x368>)
     af2:	683a      	ldr	r2, [r7, #0]
     af4:	5cd1      	ldrb	r1, [r2, r3]
     af6:	b2c9      	uxtb	r1, r1
     af8:	0020      	movs	r0, r4
     afa:	47b0      	blx	r6
			uTXByte(Debug_COM, ' ');
     afc:	2120      	movs	r1, #32
     afe:	0020      	movs	r0, r4
     b00:	47a8      	blx	r5
			uart_send_ascii_byte(Debug_COM, LORA01->NextStatus);
     b02:	4b1b      	ldr	r3, [pc, #108]	; (b70 <Judg_KEY_DL+0x36c>)
     b04:	683a      	ldr	r2, [r7, #0]
     b06:	5cd1      	ldrb	r1, [r2, r3]
     b08:	b2c9      	uxtb	r1, r1
     b0a:	0020      	movs	r0, r4
     b0c:	47b0      	blx	r6
			uTXByte(Debug_COM, ' ');
     b0e:	2120      	movs	r1, #32
     b10:	0020      	movs	r0, r4
     b12:	47a8      	blx	r5
			uart_send_ascii_byte(Debug_COM, LORA01->LoRa_TxRx_Mode_Flag);
     b14:	683a      	ldr	r2, [r7, #0]
     b16:	4b17      	ldr	r3, [pc, #92]	; (b74 <Judg_KEY_DL+0x370>)
     b18:	5cd1      	ldrb	r1, [r2, r3]
     b1a:	b2c9      	uxtb	r1, r1
     b1c:	0020      	movs	r0, r4
     b1e:	47b0      	blx	r6
			uTXByte(Debug_COM, ' ');
     b20:	2120      	movs	r1, #32
     b22:	0020      	movs	r0, r4
     b24:	47a8      	blx	r5
			uTXByte(Debug_COM, 0x0d);
     b26:	210d      	movs	r1, #13
     b28:	0020      	movs	r0, r4
     b2a:	47a8      	blx	r5
     b2c:	e678      	b.n	820 <Judg_KEY_DL+0x1c>
     b2e:	46c0      	nop			; (mov r8, r8)
     b30:	200002d4 	.word	0x200002d4
     b34:	0000283d 	.word	0x0000283d
     b38:	20000322 	.word	0x20000322
     b3c:	00006c50 	.word	0x00006c50
     b40:	00002ffd 	.word	0x00002ffd
     b44:	20001938 	.word	0x20001938
     b48:	200018bc 	.word	0x200018bc
     b4c:	20000270 	.word	0x20000270
     b50:	00002725 	.word	0x00002725
     b54:	20000c90 	.word	0x20000c90
     b58:	000029e5 	.word	0x000029e5
     b5c:	00002805 	.word	0x00002805
     b60:	00002745 	.word	0x00002745
     b64:	00004f49 	.word	0x00004f49
     b68:	0000021e 	.word	0x0000021e
     b6c:	0000021d 	.word	0x0000021d
     b70:	0000021f 	.word	0x0000021f
     b74:	0000022a 	.word	0x0000022a

00000b78 <Judg_KEY_E>:
#include <stdio.h>
#include "myDefine.h"


void Judg_KEY_E(volatile LORA_Dev_List_t *tmp_LORA_Dev_List_Index)
{
     b78:	b570      	push	{r4, r5, r6, lr}
     b7a:	0004      	movs	r4, r0
	unsigned char tmp_list_table_index;
	
	if(ascii_to_hex(UserKeyInBuf[0]) && UserKeyInBuf[1] == ' ' )	//enable & disable
     b7c:	4b20      	ldr	r3, [pc, #128]	; (c00 <Judg_KEY_E+0x88>)
     b7e:	7818      	ldrb	r0, [r3, #0]
     b80:	4b20      	ldr	r3, [pc, #128]	; (c04 <Judg_KEY_E+0x8c>)
     b82:	4798      	blx	r3
     b84:	2800      	cmp	r0, #0
     b86:	d003      	beq.n	b90 <Judg_KEY_E+0x18>
     b88:	4b1d      	ldr	r3, [pc, #116]	; (c00 <Judg_KEY_E+0x88>)
     b8a:	785b      	ldrb	r3, [r3, #1]
     b8c:	2b20      	cmp	r3, #32
     b8e:	d000      	beq.n	b92 <Judg_KEY_E+0x1a>
				Print_One_Form_List_Table(tmp_list_table_index, tmp_LORA_Dev_List_Index);
				uTXByte(Debug_COM, 0x0d);
			}
		}
	}
     b90:	bd70      	pop	{r4, r5, r6, pc}
		if(UserKeyInBufCount == 6 && UserKeyInBuf[5] == 0x0d)
     b92:	4b1d      	ldr	r3, [pc, #116]	; (c08 <Judg_KEY_E+0x90>)
     b94:	781b      	ldrb	r3, [r3, #0]
     b96:	2b06      	cmp	r3, #6
     b98:	d1fa      	bne.n	b90 <Judg_KEY_E+0x18>
     b9a:	4b19      	ldr	r3, [pc, #100]	; (c00 <Judg_KEY_E+0x88>)
     b9c:	795b      	ldrb	r3, [r3, #5]
     b9e:	2b0d      	cmp	r3, #13
     ba0:	d1f6      	bne.n	b90 <Judg_KEY_E+0x18>
			tmp_list_table_index =	Cal_list_table_index(UserKeyInBuf[2], UserKeyInBuf[3], UserKeyInBuf[4]);
     ba2:	4b17      	ldr	r3, [pc, #92]	; (c00 <Judg_KEY_E+0x88>)
     ba4:	791a      	ldrb	r2, [r3, #4]
     ba6:	78d9      	ldrb	r1, [r3, #3]
     ba8:	7898      	ldrb	r0, [r3, #2]
     baa:	4b18      	ldr	r3, [pc, #96]	; (c0c <Judg_KEY_E+0x94>)
     bac:	4798      	blx	r3
     bae:	b2c0      	uxtb	r0, r0
			tmp_list_table_index =  Search_list_table_index(tmp_list_table_index, tmp_LORA_Dev_List_Index);
     bb0:	0021      	movs	r1, r4
     bb2:	4b17      	ldr	r3, [pc, #92]	; (c10 <Judg_KEY_E+0x98>)
     bb4:	4798      	blx	r3
     bb6:	0005      	movs	r5, r0
			if(tmp_list_table_index != Not_found_Index)
     bb8:	28ff      	cmp	r0, #255	; 0xff
     bba:	d0e9      	beq.n	b90 <Judg_KEY_E+0x18>
				Print_Find_Msg();
     bbc:	4b15      	ldr	r3, [pc, #84]	; (c14 <Judg_KEY_E+0x9c>)
     bbe:	4798      	blx	r3
				Print_One_Form_List_Table(tmp_list_table_index, tmp_LORA_Dev_List_Index);
     bc0:	0021      	movs	r1, r4
     bc2:	0028      	movs	r0, r5
     bc4:	4b14      	ldr	r3, [pc, #80]	; (c18 <Judg_KEY_E+0xa0>)
     bc6:	4798      	blx	r3
				Print_Arrow_Right();
     bc8:	4b14      	ldr	r3, [pc, #80]	; (c1c <Judg_KEY_E+0xa4>)
     bca:	4798      	blx	r3
				if(tmp_LORA_Dev_List_Index[tmp_list_table_index].Dev_En_Flag == Dev_Dis)
     bcc:	012b      	lsls	r3, r5, #4
     bce:	18e3      	adds	r3, r4, r3
     bd0:	785a      	ldrb	r2, [r3, #1]
     bd2:	2a00      	cmp	r2, #0
     bd4:	d110      	bne.n	bf8 <Judg_KEY_E+0x80>
					tmp_LORA_Dev_List_Index[tmp_list_table_index].Dev_En_Flag = Dev_EN;
     bd6:	3201      	adds	r2, #1
     bd8:	705a      	strb	r2, [r3, #1]
				Save_List_in_NVM(tmp_LORA_Dev_List_Index);
     bda:	0020      	movs	r0, r4
     bdc:	4b10      	ldr	r3, [pc, #64]	; (c20 <Judg_KEY_E+0xa8>)
     bde:	4798      	blx	r3
				Load_List_Form_NVM(tmp_LORA_Dev_List_Index);
     be0:	0020      	movs	r0, r4
     be2:	4b10      	ldr	r3, [pc, #64]	; (c24 <Judg_KEY_E+0xac>)
     be4:	4798      	blx	r3
				Print_One_Form_List_Table(tmp_list_table_index, tmp_LORA_Dev_List_Index);
     be6:	0021      	movs	r1, r4
     be8:	0028      	movs	r0, r5
     bea:	4b0b      	ldr	r3, [pc, #44]	; (c18 <Judg_KEY_E+0xa0>)
     bec:	4798      	blx	r3
				uTXByte(Debug_COM, 0x0d);
     bee:	210d      	movs	r1, #13
     bf0:	480d      	ldr	r0, [pc, #52]	; (c28 <Judg_KEY_E+0xb0>)
     bf2:	4b0e      	ldr	r3, [pc, #56]	; (c2c <Judg_KEY_E+0xb4>)
     bf4:	4798      	blx	r3
     bf6:	e7cb      	b.n	b90 <Judg_KEY_E+0x18>
					tmp_LORA_Dev_List_Index[tmp_list_table_index].Dev_En_Flag = Dev_Dis;
     bf8:	2200      	movs	r2, #0
     bfa:	705a      	strb	r2, [r3, #1]
     bfc:	e7ed      	b.n	bda <Judg_KEY_E+0x62>
     bfe:	46c0      	nop			; (mov r8, r8)
     c00:	200002d4 	.word	0x200002d4
     c04:	0000283d 	.word	0x0000283d
     c08:	20000322 	.word	0x20000322
     c0c:	00002af1 	.word	0x00002af1
     c10:	00002f99 	.word	0x00002f99
     c14:	0000307d 	.word	0x0000307d
     c18:	000030f9 	.word	0x000030f9
     c1c:	000031ad 	.word	0x000031ad
     c20:	000024c1 	.word	0x000024c1
     c24:	0000255d 	.word	0x0000255d
     c28:	20000270 	.word	0x20000270
     c2c:	00002725 	.word	0x00002725

00000c30 <Print_List_Table>:
#include <stdio.h>
#include "myDefine.h"


void Print_List_Table(volatile LORA_Dev_List_t *tmp_LORA_Dev_List_Index)
{
     c30:	b5f0      	push	{r4, r5, r6, r7, lr}
     c32:	b083      	sub	sp, #12
     c34:	9001      	str	r0, [sp, #4]
	unsigned char i, tmp_count;
	tmp_count = 0;
     c36:	2700      	movs	r7, #0
	for ( i = 0; i < Dev_Item_MAX; i++)
     c38:	2400      	movs	r4, #0
	{
		Print_One_Form_List_Table(i, tmp_LORA_Dev_List_Index);
     c3a:	4d0c      	ldr	r5, [pc, #48]	; (c6c <Print_List_Table+0x3c>)
			uTXByte(Debug_COM, 0x0d);
			tmp_count = 0;
		}
		else
		{
			uTXByte(Debug_COM, 0x09);	
     c3c:	4e0c      	ldr	r6, [pc, #48]	; (c70 <Print_List_Table+0x40>)
     c3e:	e008      	b.n	c52 <Print_List_Table+0x22>
			uTXByte(Debug_COM, 0x0d);
     c40:	210d      	movs	r1, #13
     c42:	480c      	ldr	r0, [pc, #48]	; (c74 <Print_List_Table+0x44>)
     c44:	4b0a      	ldr	r3, [pc, #40]	; (c70 <Print_List_Table+0x40>)
     c46:	4798      	blx	r3
			tmp_count = 0;
     c48:	2700      	movs	r7, #0
	for ( i = 0; i < Dev_Item_MAX; i++)
     c4a:	3401      	adds	r4, #1
     c4c:	b2e4      	uxtb	r4, r4
     c4e:	2c64      	cmp	r4, #100	; 0x64
     c50:	d00a      	beq.n	c68 <Print_List_Table+0x38>
		Print_One_Form_List_Table(i, tmp_LORA_Dev_List_Index);
     c52:	9901      	ldr	r1, [sp, #4]
     c54:	0020      	movs	r0, r4
     c56:	47a8      	blx	r5
		if(tmp_count == 3)
     c58:	2f03      	cmp	r7, #3
     c5a:	d0f1      	beq.n	c40 <Print_List_Table+0x10>
			uTXByte(Debug_COM, 0x09);	
     c5c:	2109      	movs	r1, #9
     c5e:	4805      	ldr	r0, [pc, #20]	; (c74 <Print_List_Table+0x44>)
     c60:	47b0      	blx	r6
			tmp_count++;
     c62:	3701      	adds	r7, #1
     c64:	b2ff      	uxtb	r7, r7
     c66:	e7f0      	b.n	c4a <Print_List_Table+0x1a>
		}
	}
}
     c68:	b003      	add	sp, #12
     c6a:	bdf0      	pop	{r4, r5, r6, r7, pc}
     c6c:	000030f9 	.word	0x000030f9
     c70:	00002725 	.word	0x00002725
     c74:	20000270 	.word	0x20000270

00000c78 <Judg_KEY_L>:

void Judg_KEY_L(volatile LORA_Dev_List_t *tmp_LORA_Dev_List_Index)
{
     c78:	b510      	push	{r4, lr}
     c7a:	0004      	movs	r4, r0
	if(	ascii_to_hex(UserKeyInBuf[0]) == KEYL)
     c7c:	4b0c      	ldr	r3, [pc, #48]	; (cb0 <Judg_KEY_L+0x38>)
     c7e:	7818      	ldrb	r0, [r3, #0]
     c80:	4b0c      	ldr	r3, [pc, #48]	; (cb4 <Judg_KEY_L+0x3c>)
     c82:	4798      	blx	r3
     c84:	2815      	cmp	r0, #21
     c86:	d000      	beq.n	c8a <Judg_KEY_L+0x12>
			Load_List_Form_NVM(tmp_LORA_Dev_List_Index);
			Print_List_Table(tmp_LORA_Dev_List_Index);
			CMD_Index = CMD_NOP_Index;
		}
	}
     c88:	bd10      	pop	{r4, pc}
		if(UserKeyInBufCount == 2 && UserKeyInBuf[1] == 0x0d)
     c8a:	4b0b      	ldr	r3, [pc, #44]	; (cb8 <Judg_KEY_L+0x40>)
     c8c:	781b      	ldrb	r3, [r3, #0]
     c8e:	2b02      	cmp	r3, #2
     c90:	d1fa      	bne.n	c88 <Judg_KEY_L+0x10>
     c92:	4b07      	ldr	r3, [pc, #28]	; (cb0 <Judg_KEY_L+0x38>)
     c94:	785b      	ldrb	r3, [r3, #1]
     c96:	2b0d      	cmp	r3, #13
     c98:	d1f6      	bne.n	c88 <Judg_KEY_L+0x10>
			Load_List_Form_NVM(tmp_LORA_Dev_List_Index);
     c9a:	0020      	movs	r0, r4
     c9c:	4b07      	ldr	r3, [pc, #28]	; (cbc <Judg_KEY_L+0x44>)
     c9e:	4798      	blx	r3
			Print_List_Table(tmp_LORA_Dev_List_Index);
     ca0:	0020      	movs	r0, r4
     ca2:	4b07      	ldr	r3, [pc, #28]	; (cc0 <Judg_KEY_L+0x48>)
     ca4:	4798      	blx	r3
			CMD_Index = CMD_NOP_Index;
     ca6:	2200      	movs	r2, #0
     ca8:	4b06      	ldr	r3, [pc, #24]	; (cc4 <Judg_KEY_L+0x4c>)
     caa:	701a      	strb	r2, [r3, #0]
     cac:	e7ec      	b.n	c88 <Judg_KEY_L+0x10>
     cae:	46c0      	nop			; (mov r8, r8)
     cb0:	200002d4 	.word	0x200002d4
     cb4:	0000283d 	.word	0x0000283d
     cb8:	20000322 	.word	0x20000322
     cbc:	0000255d 	.word	0x0000255d
     cc0:	00000c31 	.word	0x00000c31
     cc4:	200027ac 	.word	0x200027ac

00000cc8 <Print_One_Form_Write_PLC_List_Table>:
#include <stdio.h>
#include "myDefine.h"


void Print_One_Form_Write_PLC_List_Table(volatile Write_PLC_List_t *tmp_Write_PLC_List_Index, unsigned int tmp_index)
{
     cc8:	b5f8      	push	{r3, r4, r5, r6, r7, lr}
     cca:	0004      	movs	r4, r0
     ccc:	000f      	movs	r7, r1
	unsigned char tmpIndex;
	uTXByte(Debug_COM, 'N');
     cce:	4d54      	ldr	r5, [pc, #336]	; (e20 <Print_One_Form_Write_PLC_List_Table+0x158>)
     cd0:	214e      	movs	r1, #78	; 0x4e
     cd2:	0028      	movs	r0, r5
     cd4:	4e53      	ldr	r6, [pc, #332]	; (e24 <Print_One_Form_Write_PLC_List_Table+0x15c>)
     cd6:	47b0      	blx	r6
	uTXByte(Debug_COM, 'o');
     cd8:	216f      	movs	r1, #111	; 0x6f
     cda:	0028      	movs	r0, r5
     cdc:	47b0      	blx	r6
	uTXByte(Debug_COM, '.');
     cde:	212e      	movs	r1, #46	; 0x2e
     ce0:	0028      	movs	r0, r5
     ce2:	47b0      	blx	r6
	uTXByte(Debug_COM, '(');
     ce4:	2128      	movs	r1, #40	; 0x28
     ce6:	0028      	movs	r0, r5
     ce8:	47b0      	blx	r6
	uart_send_word_for_ListNumber(Debug_COM, hex_to_bcd(tmp_index));
     cea:	0038      	movs	r0, r7
     cec:	4b4e      	ldr	r3, [pc, #312]	; (e28 <Print_One_Form_Write_PLC_List_Table+0x160>)
     cee:	4798      	blx	r3
     cf0:	0001      	movs	r1, r0
     cf2:	0028      	movs	r0, r5
     cf4:	4b4d      	ldr	r3, [pc, #308]	; (e2c <Print_One_Form_Write_PLC_List_Table+0x164>)
     cf6:	4798      	blx	r3
	uTXByte(Debug_COM, ')');
     cf8:	2129      	movs	r1, #41	; 0x29
     cfa:	0028      	movs	r0, r5
     cfc:	47b0      	blx	r6
	uTXByte(Debug_COM, ' ');
     cfe:	2120      	movs	r1, #32
     d00:	0028      	movs	r0, r5
     d02:	47b0      	blx	r6

	uTXByte(Debug_COM, '[');
     d04:	215b      	movs	r1, #91	; 0x5b
     d06:	0028      	movs	r0, r5
     d08:	47b0      	blx	r6
	if(tmp_Write_PLC_List_Index[tmp_index].MAC_ID_Index.word == 0xffff) //沒有設定過
     d0a:	00bf      	lsls	r7, r7, #2
     d0c:	19e4      	adds	r4, r4, r7
     d0e:	8823      	ldrh	r3, [r4, #0]
     d10:	b29b      	uxth	r3, r3
     d12:	4a47      	ldr	r2, [pc, #284]	; (e30 <Print_One_Form_Write_PLC_List_Table+0x168>)
     d14:	4293      	cmp	r3, r2
     d16:	d100      	bne.n	d1a <Print_One_Form_Write_PLC_List_Table+0x52>
     d18:	e069      	b.n	dee <Print_One_Form_Write_PLC_List_Table+0x126>
	{
		tmp_Write_PLC_List_Index[tmp_index].Channel_En = Dev_Dis;
	}
	if(tmp_Write_PLC_List_Index[tmp_index].Channel_En == Dev_Dis)
     d1a:	78e3      	ldrb	r3, [r4, #3]
     d1c:	2b00      	cmp	r3, #0
     d1e:	d000      	beq.n	d22 <Print_One_Form_Write_PLC_List_Table+0x5a>
     d20:	e068      	b.n	df4 <Print_One_Form_Write_PLC_List_Table+0x12c>
		Print_Disable_CMD_Msg();
     d22:	4b44      	ldr	r3, [pc, #272]	; (e34 <Print_One_Form_Write_PLC_List_Table+0x16c>)
     d24:	4798      	blx	r3
	else
		Print_Enable_CMD_Msg();
	uTXByte(Debug_COM, ']');
     d26:	4e3e      	ldr	r6, [pc, #248]	; (e20 <Print_One_Form_Write_PLC_List_Table+0x158>)
     d28:	215d      	movs	r1, #93	; 0x5d
     d2a:	0030      	movs	r0, r6
     d2c:	4d3d      	ldr	r5, [pc, #244]	; (e24 <Print_One_Form_Write_PLC_List_Table+0x15c>)
     d2e:	47a8      	blx	r5
	uTXByte(Debug_COM, ' ');
     d30:	2120      	movs	r1, #32
     d32:	0030      	movs	r0, r6
     d34:	47a8      	blx	r5
		
	uTXByte(Debug_COM, '(');
     d36:	2128      	movs	r1, #40	; 0x28
     d38:	0030      	movs	r0, r6
     d3a:	47a8      	blx	r5
	if(tmp_Write_PLC_List_Index[tmp_index].MAC_ID_Index.word == 0xffff)
     d3c:	8823      	ldrh	r3, [r4, #0]
     d3e:	b29b      	uxth	r3, r3
     d40:	4a3b      	ldr	r2, [pc, #236]	; (e30 <Print_One_Form_Write_PLC_List_Table+0x168>)
     d42:	4293      	cmp	r3, r2
     d44:	d059      	beq.n	dfa <Print_One_Form_Write_PLC_List_Table+0x132>
		uTXByte(Debug_COM, '_');
		uTXByte(Debug_COM, '_');
	}
	else
	{
		uart_send_word_for_ListNumber(Debug_COM, hex_to_bcd(tmp_Write_PLC_List_Index[tmp_index].MAC_ID_Index.word));	
     d46:	8820      	ldrh	r0, [r4, #0]
     d48:	b280      	uxth	r0, r0
     d4a:	4b37      	ldr	r3, [pc, #220]	; (e28 <Print_One_Form_Write_PLC_List_Table+0x160>)
     d4c:	4798      	blx	r3
     d4e:	0001      	movs	r1, r0
     d50:	4833      	ldr	r0, [pc, #204]	; (e20 <Print_One_Form_Write_PLC_List_Table+0x158>)
     d52:	4b36      	ldr	r3, [pc, #216]	; (e2c <Print_One_Form_Write_PLC_List_Table+0x164>)
     d54:	4798      	blx	r3
	}
	uTXByte(Debug_COM, ')');
     d56:	2129      	movs	r1, #41	; 0x29
     d58:	4831      	ldr	r0, [pc, #196]	; (e20 <Print_One_Form_Write_PLC_List_Table+0x158>)
     d5a:	4f32      	ldr	r7, [pc, #200]	; (e24 <Print_One_Form_Write_PLC_List_Table+0x15c>)
     d5c:	47b8      	blx	r7
	uTXByte(Debug_COM, ' ');
     d5e:	2120      	movs	r1, #32
     d60:	482f      	ldr	r0, [pc, #188]	; (e20 <Print_One_Form_Write_PLC_List_Table+0x158>)
     d62:	47b8      	blx	r7
	tmpIndex = (unsigned char *)tmp_Write_PLC_List_Index[tmp_index].MAC_ID_Index.word;
     d64:	8822      	ldrh	r2, [r4, #0]
	uart_send_ascii_byte(Debug_COM, dev_value[tmpIndex][3]);
     d66:	b2d2      	uxtb	r2, r2
     d68:	00d3      	lsls	r3, r2, #3
     d6a:	189b      	adds	r3, r3, r2
     d6c:	009b      	lsls	r3, r3, #2
     d6e:	189b      	adds	r3, r3, r2
     d70:	4e31      	ldr	r6, [pc, #196]	; (e38 <Print_One_Form_Write_PLC_List_Table+0x170>)
     d72:	18f6      	adds	r6, r6, r3
     d74:	78f1      	ldrb	r1, [r6, #3]
     d76:	482a      	ldr	r0, [pc, #168]	; (e20 <Print_One_Form_Write_PLC_List_Table+0x158>)
     d78:	4d30      	ldr	r5, [pc, #192]	; (e3c <Print_One_Form_Write_PLC_List_Table+0x174>)
     d7a:	47a8      	blx	r5
	uart_send_ascii_byte(Debug_COM, dev_value[tmpIndex][4]);
     d7c:	7931      	ldrb	r1, [r6, #4]
     d7e:	4828      	ldr	r0, [pc, #160]	; (e20 <Print_One_Form_Write_PLC_List_Table+0x158>)
     d80:	47a8      	blx	r5
	uart_send_ascii_byte(Debug_COM, dev_value[tmpIndex][5]);
     d82:	7971      	ldrb	r1, [r6, #5]
     d84:	4826      	ldr	r0, [pc, #152]	; (e20 <Print_One_Form_Write_PLC_List_Table+0x158>)
     d86:	47a8      	blx	r5
	uart_send_ascii_byte(Debug_COM, dev_value[tmpIndex][6]);
     d88:	79b1      	ldrb	r1, [r6, #6]
     d8a:	4825      	ldr	r0, [pc, #148]	; (e20 <Print_One_Form_Write_PLC_List_Table+0x158>)
     d8c:	47a8      	blx	r5
	
	
	uTXByte(Debug_COM, '-');
     d8e:	212d      	movs	r1, #45	; 0x2d
     d90:	4823      	ldr	r0, [pc, #140]	; (e20 <Print_One_Form_Write_PLC_List_Table+0x158>)
     d92:	47b8      	blx	r7
	uTXByte(Debug_COM, 'R');
     d94:	2152      	movs	r1, #82	; 0x52
     d96:	4822      	ldr	r0, [pc, #136]	; (e20 <Print_One_Form_Write_PLC_List_Table+0x158>)
     d98:	47b8      	blx	r7
	if(	tmp_Write_PLC_List_Index[tmp_index].MAC_ID_Index.word >= 0 &&
     d9a:	8823      	ldrh	r3, [r4, #0]
		tmp_Write_PLC_List_Index[tmp_index].MAC_ID_Index.word < 8 )
     d9c:	8823      	ldrh	r3, [r4, #0]
     d9e:	b29b      	uxth	r3, r3
	if(	tmp_Write_PLC_List_Index[tmp_index].MAC_ID_Index.word >= 0 &&
     da0:	2b07      	cmp	r3, #7
     da2:	d936      	bls.n	e12 <Print_One_Form_Write_PLC_List_Table+0x14a>
		uTXByte(Debug_COM, tmp_Write_PLC_List_Index[tmp_index].Channel_Index + 0x30);	
	else
		uTXByte(Debug_COM, '_');
     da4:	215f      	movs	r1, #95	; 0x5f
     da6:	481e      	ldr	r0, [pc, #120]	; (e20 <Print_One_Form_Write_PLC_List_Table+0x158>)
     da8:	4b1e      	ldr	r3, [pc, #120]	; (e24 <Print_One_Form_Write_PLC_List_Table+0x15c>)
     daa:	4798      	blx	r3

	// MAC ID INDEX
	// dev_value[MAC ID INDEX][Channel_Index]
	// dev_value[MAC ID INDEX][Channel_Index + 1]

	unsigned char tmp_i = tmp_Write_PLC_List_Index[tmp_index].MAC_ID_Index.word;
     dac:	8826      	ldrh	r6, [r4, #0]
     dae:	b2b6      	uxth	r6, r6
	unsigned char tmp_j = tmp_Write_PLC_List_Index[tmp_index].Channel_Index;
     db0:	78a4      	ldrb	r4, [r4, #2]
     db2:	b2e4      	uxtb	r4, r4
	tmp_j = tmp_j * 2;
	uTXByte(Debug_COM, ' ');
     db4:	4d1a      	ldr	r5, [pc, #104]	; (e20 <Print_One_Form_Write_PLC_List_Table+0x158>)
     db6:	2120      	movs	r1, #32
     db8:	0028      	movs	r0, r5
     dba:	4f1a      	ldr	r7, [pc, #104]	; (e24 <Print_One_Form_Write_PLC_List_Table+0x15c>)
     dbc:	47b8      	blx	r7
	uTXByte(Debug_COM, ':');
     dbe:	213a      	movs	r1, #58	; 0x3a
     dc0:	0028      	movs	r0, r5
     dc2:	47b8      	blx	r7
	uTXByte(Debug_COM, ' ');
     dc4:	2120      	movs	r1, #32
     dc6:	0028      	movs	r0, r5
     dc8:	47b8      	blx	r7
	uart_send_ascii_byte(Debug_COM, dev_value[tmp_i][8 + tmp_j]);
     dca:	b2f6      	uxtb	r6, r6
	tmp_j = tmp_j * 2;
     dcc:	0064      	lsls	r4, r4, #1
	uart_send_ascii_byte(Debug_COM, dev_value[tmp_i][8 + tmp_j]);
     dce:	b2e4      	uxtb	r4, r4
     dd0:	00f3      	lsls	r3, r6, #3
     dd2:	199b      	adds	r3, r3, r6
     dd4:	009b      	lsls	r3, r3, #2
     dd6:	199b      	adds	r3, r3, r6
     dd8:	4a17      	ldr	r2, [pc, #92]	; (e38 <Print_One_Form_Write_PLC_List_Table+0x170>)
     dda:	18d3      	adds	r3, r2, r3
     ddc:	191c      	adds	r4, r3, r4
     dde:	7a21      	ldrb	r1, [r4, #8]
     de0:	0028      	movs	r0, r5
     de2:	4e16      	ldr	r6, [pc, #88]	; (e3c <Print_One_Form_Write_PLC_List_Table+0x174>)
     de4:	47b0      	blx	r6
	uart_send_ascii_byte(Debug_COM, dev_value[tmp_i][9 + tmp_j]);	
     de6:	7a61      	ldrb	r1, [r4, #9]
     de8:	0028      	movs	r0, r5
     dea:	47b0      	blx	r6
}
     dec:	bdf8      	pop	{r3, r4, r5, r6, r7, pc}
		tmp_Write_PLC_List_Index[tmp_index].Channel_En = Dev_Dis;
     dee:	2300      	movs	r3, #0
     df0:	70e3      	strb	r3, [r4, #3]
     df2:	e792      	b.n	d1a <Print_One_Form_Write_PLC_List_Table+0x52>
		Print_Enable_CMD_Msg();
     df4:	4b12      	ldr	r3, [pc, #72]	; (e40 <Print_One_Form_Write_PLC_List_Table+0x178>)
     df6:	4798      	blx	r3
     df8:	e795      	b.n	d26 <Print_One_Form_Write_PLC_List_Table+0x5e>
		uTXByte(Debug_COM, '_');
     dfa:	4e09      	ldr	r6, [pc, #36]	; (e20 <Print_One_Form_Write_PLC_List_Table+0x158>)
     dfc:	215f      	movs	r1, #95	; 0x5f
     dfe:	0030      	movs	r0, r6
     e00:	4d08      	ldr	r5, [pc, #32]	; (e24 <Print_One_Form_Write_PLC_List_Table+0x15c>)
     e02:	47a8      	blx	r5
		uTXByte(Debug_COM, '_');
     e04:	215f      	movs	r1, #95	; 0x5f
     e06:	0030      	movs	r0, r6
     e08:	47a8      	blx	r5
		uTXByte(Debug_COM, '_');
     e0a:	215f      	movs	r1, #95	; 0x5f
     e0c:	0030      	movs	r0, r6
     e0e:	47a8      	blx	r5
     e10:	e7a1      	b.n	d56 <Print_One_Form_Write_PLC_List_Table+0x8e>
		uTXByte(Debug_COM, tmp_Write_PLC_List_Index[tmp_index].Channel_Index + 0x30);	
     e12:	78a1      	ldrb	r1, [r4, #2]
     e14:	3130      	adds	r1, #48	; 0x30
     e16:	b2c9      	uxtb	r1, r1
     e18:	4801      	ldr	r0, [pc, #4]	; (e20 <Print_One_Form_Write_PLC_List_Table+0x158>)
     e1a:	4b02      	ldr	r3, [pc, #8]	; (e24 <Print_One_Form_Write_PLC_List_Table+0x15c>)
     e1c:	4798      	blx	r3
     e1e:	e7c5      	b.n	dac <Print_One_Form_Write_PLC_List_Table+0xe4>
     e20:	20000270 	.word	0x20000270
     e24:	00002725 	.word	0x00002725
     e28:	000029e5 	.word	0x000029e5
     e2c:	00002805 	.word	0x00002805
     e30:	0000ffff 	.word	0x0000ffff
     e34:	000030a5 	.word	0x000030a5
     e38:	20001938 	.word	0x20001938
     e3c:	00002745 	.word	0x00002745
     e40:	00003091 	.word	0x00003091

00000e44 <Judg_KEY_P>:

//void Judg_KEY_P(volatile Write_PLC_List_t *tmp_Write_PLC_List_Index)
void Judg_KEY_P(void)
{
     e44:	b5f0      	push	{r4, r5, r6, r7, lr}
     e46:	46d6      	mov	lr, sl
     e48:	4647      	mov	r7, r8
     e4a:	b580      	push	{r7, lr}
     e4c:	b083      	sub	sp, #12
	volatile Write_PLC_List_t *tmp_Write_PLC_List_Index = Write_PLC_List_In_RAM;
	unsigned int tmp_index;
	unsigned char tmp_count;
	tmp_count = 0;
	if(	ascii_to_hex(UserKeyInBuf[0]) == KEYP && ascii_to_hex(UserKeyInBuf[1]) == KEYL)
     e4e:	4b83      	ldr	r3, [pc, #524]	; (105c <Judg_KEY_P+0x218>)
     e50:	7818      	ldrb	r0, [r3, #0]
     e52:	4b83      	ldr	r3, [pc, #524]	; (1060 <Judg_KEY_P+0x21c>)
     e54:	4798      	blx	r3
     e56:	2819      	cmp	r0, #25
     e58:	d00b      	beq.n	e72 <Judg_KEY_P+0x2e>
				}
				break;
		}		
	}
	
	if(ascii_to_hex(UserKeyInBuf[0]) == KEYP)
     e5a:	4b80      	ldr	r3, [pc, #512]	; (105c <Judg_KEY_P+0x218>)
     e5c:	7818      	ldrb	r0, [r3, #0]
     e5e:	4b80      	ldr	r3, [pc, #512]	; (1060 <Judg_KEY_P+0x21c>)
     e60:	4798      	blx	r3
     e62:	2819      	cmp	r0, #25
     e64:	d100      	bne.n	e68 <Judg_KEY_P+0x24>
     e66:	e09f      	b.n	fa8 <Judg_KEY_P+0x164>
				LORA02->PLC_Addr = tmp;
				CMD_Save_Func(LORA02);
				break;
		}
	}
}
     e68:	b003      	add	sp, #12
     e6a:	bc0c      	pop	{r2, r3}
     e6c:	4690      	mov	r8, r2
     e6e:	469a      	mov	sl, r3
     e70:	bdf0      	pop	{r4, r5, r6, r7, pc}
	if(	ascii_to_hex(UserKeyInBuf[0]) == KEYP && ascii_to_hex(UserKeyInBuf[1]) == KEYL)
     e72:	4b7a      	ldr	r3, [pc, #488]	; (105c <Judg_KEY_P+0x218>)
     e74:	7858      	ldrb	r0, [r3, #1]
     e76:	4b7a      	ldr	r3, [pc, #488]	; (1060 <Judg_KEY_P+0x21c>)
     e78:	4798      	blx	r3
     e7a:	2815      	cmp	r0, #21
     e7c:	d1ed      	bne.n	e5a <Judg_KEY_P+0x16>
		switch(UserKeyInBufCount)
     e7e:	4b79      	ldr	r3, [pc, #484]	; (1064 <Judg_KEY_P+0x220>)
     e80:	781b      	ldrb	r3, [r3, #0]
     e82:	2b08      	cmp	r3, #8
     e84:	d047      	beq.n	f16 <Judg_KEY_P+0xd2>
     e86:	2b0e      	cmp	r3, #14
     e88:	d00a      	beq.n	ea0 <Judg_KEY_P+0x5c>
     e8a:	2b03      	cmp	r3, #3
     e8c:	d1e5      	bne.n	e5a <Judg_KEY_P+0x16>
				if(UserKeyInBuf[2] != 0x0d)	{	break;	}
     e8e:	4b73      	ldr	r3, [pc, #460]	; (105c <Judg_KEY_P+0x218>)
     e90:	789b      	ldrb	r3, [r3, #2]
     e92:	2b0d      	cmp	r3, #13
     e94:	d1e1      	bne.n	e5a <Judg_KEY_P+0x16>
     e96:	2700      	movs	r7, #0
     e98:	2400      	movs	r4, #0
					Print_One_Form_Write_PLC_List_Table(tmp_Write_PLC_List_Index, i);
     e9a:	4d73      	ldr	r5, [pc, #460]	; (1068 <Judg_KEY_P+0x224>)
     e9c:	4e73      	ldr	r6, [pc, #460]	; (106c <Judg_KEY_P+0x228>)
     e9e:	e077      	b.n	f90 <Judg_KEY_P+0x14c>
				if(UserKeyInBuf[13] != 0x0d)	{	break;	}
     ea0:	4b6e      	ldr	r3, [pc, #440]	; (105c <Judg_KEY_P+0x218>)
     ea2:	7b5b      	ldrb	r3, [r3, #13]
     ea4:	2b0d      	cmp	r3, #13
     ea6:	d1d8      	bne.n	e5a <Judg_KEY_P+0x16>
				tmp_index =	Cal_list_table_index(UserKeyInBuf[3], UserKeyInBuf[4], UserKeyInBuf[5]);
     ea8:	4c6c      	ldr	r4, [pc, #432]	; (105c <Judg_KEY_P+0x218>)
     eaa:	7962      	ldrb	r2, [r4, #5]
     eac:	7921      	ldrb	r1, [r4, #4]
     eae:	78e0      	ldrb	r0, [r4, #3]
     eb0:	4d6f      	ldr	r5, [pc, #444]	; (1070 <Judg_KEY_P+0x22c>)
     eb2:	47a8      	blx	r5
				Print_One_Form_Write_PLC_List_Table(tmp_Write_PLC_List_Index, tmp_index);
     eb4:	4e6c      	ldr	r6, [pc, #432]	; (1068 <Judg_KEY_P+0x224>)
     eb6:	9001      	str	r0, [sp, #4]
     eb8:	0001      	movs	r1, r0
     eba:	0030      	movs	r0, r6
     ebc:	4f6b      	ldr	r7, [pc, #428]	; (106c <Judg_KEY_P+0x228>)
     ebe:	47b8      	blx	r7
				Print_Arrow_Right();
     ec0:	4b6c      	ldr	r3, [pc, #432]	; (1074 <Judg_KEY_P+0x230>)
     ec2:	4798      	blx	r3
				tmp_Write_PLC_List_Index[tmp_index].MAC_ID_Index.word = Cal_list_table_index(UserKeyInBuf[7], UserKeyInBuf[8], UserKeyInBuf[9]);
     ec4:	9b01      	ldr	r3, [sp, #4]
     ec6:	009b      	lsls	r3, r3, #2
     ec8:	4698      	mov	r8, r3
     eca:	44b0      	add	r8, r6
     ecc:	7a62      	ldrb	r2, [r4, #9]
     ece:	7a21      	ldrb	r1, [r4, #8]
     ed0:	79e0      	ldrb	r0, [r4, #7]
     ed2:	47a8      	blx	r5
     ed4:	b280      	uxth	r0, r0
     ed6:	4642      	mov	r2, r8
     ed8:	8010      	strh	r0, [r2, #0]
				tmp_Write_PLC_List_Index[tmp_index].Channel_Index = ascii_to_hex(UserKeyInBuf[11]) * 10 + ascii_to_hex(UserKeyInBuf[12]);
     eda:	7ae0      	ldrb	r0, [r4, #11]
     edc:	4a60      	ldr	r2, [pc, #384]	; (1060 <Judg_KEY_P+0x21c>)
     ede:	4692      	mov	sl, r2
     ee0:	4790      	blx	r2
     ee2:	0005      	movs	r5, r0
     ee4:	7b20      	ldrb	r0, [r4, #12]
     ee6:	47d0      	blx	sl
     ee8:	00ab      	lsls	r3, r5, #2
     eea:	18ed      	adds	r5, r5, r3
     eec:	006d      	lsls	r5, r5, #1
     eee:	1945      	adds	r5, r0, r5
     ef0:	b2ed      	uxtb	r5, r5
     ef2:	4642      	mov	r2, r8
     ef4:	7095      	strb	r5, [r2, #2]
				tmp_Write_PLC_List_Index[tmp_index].Channel_En = 0;
     ef6:	2300      	movs	r3, #0
     ef8:	70d3      	strb	r3, [r2, #3]
				Save_Write_PLC_List_in_NVM(tmp_Write_PLC_List_Index);
     efa:	0030      	movs	r0, r6
     efc:	4b5e      	ldr	r3, [pc, #376]	; (1078 <Judg_KEY_P+0x234>)
     efe:	4798      	blx	r3
				Load_Write_PLC_List_in_NVM(tmp_Write_PLC_List_Index);
     f00:	0030      	movs	r0, r6
     f02:	4b5e      	ldr	r3, [pc, #376]	; (107c <Judg_KEY_P+0x238>)
     f04:	4798      	blx	r3
				Print_One_Form_Write_PLC_List_Table(tmp_Write_PLC_List_Index, tmp_index);
     f06:	9901      	ldr	r1, [sp, #4]
     f08:	0030      	movs	r0, r6
     f0a:	47b8      	blx	r7
				uTXByte(Debug_COM, 0x0d);
     f0c:	210d      	movs	r1, #13
     f0e:	485c      	ldr	r0, [pc, #368]	; (1080 <Judg_KEY_P+0x23c>)
     f10:	4b5c      	ldr	r3, [pc, #368]	; (1084 <Judg_KEY_P+0x240>)
     f12:	4798      	blx	r3
				break;
     f14:	e7a1      	b.n	e5a <Judg_KEY_P+0x16>
				if(ascii_to_hex(UserKeyInBuf[2]) != KEYE)	{	break;	}
     f16:	4b51      	ldr	r3, [pc, #324]	; (105c <Judg_KEY_P+0x218>)
     f18:	7898      	ldrb	r0, [r3, #2]
     f1a:	4b51      	ldr	r3, [pc, #324]	; (1060 <Judg_KEY_P+0x21c>)
     f1c:	4798      	blx	r3
     f1e:	280e      	cmp	r0, #14
     f20:	d19b      	bne.n	e5a <Judg_KEY_P+0x16>
				if(UserKeyInBuf[7] != 0x0d)					{	break;	}
     f22:	4b4e      	ldr	r3, [pc, #312]	; (105c <Judg_KEY_P+0x218>)
     f24:	79db      	ldrb	r3, [r3, #7]
     f26:	2b0d      	cmp	r3, #13
     f28:	d197      	bne.n	e5a <Judg_KEY_P+0x16>
				tmp_index =	Cal_list_table_index(UserKeyInBuf[4], UserKeyInBuf[5], UserKeyInBuf[6]);
     f2a:	4b4c      	ldr	r3, [pc, #304]	; (105c <Judg_KEY_P+0x218>)
     f2c:	799a      	ldrb	r2, [r3, #6]
     f2e:	7959      	ldrb	r1, [r3, #5]
     f30:	7918      	ldrb	r0, [r3, #4]
     f32:	4b4f      	ldr	r3, [pc, #316]	; (1070 <Judg_KEY_P+0x22c>)
     f34:	4798      	blx	r3
     f36:	0005      	movs	r5, r0
				Print_One_Form_Write_PLC_List_Table(tmp_Write_PLC_List_Index, tmp_index);
     f38:	4c4b      	ldr	r4, [pc, #300]	; (1068 <Judg_KEY_P+0x224>)
     f3a:	0001      	movs	r1, r0
     f3c:	0020      	movs	r0, r4
     f3e:	4b4b      	ldr	r3, [pc, #300]	; (106c <Judg_KEY_P+0x228>)
     f40:	4798      	blx	r3
				Print_Arrow_Right();
     f42:	4b4c      	ldr	r3, [pc, #304]	; (1074 <Judg_KEY_P+0x230>)
     f44:	4798      	blx	r3
				if(tmp_Write_PLC_List_Index[tmp_index].Channel_En == Dev_Dis)
     f46:	00ab      	lsls	r3, r5, #2
     f48:	191b      	adds	r3, r3, r4
     f4a:	78da      	ldrb	r2, [r3, #3]
     f4c:	2a00      	cmp	r2, #0
     f4e:	d111      	bne.n	f74 <Judg_KEY_P+0x130>
					tmp_Write_PLC_List_Index[tmp_index].Channel_En = Dev_EN;	
     f50:	3201      	adds	r2, #1
     f52:	70da      	strb	r2, [r3, #3]
				Save_Write_PLC_List_in_NVM(tmp_Write_PLC_List_Index);
     f54:	4c44      	ldr	r4, [pc, #272]	; (1068 <Judg_KEY_P+0x224>)
     f56:	0020      	movs	r0, r4
     f58:	4b47      	ldr	r3, [pc, #284]	; (1078 <Judg_KEY_P+0x234>)
     f5a:	4798      	blx	r3
				Load_Write_PLC_List_in_NVM(tmp_Write_PLC_List_Index);
     f5c:	0020      	movs	r0, r4
     f5e:	4b47      	ldr	r3, [pc, #284]	; (107c <Judg_KEY_P+0x238>)
     f60:	4798      	blx	r3
				Print_One_Form_Write_PLC_List_Table(tmp_Write_PLC_List_Index, tmp_index);
     f62:	0029      	movs	r1, r5
     f64:	0020      	movs	r0, r4
     f66:	4b41      	ldr	r3, [pc, #260]	; (106c <Judg_KEY_P+0x228>)
     f68:	4798      	blx	r3
				uTXByte(Debug_COM, 0x0d);
     f6a:	210d      	movs	r1, #13
     f6c:	4844      	ldr	r0, [pc, #272]	; (1080 <Judg_KEY_P+0x23c>)
     f6e:	4b45      	ldr	r3, [pc, #276]	; (1084 <Judg_KEY_P+0x240>)
     f70:	4798      	blx	r3
				break;
     f72:	e772      	b.n	e5a <Judg_KEY_P+0x16>
					tmp_Write_PLC_List_Index[tmp_index].Channel_En = Dev_Dis;	
     f74:	2200      	movs	r2, #0
     f76:	70da      	strb	r2, [r3, #3]
     f78:	e7ec      	b.n	f54 <Judg_KEY_P+0x110>
						uTXByte(Debug_COM, 0x0d);
     f7a:	210d      	movs	r1, #13
     f7c:	4840      	ldr	r0, [pc, #256]	; (1080 <Judg_KEY_P+0x23c>)
     f7e:	4b41      	ldr	r3, [pc, #260]	; (1084 <Judg_KEY_P+0x240>)
     f80:	4798      	blx	r3
						tmp_count = 0;
     f82:	2400      	movs	r4, #0
				for(unsigned int i = 0; i < Write_PLC_List_Max; i++)
     f84:	3701      	adds	r7, #1
     f86:	2396      	movs	r3, #150	; 0x96
     f88:	009b      	lsls	r3, r3, #2
     f8a:	429f      	cmp	r7, r3
     f8c:	d100      	bne.n	f90 <Judg_KEY_P+0x14c>
     f8e:	e764      	b.n	e5a <Judg_KEY_P+0x16>
					Print_One_Form_Write_PLC_List_Table(tmp_Write_PLC_List_Index, i);
     f90:	0039      	movs	r1, r7
     f92:	0028      	movs	r0, r5
     f94:	47b0      	blx	r6
					if(tmp_count == 2)
     f96:	2c02      	cmp	r4, #2
     f98:	d0ef      	beq.n	f7a <Judg_KEY_P+0x136>
						uTXByte(Debug_COM, 0x09);
     f9a:	2109      	movs	r1, #9
     f9c:	4838      	ldr	r0, [pc, #224]	; (1080 <Judg_KEY_P+0x23c>)
     f9e:	4b39      	ldr	r3, [pc, #228]	; (1084 <Judg_KEY_P+0x240>)
     fa0:	4798      	blx	r3
						tmp_count++;
     fa2:	3401      	adds	r4, #1
     fa4:	b2e4      	uxtb	r4, r4
     fa6:	e7ed      	b.n	f84 <Judg_KEY_P+0x140>
		switch(UserKeyInBufCount)
     fa8:	4b2e      	ldr	r3, [pc, #184]	; (1064 <Judg_KEY_P+0x220>)
     faa:	781b      	ldrb	r3, [r3, #0]
     fac:	2b04      	cmp	r3, #4
     fae:	d020      	beq.n	ff2 <Judg_KEY_P+0x1ae>
     fb0:	2b06      	cmp	r3, #6
     fb2:	d000      	beq.n	fb6 <Judg_KEY_P+0x172>
     fb4:	e758      	b.n	e68 <Judg_KEY_P+0x24>
				if(ascii_to_hex(UserKeyInBuf[1]) != KEYA)	{	break;	}
     fb6:	4b29      	ldr	r3, [pc, #164]	; (105c <Judg_KEY_P+0x218>)
     fb8:	7858      	ldrb	r0, [r3, #1]
     fba:	4b29      	ldr	r3, [pc, #164]	; (1060 <Judg_KEY_P+0x21c>)
     fbc:	4798      	blx	r3
     fbe:	280a      	cmp	r0, #10
     fc0:	d000      	beq.n	fc4 <Judg_KEY_P+0x180>
     fc2:	e751      	b.n	e68 <Judg_KEY_P+0x24>
				if(UserKeyInBuf[5] != 0x0d)	{	break;	}
     fc4:	4b25      	ldr	r3, [pc, #148]	; (105c <Judg_KEY_P+0x218>)
     fc6:	795b      	ldrb	r3, [r3, #5]
     fc8:	2b0d      	cmp	r3, #13
     fca:	d000      	beq.n	fce <Judg_KEY_P+0x18a>
     fcc:	e74c      	b.n	e68 <Judg_KEY_P+0x24>
				tmp = ((ascii_to_hex(UserKeyInBuf[3]) * 10) + ascii_to_hex(UserKeyInBuf[4]));
     fce:	4e23      	ldr	r6, [pc, #140]	; (105c <Judg_KEY_P+0x218>)
     fd0:	78f0      	ldrb	r0, [r6, #3]
     fd2:	4d23      	ldr	r5, [pc, #140]	; (1060 <Judg_KEY_P+0x21c>)
     fd4:	47a8      	blx	r5
     fd6:	0004      	movs	r4, r0
     fd8:	7930      	ldrb	r0, [r6, #4]
     fda:	47a8      	blx	r5
     fdc:	00a3      	lsls	r3, r4, #2
     fde:	18e4      	adds	r4, r4, r3
     fe0:	0064      	lsls	r4, r4, #1
     fe2:	1904      	adds	r4, r0, r4
     fe4:	b2e4      	uxtb	r4, r4
				LORA02->PLC_Addr = tmp;
     fe6:	4b28      	ldr	r3, [pc, #160]	; (1088 <Judg_KEY_P+0x244>)
     fe8:	6818      	ldr	r0, [r3, #0]
     fea:	7444      	strb	r4, [r0, #17]
				CMD_Save_Func(LORA02);
     fec:	4b27      	ldr	r3, [pc, #156]	; (108c <Judg_KEY_P+0x248>)
     fee:	4798      	blx	r3
}
     ff0:	e73a      	b.n	e68 <Judg_KEY_P+0x24>
				if(ascii_to_hex(UserKeyInBuf[1]) != KEYL)	{	break;	}
     ff2:	4b1a      	ldr	r3, [pc, #104]	; (105c <Judg_KEY_P+0x218>)
     ff4:	7858      	ldrb	r0, [r3, #1]
     ff6:	4b1a      	ldr	r3, [pc, #104]	; (1060 <Judg_KEY_P+0x21c>)
     ff8:	4798      	blx	r3
     ffa:	2815      	cmp	r0, #21
     ffc:	d000      	beq.n	1000 <Judg_KEY_P+0x1bc>
     ffe:	e733      	b.n	e68 <Judg_KEY_P+0x24>
				if(ascii_to_hex(UserKeyInBuf[2]) != KEYC)	{	break;	}
    1000:	4b16      	ldr	r3, [pc, #88]	; (105c <Judg_KEY_P+0x218>)
    1002:	7898      	ldrb	r0, [r3, #2]
    1004:	4b16      	ldr	r3, [pc, #88]	; (1060 <Judg_KEY_P+0x21c>)
    1006:	4798      	blx	r3
    1008:	280c      	cmp	r0, #12
    100a:	d000      	beq.n	100e <Judg_KEY_P+0x1ca>
    100c:	e72c      	b.n	e68 <Judg_KEY_P+0x24>
				if(UserKeyInBuf[3] != 0x0d)	{	break;	}
    100e:	4b13      	ldr	r3, [pc, #76]	; (105c <Judg_KEY_P+0x218>)
    1010:	78db      	ldrb	r3, [r3, #3]
    1012:	2b0d      	cmp	r3, #13
    1014:	d000      	beq.n	1018 <Judg_KEY_P+0x1d4>
    1016:	e727      	b.n	e68 <Judg_KEY_P+0x24>
				uart_str("PLC: \0");
    1018:	481d      	ldr	r0, [pc, #116]	; (1090 <Judg_KEY_P+0x24c>)
    101a:	4b1e      	ldr	r3, [pc, #120]	; (1094 <Judg_KEY_P+0x250>)
    101c:	4798      	blx	r3
				if(LORA02->PLC_Flag == NeedPLC)
    101e:	4b1a      	ldr	r3, [pc, #104]	; (1088 <Judg_KEY_P+0x244>)
    1020:	681b      	ldr	r3, [r3, #0]
    1022:	7c1b      	ldrb	r3, [r3, #16]
    1024:	2b01      	cmp	r3, #1
    1026:	d010      	beq.n	104a <Judg_KEY_P+0x206>
					uart_str("ON\0");
    1028:	4819      	ldr	r0, [pc, #100]	; (1090 <Judg_KEY_P+0x24c>)
    102a:	3010      	adds	r0, #16
    102c:	4b19      	ldr	r3, [pc, #100]	; (1094 <Judg_KEY_P+0x250>)
    102e:	4798      	blx	r3
					LORA02->PLC_Flag = NeedPLC;
    1030:	4b15      	ldr	r3, [pc, #84]	; (1088 <Judg_KEY_P+0x244>)
    1032:	681b      	ldr	r3, [r3, #0]
    1034:	2201      	movs	r2, #1
    1036:	741a      	strb	r2, [r3, #16]
				uTXByte(Debug_COM, 0x0d);
    1038:	210d      	movs	r1, #13
    103a:	4811      	ldr	r0, [pc, #68]	; (1080 <Judg_KEY_P+0x23c>)
    103c:	4b11      	ldr	r3, [pc, #68]	; (1084 <Judg_KEY_P+0x240>)
    103e:	4798      	blx	r3
				CMD_Save_Func(LORA02);
    1040:	4b11      	ldr	r3, [pc, #68]	; (1088 <Judg_KEY_P+0x244>)
    1042:	6818      	ldr	r0, [r3, #0]
    1044:	4b11      	ldr	r3, [pc, #68]	; (108c <Judg_KEY_P+0x248>)
    1046:	4798      	blx	r3
				break;
    1048:	e70e      	b.n	e68 <Judg_KEY_P+0x24>
					uart_str("OFF\0");
    104a:	4811      	ldr	r0, [pc, #68]	; (1090 <Judg_KEY_P+0x24c>)
    104c:	3008      	adds	r0, #8
    104e:	4b11      	ldr	r3, [pc, #68]	; (1094 <Judg_KEY_P+0x250>)
    1050:	4798      	blx	r3
					LORA02->PLC_Flag = NoPLC;
    1052:	4b0d      	ldr	r3, [pc, #52]	; (1088 <Judg_KEY_P+0x244>)
    1054:	681b      	ldr	r3, [r3, #0]
    1056:	2200      	movs	r2, #0
    1058:	741a      	strb	r2, [r3, #16]
    105a:	e7ed      	b.n	1038 <Judg_KEY_P+0x1f4>
    105c:	200002d4 	.word	0x200002d4
    1060:	0000283d 	.word	0x0000283d
    1064:	20000322 	.word	0x20000322
    1068:	20000328 	.word	0x20000328
    106c:	00000cc9 	.word	0x00000cc9
    1070:	00002af1 	.word	0x00002af1
    1074:	000031ad 	.word	0x000031ad
    1078:	000025e9 	.word	0x000025e9
    107c:	00002691 	.word	0x00002691
    1080:	20000270 	.word	0x20000270
    1084:	00002725 	.word	0x00002725
    1088:	20000c90 	.word	0x20000c90
    108c:	00002b19 	.word	0x00002b19
    1090:	00006ca8 	.word	0x00006ca8
    1094:	00002ffd 	.word	0x00002ffd

00001098 <Judg_KEY_PDL>:
﻿#include <asf.h>
#include <stdio.h>
#include "myDefine.h"

void Judg_KEY_PDL(void)
{
    1098:	b5f8      	push	{r3, r4, r5, r6, r7, lr}
    109a:	46de      	mov	lr, fp
    109c:	4657      	mov	r7, sl
    109e:	464e      	mov	r6, r9
    10a0:	4645      	mov	r5, r8
    10a2:	b5e0      	push	{r5, r6, r7, lr}
	//UINT16u_t tmp16;
	volatile PLC_Dev_List_t *PLC_Dev_List_Index = PLC_D_Buf;
	
	if(	ascii_to_hex(UserKeyInBuf[0]) == KEYP &&
    10a4:	4b3a      	ldr	r3, [pc, #232]	; (1190 <Judg_KEY_PDL+0xf8>)
    10a6:	7818      	ldrb	r0, [r3, #0]
    10a8:	4b3a      	ldr	r3, [pc, #232]	; (1194 <Judg_KEY_PDL+0xfc>)
    10aa:	4798      	blx	r3
    10ac:	2819      	cmp	r0, #25
    10ae:	d005      	beq.n	10bc <Judg_KEY_PDL+0x24>
				uTXByte(Debug_COM, 0x0d);
				//k++;
			}
		}
	}
    10b0:	bc3c      	pop	{r2, r3, r4, r5}
    10b2:	4690      	mov	r8, r2
    10b4:	4699      	mov	r9, r3
    10b6:	46a2      	mov	sl, r4
    10b8:	46ab      	mov	fp, r5
    10ba:	bdf8      	pop	{r3, r4, r5, r6, r7, pc}
		ascii_to_hex(UserKeyInBuf[1]) == KEYD &&
    10bc:	4b34      	ldr	r3, [pc, #208]	; (1190 <Judg_KEY_PDL+0xf8>)
    10be:	7858      	ldrb	r0, [r3, #1]
    10c0:	4b34      	ldr	r3, [pc, #208]	; (1194 <Judg_KEY_PDL+0xfc>)
    10c2:	4798      	blx	r3
	if(	ascii_to_hex(UserKeyInBuf[0]) == KEYP &&
    10c4:	280d      	cmp	r0, #13
    10c6:	d1f3      	bne.n	10b0 <Judg_KEY_PDL+0x18>
		ascii_to_hex(UserKeyInBuf[2]) == KEYL )
    10c8:	4b31      	ldr	r3, [pc, #196]	; (1190 <Judg_KEY_PDL+0xf8>)
    10ca:	7898      	ldrb	r0, [r3, #2]
    10cc:	4b31      	ldr	r3, [pc, #196]	; (1194 <Judg_KEY_PDL+0xfc>)
    10ce:	4798      	blx	r3
		ascii_to_hex(UserKeyInBuf[1]) == KEYD &&
    10d0:	2815      	cmp	r0, #21
    10d2:	d1ed      	bne.n	10b0 <Judg_KEY_PDL+0x18>
		if(UserKeyInBufCount == 4 && UserKeyInBuf[3] == 0x0d)
    10d4:	4b30      	ldr	r3, [pc, #192]	; (1198 <Judg_KEY_PDL+0x100>)
    10d6:	781b      	ldrb	r3, [r3, #0]
    10d8:	2b04      	cmp	r3, #4
    10da:	d1e9      	bne.n	10b0 <Judg_KEY_PDL+0x18>
    10dc:	4b2c      	ldr	r3, [pc, #176]	; (1190 <Judg_KEY_PDL+0xf8>)
    10de:	78db      	ldrb	r3, [r3, #3]
    10e0:	2b0d      	cmp	r3, #13
    10e2:	d1e5      	bne.n	10b0 <Judg_KEY_PDL+0x18>
    10e4:	4b2d      	ldr	r3, [pc, #180]	; (119c <Judg_KEY_PDL+0x104>)
    10e6:	2500      	movs	r5, #0
				uart_str(" Flag[\0");
    10e8:	4698      	mov	r8, r3
    10ea:	e01f      	b.n	112c <Judg_KEY_PDL+0x94>
    10ec:	482c      	ldr	r0, [pc, #176]	; (11a0 <Judg_KEY_PDL+0x108>)
    10ee:	4e2d      	ldr	r6, [pc, #180]	; (11a4 <Judg_KEY_PDL+0x10c>)
    10f0:	47b0      	blx	r6
				uart_send_ascii_byte(Debug_COM, PLC_Dev_List_Index[i].Chage_Flag_Index);
    10f2:	465b      	mov	r3, fp
    10f4:	6859      	ldr	r1, [r3, #4]
    10f6:	b2c9      	uxtb	r1, r1
    10f8:	4c2b      	ldr	r4, [pc, #172]	; (11a8 <Judg_KEY_PDL+0x110>)
    10fa:	0020      	movs	r0, r4
    10fc:	4b2b      	ldr	r3, [pc, #172]	; (11ac <Judg_KEY_PDL+0x114>)
    10fe:	4798      	blx	r3
				uart_str("] = \0");
    1100:	482b      	ldr	r0, [pc, #172]	; (11b0 <Judg_KEY_PDL+0x118>)
    1102:	3018      	adds	r0, #24
    1104:	47b0      	blx	r6
				uTXByte(Debug_COM, PLC_D_Check_Equel_Flag[PLC_Dev_List_Index[i].Chage_Flag_Index] + 0x30);
    1106:	465b      	mov	r3, fp
    1108:	685b      	ldr	r3, [r3, #4]
    110a:	4a2a      	ldr	r2, [pc, #168]	; (11b4 <Judg_KEY_PDL+0x11c>)
    110c:	5cd1      	ldrb	r1, [r2, r3]
    110e:	3130      	adds	r1, #48	; 0x30
    1110:	b2c9      	uxtb	r1, r1
    1112:	0020      	movs	r0, r4
    1114:	4e28      	ldr	r6, [pc, #160]	; (11b8 <Judg_KEY_PDL+0x120>)
    1116:	47b0      	blx	r6
				uTXByte(Debug_COM, 0x0d);
    1118:	210d      	movs	r1, #13
    111a:	0020      	movs	r0, r4
    111c:	47b0      	blx	r6
    111e:	2338      	movs	r3, #56	; 0x38
    1120:	469c      	mov	ip, r3
    1122:	44e0      	add	r8, ip
			for(i = 0 ; i < PLC_D_Buf_Max; i = i + PLC_D_Buf_Print_Columns_Max)
    1124:	335f      	adds	r3, #95	; 0x5f
    1126:	33ff      	adds	r3, #255	; 0xff
    1128:	429d      	cmp	r5, r3
    112a:	d0c1      	beq.n	10b0 <Judg_KEY_PDL+0x18>
				uart_str("No.\0");
    112c:	4820      	ldr	r0, [pc, #128]	; (11b0 <Judg_KEY_PDL+0x118>)
    112e:	4b1d      	ldr	r3, [pc, #116]	; (11a4 <Judg_KEY_PDL+0x10c>)
    1130:	4798      	blx	r3
				uart_send_word(Debug_COM, PLC_Dev_List_Index[i].Chage_Flag_Index);
    1132:	46c3      	mov	fp, r8
    1134:	4643      	mov	r3, r8
    1136:	6859      	ldr	r1, [r3, #4]
    1138:	481b      	ldr	r0, [pc, #108]	; (11a8 <Judg_KEY_PDL+0x110>)
    113a:	4b20      	ldr	r3, [pc, #128]	; (11bc <Judg_KEY_PDL+0x124>)
    113c:	4798      	blx	r3
				uart_str("   \0");
    113e:	4820      	ldr	r0, [pc, #128]	; (11c0 <Judg_KEY_PDL+0x128>)
    1140:	4b18      	ldr	r3, [pc, #96]	; (11a4 <Judg_KEY_PDL+0x10c>)
    1142:	4798      	blx	r3
    1144:	1deb      	adds	r3, r5, #7
    1146:	469a      	mov	sl, r3
    1148:	4647      	mov	r7, r8
					uTXByte(Debug_COM, '[');
    114a:	4e1b      	ldr	r6, [pc, #108]	; (11b8 <Judg_KEY_PDL+0x120>)
					uart_send_word(Debug_COM, hex_to_bcd( i + j ));
    114c:	4b1d      	ldr	r3, [pc, #116]	; (11c4 <Judg_KEY_PDL+0x12c>)
    114e:	4699      	mov	r9, r3
					uTXByte(Debug_COM, '[');
    1150:	215b      	movs	r1, #91	; 0x5b
    1152:	4815      	ldr	r0, [pc, #84]	; (11a8 <Judg_KEY_PDL+0x110>)
    1154:	47b0      	blx	r6
					uart_send_word(Debug_COM, hex_to_bcd( i + j ));
    1156:	0028      	movs	r0, r5
    1158:	47c8      	blx	r9
    115a:	0001      	movs	r1, r0
    115c:	4812      	ldr	r0, [pc, #72]	; (11a8 <Judg_KEY_PDL+0x110>)
    115e:	4b17      	ldr	r3, [pc, #92]	; (11bc <Judg_KEY_PDL+0x124>)
    1160:	4798      	blx	r3
					uTXByte(Debug_COM, ']');
    1162:	215d      	movs	r1, #93	; 0x5d
    1164:	4810      	ldr	r0, [pc, #64]	; (11a8 <Judg_KEY_PDL+0x110>)
    1166:	47b0      	blx	r6
					uTXByte(Debug_COM, ' ');
    1168:	2120      	movs	r1, #32
    116a:	480f      	ldr	r0, [pc, #60]	; (11a8 <Judg_KEY_PDL+0x110>)
    116c:	47b0      	blx	r6
					uart_send_ascii_byte(Debug_COM, PLC_Dev_List_Index[i + j].DataBuf.byte[1]);
    116e:	7879      	ldrb	r1, [r7, #1]
    1170:	b2c9      	uxtb	r1, r1
    1172:	480d      	ldr	r0, [pc, #52]	; (11a8 <Judg_KEY_PDL+0x110>)
    1174:	4c0d      	ldr	r4, [pc, #52]	; (11ac <Judg_KEY_PDL+0x114>)
    1176:	47a0      	blx	r4
					uart_send_ascii_byte(Debug_COM, PLC_Dev_List_Index[i + j].DataBuf.byte[0]);
    1178:	7839      	ldrb	r1, [r7, #0]
    117a:	b2c9      	uxtb	r1, r1
    117c:	480a      	ldr	r0, [pc, #40]	; (11a8 <Judg_KEY_PDL+0x110>)
    117e:	47a0      	blx	r4
					uTXByte(Debug_COM, ' ');
    1180:	2120      	movs	r1, #32
    1182:	4809      	ldr	r0, [pc, #36]	; (11a8 <Judg_KEY_PDL+0x110>)
    1184:	47b0      	blx	r6
    1186:	3501      	adds	r5, #1
    1188:	3708      	adds	r7, #8
				for(j = 0 ; j < PLC_D_Buf_Print_Columns_Max; j++)
    118a:	4555      	cmp	r5, sl
    118c:	d1e0      	bne.n	1150 <Judg_KEY_PDL+0xb8>
    118e:	e7ad      	b.n	10ec <Judg_KEY_PDL+0x54>
    1190:	200002d4 	.word	0x200002d4
    1194:	0000283d 	.word	0x0000283d
    1198:	20000322 	.word	0x20000322
    119c:	20002808 	.word	0x20002808
    11a0:	00006ccc 	.word	0x00006ccc
    11a4:	00002ffd 	.word	0x00002ffd
    11a8:	20000270 	.word	0x20000270
    11ac:	00002745 	.word	0x00002745
    11b0:	00006cbc 	.word	0x00006cbc
    11b4:	20000220 	.word	0x20000220
    11b8:	00002725 	.word	0x00002725
    11bc:	000027b9 	.word	0x000027b9
    11c0:	00006cc4 	.word	0x00006cc4
    11c4:	000029e5 	.word	0x000029e5

000011c8 <Judg_KEY_PSHOW>:
﻿#include <asf.h>
#include <stdio.h>
#include "myDefine.h"

void Judg_KEY_PSHOW(void)
{
    11c8:	b510      	push	{r4, lr}
	//UINT16u_t tmp16;
	
	if(	ascii_to_hex(UserKeyInBuf[0]) == KEYP &&
    11ca:	4b25      	ldr	r3, [pc, #148]	; (1260 <Judg_KEY_PSHOW+0x98>)
    11cc:	7818      	ldrb	r0, [r3, #0]
    11ce:	4b25      	ldr	r3, [pc, #148]	; (1264 <Judg_KEY_PSHOW+0x9c>)
    11d0:	4798      	blx	r3
    11d2:	2819      	cmp	r0, #25
    11d4:	d000      	beq.n	11d8 <Judg_KEY_PSHOW+0x10>
					PLC_Show_r_Flag = true;
			}
		}
	}

    11d6:	bd10      	pop	{r4, pc}
		ascii_to_hex(UserKeyInBuf[1]) == KEYS &&
    11d8:	4b21      	ldr	r3, [pc, #132]	; (1260 <Judg_KEY_PSHOW+0x98>)
    11da:	7858      	ldrb	r0, [r3, #1]
    11dc:	4b21      	ldr	r3, [pc, #132]	; (1264 <Judg_KEY_PSHOW+0x9c>)
    11de:	4798      	blx	r3
	if(	ascii_to_hex(UserKeyInBuf[0]) == KEYP &&
    11e0:	281c      	cmp	r0, #28
    11e2:	d1f8      	bne.n	11d6 <Judg_KEY_PSHOW+0xe>
		ascii_to_hex(UserKeyInBuf[2]) == KEYH &&
    11e4:	4b1e      	ldr	r3, [pc, #120]	; (1260 <Judg_KEY_PSHOW+0x98>)
    11e6:	7898      	ldrb	r0, [r3, #2]
    11e8:	4b1e      	ldr	r3, [pc, #120]	; (1264 <Judg_KEY_PSHOW+0x9c>)
    11ea:	4798      	blx	r3
		ascii_to_hex(UserKeyInBuf[1]) == KEYS &&
    11ec:	2811      	cmp	r0, #17
    11ee:	d1f2      	bne.n	11d6 <Judg_KEY_PSHOW+0xe>
		ascii_to_hex(UserKeyInBuf[3]) == KEYO &&
    11f0:	4b1b      	ldr	r3, [pc, #108]	; (1260 <Judg_KEY_PSHOW+0x98>)
    11f2:	78d8      	ldrb	r0, [r3, #3]
    11f4:	4b1b      	ldr	r3, [pc, #108]	; (1264 <Judg_KEY_PSHOW+0x9c>)
    11f6:	4798      	blx	r3
		ascii_to_hex(UserKeyInBuf[2]) == KEYH &&
    11f8:	2818      	cmp	r0, #24
    11fa:	d1ec      	bne.n	11d6 <Judg_KEY_PSHOW+0xe>
		ascii_to_hex(UserKeyInBuf[4]) == KEYW)
    11fc:	4b18      	ldr	r3, [pc, #96]	; (1260 <Judg_KEY_PSHOW+0x98>)
    11fe:	7918      	ldrb	r0, [r3, #4]
    1200:	4b18      	ldr	r3, [pc, #96]	; (1264 <Judg_KEY_PSHOW+0x9c>)
    1202:	4798      	blx	r3
		ascii_to_hex(UserKeyInBuf[3]) == KEYO &&
    1204:	2820      	cmp	r0, #32
    1206:	d1e6      	bne.n	11d6 <Judg_KEY_PSHOW+0xe>
		if(UserKeyInBufCount == 7 && UserKeyInBuf[6] == 0x0d)
    1208:	4b17      	ldr	r3, [pc, #92]	; (1268 <Judg_KEY_PSHOW+0xa0>)
    120a:	781b      	ldrb	r3, [r3, #0]
    120c:	2b07      	cmp	r3, #7
    120e:	d1e2      	bne.n	11d6 <Judg_KEY_PSHOW+0xe>
    1210:	4b13      	ldr	r3, [pc, #76]	; (1260 <Judg_KEY_PSHOW+0x98>)
    1212:	799b      	ldrb	r3, [r3, #6]
    1214:	2b0d      	cmp	r3, #13
    1216:	d1de      	bne.n	11d6 <Judg_KEY_PSHOW+0xe>
			if(ascii_to_hex(UserKeyInBuf[5]) == KEYW)
    1218:	4b11      	ldr	r3, [pc, #68]	; (1260 <Judg_KEY_PSHOW+0x98>)
    121a:	7958      	ldrb	r0, [r3, #5]
    121c:	4b11      	ldr	r3, [pc, #68]	; (1264 <Judg_KEY_PSHOW+0x9c>)
    121e:	4798      	blx	r3
    1220:	2820      	cmp	r0, #32
    1222:	d10b      	bne.n	123c <Judg_KEY_PSHOW+0x74>
				if(PLC_Show_w_Flag == true)
    1224:	4b11      	ldr	r3, [pc, #68]	; (126c <Judg_KEY_PSHOW+0xa4>)
    1226:	781b      	ldrb	r3, [r3, #0]
    1228:	2b00      	cmp	r3, #0
    122a:	d003      	beq.n	1234 <Judg_KEY_PSHOW+0x6c>
					PLC_Show_w_Flag = false;
    122c:	2200      	movs	r2, #0
    122e:	4b0f      	ldr	r3, [pc, #60]	; (126c <Judg_KEY_PSHOW+0xa4>)
    1230:	701a      	strb	r2, [r3, #0]
    1232:	e7d0      	b.n	11d6 <Judg_KEY_PSHOW+0xe>
					PLC_Show_w_Flag = true;	
    1234:	2201      	movs	r2, #1
    1236:	4b0d      	ldr	r3, [pc, #52]	; (126c <Judg_KEY_PSHOW+0xa4>)
    1238:	701a      	strb	r2, [r3, #0]
    123a:	e7cc      	b.n	11d6 <Judg_KEY_PSHOW+0xe>
			else if(ascii_to_hex(UserKeyInBuf[5]) == KEYR)
    123c:	4b08      	ldr	r3, [pc, #32]	; (1260 <Judg_KEY_PSHOW+0x98>)
    123e:	7958      	ldrb	r0, [r3, #5]
    1240:	4b08      	ldr	r3, [pc, #32]	; (1264 <Judg_KEY_PSHOW+0x9c>)
    1242:	4798      	blx	r3
    1244:	281b      	cmp	r0, #27
    1246:	d1c6      	bne.n	11d6 <Judg_KEY_PSHOW+0xe>
				if(PLC_Show_r_Flag == true)
    1248:	4b09      	ldr	r3, [pc, #36]	; (1270 <Judg_KEY_PSHOW+0xa8>)
    124a:	781b      	ldrb	r3, [r3, #0]
    124c:	2b00      	cmp	r3, #0
    124e:	d003      	beq.n	1258 <Judg_KEY_PSHOW+0x90>
					PLC_Show_r_Flag = false;
    1250:	2200      	movs	r2, #0
    1252:	4b07      	ldr	r3, [pc, #28]	; (1270 <Judg_KEY_PSHOW+0xa8>)
    1254:	701a      	strb	r2, [r3, #0]
    1256:	e7be      	b.n	11d6 <Judg_KEY_PSHOW+0xe>
					PLC_Show_r_Flag = true;
    1258:	2201      	movs	r2, #1
    125a:	4b05      	ldr	r3, [pc, #20]	; (1270 <Judg_KEY_PSHOW+0xa8>)
    125c:	701a      	strb	r2, [r3, #0]
    125e:	e7ba      	b.n	11d6 <Judg_KEY_PSHOW+0xe>
    1260:	200002d4 	.word	0x200002d4
    1264:	0000283d 	.word	0x0000283d
    1268:	20000322 	.word	0x20000322
    126c:	20000c8a 	.word	0x20000c8a
    1270:	200027d6 	.word	0x200027d6

00001274 <Set_Lora_User_ID_Func>:
#include <stdio.h>
#include "myDefine.h"


void Set_Lora_User_ID_Func(volatile LORA_DEFINE_t *tmp_LORA)
{
    1274:	b5f8      	push	{r3, r4, r5, r6, r7, lr}
    1276:	46de      	mov	lr, fp
    1278:	4657      	mov	r7, sl
    127a:	464e      	mov	r6, r9
    127c:	4645      	mov	r5, r8
    127e:	b5e0      	push	{r5, r6, r7, lr}
    1280:	4681      	mov	r9, r0
	UINT8u_t tmp8;
	tmp8.HL.H = ascii_to_hex(UserKeyInBuf[4]);
    1282:	4b25      	ldr	r3, [pc, #148]	; (1318 <Set_Lora_User_ID_Func+0xa4>)
    1284:	469b      	mov	fp, r3
    1286:	7918      	ldrb	r0, [r3, #4]
    1288:	4b24      	ldr	r3, [pc, #144]	; (131c <Set_Lora_User_ID_Func+0xa8>)
    128a:	4698      	mov	r8, r3
    128c:	4798      	blx	r3
    128e:	270f      	movs	r7, #15
    1290:	0106      	lsls	r6, r0, #4
	tmp8.HL.L = ascii_to_hex(UserKeyInBuf[5]);
    1292:	465b      	mov	r3, fp
    1294:	7958      	ldrb	r0, [r3, #5]
    1296:	47c0      	blx	r8
    1298:	4038      	ands	r0, r7
    129a:	230f      	movs	r3, #15
    129c:	469a      	mov	sl, r3
    129e:	4306      	orrs	r6, r0
	tmp_LORA->MyLoRaID[0] = tmp8.byte;
    12a0:	b2f3      	uxtb	r3, r6
    12a2:	464a      	mov	r2, r9
    12a4:	7053      	strb	r3, [r2, #1]
	tmp8.HL.H = ascii_to_hex(UserKeyInBuf[6]);
    12a6:	465b      	mov	r3, fp
    12a8:	7998      	ldrb	r0, [r3, #6]
    12aa:	47c0      	blx	r8
    12ac:	0100      	lsls	r0, r0, #4
    12ae:	403e      	ands	r6, r7
    12b0:	4306      	orrs	r6, r0
	tmp8.HL.L = ascii_to_hex(UserKeyInBuf[7]);
    12b2:	465b      	mov	r3, fp
    12b4:	79d8      	ldrb	r0, [r3, #7]
    12b6:	47c0      	blx	r8
    12b8:	4038      	ands	r0, r7
    12ba:	4653      	mov	r3, sl
    12bc:	439e      	bics	r6, r3
    12be:	0035      	movs	r5, r6
    12c0:	4305      	orrs	r5, r0
	tmp_LORA->MyLoRaID[1] = tmp8.byte;
    12c2:	b2eb      	uxtb	r3, r5
    12c4:	464a      	mov	r2, r9
    12c6:	7093      	strb	r3, [r2, #2]
	tmp8.HL.H = ascii_to_hex(UserKeyInBuf[8]);
    12c8:	465b      	mov	r3, fp
    12ca:	7a18      	ldrb	r0, [r3, #8]
    12cc:	47c0      	blx	r8
    12ce:	0100      	lsls	r0, r0, #4
    12d0:	403d      	ands	r5, r7
    12d2:	4305      	orrs	r5, r0
	tmp8.HL.L = ascii_to_hex(UserKeyInBuf[9]);
    12d4:	465b      	mov	r3, fp
    12d6:	7a58      	ldrb	r0, [r3, #9]
    12d8:	47c0      	blx	r8
    12da:	4038      	ands	r0, r7
    12dc:	4653      	mov	r3, sl
    12de:	439d      	bics	r5, r3
    12e0:	002c      	movs	r4, r5
    12e2:	4304      	orrs	r4, r0
	tmp_LORA->MyLoRaID[2] = tmp8.byte;
    12e4:	b2e3      	uxtb	r3, r4
    12e6:	464a      	mov	r2, r9
    12e8:	70d3      	strb	r3, [r2, #3]
	tmp8.HL.H = ascii_to_hex(UserKeyInBuf[10]);
    12ea:	465b      	mov	r3, fp
    12ec:	7a98      	ldrb	r0, [r3, #10]
    12ee:	47c0      	blx	r8
    12f0:	0100      	lsls	r0, r0, #4
    12f2:	403c      	ands	r4, r7
    12f4:	4304      	orrs	r4, r0
	tmp8.HL.L = ascii_to_hex(UserKeyInBuf[11]);
    12f6:	465b      	mov	r3, fp
    12f8:	7ad8      	ldrb	r0, [r3, #11]
    12fa:	47c0      	blx	r8
    12fc:	4038      	ands	r0, r7
    12fe:	4653      	mov	r3, sl
    1300:	439c      	bics	r4, r3
    1302:	4320      	orrs	r0, r4
	tmp_LORA->MyLoRaID[3] = tmp8.byte;
    1304:	b2c0      	uxtb	r0, r0
    1306:	464b      	mov	r3, r9
    1308:	7118      	strb	r0, [r3, #4]
}
    130a:	bc3c      	pop	{r2, r3, r4, r5}
    130c:	4690      	mov	r8, r2
    130e:	4699      	mov	r9, r3
    1310:	46a2      	mov	sl, r4
    1312:	46ab      	mov	fp, r5
    1314:	bdf8      	pop	{r3, r4, r5, r6, r7, pc}
    1316:	46c0      	nop			; (mov r8, r8)
    1318:	200002d4 	.word	0x200002d4
    131c:	0000283d 	.word	0x0000283d

00001320 <Set_Lora_FQ_Func>:

void Set_Lora_FQ_Func(volatile LORA_DEFINE_t *tmp_LORA)
{
    1320:	b5f0      	push	{r4, r5, r6, r7, lr}
    1322:	46ce      	mov	lr, r9
    1324:	4647      	mov	r7, r8
    1326:	b580      	push	{r7, lr}
    1328:	b083      	sub	sp, #12
    132a:	0005      	movs	r5, r0
	UINT32u_t tmp_FQ;
	tmp_FQ.dword =  (ascii_to_hex(UserKeyInBuf[4]) * 10000);
    132c:	4b22      	ldr	r3, [pc, #136]	; (13b8 <Set_Lora_FQ_Func+0x98>)
    132e:	4698      	mov	r8, r3
    1330:	7918      	ldrb	r0, [r3, #4]
    1332:	4c22      	ldr	r4, [pc, #136]	; (13bc <Set_Lora_FQ_Func+0x9c>)
    1334:	47a0      	blx	r4
    1336:	0007      	movs	r7, r0
	tmp_FQ.dword += (ascii_to_hex(UserKeyInBuf[5]) * 1000);
    1338:	4643      	mov	r3, r8
    133a:	7958      	ldrb	r0, [r3, #5]
    133c:	47a0      	blx	r4
	tmp_FQ.dword =  (ascii_to_hex(UserKeyInBuf[4]) * 10000);
    133e:	4e20      	ldr	r6, [pc, #128]	; (13c0 <Set_Lora_FQ_Func+0xa0>)
    1340:	437e      	muls	r6, r7
	tmp_FQ.dword += (ascii_to_hex(UserKeyInBuf[5]) * 1000);
    1342:	23fa      	movs	r3, #250	; 0xfa
    1344:	009b      	lsls	r3, r3, #2
    1346:	4358      	muls	r0, r3
    1348:	1836      	adds	r6, r6, r0
	tmp_FQ.dword += (ascii_to_hex(UserKeyInBuf[6]) * 100);
    134a:	4643      	mov	r3, r8
    134c:	7998      	ldrb	r0, [r3, #6]
    134e:	47a0      	blx	r4
    1350:	4681      	mov	r9, r0
	tmp_FQ.dword += (ascii_to_hex(UserKeyInBuf[7]) * 10);
    1352:	4643      	mov	r3, r8
    1354:	79d8      	ldrb	r0, [r3, #7]
    1356:	47a0      	blx	r4
    1358:	0007      	movs	r7, r0
	tmp_FQ.dword +=  ascii_to_hex(UserKeyInBuf[8]);
    135a:	4643      	mov	r3, r8
    135c:	7a18      	ldrb	r0, [r3, #8]
    135e:	47a0      	blx	r4
	tmp_FQ.dword += (ascii_to_hex(UserKeyInBuf[6]) * 100);
    1360:	2464      	movs	r4, #100	; 0x64
    1362:	464b      	mov	r3, r9
    1364:	435c      	muls	r4, r3
	tmp_FQ.dword +=  ascii_to_hex(UserKeyInBuf[8]);
    1366:	1986      	adds	r6, r0, r6
    1368:	19a4      	adds	r4, r4, r6
	tmp_FQ.dword += (ascii_to_hex(UserKeyInBuf[7]) * 10);
    136a:	00bb      	lsls	r3, r7, #2
    136c:	19db      	adds	r3, r3, r7
    136e:	005b      	lsls	r3, r3, #1
	tmp_FQ.dword +=  ascii_to_hex(UserKeyInBuf[8]);
    1370:	18e4      	adds	r4, r4, r3
	uart_send_ascii_byte(Debug_COM, tmp_FQ.byte[2]);
    1372:	0223      	lsls	r3, r4, #8
    1374:	0e1b      	lsrs	r3, r3, #24
    1376:	4698      	mov	r8, r3
    1378:	466a      	mov	r2, sp
    137a:	71d3      	strb	r3, [r2, #7]
    137c:	79d1      	ldrb	r1, [r2, #7]
    137e:	4811      	ldr	r0, [pc, #68]	; (13c4 <Set_Lora_FQ_Func+0xa4>)
    1380:	4b11      	ldr	r3, [pc, #68]	; (13c8 <Set_Lora_FQ_Func+0xa8>)
    1382:	4699      	mov	r9, r3
    1384:	4798      	blx	r3
	uart_send_ascii_byte(Debug_COM, tmp_FQ.byte[1]);
    1386:	0426      	lsls	r6, r4, #16
    1388:	0e36      	lsrs	r6, r6, #24
    138a:	b2f1      	uxtb	r1, r6
    138c:	480d      	ldr	r0, [pc, #52]	; (13c4 <Set_Lora_FQ_Func+0xa4>)
    138e:	47c8      	blx	r9
	uart_send_ascii_byte(Debug_COM, tmp_FQ.byte[0]);
    1390:	b2e7      	uxtb	r7, r4
    1392:	0039      	movs	r1, r7
    1394:	480b      	ldr	r0, [pc, #44]	; (13c4 <Set_Lora_FQ_Func+0xa4>)
    1396:	47c8      	blx	r9
	tmp_LORA->MyLoRaFQ.dword = tmp_FQ.dword;
    1398:	616c      	str	r4, [r5, #20]
	tmp_LORA->MyLoRaTmp[Write_LoRa_Mode_FQ_Index][4] = tmp_FQ.byte[2];
    139a:	23c2      	movs	r3, #194	; 0xc2
    139c:	4642      	mov	r2, r8
    139e:	54ea      	strb	r2, [r5, r3]
	tmp_LORA->MyLoRaTmp[Write_LoRa_Mode_FQ_Index][5] = tmp_FQ.byte[1];
    13a0:	3301      	adds	r3, #1
    13a2:	54ee      	strb	r6, [r5, r3]
	tmp_LORA->MyLoRaTmp[Write_LoRa_Mode_FQ_Index][6] = tmp_FQ.byte[0];
    13a4:	3301      	adds	r3, #1
    13a6:	54ef      	strb	r7, [r5, r3]
	tmp_LORA->NowStatus = Write_LoRa_Setting_Index;
    13a8:	2204      	movs	r2, #4
    13aa:	4b08      	ldr	r3, [pc, #32]	; (13cc <Set_Lora_FQ_Func+0xac>)
    13ac:	54ea      	strb	r2, [r5, r3]
}
    13ae:	b003      	add	sp, #12
    13b0:	bc0c      	pop	{r2, r3}
    13b2:	4690      	mov	r8, r2
    13b4:	4699      	mov	r9, r3
    13b6:	bdf0      	pop	{r4, r5, r6, r7, pc}
    13b8:	200002d4 	.word	0x200002d4
    13bc:	0000283d 	.word	0x0000283d
    13c0:	00002710 	.word	0x00002710
    13c4:	20000270 	.word	0x20000270
    13c8:	00002745 	.word	0x00002745
    13cc:	0000021d 	.word	0x0000021d

000013d0 <Set_Lora_Power_Func>:

void Set_Lora_Power_Func(volatile LORA_DEFINE_t *tmp_LORA)
{
    13d0:	b5f8      	push	{r3, r4, r5, r6, r7, lr}
    13d2:	0005      	movs	r5, r0
	unsigned char tmp;
	tmp = ((ascii_to_hex(UserKeyInBuf[4]) * 10) + ascii_to_hex(UserKeyInBuf[5]) - 2);
    13d4:	4f0c      	ldr	r7, [pc, #48]	; (1408 <Set_Lora_Power_Func+0x38>)
    13d6:	7938      	ldrb	r0, [r7, #4]
    13d8:	4e0c      	ldr	r6, [pc, #48]	; (140c <Set_Lora_Power_Func+0x3c>)
    13da:	47b0      	blx	r6
    13dc:	0004      	movs	r4, r0
    13de:	7978      	ldrb	r0, [r7, #5]
    13e0:	47b0      	blx	r6
    13e2:	3802      	subs	r0, #2
    13e4:	00a3      	lsls	r3, r4, #2
    13e6:	18e4      	adds	r4, r4, r3
    13e8:	0064      	lsls	r4, r4, #1
    13ea:	1900      	adds	r0, r0, r4
    13ec:	b2c0      	uxtb	r0, r0
    13ee:	1c02      	adds	r2, r0, #0
    13f0:	280f      	cmp	r0, #15
    13f2:	d900      	bls.n	13f6 <Set_Lora_Power_Func+0x26>
    13f4:	220f      	movs	r2, #15
	if(tmp > 15) tmp = 15;
	tmp_LORA->MyLoRaTmp[Write_LoRa_Mode_FQ_Index][7] = tmp;
    13f6:	23c5      	movs	r3, #197	; 0xc5
    13f8:	54ea      	strb	r2, [r5, r3]
	tmp_LORA->MyLoRaPower = tmp_LORA->MyLoRaTmp[Write_LoRa_Mode_FQ_Index][7];
    13fa:	5ceb      	ldrb	r3, [r5, r3]
    13fc:	b2db      	uxtb	r3, r3
    13fe:	73ab      	strb	r3, [r5, #14]
	tmp_LORA->NowStatus = Write_LoRa_Setting_Index;
    1400:	2204      	movs	r2, #4
    1402:	4b03      	ldr	r3, [pc, #12]	; (1410 <Set_Lora_Power_Func+0x40>)
    1404:	54ea      	strb	r2, [r5, r3]
}
    1406:	bdf8      	pop	{r3, r4, r5, r6, r7, pc}
    1408:	200002d4 	.word	0x200002d4
    140c:	0000283d 	.word	0x0000283d
    1410:	0000021d 	.word	0x0000021d

00001414 <Set_Lora_SF_Func>:

void Set_Lora_SF_Func(volatile LORA_DEFINE_t *tmp_LORA)
{
    1414:	b5f8      	push	{r3, r4, r5, r6, r7, lr}
    1416:	0005      	movs	r5, r0
	unsigned char tmp;
	tmp = ((ascii_to_hex(UserKeyInBuf[4]) * 10) + ascii_to_hex(UserKeyInBuf[5]) - 5);
    1418:	4f0f      	ldr	r7, [pc, #60]	; (1458 <Set_Lora_SF_Func+0x44>)
    141a:	7938      	ldrb	r0, [r7, #4]
    141c:	4e0f      	ldr	r6, [pc, #60]	; (145c <Set_Lora_SF_Func+0x48>)
    141e:	47b0      	blx	r6
    1420:	0004      	movs	r4, r0
    1422:	7978      	ldrb	r0, [r7, #5]
    1424:	47b0      	blx	r6
    1426:	3805      	subs	r0, #5
    1428:	00a3      	lsls	r3, r4, #2
    142a:	18e4      	adds	r4, r4, r3
    142c:	0064      	lsls	r4, r4, #1
    142e:	1900      	adds	r0, r0, r4
    1430:	b2c0      	uxtb	r0, r0
    1432:	1c03      	adds	r3, r0, #0
    1434:	2801      	cmp	r0, #1
    1436:	d800      	bhi.n	143a <Set_Lora_SF_Func+0x26>
    1438:	2302      	movs	r3, #2
    143a:	1c1a      	adds	r2, r3, #0
    143c:	b2db      	uxtb	r3, r3
    143e:	2b07      	cmp	r3, #7
    1440:	d900      	bls.n	1444 <Set_Lora_SF_Func+0x30>
    1442:	2207      	movs	r2, #7
	if(tmp < 2)	tmp = 2;
	if(tmp > 7) tmp = 7;
	tmp_LORA->MyLoRaTmp[Write_LoRa_Setting_Index][5] = tmp;
    1444:	23de      	movs	r3, #222	; 0xde
    1446:	54ea      	strb	r2, [r5, r3]
	tmp_LORA->MyLoRaSF = tmp_LORA->MyLoRaTmp[Write_LoRa_Setting_Index][5];
    1448:	5ceb      	ldrb	r3, [r5, r3]
    144a:	b2db      	uxtb	r3, r3
    144c:	73eb      	strb	r3, [r5, #15]
	tmp_LORA->NowStatus = Write_LoRa_Setting_Index;
    144e:	2204      	movs	r2, #4
    1450:	4b03      	ldr	r3, [pc, #12]	; (1460 <Set_Lora_SF_Func+0x4c>)
    1452:	54ea      	strb	r2, [r5, r3]
}
    1454:	bdf8      	pop	{r3, r4, r5, r6, r7, pc}
    1456:	46c0      	nop			; (mov r8, r8)
    1458:	200002d4 	.word	0x200002d4
    145c:	0000283d 	.word	0x0000283d
    1460:	0000021d 	.word	0x0000021d

00001464 <Print_Lora_FW_ID_Func>:

void Print_Lora_FW_ID_Func(volatile LORA_DEFINE_t *tmp_LORA)
{
    1464:	b570      	push	{r4, r5, r6, lr}
    1466:	0004      	movs	r4, r0
	Print_Lora_number(tmp_LORA);
    1468:	4b0d      	ldr	r3, [pc, #52]	; (14a0 <Print_Lora_FW_ID_Func+0x3c>)
    146a:	4798      	blx	r3
	uTXByte(Debug_COM, 0x0d);
    146c:	4e0d      	ldr	r6, [pc, #52]	; (14a4 <Print_Lora_FW_ID_Func+0x40>)
    146e:	210d      	movs	r1, #13
    1470:	0030      	movs	r0, r6
    1472:	4d0d      	ldr	r5, [pc, #52]	; (14a8 <Print_Lora_FW_ID_Func+0x44>)
    1474:	47a8      	blx	r5
	Print_Line_Msg();
    1476:	4b0d      	ldr	r3, [pc, #52]	; (14ac <Print_Lora_FW_ID_Func+0x48>)
    1478:	4798      	blx	r3
	Print_Catch_LoRa_ID_Msg(tmp_LORA);
    147a:	0020      	movs	r0, r4
    147c:	4b0c      	ldr	r3, [pc, #48]	; (14b0 <Print_Lora_FW_ID_Func+0x4c>)
    147e:	4798      	blx	r3
	uTXByte(Debug_COM, ' ');
    1480:	2120      	movs	r1, #32
    1482:	0030      	movs	r0, r6
    1484:	47a8      	blx	r5
	uTXByte(Debug_COM, ' ');
    1486:	2120      	movs	r1, #32
    1488:	0030      	movs	r0, r6
    148a:	47a8      	blx	r5
	uTXByte(Debug_COM, ' ');
    148c:	2120      	movs	r1, #32
    148e:	0030      	movs	r0, r6
    1490:	47a8      	blx	r5
	Load_LoRa_Profile_in_NVM(tmp_LORA);
    1492:	0020      	movs	r0, r4
    1494:	4b07      	ldr	r3, [pc, #28]	; (14b4 <Print_Lora_FW_ID_Func+0x50>)
    1496:	4798      	blx	r3
	Print_Catch_LoRa_Setting_Msg(tmp_LORA);
    1498:	0020      	movs	r0, r4
    149a:	4b07      	ldr	r3, [pc, #28]	; (14b8 <Print_Lora_FW_ID_Func+0x54>)
    149c:	4798      	blx	r3
}
    149e:	bd70      	pop	{r4, r5, r6, pc}
    14a0:	00003021 	.word	0x00003021
    14a4:	20000270 	.word	0x20000270
    14a8:	00002725 	.word	0x00002725
    14ac:	0000304d 	.word	0x0000304d
    14b0:	00004c01 	.word	0x00004c01
    14b4:	0000204d 	.word	0x0000204d
    14b8:	00004cd9 	.word	0x00004cd9

000014bc <Judg_KEY_S>:

void Judg_KEY_S(void)
{
    14bc:	b510      	push	{r4, lr}
	if(ascii_to_hex(UserKeyInBuf[0]) == KEYS)
    14be:	4b60      	ldr	r3, [pc, #384]	; (1640 <Judg_KEY_S+0x184>)
    14c0:	7818      	ldrb	r0, [r3, #0]
    14c2:	4b60      	ldr	r3, [pc, #384]	; (1644 <Judg_KEY_S+0x188>)
    14c4:	4798      	blx	r3
    14c6:	281c      	cmp	r0, #28
    14c8:	d000      	beq.n	14cc <Judg_KEY_S+0x10>
				else if(ascii_to_hex(UserKeyInBuf[2]) == KEY2)	{	Set_Lora_User_ID_Func(LORA02);	CMD_Save_Func(LORA02);}
			}
			break;
		}
	}
    14ca:	bd10      	pop	{r4, pc}
		switch(ascii_to_hex(UserKeyInBuf[1]))
    14cc:	4b5c      	ldr	r3, [pc, #368]	; (1640 <Judg_KEY_S+0x184>)
    14ce:	7858      	ldrb	r0, [r3, #1]
    14d0:	4b5c      	ldr	r3, [pc, #368]	; (1644 <Judg_KEY_S+0x188>)
    14d2:	4798      	blx	r3
    14d4:	281c      	cmp	r0, #28
    14d6:	d8f8      	bhi.n	14ca <Judg_KEY_S+0xe>
    14d8:	0080      	lsls	r0, r0, #2
    14da:	4b5b      	ldr	r3, [pc, #364]	; (1648 <Judg_KEY_S+0x18c>)
    14dc:	581b      	ldr	r3, [r3, r0]
    14de:	469f      	mov	pc, r3
			if(UserKeyInBufCount == 3 && UserKeyInBuf[2] == 0x0d)
    14e0:	4b5a      	ldr	r3, [pc, #360]	; (164c <Judg_KEY_S+0x190>)
    14e2:	781b      	ldrb	r3, [r3, #0]
    14e4:	2b03      	cmp	r3, #3
    14e6:	d1f0      	bne.n	14ca <Judg_KEY_S+0xe>
    14e8:	4b55      	ldr	r3, [pc, #340]	; (1640 <Judg_KEY_S+0x184>)
    14ea:	789b      	ldrb	r3, [r3, #2]
    14ec:	2b0d      	cmp	r3, #13
    14ee:	d1ec      	bne.n	14ca <Judg_KEY_S+0xe>
				Print_Lora_FW_ID_Func(LORA01);
    14f0:	4b57      	ldr	r3, [pc, #348]	; (1650 <Judg_KEY_S+0x194>)
    14f2:	6818      	ldr	r0, [r3, #0]
    14f4:	4b57      	ldr	r3, [pc, #348]	; (1654 <Judg_KEY_S+0x198>)
    14f6:	4798      	blx	r3
    14f8:	e7e7      	b.n	14ca <Judg_KEY_S+0xe>
			if(UserKeyInBufCount == 3 && UserKeyInBuf[2] == 0x0d)
    14fa:	4b54      	ldr	r3, [pc, #336]	; (164c <Judg_KEY_S+0x190>)
    14fc:	781b      	ldrb	r3, [r3, #0]
    14fe:	2b03      	cmp	r3, #3
    1500:	d1e3      	bne.n	14ca <Judg_KEY_S+0xe>
    1502:	4b4f      	ldr	r3, [pc, #316]	; (1640 <Judg_KEY_S+0x184>)
    1504:	789b      	ldrb	r3, [r3, #2]
    1506:	2b0d      	cmp	r3, #13
    1508:	d1df      	bne.n	14ca <Judg_KEY_S+0xe>
				Print_Lora_FW_ID_Func(LORA02);
    150a:	4b53      	ldr	r3, [pc, #332]	; (1658 <Judg_KEY_S+0x19c>)
    150c:	6818      	ldr	r0, [r3, #0]
    150e:	4b51      	ldr	r3, [pc, #324]	; (1654 <Judg_KEY_S+0x198>)
    1510:	4798      	blx	r3
    1512:	e7da      	b.n	14ca <Judg_KEY_S+0xe>
			if(UserKeyInBufCount == 7 && UserKeyInBuf[6] == 0x0d)
    1514:	4b4d      	ldr	r3, [pc, #308]	; (164c <Judg_KEY_S+0x190>)
    1516:	781b      	ldrb	r3, [r3, #0]
    1518:	2b07      	cmp	r3, #7
    151a:	d1d6      	bne.n	14ca <Judg_KEY_S+0xe>
    151c:	4b48      	ldr	r3, [pc, #288]	; (1640 <Judg_KEY_S+0x184>)
    151e:	799b      	ldrb	r3, [r3, #6]
    1520:	2b0d      	cmp	r3, #13
    1522:	d1d2      	bne.n	14ca <Judg_KEY_S+0xe>
				if(ascii_to_hex(UserKeyInBuf[2]) == KEY1)		{	Set_Lora_SF_Func(LORA01);	CMD_Save_Func(LORA01);}
    1524:	4b46      	ldr	r3, [pc, #280]	; (1640 <Judg_KEY_S+0x184>)
    1526:	7898      	ldrb	r0, [r3, #2]
    1528:	4b46      	ldr	r3, [pc, #280]	; (1644 <Judg_KEY_S+0x188>)
    152a:	4798      	blx	r3
    152c:	2801      	cmp	r0, #1
    152e:	d00d      	beq.n	154c <Judg_KEY_S+0x90>
				else if(ascii_to_hex(UserKeyInBuf[2]) == KEY2)	{	Set_Lora_SF_Func(LORA02);	CMD_Save_Func(LORA02);}
    1530:	4b43      	ldr	r3, [pc, #268]	; (1640 <Judg_KEY_S+0x184>)
    1532:	7898      	ldrb	r0, [r3, #2]
    1534:	4b43      	ldr	r3, [pc, #268]	; (1644 <Judg_KEY_S+0x188>)
    1536:	4798      	blx	r3
    1538:	2802      	cmp	r0, #2
    153a:	d1c6      	bne.n	14ca <Judg_KEY_S+0xe>
    153c:	4c46      	ldr	r4, [pc, #280]	; (1658 <Judg_KEY_S+0x19c>)
    153e:	6820      	ldr	r0, [r4, #0]
    1540:	4b46      	ldr	r3, [pc, #280]	; (165c <Judg_KEY_S+0x1a0>)
    1542:	4798      	blx	r3
    1544:	6820      	ldr	r0, [r4, #0]
    1546:	4b46      	ldr	r3, [pc, #280]	; (1660 <Judg_KEY_S+0x1a4>)
    1548:	4798      	blx	r3
    154a:	e7be      	b.n	14ca <Judg_KEY_S+0xe>
				if(ascii_to_hex(UserKeyInBuf[2]) == KEY1)		{	Set_Lora_SF_Func(LORA01);	CMD_Save_Func(LORA01);}
    154c:	4c40      	ldr	r4, [pc, #256]	; (1650 <Judg_KEY_S+0x194>)
    154e:	6820      	ldr	r0, [r4, #0]
    1550:	4b42      	ldr	r3, [pc, #264]	; (165c <Judg_KEY_S+0x1a0>)
    1552:	4798      	blx	r3
    1554:	6820      	ldr	r0, [r4, #0]
    1556:	4b42      	ldr	r3, [pc, #264]	; (1660 <Judg_KEY_S+0x1a4>)
    1558:	4798      	blx	r3
    155a:	e7b6      	b.n	14ca <Judg_KEY_S+0xe>
			if(UserKeyInBufCount == 7 && UserKeyInBuf[6] == 0x0d)
    155c:	4b3b      	ldr	r3, [pc, #236]	; (164c <Judg_KEY_S+0x190>)
    155e:	781b      	ldrb	r3, [r3, #0]
    1560:	2b07      	cmp	r3, #7
    1562:	d1b2      	bne.n	14ca <Judg_KEY_S+0xe>
    1564:	4b36      	ldr	r3, [pc, #216]	; (1640 <Judg_KEY_S+0x184>)
    1566:	799b      	ldrb	r3, [r3, #6]
    1568:	2b0d      	cmp	r3, #13
    156a:	d1ae      	bne.n	14ca <Judg_KEY_S+0xe>
				if(ascii_to_hex(UserKeyInBuf[2]) == KEY1)		{	Set_Lora_Power_Func(LORA01);	CMD_Save_Func(LORA01);}
    156c:	4b34      	ldr	r3, [pc, #208]	; (1640 <Judg_KEY_S+0x184>)
    156e:	7898      	ldrb	r0, [r3, #2]
    1570:	4b34      	ldr	r3, [pc, #208]	; (1644 <Judg_KEY_S+0x188>)
    1572:	4798      	blx	r3
    1574:	2801      	cmp	r0, #1
    1576:	d00d      	beq.n	1594 <Judg_KEY_S+0xd8>
				else if(ascii_to_hex(UserKeyInBuf[2]) == KEY2)	{	Set_Lora_Power_Func(LORA02);	CMD_Save_Func(LORA02);}
    1578:	4b31      	ldr	r3, [pc, #196]	; (1640 <Judg_KEY_S+0x184>)
    157a:	7898      	ldrb	r0, [r3, #2]
    157c:	4b31      	ldr	r3, [pc, #196]	; (1644 <Judg_KEY_S+0x188>)
    157e:	4798      	blx	r3
    1580:	2802      	cmp	r0, #2
    1582:	d1a2      	bne.n	14ca <Judg_KEY_S+0xe>
    1584:	4c34      	ldr	r4, [pc, #208]	; (1658 <Judg_KEY_S+0x19c>)
    1586:	6820      	ldr	r0, [r4, #0]
    1588:	4b36      	ldr	r3, [pc, #216]	; (1664 <Judg_KEY_S+0x1a8>)
    158a:	4798      	blx	r3
    158c:	6820      	ldr	r0, [r4, #0]
    158e:	4b34      	ldr	r3, [pc, #208]	; (1660 <Judg_KEY_S+0x1a4>)
    1590:	4798      	blx	r3
    1592:	e79a      	b.n	14ca <Judg_KEY_S+0xe>
				if(ascii_to_hex(UserKeyInBuf[2]) == KEY1)		{	Set_Lora_Power_Func(LORA01);	CMD_Save_Func(LORA01);}
    1594:	4c2e      	ldr	r4, [pc, #184]	; (1650 <Judg_KEY_S+0x194>)
    1596:	6820      	ldr	r0, [r4, #0]
    1598:	4b32      	ldr	r3, [pc, #200]	; (1664 <Judg_KEY_S+0x1a8>)
    159a:	4798      	blx	r3
    159c:	6820      	ldr	r0, [r4, #0]
    159e:	4b30      	ldr	r3, [pc, #192]	; (1660 <Judg_KEY_S+0x1a4>)
    15a0:	4798      	blx	r3
    15a2:	e792      	b.n	14ca <Judg_KEY_S+0xe>
			if(UserKeyInBufCount == 10 && UserKeyInBuf[9] == 0x0d)
    15a4:	4b29      	ldr	r3, [pc, #164]	; (164c <Judg_KEY_S+0x190>)
    15a6:	781b      	ldrb	r3, [r3, #0]
    15a8:	2b0a      	cmp	r3, #10
    15aa:	d000      	beq.n	15ae <Judg_KEY_S+0xf2>
    15ac:	e78d      	b.n	14ca <Judg_KEY_S+0xe>
    15ae:	4b24      	ldr	r3, [pc, #144]	; (1640 <Judg_KEY_S+0x184>)
    15b0:	7a5b      	ldrb	r3, [r3, #9]
    15b2:	2b0d      	cmp	r3, #13
    15b4:	d000      	beq.n	15b8 <Judg_KEY_S+0xfc>
    15b6:	e788      	b.n	14ca <Judg_KEY_S+0xe>
				if(ascii_to_hex(UserKeyInBuf[2]) == KEY1)		{	Set_Lora_FQ_Func(LORA01);	CMD_Save_Func(LORA01);}
    15b8:	4b21      	ldr	r3, [pc, #132]	; (1640 <Judg_KEY_S+0x184>)
    15ba:	7898      	ldrb	r0, [r3, #2]
    15bc:	4b21      	ldr	r3, [pc, #132]	; (1644 <Judg_KEY_S+0x188>)
    15be:	4798      	blx	r3
    15c0:	2801      	cmp	r0, #1
    15c2:	d00e      	beq.n	15e2 <Judg_KEY_S+0x126>
				else if(ascii_to_hex(UserKeyInBuf[2]) == KEY2)	{	Set_Lora_FQ_Func(LORA02);	CMD_Save_Func(LORA02);}
    15c4:	4b1e      	ldr	r3, [pc, #120]	; (1640 <Judg_KEY_S+0x184>)
    15c6:	7898      	ldrb	r0, [r3, #2]
    15c8:	4b1e      	ldr	r3, [pc, #120]	; (1644 <Judg_KEY_S+0x188>)
    15ca:	4798      	blx	r3
    15cc:	2802      	cmp	r0, #2
    15ce:	d000      	beq.n	15d2 <Judg_KEY_S+0x116>
    15d0:	e77b      	b.n	14ca <Judg_KEY_S+0xe>
    15d2:	4c21      	ldr	r4, [pc, #132]	; (1658 <Judg_KEY_S+0x19c>)
    15d4:	6820      	ldr	r0, [r4, #0]
    15d6:	4b24      	ldr	r3, [pc, #144]	; (1668 <Judg_KEY_S+0x1ac>)
    15d8:	4798      	blx	r3
    15da:	6820      	ldr	r0, [r4, #0]
    15dc:	4b20      	ldr	r3, [pc, #128]	; (1660 <Judg_KEY_S+0x1a4>)
    15de:	4798      	blx	r3
    15e0:	e773      	b.n	14ca <Judg_KEY_S+0xe>
				if(ascii_to_hex(UserKeyInBuf[2]) == KEY1)		{	Set_Lora_FQ_Func(LORA01);	CMD_Save_Func(LORA01);}
    15e2:	4c1b      	ldr	r4, [pc, #108]	; (1650 <Judg_KEY_S+0x194>)
    15e4:	6820      	ldr	r0, [r4, #0]
    15e6:	4b20      	ldr	r3, [pc, #128]	; (1668 <Judg_KEY_S+0x1ac>)
    15e8:	4798      	blx	r3
    15ea:	6820      	ldr	r0, [r4, #0]
    15ec:	4b1c      	ldr	r3, [pc, #112]	; (1660 <Judg_KEY_S+0x1a4>)
    15ee:	4798      	blx	r3
    15f0:	e76b      	b.n	14ca <Judg_KEY_S+0xe>
			if(UserKeyInBufCount == 13 && UserKeyInBuf[12] == 0x0d)
    15f2:	4b16      	ldr	r3, [pc, #88]	; (164c <Judg_KEY_S+0x190>)
    15f4:	781b      	ldrb	r3, [r3, #0]
    15f6:	2b0d      	cmp	r3, #13
    15f8:	d000      	beq.n	15fc <Judg_KEY_S+0x140>
    15fa:	e766      	b.n	14ca <Judg_KEY_S+0xe>
    15fc:	4b10      	ldr	r3, [pc, #64]	; (1640 <Judg_KEY_S+0x184>)
    15fe:	7b1b      	ldrb	r3, [r3, #12]
    1600:	2b0d      	cmp	r3, #13
    1602:	d000      	beq.n	1606 <Judg_KEY_S+0x14a>
    1604:	e761      	b.n	14ca <Judg_KEY_S+0xe>
				if(ascii_to_hex(UserKeyInBuf[2]) == KEY1)		{	Set_Lora_User_ID_Func(LORA01);	CMD_Save_Func(LORA01);}
    1606:	4b0e      	ldr	r3, [pc, #56]	; (1640 <Judg_KEY_S+0x184>)
    1608:	7898      	ldrb	r0, [r3, #2]
    160a:	4b0e      	ldr	r3, [pc, #56]	; (1644 <Judg_KEY_S+0x188>)
    160c:	4798      	blx	r3
    160e:	2801      	cmp	r0, #1
    1610:	d00e      	beq.n	1630 <Judg_KEY_S+0x174>
				else if(ascii_to_hex(UserKeyInBuf[2]) == KEY2)	{	Set_Lora_User_ID_Func(LORA02);	CMD_Save_Func(LORA02);}
    1612:	4b0b      	ldr	r3, [pc, #44]	; (1640 <Judg_KEY_S+0x184>)
    1614:	7898      	ldrb	r0, [r3, #2]
    1616:	4b0b      	ldr	r3, [pc, #44]	; (1644 <Judg_KEY_S+0x188>)
    1618:	4798      	blx	r3
    161a:	2802      	cmp	r0, #2
    161c:	d000      	beq.n	1620 <Judg_KEY_S+0x164>
    161e:	e754      	b.n	14ca <Judg_KEY_S+0xe>
    1620:	4c0d      	ldr	r4, [pc, #52]	; (1658 <Judg_KEY_S+0x19c>)
    1622:	6820      	ldr	r0, [r4, #0]
    1624:	4b11      	ldr	r3, [pc, #68]	; (166c <Judg_KEY_S+0x1b0>)
    1626:	4798      	blx	r3
    1628:	6820      	ldr	r0, [r4, #0]
    162a:	4b0d      	ldr	r3, [pc, #52]	; (1660 <Judg_KEY_S+0x1a4>)
    162c:	4798      	blx	r3
    162e:	e74c      	b.n	14ca <Judg_KEY_S+0xe>
				if(ascii_to_hex(UserKeyInBuf[2]) == KEY1)		{	Set_Lora_User_ID_Func(LORA01);	CMD_Save_Func(LORA01);}
    1630:	4c07      	ldr	r4, [pc, #28]	; (1650 <Judg_KEY_S+0x194>)
    1632:	6820      	ldr	r0, [r4, #0]
    1634:	4b0d      	ldr	r3, [pc, #52]	; (166c <Judg_KEY_S+0x1b0>)
    1636:	4798      	blx	r3
    1638:	6820      	ldr	r0, [r4, #0]
    163a:	4b09      	ldr	r3, [pc, #36]	; (1660 <Judg_KEY_S+0x1a4>)
    163c:	4798      	blx	r3
    163e:	e744      	b.n	14ca <Judg_KEY_S+0xe>
    1640:	200002d4 	.word	0x200002d4
    1644:	0000283d 	.word	0x0000283d
    1648:	00006cdc 	.word	0x00006cdc
    164c:	20000322 	.word	0x20000322
    1650:	200018bc 	.word	0x200018bc
    1654:	00001465 	.word	0x00001465
    1658:	20000c90 	.word	0x20000c90
    165c:	00001415 	.word	0x00001415
    1660:	00002b19 	.word	0x00002b19
    1664:	000013d1 	.word	0x000013d1
    1668:	00001321 	.word	0x00001321
    166c:	00001275 	.word	0x00001275

00001670 <Judg_KEY_SHOW>:
﻿#include <asf.h>
#include <stdio.h>
#include "myDefine.h"

void Judg_KEY_SHOW(void)
{
    1670:	b510      	push	{r4, lr}
	//UINT16u_t tmp16;
	
	if(	ascii_to_hex(UserKeyInBuf[0]) == KEYS &&
    1672:	4b1a      	ldr	r3, [pc, #104]	; (16dc <Judg_KEY_SHOW+0x6c>)
    1674:	7818      	ldrb	r0, [r3, #0]
    1676:	4b1a      	ldr	r3, [pc, #104]	; (16e0 <Judg_KEY_SHOW+0x70>)
    1678:	4798      	blx	r3
    167a:	281c      	cmp	r0, #28
    167c:	d000      	beq.n	1680 <Judg_KEY_SHOW+0x10>
				LORA01->Lora_Show_Flag = true;
				LORA02->Lora_Show_Flag = true;
			}
		}
	}
    167e:	bd10      	pop	{r4, pc}
		ascii_to_hex(UserKeyInBuf[1]) == KEYH &&
    1680:	4b16      	ldr	r3, [pc, #88]	; (16dc <Judg_KEY_SHOW+0x6c>)
    1682:	7858      	ldrb	r0, [r3, #1]
    1684:	4b16      	ldr	r3, [pc, #88]	; (16e0 <Judg_KEY_SHOW+0x70>)
    1686:	4798      	blx	r3
	if(	ascii_to_hex(UserKeyInBuf[0]) == KEYS &&
    1688:	2811      	cmp	r0, #17
    168a:	d1f8      	bne.n	167e <Judg_KEY_SHOW+0xe>
		ascii_to_hex(UserKeyInBuf[2]) == KEYO &&
    168c:	4b13      	ldr	r3, [pc, #76]	; (16dc <Judg_KEY_SHOW+0x6c>)
    168e:	7898      	ldrb	r0, [r3, #2]
    1690:	4b13      	ldr	r3, [pc, #76]	; (16e0 <Judg_KEY_SHOW+0x70>)
    1692:	4798      	blx	r3
		ascii_to_hex(UserKeyInBuf[1]) == KEYH &&
    1694:	2818      	cmp	r0, #24
    1696:	d1f2      	bne.n	167e <Judg_KEY_SHOW+0xe>
		ascii_to_hex(UserKeyInBuf[3]) == KEYW)
    1698:	4b10      	ldr	r3, [pc, #64]	; (16dc <Judg_KEY_SHOW+0x6c>)
    169a:	78d8      	ldrb	r0, [r3, #3]
    169c:	4b10      	ldr	r3, [pc, #64]	; (16e0 <Judg_KEY_SHOW+0x70>)
    169e:	4798      	blx	r3
		ascii_to_hex(UserKeyInBuf[2]) == KEYO &&
    16a0:	2820      	cmp	r0, #32
    16a2:	d1ec      	bne.n	167e <Judg_KEY_SHOW+0xe>
		if(UserKeyInBufCount == 5 && UserKeyInBuf[4] == 0x0d)
    16a4:	4b0f      	ldr	r3, [pc, #60]	; (16e4 <Judg_KEY_SHOW+0x74>)
    16a6:	781b      	ldrb	r3, [r3, #0]
    16a8:	2b05      	cmp	r3, #5
    16aa:	d1e8      	bne.n	167e <Judg_KEY_SHOW+0xe>
    16ac:	4b0b      	ldr	r3, [pc, #44]	; (16dc <Judg_KEY_SHOW+0x6c>)
    16ae:	791b      	ldrb	r3, [r3, #4]
    16b0:	2b0d      	cmp	r3, #13
    16b2:	d1e4      	bne.n	167e <Judg_KEY_SHOW+0xe>
			if(LORA01->Lora_Show_Flag == true)
    16b4:	4b0c      	ldr	r3, [pc, #48]	; (16e8 <Judg_KEY_SHOW+0x78>)
    16b6:	681b      	ldr	r3, [r3, #0]
    16b8:	4a0c      	ldr	r2, [pc, #48]	; (16ec <Judg_KEY_SHOW+0x7c>)
    16ba:	5c9a      	ldrb	r2, [r3, r2]
    16bc:	2a01      	cmp	r2, #1
    16be:	d006      	beq.n	16ce <Judg_KEY_SHOW+0x5e>
				LORA01->Lora_Show_Flag = true;
    16c0:	4a0a      	ldr	r2, [pc, #40]	; (16ec <Judg_KEY_SHOW+0x7c>)
    16c2:	2101      	movs	r1, #1
    16c4:	5499      	strb	r1, [r3, r2]
				LORA02->Lora_Show_Flag = true;
    16c6:	4b0a      	ldr	r3, [pc, #40]	; (16f0 <Judg_KEY_SHOW+0x80>)
    16c8:	681b      	ldr	r3, [r3, #0]
    16ca:	5499      	strb	r1, [r3, r2]
    16cc:	e7d7      	b.n	167e <Judg_KEY_SHOW+0xe>
				LORA01->Lora_Show_Flag = false;
    16ce:	4a07      	ldr	r2, [pc, #28]	; (16ec <Judg_KEY_SHOW+0x7c>)
    16d0:	2100      	movs	r1, #0
    16d2:	5499      	strb	r1, [r3, r2]
				LORA02->Lora_Show_Flag = false;
    16d4:	4b06      	ldr	r3, [pc, #24]	; (16f0 <Judg_KEY_SHOW+0x80>)
    16d6:	681b      	ldr	r3, [r3, #0]
    16d8:	5499      	strb	r1, [r3, r2]
    16da:	e7d0      	b.n	167e <Judg_KEY_SHOW+0xe>
    16dc:	200002d4 	.word	0x200002d4
    16e0:	0000283d 	.word	0x0000283d
    16e4:	20000322 	.word	0x20000322
    16e8:	200018bc 	.word	0x200018bc
    16ec:	00000226 	.word	0x00000226
    16f0:	20000c90 	.word	0x20000c90

000016f4 <Judg_KEY_T>:
﻿#include <asf.h>
#include <stdio.h>
#include "myDefine.h"

void Judg_KEY_T(volatile LORA_Dev_List_t *tmp_LORA_Dev_List_Index)
{
    16f4:	b5f0      	push	{r4, r5, r6, r7, lr}
    16f6:	46c6      	mov	lr, r8
    16f8:	b500      	push	{lr}
    16fa:	b082      	sub	sp, #8
    16fc:	0004      	movs	r4, r0
	UINT16u_t tmp16;
	unsigned int tmp_sec_value;
	unsigned char tmp_list_table_index;
	
	if(	ascii_to_hex(UserKeyInBuf[0]) == KEYT && UserKeyInBuf[1] == ' ')
    16fe:	4b35      	ldr	r3, [pc, #212]	; (17d4 <Judg_KEY_T+0xe0>)
    1700:	7818      	ldrb	r0, [r3, #0]
    1702:	4b35      	ldr	r3, [pc, #212]	; (17d8 <Judg_KEY_T+0xe4>)
    1704:	4798      	blx	r3
    1706:	281d      	cmp	r0, #29
    1708:	d003      	beq.n	1712 <Judg_KEY_T+0x1e>
			Print_One_Form_List_Table(tmp_list_table_index, tmp_LORA_Dev_List_Index);
			uTXByte(Debug_COM, 0x0d);
			uTXByte(Debug_COM, 0x0d);
		}
	}
    170a:	b002      	add	sp, #8
    170c:	bc04      	pop	{r2}
    170e:	4690      	mov	r8, r2
    1710:	bdf0      	pop	{r4, r5, r6, r7, pc}
	if(	ascii_to_hex(UserKeyInBuf[0]) == KEYT && UserKeyInBuf[1] == ' ')
    1712:	4b30      	ldr	r3, [pc, #192]	; (17d4 <Judg_KEY_T+0xe0>)
    1714:	785b      	ldrb	r3, [r3, #1]
    1716:	2b20      	cmp	r3, #32
    1718:	d1f7      	bne.n	170a <Judg_KEY_T+0x16>
		if(UserKeyInBufCount == 11 && UserKeyInBuf[10] == 0x0d)
    171a:	4b30      	ldr	r3, [pc, #192]	; (17dc <Judg_KEY_T+0xe8>)
    171c:	781b      	ldrb	r3, [r3, #0]
    171e:	2b0b      	cmp	r3, #11
    1720:	d1f3      	bne.n	170a <Judg_KEY_T+0x16>
    1722:	4b2c      	ldr	r3, [pc, #176]	; (17d4 <Judg_KEY_T+0xe0>)
    1724:	7a9b      	ldrb	r3, [r3, #10]
    1726:	2b0d      	cmp	r3, #13
    1728:	d1ef      	bne.n	170a <Judg_KEY_T+0x16>
			tmp_sec_value  = ascii_to_hex(UserKeyInBuf[6]) * 1000;
    172a:	4e2a      	ldr	r6, [pc, #168]	; (17d4 <Judg_KEY_T+0xe0>)
    172c:	79b0      	ldrb	r0, [r6, #6]
    172e:	4d2a      	ldr	r5, [pc, #168]	; (17d8 <Judg_KEY_T+0xe4>)
    1730:	47a8      	blx	r5
    1732:	27fa      	movs	r7, #250	; 0xfa
    1734:	00bf      	lsls	r7, r7, #2
    1736:	4347      	muls	r7, r0
    1738:	46b8      	mov	r8, r7
			tmp_sec_value += ascii_to_hex(UserKeyInBuf[7]) * 100;
    173a:	79f0      	ldrb	r0, [r6, #7]
    173c:	47a8      	blx	r5
    173e:	2764      	movs	r7, #100	; 0x64
    1740:	4347      	muls	r7, r0
    1742:	4447      	add	r7, r8
			tmp_sec_value += ascii_to_hex(UserKeyInBuf[8]) * 10;
    1744:	7a30      	ldrb	r0, [r6, #8]
    1746:	47a8      	blx	r5
    1748:	4680      	mov	r8, r0
			tmp_sec_value += ascii_to_hex(UserKeyInBuf[9]);
    174a:	7a70      	ldrb	r0, [r6, #9]
    174c:	47a8      	blx	r5
    174e:	19c7      	adds	r7, r0, r7
			tmp_sec_value += ascii_to_hex(UserKeyInBuf[8]) * 10;
    1750:	4643      	mov	r3, r8
    1752:	009d      	lsls	r5, r3, #2
    1754:	4445      	add	r5, r8
    1756:	006d      	lsls	r5, r5, #1
			tmp_sec_value += ascii_to_hex(UserKeyInBuf[9]);
    1758:	19ed      	adds	r5, r5, r7
			tmp_list_table_index =	Cal_list_table_index(UserKeyInBuf[2], UserKeyInBuf[3], UserKeyInBuf[4]);
    175a:	7932      	ldrb	r2, [r6, #4]
    175c:	78f1      	ldrb	r1, [r6, #3]
    175e:	78b0      	ldrb	r0, [r6, #2]
    1760:	4b1f      	ldr	r3, [pc, #124]	; (17e0 <Judg_KEY_T+0xec>)
    1762:	4798      	blx	r3
    1764:	0007      	movs	r7, r0
    1766:	b2c3      	uxtb	r3, r0
    1768:	001e      	movs	r6, r3
			Print_Find_Msg();
    176a:	4b1e      	ldr	r3, [pc, #120]	; (17e4 <Judg_KEY_T+0xf0>)
    176c:	4798      	blx	r3
			Print_One_Form_List_Table(tmp_list_table_index, tmp_LORA_Dev_List_Index);
    176e:	0021      	movs	r1, r4
    1770:	9601      	str	r6, [sp, #4]
    1772:	0030      	movs	r0, r6
    1774:	4e1c      	ldr	r6, [pc, #112]	; (17e8 <Judg_KEY_T+0xf4>)
    1776:	47b0      	blx	r6
			Print_Arrow_Right();
    1778:	4b1c      	ldr	r3, [pc, #112]	; (17ec <Judg_KEY_T+0xf8>)
    177a:	4798      	blx	r3
    177c:	23ff      	movs	r3, #255	; 0xff
    177e:	401f      	ands	r7, r3
			tmp_LORA_Dev_List_Index[tmp_list_table_index].Dev_Time.byte[1] = tmp16.byte[1];
    1780:	013b      	lsls	r3, r7, #4
    1782:	18e3      	adds	r3, r4, r3
    1784:	042a      	lsls	r2, r5, #16
    1786:	0e12      	lsrs	r2, r2, #24
    1788:	725a      	strb	r2, [r3, #9]
			tmp_LORA_Dev_List_Index[tmp_list_table_index].Dev_Time.byte[0] = tmp16.byte[0];
    178a:	b2ed      	uxtb	r5, r5
    178c:	721d      	strb	r5, [r3, #8]
			dev_value[tmp_list_table_index][dev_value_Time_High] = tmp16.byte[1];
    178e:	00fb      	lsls	r3, r7, #3
    1790:	19db      	adds	r3, r3, r7
    1792:	009b      	lsls	r3, r3, #2
    1794:	19df      	adds	r7, r3, r7
    1796:	4b16      	ldr	r3, [pc, #88]	; (17f0 <Judg_KEY_T+0xfc>)
    1798:	19db      	adds	r3, r3, r7
    179a:	77da      	strb	r2, [r3, #31]
			dev_value[tmp_list_table_index][dev_value_Time_Low]  = tmp16.byte[0];
    179c:	001a      	movs	r2, r3
    179e:	3220      	adds	r2, #32
    17a0:	7015      	strb	r5, [r2, #0]
			dev_value[tmp_list_table_index][dev_value_Count_High] = 0;
    17a2:	0019      	movs	r1, r3
    17a4:	3121      	adds	r1, #33	; 0x21
    17a6:	2200      	movs	r2, #0
    17a8:	700a      	strb	r2, [r1, #0]
			dev_value[tmp_list_table_index][dev_value_Count_Low]  = 0;
    17aa:	3322      	adds	r3, #34	; 0x22
    17ac:	701a      	strb	r2, [r3, #0]
			Save_Dev_Time_into_NVM(tmp_LORA_Dev_List_Index);
    17ae:	0020      	movs	r0, r4
    17b0:	4b10      	ldr	r3, [pc, #64]	; (17f4 <Judg_KEY_T+0x100>)
    17b2:	4798      	blx	r3
			Load_Dev_Time_Form_NVM(tmp_LORA_Dev_List_Index);
    17b4:	0020      	movs	r0, r4
    17b6:	4b10      	ldr	r3, [pc, #64]	; (17f8 <Judg_KEY_T+0x104>)
    17b8:	4798      	blx	r3
			Print_One_Form_List_Table(tmp_list_table_index, tmp_LORA_Dev_List_Index);
    17ba:	0021      	movs	r1, r4
    17bc:	9801      	ldr	r0, [sp, #4]
    17be:	47b0      	blx	r6
			uTXByte(Debug_COM, 0x0d);
    17c0:	4d0e      	ldr	r5, [pc, #56]	; (17fc <Judg_KEY_T+0x108>)
    17c2:	210d      	movs	r1, #13
    17c4:	0028      	movs	r0, r5
    17c6:	4c0e      	ldr	r4, [pc, #56]	; (1800 <Judg_KEY_T+0x10c>)
    17c8:	47a0      	blx	r4
			uTXByte(Debug_COM, 0x0d);
    17ca:	210d      	movs	r1, #13
    17cc:	0028      	movs	r0, r5
    17ce:	47a0      	blx	r4
    17d0:	e79b      	b.n	170a <Judg_KEY_T+0x16>
    17d2:	46c0      	nop			; (mov r8, r8)
    17d4:	200002d4 	.word	0x200002d4
    17d8:	0000283d 	.word	0x0000283d
    17dc:	20000322 	.word	0x20000322
    17e0:	00002af1 	.word	0x00002af1
    17e4:	0000307d 	.word	0x0000307d
    17e8:	000030f9 	.word	0x000030f9
    17ec:	000031ad 	.word	0x000031ad
    17f0:	20001938 	.word	0x20001938
    17f4:	00001f51 	.word	0x00001f51
    17f8:	00001fd9 	.word	0x00001fd9
    17fc:	20000270 	.word	0x20000270
    1800:	00002725 	.word	0x00002725

00001804 <Dev_Value_inital>:
//=================================================

void Dev_Value_inital(void)
{
	// nop;
}
    1804:	4770      	bx	lr
	...

00001808 <LORA01_Reset_Func>:
{
	PortGroup *const port_base = port_get_group_from_gpio_pin(gpio_pin);
	uint32_t pin_mask  = (1UL << (gpio_pin % 32));

	/* Set the pin to high or low atomically based on the requested level */
	if (level) {
    1808:	2800      	cmp	r0, #0
    180a:	d104      	bne.n	1816 <LORA01_Reset_Func+0xe>
		port_base->OUTSET.reg = pin_mask;
	} else {
		port_base->OUTCLR.reg = pin_mask;
    180c:	2280      	movs	r2, #128	; 0x80
    180e:	0292      	lsls	r2, r2, #10
    1810:	4b03      	ldr	r3, [pc, #12]	; (1820 <LORA01_Reset_Func+0x18>)
    1812:	615a      	str	r2, [r3, #20]


void LORA01_Reset_Func(bool tmp_bool)
{
	port_pin_set_output_level(PIN_PA17, tmp_bool);
}
    1814:	4770      	bx	lr
		port_base->OUTSET.reg = pin_mask;
    1816:	2280      	movs	r2, #128	; 0x80
    1818:	0292      	lsls	r2, r2, #10
    181a:	4b01      	ldr	r3, [pc, #4]	; (1820 <LORA01_Reset_Func+0x18>)
    181c:	619a      	str	r2, [r3, #24]
    181e:	e7f9      	b.n	1814 <LORA01_Reset_Func+0xc>
    1820:	41004400 	.word	0x41004400

00001824 <LORA02_Reset_Func>:
	if (level) {
    1824:	2800      	cmp	r0, #0
    1826:	d104      	bne.n	1832 <LORA02_Reset_Func+0xe>
		port_base->OUTCLR.reg = pin_mask;
    1828:	2280      	movs	r2, #128	; 0x80
    182a:	0252      	lsls	r2, r2, #9
    182c:	4b03      	ldr	r3, [pc, #12]	; (183c <LORA02_Reset_Func+0x18>)
    182e:	615a      	str	r2, [r3, #20]

void LORA02_Reset_Func(bool tmp_bool)
{
	port_pin_set_output_level(PIN_PA16, tmp_bool);
}
    1830:	4770      	bx	lr
		port_base->OUTSET.reg = pin_mask;
    1832:	2280      	movs	r2, #128	; 0x80
    1834:	0252      	lsls	r2, r2, #9
    1836:	4b01      	ldr	r3, [pc, #4]	; (183c <LORA02_Reset_Func+0x18>)
    1838:	619a      	str	r2, [r3, #24]
    183a:	e7f9      	b.n	1830 <LORA02_Reset_Func+0xc>
    183c:	41004400 	.word	0x41004400

00001840 <LORA01_inital>:


void LORA01_inital(void)
{
	LORA01 = &NewLORA01;
    1840:	4b0e      	ldr	r3, [pc, #56]	; (187c <LORA01_inital+0x3c>)
    1842:	4a0f      	ldr	r2, [pc, #60]	; (1880 <LORA01_inital+0x40>)
    1844:	6013      	str	r3, [r2, #0]
	LORA01->DevUART = &MyUart03;
    1846:	4a0f      	ldr	r2, [pc, #60]	; (1884 <LORA01_inital+0x44>)
    1848:	619a      	str	r2, [r3, #24]
	LORA01->NVM_offset_Value = 0;
    184a:	2200      	movs	r2, #0
    184c:	218e      	movs	r1, #142	; 0x8e
    184e:	0089      	lsls	r1, r1, #2
    1850:	545a      	strb	r2, [r3, r1]
	LORA01->List_Now = 0;
    1852:	39de      	subs	r1, #222	; 0xde
    1854:	39ff      	subs	r1, #255	; 0xff
    1856:	545a      	strb	r2, [r3, r1]
	LORA01->List_Next = 0;
    1858:	3101      	adds	r1, #1
    185a:	545a      	strb	r2, [r3, r1]
	LORA01->NowStatus = Read_LoRa_ID_Index;
    185c:	490a      	ldr	r1, [pc, #40]	; (1888 <LORA01_inital+0x48>)
    185e:	545a      	strb	r2, [r3, r1]
	LORA01->LoRa_TxRx_Mode_Flag = SetNOP;
    1860:	2004      	movs	r0, #4
    1862:	490a      	ldr	r1, [pc, #40]	; (188c <LORA01_inital+0x4c>)
    1864:	5458      	strb	r0, [r3, r1]
	LORA01->LoRa_Tx_Send_Time_Out_Count = 0;
    1866:	3902      	subs	r1, #2
    1868:	545a      	strb	r2, [r3, r1]
	LORA01->LoRa_IRQ_Flag = 0;
    186a:	4909      	ldr	r1, [pc, #36]	; (1890 <LORA01_inital+0x50>)
    186c:	545a      	strb	r2, [r3, r1]
	LORA01->LoRa_Send_Tx_Flag = LoraTxNoSend;
    186e:	4909      	ldr	r1, [pc, #36]	; (1894 <LORA01_inital+0x54>)
    1870:	545a      	strb	r2, [r3, r1]
	LORA01->f_count = 0;
    1872:	3117      	adds	r1, #23
    1874:	505a      	str	r2, [r3, r1]
	LORA01->Lora_Show_Flag = false;
    1876:	4908      	ldr	r1, [pc, #32]	; (1898 <LORA01_inital+0x58>)
    1878:	545a      	strb	r2, [r3, r1]
}
    187a:	4770      	bx	lr
    187c:	20001670 	.word	0x20001670
    1880:	200018bc 	.word	0x200018bc
    1884:	200018f0 	.word	0x200018f0
    1888:	0000021d 	.word	0x0000021d
    188c:	0000022a 	.word	0x0000022a
    1890:	00000223 	.word	0x00000223
    1894:	00000225 	.word	0x00000225
    1898:	00000226 	.word	0x00000226

0000189c <LORA02_inital>:

void LORA02_inital(void)
{
    189c:	b570      	push	{r4, r5, r6, lr}
	LORA02 = &NewLORA02;
    189e:	4c15      	ldr	r4, [pc, #84]	; (18f4 <LORA02_inital+0x58>)
    18a0:	4815      	ldr	r0, [pc, #84]	; (18f8 <LORA02_inital+0x5c>)
    18a2:	6020      	str	r0, [r4, #0]
	LORA02->DevUART = &MyUart04;
    18a4:	4b15      	ldr	r3, [pc, #84]	; (18fc <LORA02_inital+0x60>)
    18a6:	6183      	str	r3, [r0, #24]
	LORA02->NVM_offset_Value = 20;
    18a8:	2214      	movs	r2, #20
    18aa:	238e      	movs	r3, #142	; 0x8e
    18ac:	009b      	lsls	r3, r3, #2
    18ae:	54c2      	strb	r2, [r0, r3]
	change_and_check(&(LORA02->NowStatus), Read_LoRa_ID_Index);
    18b0:	4b13      	ldr	r3, [pc, #76]	; (1900 <LORA02_inital+0x64>)
    18b2:	469c      	mov	ip, r3
    18b4:	4460      	add	r0, ip
    18b6:	2100      	movs	r1, #0
    18b8:	4d12      	ldr	r5, [pc, #72]	; (1904 <LORA02_inital+0x68>)
    18ba:	47a8      	blx	r5
	change_and_check(&(LORA02->LoRa_TxRx_Mode_Flag), SetRx);
    18bc:	6823      	ldr	r3, [r4, #0]
    18be:	4a12      	ldr	r2, [pc, #72]	; (1908 <LORA02_inital+0x6c>)
    18c0:	4694      	mov	ip, r2
    18c2:	4463      	add	r3, ip
    18c4:	0018      	movs	r0, r3
    18c6:	2103      	movs	r1, #3
    18c8:	47a8      	blx	r5
	change_and_check(&(LORA02->LoRa_Tx_Send_Time_Out_Count), 0);
    18ca:	6823      	ldr	r3, [r4, #0]
    18cc:	228a      	movs	r2, #138	; 0x8a
    18ce:	0092      	lsls	r2, r2, #2
    18d0:	4694      	mov	ip, r2
    18d2:	4463      	add	r3, ip
    18d4:	0018      	movs	r0, r3
    18d6:	2100      	movs	r1, #0
    18d8:	47a8      	blx	r5
	change_and_check(&(LORA02->LoRa_IRQ_Flag), 0);
    18da:	6823      	ldr	r3, [r4, #0]
    18dc:	4a0b      	ldr	r2, [pc, #44]	; (190c <LORA02_inital+0x70>)
    18de:	4694      	mov	ip, r2
    18e0:	4463      	add	r3, ip
    18e2:	0018      	movs	r0, r3
    18e4:	2100      	movs	r1, #0
    18e6:	47a8      	blx	r5
	LORA02->Lora_Show_Flag = true;
    18e8:	6822      	ldr	r2, [r4, #0]
    18ea:	2101      	movs	r1, #1
    18ec:	4b08      	ldr	r3, [pc, #32]	; (1910 <LORA02_inital+0x74>)
    18ee:	54d1      	strb	r1, [r2, r3]
}
    18f0:	bd70      	pop	{r4, r5, r6, pc}
    18f2:	46c0      	nop			; (mov r8, r8)
    18f4:	20000c90 	.word	0x20000c90
    18f8:	20000c98 	.word	0x20000c98
    18fc:	200027d8 	.word	0x200027d8
    1900:	0000021d 	.word	0x0000021d
    1904:	00004201 	.word	0x00004201
    1908:	0000022a 	.word	0x0000022a
    190c:	00000223 	.word	0x00000223
    1910:	00000226 	.word	0x00000226

00001914 <IO_init>:


void IO_init(void)
{
    1914:	b5f0      	push	{r4, r5, r6, r7, lr}
    1916:	b083      	sub	sp, #12
	config->input_pull = PORT_PIN_PULL_UP;
    1918:	ac01      	add	r4, sp, #4
    191a:	2301      	movs	r3, #1
    191c:	7063      	strb	r3, [r4, #1]
	config->powersave  = false;
    191e:	2700      	movs	r7, #0
    1920:	70a7      	strb	r7, [r4, #2]
	struct port_config pin_conf;
	port_get_config_defaults(&pin_conf);
	
	/* Configure LEDs as outputs, turn them off */
	
	pin_conf.direction  = PORT_PIN_DIR_OUTPUT;
    1922:	7023      	strb	r3, [r4, #0]
	//	RGB LED PIN DEFINE
	port_pin_set_config(PIN_PA23, &pin_conf);
    1924:	0021      	movs	r1, r4
    1926:	2017      	movs	r0, #23
    1928:	4e1e      	ldr	r6, [pc, #120]	; (19a4 <IO_init+0x90>)
    192a:	47b0      	blx	r6
		port_base->OUTSET.reg = pin_mask;
    192c:	4d1e      	ldr	r5, [pc, #120]	; (19a8 <IO_init+0x94>)
    192e:	2380      	movs	r3, #128	; 0x80
    1930:	041b      	lsls	r3, r3, #16
    1932:	61ab      	str	r3, [r5, #24]
	port_pin_set_output_level(PIN_PA23, true);
	port_pin_set_config(PIN_PA27, &pin_conf);
    1934:	0021      	movs	r1, r4
    1936:	201b      	movs	r0, #27
    1938:	47b0      	blx	r6
    193a:	2380      	movs	r3, #128	; 0x80
    193c:	051b      	lsls	r3, r3, #20
    193e:	61ab      	str	r3, [r5, #24]
	port_pin_set_output_level(PIN_PA27, true);
	port_pin_set_config(PIN_PA28, &pin_conf);
    1940:	0021      	movs	r1, r4
    1942:	201c      	movs	r0, #28
    1944:	47b0      	blx	r6
    1946:	2380      	movs	r3, #128	; 0x80
    1948:	055b      	lsls	r3, r3, #21
    194a:	61ab      	str	r3, [r5, #24]
	port_pin_set_output_level(PIN_PA28, true);
	
	port_pin_set_config(PIN_PA17, &pin_conf);
    194c:	0021      	movs	r1, r4
    194e:	2011      	movs	r0, #17
    1950:	47b0      	blx	r6
    1952:	2380      	movs	r3, #128	; 0x80
    1954:	029b      	lsls	r3, r3, #10
    1956:	61ab      	str	r3, [r5, #24]
	port_pin_set_output_level(PIN_PA17, true);
	port_pin_set_config(PIN_PA16, &pin_conf);
    1958:	0021      	movs	r1, r4
    195a:	2010      	movs	r0, #16
    195c:	47b0      	blx	r6
    195e:	2380      	movs	r3, #128	; 0x80
    1960:	025b      	lsls	r3, r3, #9
    1962:	61ab      	str	r3, [r5, #24]
	port_pin_set_output_level(PIN_PA16, true);

	
	pin_conf.direction  = PORT_PIN_DIR_INPUT;
    1964:	7027      	strb	r7, [r4, #0]
	port_pin_set_config(PIN_PA11, &pin_conf);
    1966:	0021      	movs	r1, r4
    1968:	200b      	movs	r0, #11
    196a:	47b0      	blx	r6
		port_base->OUTCLR.reg = pin_mask;
    196c:	2380      	movs	r3, #128	; 0x80
    196e:	011b      	lsls	r3, r3, #4
    1970:	616b      	str	r3, [r5, #20]
	port_pin_set_output_level(PIN_PA11, false);
	port_pin_set_config(PIN_PA07, &pin_conf);
    1972:	0021      	movs	r1, r4
    1974:	2007      	movs	r0, #7
    1976:	47b0      	blx	r6
    1978:	2380      	movs	r3, #128	; 0x80
    197a:	616b      	str	r3, [r5, #20]
	port_pin_set_output_level(PIN_PA07, false);
	
	// DIP SWITCH 4
	port_pin_set_config(PIN_PA22, &pin_conf);
    197c:	0021      	movs	r1, r4
    197e:	2016      	movs	r0, #22
    1980:	47b0      	blx	r6
    1982:	2380      	movs	r3, #128	; 0x80
    1984:	03db      	lsls	r3, r3, #15
    1986:	616b      	str	r3, [r5, #20]
	port_pin_set_output_level(PIN_PA22, false);
	
	port_pin_set_config(PIN_PA01, &pin_conf);
    1988:	0021      	movs	r1, r4
    198a:	2001      	movs	r0, #1
    198c:	47b0      	blx	r6
    198e:	2302      	movs	r3, #2
    1990:	616b      	str	r3, [r5, #20]
	port_pin_set_output_level(PIN_PA01, false);
	
	pin_conf.direction  = PORT_PIN_DIR_INPUT;
    1992:	7027      	strb	r7, [r4, #0]
	port_pin_set_config(PIN_PA10, &pin_conf);
    1994:	0021      	movs	r1, r4
    1996:	200a      	movs	r0, #10
    1998:	47b0      	blx	r6
    199a:	2380      	movs	r3, #128	; 0x80
    199c:	00db      	lsls	r3, r3, #3
    199e:	616b      	str	r3, [r5, #20]
	port_pin_set_output_level(PIN_PA10, false);	// ADC因為是用數位IO所以需要設定為輸入
}
    19a0:	b003      	add	sp, #12
    19a2:	bdf0      	pop	{r4, r5, r6, r7, pc}
    19a4:	000054dd 	.word	0x000054dd
    19a8:	41004400 	.word	0x41004400

000019ac <Print_FW_ID>:


void Print_FW_ID(void)
{
    19ac:	b510      	push	{r4, lr}
	uart_str("Master RS232: ");
    19ae:	4805      	ldr	r0, [pc, #20]	; (19c4 <Print_FW_ID+0x18>)
    19b0:	4b05      	ldr	r3, [pc, #20]	; (19c8 <Print_FW_ID+0x1c>)
    19b2:	4798      	blx	r3
	uart_send_word_for_ListNumber(Debug_COM, hex_to_bcd(Version));
    19b4:	2068      	movs	r0, #104	; 0x68
    19b6:	4b05      	ldr	r3, [pc, #20]	; (19cc <Print_FW_ID+0x20>)
    19b8:	4798      	blx	r3
    19ba:	0001      	movs	r1, r0
    19bc:	4804      	ldr	r0, [pc, #16]	; (19d0 <Print_FW_ID+0x24>)
    19be:	4b05      	ldr	r3, [pc, #20]	; (19d4 <Print_FW_ID+0x28>)
    19c0:	4798      	blx	r3
}
    19c2:	bd10      	pop	{r4, pc}
    19c4:	00006d50 	.word	0x00006d50
    19c8:	00002ffd 	.word	0x00002ffd
    19cc:	000029e5 	.word	0x000029e5
    19d0:	20000270 	.word	0x20000270
    19d4:	00002805 	.word	0x00002805

000019d8 <Wait_RX_IRQ_Index_Func>:
{
	
}

void Wait_RX_IRQ_Index_Func(volatile LORA_DEFINE_t *tmp_LORA)
{
    19d8:	b510      	push	{r4, lr}
    19da:	0004      	movs	r4, r0
	if(tmp_LORA == LORA01)	// Dev To Repeater
    19dc:	4b1b      	ldr	r3, [pc, #108]	; (1a4c <Wait_RX_IRQ_Index_Func+0x74>)
    19de:	681b      	ldr	r3, [r3, #0]
    19e0:	4283      	cmp	r3, r0
    19e2:	d004      	beq.n	19ee <Wait_RX_IRQ_Index_Func+0x16>
			LED_R_ON
			wdt_reset_count();
			change_and_check(&(tmp_LORA->NowStatus), Read_LoRa_RxBuffer_Index);
		}
	}
	else if(tmp_LORA == LORA02)	// Master To Repeater
    19e4:	4b1a      	ldr	r3, [pc, #104]	; (1a50 <Wait_RX_IRQ_Index_Func+0x78>)
    19e6:	681b      	ldr	r3, [r3, #0]
    19e8:	4298      	cmp	r0, r3
    19ea:	d01f      	beq.n	1a2c <Wait_RX_IRQ_Index_Func+0x54>
			LED_B_ON
			wdt_reset_count();
			change_and_check(&(tmp_LORA->NowStatus), Read_LoRa_RxBuffer_Index);
		}
	}
}
    19ec:	bd10      	pop	{r4, pc}
		if(tmp_LORA->f_count > Lora_Wait_RX_Delay_1000ms)
    19ee:	238f      	movs	r3, #143	; 0x8f
    19f0:	009b      	lsls	r3, r3, #2
    19f2:	58c2      	ldr	r2, [r0, r3]
    19f4:	4b17      	ldr	r3, [pc, #92]	; (1a54 <Wait_RX_IRQ_Index_Func+0x7c>)
    19f6:	429a      	cmp	r2, r3
    19f8:	d80f      	bhi.n	1a1a <Wait_RX_IRQ_Index_Func+0x42>
		if(tmp_LORA->LoRa_IRQ_Flag == 1)
    19fa:	4b17      	ldr	r3, [pc, #92]	; (1a58 <Wait_RX_IRQ_Index_Func+0x80>)
    19fc:	5cc3      	ldrb	r3, [r0, r3]
    19fe:	2b01      	cmp	r3, #1
    1a00:	d1f4      	bne.n	19ec <Wait_RX_IRQ_Index_Func+0x14>
    1a02:	2280      	movs	r2, #128	; 0x80
    1a04:	0552      	lsls	r2, r2, #21
    1a06:	4b15      	ldr	r3, [pc, #84]	; (1a5c <Wait_RX_IRQ_Index_Func+0x84>)
    1a08:	615a      	str	r2, [r3, #20]
			wdt_reset_count();
    1a0a:	4b15      	ldr	r3, [pc, #84]	; (1a60 <Wait_RX_IRQ_Index_Func+0x88>)
    1a0c:	4798      	blx	r3
			change_and_check(&(tmp_LORA->NowStatus), Read_LoRa_RxBuffer_Index);
    1a0e:	4b15      	ldr	r3, [pc, #84]	; (1a64 <Wait_RX_IRQ_Index_Func+0x8c>)
    1a10:	18e0      	adds	r0, r4, r3
    1a12:	2106      	movs	r1, #6
    1a14:	4b14      	ldr	r3, [pc, #80]	; (1a68 <Wait_RX_IRQ_Index_Func+0x90>)
    1a16:	4798      	blx	r3
    1a18:	e7e8      	b.n	19ec <Wait_RX_IRQ_Index_Func+0x14>
			Setting_Lora_To_Tx_Mode_Func(tmp_LORA);
    1a1a:	4b14      	ldr	r3, [pc, #80]	; (1a6c <Wait_RX_IRQ_Index_Func+0x94>)
    1a1c:	4798      	blx	r3
			tmp_LORA->LoRa_Tx_Send_Time_Out_Count++;
    1a1e:	228a      	movs	r2, #138	; 0x8a
    1a20:	0092      	lsls	r2, r2, #2
    1a22:	5ca3      	ldrb	r3, [r4, r2]
    1a24:	3301      	adds	r3, #1
    1a26:	b2db      	uxtb	r3, r3
    1a28:	54a3      	strb	r3, [r4, r2]
    1a2a:	e7df      	b.n	19ec <Wait_RX_IRQ_Index_Func+0x14>
		if(tmp_LORA->LoRa_IRQ_Flag == 1)
    1a2c:	4b0a      	ldr	r3, [pc, #40]	; (1a58 <Wait_RX_IRQ_Index_Func+0x80>)
    1a2e:	5cc3      	ldrb	r3, [r0, r3]
    1a30:	2b01      	cmp	r3, #1
    1a32:	d1db      	bne.n	19ec <Wait_RX_IRQ_Index_Func+0x14>
    1a34:	2280      	movs	r2, #128	; 0x80
    1a36:	0412      	lsls	r2, r2, #16
    1a38:	4b08      	ldr	r3, [pc, #32]	; (1a5c <Wait_RX_IRQ_Index_Func+0x84>)
    1a3a:	615a      	str	r2, [r3, #20]
			wdt_reset_count();
    1a3c:	4b08      	ldr	r3, [pc, #32]	; (1a60 <Wait_RX_IRQ_Index_Func+0x88>)
    1a3e:	4798      	blx	r3
			change_and_check(&(tmp_LORA->NowStatus), Read_LoRa_RxBuffer_Index);
    1a40:	4b08      	ldr	r3, [pc, #32]	; (1a64 <Wait_RX_IRQ_Index_Func+0x8c>)
    1a42:	18e0      	adds	r0, r4, r3
    1a44:	2106      	movs	r1, #6
    1a46:	4b08      	ldr	r3, [pc, #32]	; (1a68 <Wait_RX_IRQ_Index_Func+0x90>)
    1a48:	4798      	blx	r3
}
    1a4a:	e7cf      	b.n	19ec <Wait_RX_IRQ_Index_Func+0x14>
    1a4c:	200018bc 	.word	0x200018bc
    1a50:	20000c90 	.word	0x20000c90
    1a54:	000004e2 	.word	0x000004e2
    1a58:	00000223 	.word	0x00000223
    1a5c:	41004400 	.word	0x41004400
    1a60:	00003f4d 	.word	0x00003f4d
    1a64:	0000021d 	.word	0x0000021d
    1a68:	00004201 	.word	0x00004201
    1a6c:	00004215 	.word	0x00004215

00001a70 <Response_LORA01>:


unsigned char Dev_Buf_Write_Index;
void Response_LORA01(volatile LORA_DEFINE_t *tmp_LORA)
{
    1a70:	b570      	push	{r4, r5, r6, lr}
    1a72:	0004      	movs	r4, r0
	volatile LORA_Dev_List_t *LORA_Dev_List_Index = LORA_Dev_List_In_RAM;
	UINT16u_t Target, Source, tmp16;

	switch(tmp_LORA->NowStatus)
    1a74:	4b46      	ldr	r3, [pc, #280]	; (1b90 <Response_LORA01+0x120>)
    1a76:	5cc3      	ldrb	r3, [r0, r3]
    1a78:	b2db      	uxtb	r3, r3
    1a7a:	2b73      	cmp	r3, #115	; 0x73
    1a7c:	d063      	beq.n	1b46 <Response_LORA01+0xd6>
    1a7e:	2b74      	cmp	r3, #116	; 0x74
    1a80:	d052      	beq.n	1b28 <Response_LORA01+0xb8>
    1a82:	2b66      	cmp	r3, #102	; 0x66
    1a84:	d000      	beq.n	1a88 <Response_LORA01+0x18>
				Search_Dev_List_index(tmp_LORA);
				tmp_LORA->NowStatus = NOP_Index;
			}
			break;
	}
}
    1a86:	bd70      	pop	{r4, r5, r6, pc}
			if(	LORA_Dev_List_Index[tmp_LORA->List_Now].Now_Counter.word > 
    1a88:	3b0b      	subs	r3, #11
    1a8a:	5cc2      	ldrb	r2, [r0, r3]
    1a8c:	0112      	lsls	r2, r2, #4
    1a8e:	4941      	ldr	r1, [pc, #260]	; (1b94 <Response_LORA01+0x124>)
    1a90:	1852      	adds	r2, r2, r1
    1a92:	8992      	ldrh	r2, [r2, #12]
				LORA_Dev_List_Index[tmp_LORA->List_Now].Dev_Time.word)
    1a94:	5cc3      	ldrb	r3, [r0, r3]
    1a96:	011b      	lsls	r3, r3, #4
    1a98:	185b      	adds	r3, r3, r1
    1a9a:	8919      	ldrh	r1, [r3, #8]
    1a9c:	b292      	uxth	r2, r2
			if(	LORA_Dev_List_Index[tmp_LORA->List_Now].Now_Counter.word > 
    1a9e:	428a      	cmp	r2, r1
    1aa0:	d920      	bls.n	1ae4 <Response_LORA01+0x74>
				LORA_Dev_List_Index[tmp_LORA->List_Now].Now_Counter.word = 0;
    1aa2:	235b      	movs	r3, #91	; 0x5b
    1aa4:	5cc3      	ldrb	r3, [r0, r3]
    1aa6:	011b      	lsls	r3, r3, #4
    1aa8:	4a3a      	ldr	r2, [pc, #232]	; (1b94 <Response_LORA01+0x124>)
    1aaa:	189b      	adds	r3, r3, r2
    1aac:	2200      	movs	r2, #0
    1aae:	819a      	strh	r2, [r3, #12]
				Setting_Lora_To_Tx_Mode_Func(tmp_LORA);
    1ab0:	4b39      	ldr	r3, [pc, #228]	; (1b98 <Response_LORA01+0x128>)
    1ab2:	4798      	blx	r3
				if(tmp_LORA->Lora_Show_Flag == true)
    1ab4:	4b39      	ldr	r3, [pc, #228]	; (1b9c <Response_LORA01+0x12c>)
    1ab6:	5ce3      	ldrb	r3, [r4, r3]
    1ab8:	2b01      	cmp	r3, #1
    1aba:	d1e4      	bne.n	1a86 <Response_LORA01+0x16>
					Print_Lora_number(tmp_LORA);
    1abc:	0020      	movs	r0, r4
    1abe:	4b38      	ldr	r3, [pc, #224]	; (1ba0 <Response_LORA01+0x130>)
    1ac0:	4798      	blx	r3
					Print_Send_Dev_No_Msg(tmp_LORA);
    1ac2:	0020      	movs	r0, r4
    1ac4:	4b37      	ldr	r3, [pc, #220]	; (1ba4 <Response_LORA01+0x134>)
    1ac6:	4798      	blx	r3
					uTXByte(Debug_COM, 0x09);
    1ac8:	4d37      	ldr	r5, [pc, #220]	; (1ba8 <Response_LORA01+0x138>)
    1aca:	2109      	movs	r1, #9
    1acc:	0028      	movs	r0, r5
    1ace:	4c37      	ldr	r4, [pc, #220]	; (1bac <Response_LORA01+0x13c>)
    1ad0:	47a0      	blx	r4
					uart_str("Output: \0");
    1ad2:	4837      	ldr	r0, [pc, #220]	; (1bb0 <Response_LORA01+0x140>)
    1ad4:	4b37      	ldr	r3, [pc, #220]	; (1bb4 <Response_LORA01+0x144>)
    1ad6:	4798      	blx	r3
					Print_Write_Buffer();
    1ad8:	4b37      	ldr	r3, [pc, #220]	; (1bb8 <Response_LORA01+0x148>)
    1ada:	4798      	blx	r3
					uTXByte(Debug_COM, 0x0d);
    1adc:	210d      	movs	r1, #13
    1ade:	0028      	movs	r0, r5
    1ae0:	47a0      	blx	r4
    1ae2:	e7d0      	b.n	1a86 <Response_LORA01+0x16>
				Search_Dev_List_index(tmp_LORA);
    1ae4:	4b35      	ldr	r3, [pc, #212]	; (1bbc <Response_LORA01+0x14c>)
    1ae6:	4798      	blx	r3
				if(Dev_Buf_Write_Index == 0)
    1ae8:	4b35      	ldr	r3, [pc, #212]	; (1bc0 <Response_LORA01+0x150>)
    1aea:	781b      	ldrb	r3, [r3, #0]
    1aec:	2b00      	cmp	r3, #0
    1aee:	d10d      	bne.n	1b0c <Response_LORA01+0x9c>
					tmp16.byte[1] = dev_value[4][8];
    1af0:	4a34      	ldr	r2, [pc, #208]	; (1bc4 <Response_LORA01+0x154>)
    1af2:	339c      	adds	r3, #156	; 0x9c
    1af4:	5cd3      	ldrb	r3, [r2, r3]
					tmp16.byte[0] = dev_value[4][9];
    1af6:	219d      	movs	r1, #157	; 0x9d
    1af8:	5c51      	ldrb	r1, [r2, r1]
    1afa:	021b      	lsls	r3, r3, #8
					Insert_Data(0x183E, tmp16.word);	
    1afc:	4319      	orrs	r1, r3
    1afe:	4832      	ldr	r0, [pc, #200]	; (1bc8 <Response_LORA01+0x158>)
    1b00:	4b32      	ldr	r3, [pc, #200]	; (1bcc <Response_LORA01+0x15c>)
    1b02:	4798      	blx	r3
					Dev_Buf_Write_Index = 1;
    1b04:	2201      	movs	r2, #1
    1b06:	4b2e      	ldr	r3, [pc, #184]	; (1bc0 <Response_LORA01+0x150>)
    1b08:	701a      	strb	r2, [r3, #0]
    1b0a:	e7bc      	b.n	1a86 <Response_LORA01+0x16>
					tmp16.byte[1] = dev_value[4][10];
    1b0c:	4a2d      	ldr	r2, [pc, #180]	; (1bc4 <Response_LORA01+0x154>)
    1b0e:	239e      	movs	r3, #158	; 0x9e
    1b10:	5cd3      	ldrb	r3, [r2, r3]
					tmp16.byte[0] = dev_value[4][11];
    1b12:	219f      	movs	r1, #159	; 0x9f
    1b14:	5c51      	ldrb	r1, [r2, r1]
    1b16:	021b      	lsls	r3, r3, #8
					Insert_Data(0x1842, tmp16.word);
    1b18:	4319      	orrs	r1, r3
    1b1a:	482d      	ldr	r0, [pc, #180]	; (1bd0 <Response_LORA01+0x160>)
    1b1c:	4b2b      	ldr	r3, [pc, #172]	; (1bcc <Response_LORA01+0x15c>)
    1b1e:	4798      	blx	r3
					Dev_Buf_Write_Index = 0;
    1b20:	2200      	movs	r2, #0
    1b22:	4b27      	ldr	r3, [pc, #156]	; (1bc0 <Response_LORA01+0x150>)
    1b24:	701a      	strb	r2, [r3, #0]
    1b26:	e7ae      	b.n	1a86 <Response_LORA01+0x16>
			Catch_Data_Form_RX_Func(tmp_LORA);
    1b28:	4b2a      	ldr	r3, [pc, #168]	; (1bd4 <Response_LORA01+0x164>)
    1b2a:	4798      	blx	r3
			if(tmp_LORA->Lora_Show_Flag == true)
    1b2c:	4b1b      	ldr	r3, [pc, #108]	; (1b9c <Response_LORA01+0x12c>)
    1b2e:	5ce3      	ldrb	r3, [r4, r3]
    1b30:	2b01      	cmp	r3, #1
    1b32:	d003      	beq.n	1b3c <Response_LORA01+0xcc>
			tmp_LORA->NowStatus = NOP_Index;
    1b34:	2266      	movs	r2, #102	; 0x66
    1b36:	4b16      	ldr	r3, [pc, #88]	; (1b90 <Response_LORA01+0x120>)
    1b38:	54e2      	strb	r2, [r4, r3]
			break;
    1b3a:	e7a4      	b.n	1a86 <Response_LORA01+0x16>
				Print_Catch_Data_Form_RX_Msg(tmp_LORA, LORA_Dev_List_Index);
    1b3c:	4915      	ldr	r1, [pc, #84]	; (1b94 <Response_LORA01+0x124>)
    1b3e:	0020      	movs	r0, r4
    1b40:	4b25      	ldr	r3, [pc, #148]	; (1bd8 <Response_LORA01+0x168>)
    1b42:	4798      	blx	r3
    1b44:	e7f6      	b.n	1b34 <Response_LORA01+0xc4>
			if(tmp_LORA->LoRa_Tx_Send_Time_Out_Count > 2)
    1b46:	238a      	movs	r3, #138	; 0x8a
    1b48:	009b      	lsls	r3, r3, #2
    1b4a:	5cc3      	ldrb	r3, [r0, r3]
    1b4c:	b2db      	uxtb	r3, r3
    1b4e:	2b02      	cmp	r3, #2
    1b50:	d999      	bls.n	1a86 <Response_LORA01+0x16>
				tmp_LORA->LoRa_Tx_Send_Time_Out_Count = 0;
    1b52:	2100      	movs	r1, #0
    1b54:	238a      	movs	r3, #138	; 0x8a
    1b56:	009b      	lsls	r3, r3, #2
    1b58:	54c1      	strb	r1, [r0, r3]
				dev_value[tmp_LORA->List_Now][dev_value_missnode] = Dev_Miss_Node;
    1b5a:	3bce      	subs	r3, #206	; 0xce
    1b5c:	3bff      	subs	r3, #255	; 0xff
    1b5e:	5cc2      	ldrb	r2, [r0, r3]
    1b60:	b2d2      	uxtb	r2, r2
    1b62:	00d3      	lsls	r3, r2, #3
    1b64:	189b      	adds	r3, r3, r2
    1b66:	009b      	lsls	r3, r3, #2
    1b68:	189b      	adds	r3, r3, r2
    1b6a:	4a16      	ldr	r2, [pc, #88]	; (1bc4 <Response_LORA01+0x154>)
    1b6c:	18d3      	adds	r3, r2, r3
    1b6e:	7799      	strb	r1, [r3, #30]
				if(tmp_LORA->Lora_Show_Flag == true)
    1b70:	4b0a      	ldr	r3, [pc, #40]	; (1b9c <Response_LORA01+0x12c>)
    1b72:	5cc3      	ldrb	r3, [r0, r3]
    1b74:	2b01      	cmp	r3, #1
    1b76:	d006      	beq.n	1b86 <Response_LORA01+0x116>
				Search_Dev_List_index(tmp_LORA);
    1b78:	0020      	movs	r0, r4
    1b7a:	4b10      	ldr	r3, [pc, #64]	; (1bbc <Response_LORA01+0x14c>)
    1b7c:	4798      	blx	r3
				tmp_LORA->NowStatus = NOP_Index;
    1b7e:	2266      	movs	r2, #102	; 0x66
    1b80:	4b03      	ldr	r3, [pc, #12]	; (1b90 <Response_LORA01+0x120>)
    1b82:	54e2      	strb	r2, [r4, r3]
}
    1b84:	e77f      	b.n	1a86 <Response_LORA01+0x16>
					Print_MissNode_Form_RX_Msg(tmp_LORA, LORA_Dev_List_Index);
    1b86:	4903      	ldr	r1, [pc, #12]	; (1b94 <Response_LORA01+0x124>)
    1b88:	4b14      	ldr	r3, [pc, #80]	; (1bdc <Response_LORA01+0x16c>)
    1b8a:	4798      	blx	r3
    1b8c:	e7f4      	b.n	1b78 <Response_LORA01+0x108>
    1b8e:	46c0      	nop			; (mov r8, r8)
    1b90:	0000021d 	.word	0x0000021d
    1b94:	20000f00 	.word	0x20000f00
    1b98:	00004215 	.word	0x00004215
    1b9c:	00000226 	.word	0x00000226
    1ba0:	00003021 	.word	0x00003021
    1ba4:	000032cd 	.word	0x000032cd
    1ba8:	20000270 	.word	0x20000270
    1bac:	00002725 	.word	0x00002725
    1bb0:	00006d60 	.word	0x00006d60
    1bb4:	00002ffd 	.word	0x00002ffd
    1bb8:	00002771 	.word	0x00002771
    1bbc:	00001eb5 	.word	0x00001eb5
    1bc0:	200034b8 	.word	0x200034b8
    1bc4:	20001938 	.word	0x20001938
    1bc8:	0000183e 	.word	0x0000183e
    1bcc:	00001e4d 	.word	0x00001e4d
    1bd0:	00001842 	.word	0x00001842
    1bd4:	00002dfd 	.word	0x00002dfd
    1bd8:	00003225 	.word	0x00003225
    1bdc:	000031c1 	.word	0x000031c1

00001be0 <Master_RS232_To_UART>:




void Master_RS232_To_UART(volatile LORA_DEFINE_t *tmp_LORA)
{
    1be0:	b5f0      	push	{r4, r5, r6, r7, lr}
    1be2:	46ce      	mov	lr, r9
    1be4:	b500      	push	{lr}
    1be6:	0005      	movs	r5, r0
	
	uTXByte(Debug_COM, 'S');
    1be8:	2153      	movs	r1, #83	; 0x53
    1bea:	4894      	ldr	r0, [pc, #592]	; (1e3c <Master_RS232_To_UART+0x25c>)
    1bec:	4b94      	ldr	r3, [pc, #592]	; (1e40 <Master_RS232_To_UART+0x260>)
    1bee:	4699      	mov	r9, r3
    1bf0:	4798      	blx	r3
	Encoder_uart_send_ascii_byte(Debug_COM, dev_value[tmp_LORA->List_Now][3]);
    1bf2:	275b      	movs	r7, #91	; 0x5b
    1bf4:	5dea      	ldrb	r2, [r5, r7]
    1bf6:	b2d2      	uxtb	r2, r2
    1bf8:	4c92      	ldr	r4, [pc, #584]	; (1e44 <Master_RS232_To_UART+0x264>)
    1bfa:	00d3      	lsls	r3, r2, #3
    1bfc:	189b      	adds	r3, r3, r2
    1bfe:	009b      	lsls	r3, r3, #2
    1c00:	189b      	adds	r3, r3, r2
    1c02:	18e3      	adds	r3, r4, r3
    1c04:	78d9      	ldrb	r1, [r3, #3]
    1c06:	488d      	ldr	r0, [pc, #564]	; (1e3c <Master_RS232_To_UART+0x25c>)
    1c08:	4e8f      	ldr	r6, [pc, #572]	; (1e48 <Master_RS232_To_UART+0x268>)
    1c0a:	47b0      	blx	r6
	Encoder_uart_send_ascii_byte(Debug_COM, dev_value[tmp_LORA->List_Now][4]);
    1c0c:	5dea      	ldrb	r2, [r5, r7]
    1c0e:	b2d2      	uxtb	r2, r2
    1c10:	00d3      	lsls	r3, r2, #3
    1c12:	189b      	adds	r3, r3, r2
    1c14:	009b      	lsls	r3, r3, #2
    1c16:	189b      	adds	r3, r3, r2
    1c18:	18e3      	adds	r3, r4, r3
    1c1a:	7919      	ldrb	r1, [r3, #4]
    1c1c:	4887      	ldr	r0, [pc, #540]	; (1e3c <Master_RS232_To_UART+0x25c>)
    1c1e:	47b0      	blx	r6
	Encoder_uart_send_ascii_byte(Debug_COM, dev_value[tmp_LORA->List_Now][5]);
    1c20:	5dea      	ldrb	r2, [r5, r7]
    1c22:	b2d2      	uxtb	r2, r2
    1c24:	00d3      	lsls	r3, r2, #3
    1c26:	189b      	adds	r3, r3, r2
    1c28:	009b      	lsls	r3, r3, #2
    1c2a:	189b      	adds	r3, r3, r2
    1c2c:	18e3      	adds	r3, r4, r3
    1c2e:	7959      	ldrb	r1, [r3, #5]
    1c30:	4882      	ldr	r0, [pc, #520]	; (1e3c <Master_RS232_To_UART+0x25c>)
    1c32:	47b0      	blx	r6
	Encoder_uart_send_ascii_byte(Debug_COM, dev_value[tmp_LORA->List_Now][6]);
    1c34:	5dea      	ldrb	r2, [r5, r7]
    1c36:	b2d2      	uxtb	r2, r2
    1c38:	00d3      	lsls	r3, r2, #3
    1c3a:	189b      	adds	r3, r3, r2
    1c3c:	009b      	lsls	r3, r3, #2
    1c3e:	189b      	adds	r3, r3, r2
    1c40:	18e3      	adds	r3, r4, r3
    1c42:	7999      	ldrb	r1, [r3, #6]
    1c44:	487d      	ldr	r0, [pc, #500]	; (1e3c <Master_RS232_To_UART+0x25c>)
    1c46:	47b0      	blx	r6
	Encoder_uart_send_ascii_byte(Debug_COM, dev_value[tmp_LORA->List_Now][7]);
    1c48:	5dea      	ldrb	r2, [r5, r7]
    1c4a:	b2d2      	uxtb	r2, r2
    1c4c:	00d3      	lsls	r3, r2, #3
    1c4e:	189b      	adds	r3, r3, r2
    1c50:	009b      	lsls	r3, r3, #2
    1c52:	189b      	adds	r3, r3, r2
    1c54:	18e3      	adds	r3, r4, r3
    1c56:	79d9      	ldrb	r1, [r3, #7]
    1c58:	4878      	ldr	r0, [pc, #480]	; (1e3c <Master_RS232_To_UART+0x25c>)
    1c5a:	47b0      	blx	r6
	Encoder_uart_send_ascii_byte(Debug_COM, dev_value[tmp_LORA->List_Now][8]);
    1c5c:	5dea      	ldrb	r2, [r5, r7]
    1c5e:	b2d2      	uxtb	r2, r2
    1c60:	00d3      	lsls	r3, r2, #3
    1c62:	189b      	adds	r3, r3, r2
    1c64:	009b      	lsls	r3, r3, #2
    1c66:	189b      	adds	r3, r3, r2
    1c68:	18e3      	adds	r3, r4, r3
    1c6a:	7a19      	ldrb	r1, [r3, #8]
    1c6c:	4873      	ldr	r0, [pc, #460]	; (1e3c <Master_RS232_To_UART+0x25c>)
    1c6e:	47b0      	blx	r6
	Encoder_uart_send_ascii_byte(Debug_COM, dev_value[tmp_LORA->List_Now][9]);
    1c70:	5dea      	ldrb	r2, [r5, r7]
    1c72:	b2d2      	uxtb	r2, r2
    1c74:	00d3      	lsls	r3, r2, #3
    1c76:	189b      	adds	r3, r3, r2
    1c78:	009b      	lsls	r3, r3, #2
    1c7a:	189b      	adds	r3, r3, r2
    1c7c:	18e3      	adds	r3, r4, r3
    1c7e:	7a59      	ldrb	r1, [r3, #9]
    1c80:	486e      	ldr	r0, [pc, #440]	; (1e3c <Master_RS232_To_UART+0x25c>)
    1c82:	47b0      	blx	r6
	Encoder_uart_send_ascii_byte(Debug_COM, dev_value[tmp_LORA->List_Now][10]);
    1c84:	5dea      	ldrb	r2, [r5, r7]
    1c86:	b2d2      	uxtb	r2, r2
    1c88:	00d3      	lsls	r3, r2, #3
    1c8a:	189b      	adds	r3, r3, r2
    1c8c:	009b      	lsls	r3, r3, #2
    1c8e:	189b      	adds	r3, r3, r2
    1c90:	18e3      	adds	r3, r4, r3
    1c92:	7a99      	ldrb	r1, [r3, #10]
    1c94:	4869      	ldr	r0, [pc, #420]	; (1e3c <Master_RS232_To_UART+0x25c>)
    1c96:	47b0      	blx	r6
	Encoder_uart_send_ascii_byte(Debug_COM, dev_value[tmp_LORA->List_Now][11]);
    1c98:	5dea      	ldrb	r2, [r5, r7]
    1c9a:	b2d2      	uxtb	r2, r2
    1c9c:	00d3      	lsls	r3, r2, #3
    1c9e:	189b      	adds	r3, r3, r2
    1ca0:	009b      	lsls	r3, r3, #2
    1ca2:	189b      	adds	r3, r3, r2
    1ca4:	18e3      	adds	r3, r4, r3
    1ca6:	7ad9      	ldrb	r1, [r3, #11]
    1ca8:	4864      	ldr	r0, [pc, #400]	; (1e3c <Master_RS232_To_UART+0x25c>)
    1caa:	47b0      	blx	r6
	Encoder_uart_send_ascii_byte(Debug_COM, dev_value[tmp_LORA->List_Now][12]);
    1cac:	5dea      	ldrb	r2, [r5, r7]
    1cae:	b2d2      	uxtb	r2, r2
    1cb0:	00d3      	lsls	r3, r2, #3
    1cb2:	189b      	adds	r3, r3, r2
    1cb4:	009b      	lsls	r3, r3, #2
    1cb6:	189b      	adds	r3, r3, r2
    1cb8:	18e3      	adds	r3, r4, r3
    1cba:	7b19      	ldrb	r1, [r3, #12]
    1cbc:	485f      	ldr	r0, [pc, #380]	; (1e3c <Master_RS232_To_UART+0x25c>)
    1cbe:	47b0      	blx	r6
	Encoder_uart_send_ascii_byte(Debug_COM, dev_value[tmp_LORA->List_Now][13]);
    1cc0:	5dea      	ldrb	r2, [r5, r7]
    1cc2:	b2d2      	uxtb	r2, r2
    1cc4:	00d3      	lsls	r3, r2, #3
    1cc6:	189b      	adds	r3, r3, r2
    1cc8:	009b      	lsls	r3, r3, #2
    1cca:	189b      	adds	r3, r3, r2
    1ccc:	18e3      	adds	r3, r4, r3
    1cce:	7b59      	ldrb	r1, [r3, #13]
    1cd0:	485a      	ldr	r0, [pc, #360]	; (1e3c <Master_RS232_To_UART+0x25c>)
    1cd2:	47b0      	blx	r6
	Encoder_uart_send_ascii_byte(Debug_COM, dev_value[tmp_LORA->List_Now][14]);
    1cd4:	5dea      	ldrb	r2, [r5, r7]
    1cd6:	b2d2      	uxtb	r2, r2
    1cd8:	00d3      	lsls	r3, r2, #3
    1cda:	189b      	adds	r3, r3, r2
    1cdc:	009b      	lsls	r3, r3, #2
    1cde:	189b      	adds	r3, r3, r2
    1ce0:	18e3      	adds	r3, r4, r3
    1ce2:	7b99      	ldrb	r1, [r3, #14]
    1ce4:	4855      	ldr	r0, [pc, #340]	; (1e3c <Master_RS232_To_UART+0x25c>)
    1ce6:	47b0      	blx	r6
	Encoder_uart_send_ascii_byte(Debug_COM, dev_value[tmp_LORA->List_Now][15]);
    1ce8:	5dea      	ldrb	r2, [r5, r7]
    1cea:	b2d2      	uxtb	r2, r2
    1cec:	00d3      	lsls	r3, r2, #3
    1cee:	189b      	adds	r3, r3, r2
    1cf0:	009b      	lsls	r3, r3, #2
    1cf2:	189b      	adds	r3, r3, r2
    1cf4:	18e3      	adds	r3, r4, r3
    1cf6:	7bd9      	ldrb	r1, [r3, #15]
    1cf8:	4850      	ldr	r0, [pc, #320]	; (1e3c <Master_RS232_To_UART+0x25c>)
    1cfa:	47b0      	blx	r6
	Encoder_uart_send_ascii_byte(Debug_COM, dev_value[tmp_LORA->List_Now][16]);
    1cfc:	5dea      	ldrb	r2, [r5, r7]
    1cfe:	b2d2      	uxtb	r2, r2
    1d00:	00d3      	lsls	r3, r2, #3
    1d02:	189b      	adds	r3, r3, r2
    1d04:	009b      	lsls	r3, r3, #2
    1d06:	189b      	adds	r3, r3, r2
    1d08:	18e3      	adds	r3, r4, r3
    1d0a:	7c19      	ldrb	r1, [r3, #16]
    1d0c:	484b      	ldr	r0, [pc, #300]	; (1e3c <Master_RS232_To_UART+0x25c>)
    1d0e:	47b0      	blx	r6
	Encoder_uart_send_ascii_byte(Debug_COM, dev_value[tmp_LORA->List_Now][17]);
    1d10:	5dea      	ldrb	r2, [r5, r7]
    1d12:	b2d2      	uxtb	r2, r2
    1d14:	00d3      	lsls	r3, r2, #3
    1d16:	189b      	adds	r3, r3, r2
    1d18:	009b      	lsls	r3, r3, #2
    1d1a:	189b      	adds	r3, r3, r2
    1d1c:	18e3      	adds	r3, r4, r3
    1d1e:	7c59      	ldrb	r1, [r3, #17]
    1d20:	4846      	ldr	r0, [pc, #280]	; (1e3c <Master_RS232_To_UART+0x25c>)
    1d22:	47b0      	blx	r6
	Encoder_uart_send_ascii_byte(Debug_COM, dev_value[tmp_LORA->List_Now][18]);
    1d24:	5dea      	ldrb	r2, [r5, r7]
    1d26:	b2d2      	uxtb	r2, r2
    1d28:	00d3      	lsls	r3, r2, #3
    1d2a:	189b      	adds	r3, r3, r2
    1d2c:	009b      	lsls	r3, r3, #2
    1d2e:	189b      	adds	r3, r3, r2
    1d30:	18e3      	adds	r3, r4, r3
    1d32:	7c99      	ldrb	r1, [r3, #18]
    1d34:	4841      	ldr	r0, [pc, #260]	; (1e3c <Master_RS232_To_UART+0x25c>)
    1d36:	47b0      	blx	r6
	Encoder_uart_send_ascii_byte(Debug_COM, dev_value[tmp_LORA->List_Now][19]);
    1d38:	5dea      	ldrb	r2, [r5, r7]
    1d3a:	b2d2      	uxtb	r2, r2
    1d3c:	00d3      	lsls	r3, r2, #3
    1d3e:	189b      	adds	r3, r3, r2
    1d40:	009b      	lsls	r3, r3, #2
    1d42:	189b      	adds	r3, r3, r2
    1d44:	18e3      	adds	r3, r4, r3
    1d46:	7cd9      	ldrb	r1, [r3, #19]
    1d48:	483c      	ldr	r0, [pc, #240]	; (1e3c <Master_RS232_To_UART+0x25c>)
    1d4a:	47b0      	blx	r6
	Encoder_uart_send_ascii_byte(Debug_COM, dev_value[tmp_LORA->List_Now][20]);
    1d4c:	5dea      	ldrb	r2, [r5, r7]
    1d4e:	b2d2      	uxtb	r2, r2
    1d50:	00d3      	lsls	r3, r2, #3
    1d52:	189b      	adds	r3, r3, r2
    1d54:	009b      	lsls	r3, r3, #2
    1d56:	189b      	adds	r3, r3, r2
    1d58:	18e3      	adds	r3, r4, r3
    1d5a:	7d19      	ldrb	r1, [r3, #20]
    1d5c:	4837      	ldr	r0, [pc, #220]	; (1e3c <Master_RS232_To_UART+0x25c>)
    1d5e:	47b0      	blx	r6
	Encoder_uart_send_ascii_byte(Debug_COM, dev_value[tmp_LORA->List_Now][21]);
    1d60:	5dea      	ldrb	r2, [r5, r7]
    1d62:	b2d2      	uxtb	r2, r2
    1d64:	00d3      	lsls	r3, r2, #3
    1d66:	189b      	adds	r3, r3, r2
    1d68:	009b      	lsls	r3, r3, #2
    1d6a:	189b      	adds	r3, r3, r2
    1d6c:	18e3      	adds	r3, r4, r3
    1d6e:	7d59      	ldrb	r1, [r3, #21]
    1d70:	4832      	ldr	r0, [pc, #200]	; (1e3c <Master_RS232_To_UART+0x25c>)
    1d72:	47b0      	blx	r6
	Encoder_uart_send_ascii_byte(Debug_COM, dev_value[tmp_LORA->List_Now][22]);
    1d74:	5dea      	ldrb	r2, [r5, r7]
    1d76:	b2d2      	uxtb	r2, r2
    1d78:	00d3      	lsls	r3, r2, #3
    1d7a:	189b      	adds	r3, r3, r2
    1d7c:	009b      	lsls	r3, r3, #2
    1d7e:	189b      	adds	r3, r3, r2
    1d80:	18e3      	adds	r3, r4, r3
    1d82:	7d99      	ldrb	r1, [r3, #22]
    1d84:	482d      	ldr	r0, [pc, #180]	; (1e3c <Master_RS232_To_UART+0x25c>)
    1d86:	47b0      	blx	r6
	Encoder_uart_send_ascii_byte(Debug_COM, dev_value[tmp_LORA->List_Now][23]);
    1d88:	5dea      	ldrb	r2, [r5, r7]
    1d8a:	b2d2      	uxtb	r2, r2
    1d8c:	00d3      	lsls	r3, r2, #3
    1d8e:	189b      	adds	r3, r3, r2
    1d90:	009b      	lsls	r3, r3, #2
    1d92:	189b      	adds	r3, r3, r2
    1d94:	18e3      	adds	r3, r4, r3
    1d96:	7dd9      	ldrb	r1, [r3, #23]
    1d98:	4828      	ldr	r0, [pc, #160]	; (1e3c <Master_RS232_To_UART+0x25c>)
    1d9a:	47b0      	blx	r6
	Encoder_uart_send_ascii_byte(Debug_COM, dev_value[tmp_LORA->List_Now][24]);
    1d9c:	5dea      	ldrb	r2, [r5, r7]
    1d9e:	b2d2      	uxtb	r2, r2
    1da0:	00d3      	lsls	r3, r2, #3
    1da2:	189b      	adds	r3, r3, r2
    1da4:	009b      	lsls	r3, r3, #2
    1da6:	189b      	adds	r3, r3, r2
    1da8:	18e3      	adds	r3, r4, r3
    1daa:	7e19      	ldrb	r1, [r3, #24]
    1dac:	4823      	ldr	r0, [pc, #140]	; (1e3c <Master_RS232_To_UART+0x25c>)
    1dae:	47b0      	blx	r6
	Encoder_uart_send_ascii_byte(Debug_COM, dev_value[tmp_LORA->List_Now][25]);
    1db0:	5dea      	ldrb	r2, [r5, r7]
    1db2:	b2d2      	uxtb	r2, r2
    1db4:	00d3      	lsls	r3, r2, #3
    1db6:	189b      	adds	r3, r3, r2
    1db8:	009b      	lsls	r3, r3, #2
    1dba:	189b      	adds	r3, r3, r2
    1dbc:	18e3      	adds	r3, r4, r3
    1dbe:	7e59      	ldrb	r1, [r3, #25]
    1dc0:	481e      	ldr	r0, [pc, #120]	; (1e3c <Master_RS232_To_UART+0x25c>)
    1dc2:	47b0      	blx	r6
	Encoder_uart_send_ascii_byte(Debug_COM, dev_value[tmp_LORA->List_Now][26]);
    1dc4:	5dea      	ldrb	r2, [r5, r7]
    1dc6:	b2d2      	uxtb	r2, r2
    1dc8:	00d3      	lsls	r3, r2, #3
    1dca:	189b      	adds	r3, r3, r2
    1dcc:	009b      	lsls	r3, r3, #2
    1dce:	189b      	adds	r3, r3, r2
    1dd0:	18e3      	adds	r3, r4, r3
    1dd2:	7e99      	ldrb	r1, [r3, #26]
    1dd4:	4819      	ldr	r0, [pc, #100]	; (1e3c <Master_RS232_To_UART+0x25c>)
    1dd6:	47b0      	blx	r6
	Encoder_uart_send_ascii_byte(Debug_COM, dev_value[tmp_LORA->List_Now][27]);
    1dd8:	5dea      	ldrb	r2, [r5, r7]
    1dda:	b2d2      	uxtb	r2, r2
    1ddc:	00d3      	lsls	r3, r2, #3
    1dde:	189b      	adds	r3, r3, r2
    1de0:	009b      	lsls	r3, r3, #2
    1de2:	189b      	adds	r3, r3, r2
    1de4:	18e3      	adds	r3, r4, r3
    1de6:	7ed9      	ldrb	r1, [r3, #27]
    1de8:	4814      	ldr	r0, [pc, #80]	; (1e3c <Master_RS232_To_UART+0x25c>)
    1dea:	47b0      	blx	r6
	Encoder_uart_send_ascii_byte(Debug_COM, dev_value[tmp_LORA->List_Now][28]);
    1dec:	5dea      	ldrb	r2, [r5, r7]
    1dee:	b2d2      	uxtb	r2, r2
    1df0:	00d3      	lsls	r3, r2, #3
    1df2:	189b      	adds	r3, r3, r2
    1df4:	009b      	lsls	r3, r3, #2
    1df6:	189b      	adds	r3, r3, r2
    1df8:	18e3      	adds	r3, r4, r3
    1dfa:	7f19      	ldrb	r1, [r3, #28]
    1dfc:	480f      	ldr	r0, [pc, #60]	; (1e3c <Master_RS232_To_UART+0x25c>)
    1dfe:	47b0      	blx	r6
	Encoder_uart_send_ascii_byte(Debug_COM, dev_value[tmp_LORA->List_Now][31]);
    1e00:	5dea      	ldrb	r2, [r5, r7]
    1e02:	b2d2      	uxtb	r2, r2
    1e04:	00d3      	lsls	r3, r2, #3
    1e06:	189b      	adds	r3, r3, r2
    1e08:	009b      	lsls	r3, r3, #2
    1e0a:	189b      	adds	r3, r3, r2
    1e0c:	18e3      	adds	r3, r4, r3
    1e0e:	7fd9      	ldrb	r1, [r3, #31]
    1e10:	480a      	ldr	r0, [pc, #40]	; (1e3c <Master_RS232_To_UART+0x25c>)
    1e12:	47b0      	blx	r6
	Encoder_uart_send_ascii_byte(Debug_COM, dev_value[tmp_LORA->List_Now][32]);
    1e14:	5dea      	ldrb	r2, [r5, r7]
    1e16:	b2d2      	uxtb	r2, r2
    1e18:	00d3      	lsls	r3, r2, #3
    1e1a:	189b      	adds	r3, r3, r2
    1e1c:	009b      	lsls	r3, r3, #2
    1e1e:	189b      	adds	r3, r3, r2
    1e20:	18e4      	adds	r4, r4, r3
    1e22:	3420      	adds	r4, #32
    1e24:	7821      	ldrb	r1, [r4, #0]
    1e26:	4805      	ldr	r0, [pc, #20]	; (1e3c <Master_RS232_To_UART+0x25c>)
    1e28:	47b0      	blx	r6
	uTXByte(Debug_COM, 'Z');
    1e2a:	215a      	movs	r1, #90	; 0x5a
    1e2c:	4803      	ldr	r0, [pc, #12]	; (1e3c <Master_RS232_To_UART+0x25c>)
    1e2e:	47c8      	blx	r9
	uTXByte(Debug_COM, 0x0d);
    1e30:	210d      	movs	r1, #13
    1e32:	4802      	ldr	r0, [pc, #8]	; (1e3c <Master_RS232_To_UART+0x25c>)
    1e34:	47c8      	blx	r9
}
    1e36:	bc04      	pop	{r2}
    1e38:	4691      	mov	r9, r2
    1e3a:	bdf0      	pop	{r4, r5, r6, r7, pc}
    1e3c:	20000270 	.word	0x20000270
    1e40:	00002725 	.word	0x00002725
    1e44:	20001938 	.word	0x20001938
    1e48:	00001e89 	.word	0x00001e89

00001e4c <Insert_Data>:
//=================================================



void Insert_Data(unsigned int tmp_index, unsigned int tmp_Data)
{
    1e4c:	b510      	push	{r4, lr}
	UINT16u_t tmp16;
	
	WriteBufferHex[0] = 0x55;
    1e4e:	4b0d      	ldr	r3, [pc, #52]	; (1e84 <Insert_Data+0x38>)
    1e50:	2255      	movs	r2, #85	; 0x55
    1e52:	701a      	strb	r2, [r3, #0]
	WriteBufferHex[1] = 0x55;
    1e54:	705a      	strb	r2, [r3, #1]
	WriteBufferHex[2] = 0x55;
    1e56:	709a      	strb	r2, [r3, #2]
	WriteBufferHex[3] = 0x55;
    1e58:	70da      	strb	r2, [r3, #3]
	WriteBufferHex[4] = 0x00;
    1e5a:	2200      	movs	r2, #0
    1e5c:	711a      	strb	r2, [r3, #4]
	WriteBufferHex[5] = 0x00;
    1e5e:	715a      	strb	r2, [r3, #5]
	WriteBufferHex[6] = 0x01;
    1e60:	2401      	movs	r4, #1
    1e62:	719c      	strb	r4, [r3, #6]
	WriteBufferHex[7] = 0x06;
    1e64:	3405      	adds	r4, #5
    1e66:	71dc      	strb	r4, [r3, #7]
	tmp16.word = tmp_index;
	WriteBufferHex[8] = tmp16.byte[1];
    1e68:	0a04      	lsrs	r4, r0, #8
    1e6a:	721c      	strb	r4, [r3, #8]
	WriteBufferHex[9] = tmp16.byte[0];
    1e6c:	7258      	strb	r0, [r3, #9]
	
	tmp16.word = tmp_Data;
	WriteBufferHex[10] = tmp16.byte[1];
    1e6e:	0a08      	lsrs	r0, r1, #8
    1e70:	7298      	strb	r0, [r3, #10]
	WriteBufferHex[11] = tmp16.byte[0];
    1e72:	72d9      	strb	r1, [r3, #11]
	WriteBufferHex[12] = 0x00;
    1e74:	731a      	strb	r2, [r3, #12]
	WriteBufferHex[13] = 0x00;
    1e76:	735a      	strb	r2, [r3, #13]
	WriteBufferHex[14] = 0x00;
    1e78:	739a      	strb	r2, [r3, #14]
	WriteBufferHex[15] = 0x00;
    1e7a:	73da      	strb	r2, [r3, #15]
	WriteBufferHex[16] = 0x33;
    1e7c:	3233      	adds	r2, #51	; 0x33
    1e7e:	741a      	strb	r2, [r3, #16]
	WriteBufferHex[17] = 0x33;
    1e80:	745a      	strb	r2, [r3, #17]

}
    1e82:	bd10      	pop	{r4, pc}
    1e84:	200027b0 	.word	0x200027b0

00001e88 <Encoder_uart_send_ascii_byte>:


void Encoder_uart_send_ascii_byte(struct usart_module *const usart_module, uint8_t tmp)
{
    1e88:	b5f8      	push	{r3, r4, r5, r6, r7, lr}
    1e8a:	0005      	movs	r5, r0
    1e8c:	000c      	movs	r4, r1
	UINT8u_t	tmp8;
	unsigned char tmpval;
	tmp8.byte = tmp;
	tmpval = hex_to_ascii(tmp8.HL.H);
    1e8e:	0908      	lsrs	r0, r1, #4
    1e90:	4f06      	ldr	r7, [pc, #24]	; (1eac <Encoder_uart_send_ascii_byte+0x24>)
    1e92:	47b8      	blx	r7
    1e94:	0001      	movs	r1, r0
	if(tmpval < 0x3A)
	tmpval = tmpval - 10;
	else
	tmpval = tmpval + 10;
	#endif // Dev_Master_RS232_Encoder
	uTXByte(usart_module, tmpval);
    1e96:	0028      	movs	r0, r5
    1e98:	4e05      	ldr	r6, [pc, #20]	; (1eb0 <Encoder_uart_send_ascii_byte+0x28>)
    1e9a:	47b0      	blx	r6
	
	tmpval = hex_to_ascii(tmp8.HL.L);
    1e9c:	0720      	lsls	r0, r4, #28
    1e9e:	0f00      	lsrs	r0, r0, #28
    1ea0:	47b8      	blx	r7
    1ea2:	0001      	movs	r1, r0
	if(tmpval < 0x3A)
	tmpval = tmpval - 10;
	else
	tmpval = tmpval + 10;
	#endif // Dev_Master_RS232_Encoder
	uTXByte(usart_module, tmpval);
    1ea4:	0028      	movs	r0, r5
    1ea6:	47b0      	blx	r6
}
    1ea8:	bdf8      	pop	{r3, r4, r5, r6, r7, pc}
    1eaa:	46c0      	nop			; (mov r8, r8)
    1eac:	00002735 	.word	0x00002735
    1eb0:	00002725 	.word	0x00002725

00001eb4 <Search_Dev_List_index>:



void Search_Dev_List_index(volatile LORA_DEFINE_t *tmp_LORA)
{
    1eb4:	b5f8      	push	{r3, r4, r5, r6, r7, lr}
    1eb6:	0004      	movs	r4, r0
	volatile LORA_Dev_List_t *LORA_Dev_List_Index = LORA_Dev_List_In_RAM;
	unsigned char i,j,k;
	
	k = 0;
	for(i = (tmp_LORA->List_Now + 1); k < Dev_Item_MAX; i = (i + 1) % Dev_Item_MAX)
    1eb8:	235b      	movs	r3, #91	; 0x5b
    1eba:	5cc0      	ldrb	r0, [r0, r3]
    1ebc:	3001      	adds	r0, #1
    1ebe:	b2c0      	uxtb	r0, r0
	{
		// Master只詢問有Enable
		if(LORA_Dev_List_Index[i].Dev_En_Flag == Dev_EN)
    1ec0:	0102      	lsls	r2, r0, #4
    1ec2:	4b20      	ldr	r3, [pc, #128]	; (1f44 <Search_Dev_List_index+0x90>)
    1ec4:	18d3      	adds	r3, r2, r3
    1ec6:	785a      	ldrb	r2, [r3, #1]
    1ec8:	2a01      	cmp	r2, #1
    1eca:	d015      	beq.n	1ef8 <Search_Dev_List_index+0x44>
	for(i = (tmp_LORA->List_Now + 1); k < Dev_Item_MAX; i = (i + 1) % Dev_Item_MAX)
    1ecc:	3001      	adds	r0, #1
    1ece:	2164      	movs	r1, #100	; 0x64
    1ed0:	4b1d      	ldr	r3, [pc, #116]	; (1f48 <Search_Dev_List_index+0x94>)
    1ed2:	4798      	blx	r3
    1ed4:	b2c8      	uxtb	r0, r1
    1ed6:	2563      	movs	r5, #99	; 0x63
		if(LORA_Dev_List_Index[i].Dev_En_Flag == Dev_EN)
    1ed8:	4e1a      	ldr	r6, [pc, #104]	; (1f44 <Search_Dev_List_index+0x90>)
	for(i = (tmp_LORA->List_Now + 1); k < Dev_Item_MAX; i = (i + 1) % Dev_Item_MAX)
    1eda:	4f1b      	ldr	r7, [pc, #108]	; (1f48 <Search_Dev_List_index+0x94>)
		if(LORA_Dev_List_Index[i].Dev_En_Flag == Dev_EN)
    1edc:	0103      	lsls	r3, r0, #4
    1ede:	199b      	adds	r3, r3, r6
    1ee0:	785a      	ldrb	r2, [r3, #1]
    1ee2:	2a01      	cmp	r2, #1
    1ee4:	d008      	beq.n	1ef8 <Search_Dev_List_index+0x44>
	for(i = (tmp_LORA->List_Now + 1); k < Dev_Item_MAX; i = (i + 1) % Dev_Item_MAX)
    1ee6:	3001      	adds	r0, #1
    1ee8:	2164      	movs	r1, #100	; 0x64
    1eea:	47b8      	blx	r7
    1eec:	b2c8      	uxtb	r0, r1
    1eee:	3d01      	subs	r5, #1
    1ef0:	b2ed      	uxtb	r5, r5
    1ef2:	2d00      	cmp	r5, #0
    1ef4:	d1f2      	bne.n	1edc <Search_Dev_List_index+0x28>
    1ef6:	e023      	b.n	1f40 <Search_Dev_List_index+0x8c>
		{
			tmp_LORA->List_Now =  i;
    1ef8:	225b      	movs	r2, #91	; 0x5b
    1efa:	54a0      	strb	r0, [r4, r2]
			tmp_LORA->MyLoRaTmp[Write_LoRa_TxBuffer_Index][3] = LORA_Dev_List_Index[i].MAC_ID.byte[0];
    1efc:	791a      	ldrb	r2, [r3, #4]
    1efe:	b2d2      	uxtb	r2, r2
    1f00:	21f7      	movs	r1, #247	; 0xf7
    1f02:	5462      	strb	r2, [r4, r1]
			tmp_LORA->MyLoRaTmp[Write_LoRa_TxBuffer_Index][4] = LORA_Dev_List_Index[i].MAC_ID.byte[1];
    1f04:	795a      	ldrb	r2, [r3, #5]
    1f06:	b2d2      	uxtb	r2, r2
    1f08:	3101      	adds	r1, #1
    1f0a:	5462      	strb	r2, [r4, r1]
			tmp_LORA->MyLoRaTmp[Write_LoRa_TxBuffer_Index][5] = LORA_Dev_List_Index[i].MAC_ID.byte[2];
    1f0c:	799a      	ldrb	r2, [r3, #6]
    1f0e:	b2d2      	uxtb	r2, r2
    1f10:	3101      	adds	r1, #1
    1f12:	5462      	strb	r2, [r4, r1]
			tmp_LORA->MyLoRaTmp[Write_LoRa_TxBuffer_Index][6] = LORA_Dev_List_Index[i].MAC_ID.byte[3];
    1f14:	79db      	ldrb	r3, [r3, #7]
    1f16:	b2db      	uxtb	r3, r3
    1f18:	22fa      	movs	r2, #250	; 0xfa
    1f1a:	54a3      	strb	r3, [r4, r2]
			tmp_LORA->MyLoRaTmp[Write_LoRa_TxBuffer_Index][7] = tmp_LORA->MyLoRaPower;
    1f1c:	7ba3      	ldrb	r3, [r4, #14]
    1f1e:	b2db      	uxtb	r3, r3
    1f20:	3201      	adds	r2, #1
    1f22:	54a3      	strb	r3, [r4, r2]
			tmp_LORA->MyLoRaTmp[Write_LoRa_TxBuffer_Index][8] = 0xFE;	//Write Mode
    1f24:	3203      	adds	r2, #3
    1f26:	23fc      	movs	r3, #252	; 0xfc
    1f28:	54e2      	strb	r2, [r4, r3]
    1f2a:	3bf3      	subs	r3, #243	; 0xf3
			
			//把數據寫入封包後段，當作廣播使用
			for(j = 0; j < 18; j++)
			{
				tmp_LORA->MyLoRaTmp[Write_LoRa_TxBuffer_Index][9+j] = WriteBufferHex[j];
    1f2c:	4807      	ldr	r0, [pc, #28]	; (1f4c <Search_Dev_List_index+0x98>)
    1f2e:	001a      	movs	r2, r3
    1f30:	3a09      	subs	r2, #9
    1f32:	5c81      	ldrb	r1, [r0, r2]
    1f34:	18e2      	adds	r2, r4, r3
    1f36:	32f4      	adds	r2, #244	; 0xf4
    1f38:	7011      	strb	r1, [r2, #0]
    1f3a:	3301      	adds	r3, #1
			for(j = 0; j < 18; j++)
    1f3c:	2b1b      	cmp	r3, #27
    1f3e:	d1f6      	bne.n	1f2e <Search_Dev_List_index+0x7a>
			}
			break;
		}
		k++;
	}
}
    1f40:	bdf8      	pop	{r3, r4, r5, r6, r7, pc}
    1f42:	46c0      	nop			; (mov r8, r8)
    1f44:	20000f00 	.word	0x20000f00
    1f48:	00006a75 	.word	0x00006a75
    1f4c:	200027b0 	.word	0x200027b0

00001f50 <Save_Dev_Time_into_NVM>:
﻿#include <asf.h>
#include <stdio.h>
#include "myDefine.h"

void Save_Dev_Time_into_NVM(volatile LORA_Dev_List_t *tmp_LORA_Dev_List_Index)
{
    1f50:	b5f0      	push	{r4, r5, r6, r7, lr}
    1f52:	46d6      	mov	lr, sl
    1f54:	4647      	mov	r7, r8
    1f56:	b580      	push	{r7, lr}
    1f58:	b0d3      	sub	sp, #332	; 0x14c
    1f5a:	ae02      	add	r6, sp, #8
    1f5c:	a934      	add	r1, sp, #208	; 0xd0
    1f5e:	0033      	movs	r3, r6
	// Dev_List (二維) 轉換成 page_buffer (一維)
	//======================================
	for( i = 0; i < Dev_Item_MAX; i++)
	{
		j = i * Dev_Time_Data_Item_Max;
		page_buffer[j] = tmp_LORA_Dev_List_Index[i].Dev_Time.byte[1];
    1f60:	7a42      	ldrb	r2, [r0, #9]
    1f62:	701a      	strb	r2, [r3, #0]
		page_buffer[j+1] = tmp_LORA_Dev_List_Index[i].Dev_Time.byte[0];
    1f64:	7a02      	ldrb	r2, [r0, #8]
    1f66:	705a      	strb	r2, [r3, #1]
    1f68:	3010      	adds	r0, #16
    1f6a:	3302      	adds	r3, #2
	for( i = 0; i < Dev_Item_MAX; i++)
    1f6c:	428b      	cmp	r3, r1
    1f6e:	d1f7      	bne.n	1f60 <Save_Dev_Time_into_NVM+0x10>
    1f70:	4b14      	ldr	r3, [pc, #80]	; (1fc4 <Save_Dev_Time_into_NVM+0x74>)
    1f72:	9301      	str	r3, [sp, #4]
		//======================================
		// page_buffer 分次存到 tmp_page_buffer，準備存到NVM使用
		//======================================
		for(i = 0; i < NVMCTRL_PAGE_SIZE; i++)
		{
			tmp_page_buffer[i] = page_buffer[i + j];
    1f74:	ac42      	add	r4, sp, #264	; 0x108
		//======================================
		// 儲存前要先erase
		//======================================
		do
		{
			error_code = nvm_erase_row(
    1f76:	4b14      	ldr	r3, [pc, #80]	; (1fc8 <Save_Dev_Time_into_NVM+0x78>)
    1f78:	4698      	mov	r8, r3
    1f7a:	4f14      	ldr	r7, [pc, #80]	; (1fcc <Save_Dev_Time_into_NVM+0x7c>)
{
    1f7c:	2300      	movs	r3, #0
			tmp_page_buffer[i] = page_buffer[i + j];
    1f7e:	5cf2      	ldrb	r2, [r6, r3]
    1f80:	551a      	strb	r2, [r3, r4]
		for(i = 0; i < NVMCTRL_PAGE_SIZE; i++)
    1f82:	3301      	adds	r3, #1
    1f84:	2b40      	cmp	r3, #64	; 0x40
    1f86:	d1fa      	bne.n	1f7e <Save_Dev_Time_into_NVM+0x2e>
			error_code = nvm_erase_row(
    1f88:	9801      	ldr	r0, [sp, #4]
    1f8a:	47c0      	blx	r8
    1f8c:	7038      	strb	r0, [r7, #0]
			(526 + k) * NVMCTRL_ROW_PAGES * NVMCTRL_PAGE_SIZE);
		} while (error_code == STATUS_BUSY);
    1f8e:	2805      	cmp	r0, #5
    1f90:	d0fa      	beq.n	1f88 <Save_Dev_Time_into_NVM+0x38>
		//======================================
		// 開始儲存寫入
		//======================================
		do
		{
			error_code = nvm_write_buffer(
    1f92:	4b0f      	ldr	r3, [pc, #60]	; (1fd0 <Save_Dev_Time_into_NVM+0x80>)
    1f94:	469a      	mov	sl, r3
    1f96:	4d0d      	ldr	r5, [pc, #52]	; (1fcc <Save_Dev_Time_into_NVM+0x7c>)
    1f98:	2240      	movs	r2, #64	; 0x40
    1f9a:	0021      	movs	r1, r4
    1f9c:	9801      	ldr	r0, [sp, #4]
    1f9e:	47d0      	blx	sl
    1fa0:	7028      	strb	r0, [r5, #0]
			(526 + k)  * NVMCTRL_ROW_PAGES * NVMCTRL_PAGE_SIZE,
			tmp_page_buffer, NVMCTRL_PAGE_SIZE);
		} while (error_code == STATUS_BUSY);
    1fa2:	2805      	cmp	r0, #5
    1fa4:	d0f8      	beq.n	1f98 <Save_Dev_Time_into_NVM+0x48>
    1fa6:	9b01      	ldr	r3, [sp, #4]
    1fa8:	3301      	adds	r3, #1
    1faa:	33ff      	adds	r3, #255	; 0xff
    1fac:	001a      	movs	r2, r3
    1fae:	9301      	str	r3, [sp, #4]
    1fb0:	3640      	adds	r6, #64	; 0x40
	for(j = 0; j < (NVMCTRL_PAGE_SIZE * NVM_List_Time_Use_Page_MAX); j = j + NVMCTRL_PAGE_SIZE)
    1fb2:	4b08      	ldr	r3, [pc, #32]	; (1fd4 <Save_Dev_Time_into_NVM+0x84>)
    1fb4:	429a      	cmp	r2, r3
    1fb6:	d1e1      	bne.n	1f7c <Save_Dev_Time_into_NVM+0x2c>
		// K = page count，每+1 = 256 位置
		// 因為位置計算公式為 NVMCTRL_ROW_PAGES(4) * NVMCTRL_PAGE_SIZE (64) = 256個位置
		//======================================
		k++;
	}
}
    1fb8:	b053      	add	sp, #332	; 0x14c
    1fba:	bc0c      	pop	{r2, r3}
    1fbc:	4690      	mov	r8, r2
    1fbe:	469a      	mov	sl, r3
    1fc0:	bdf0      	pop	{r4, r5, r6, r7, pc}
    1fc2:	46c0      	nop			; (mov r8, r8)
    1fc4:	00020e00 	.word	0x00020e00
    1fc8:	00000341 	.word	0x00000341
    1fcc:	200027d7 	.word	0x200027d7
    1fd0:	0000022d 	.word	0x0000022d
    1fd4:	00021200 	.word	0x00021200

00001fd8 <Load_Dev_Time_Form_NVM>:



void Load_Dev_Time_Form_NVM(volatile LORA_Dev_List_t *tmp_LORA_Dev_List_Index)
{
    1fd8:	b5f0      	push	{r4, r5, r6, r7, lr}
    1fda:	46c6      	mov	lr, r8
    1fdc:	b500      	push	{lr}
    1fde:	b0d2      	sub	sp, #328	; 0x148
    1fe0:	9001      	str	r0, [sp, #4]
    1fe2:	af02      	add	r7, sp, #8
    1fe4:	003c      	movs	r4, r7
    1fe6:	4b15      	ldr	r3, [pc, #84]	; (203c <STACK_SIZE+0x3c>)
    1fe8:	9300      	str	r3, [sp, #0]
	k = 0;
	for(j = 0; j < (NVMCTRL_PAGE_SIZE * NVM_List_Time_Use_Page_MAX); j = j + NVMCTRL_PAGE_SIZE)
	{
		do
		{
			error_code = nvm_read_buffer(
    1fea:	ad42      	add	r5, sp, #264	; 0x108
    1fec:	4e14      	ldr	r6, [pc, #80]	; (2040 <STACK_SIZE+0x40>)
    1fee:	4b15      	ldr	r3, [pc, #84]	; (2044 <STACK_SIZE+0x44>)
    1ff0:	4698      	mov	r8, r3
    1ff2:	2240      	movs	r2, #64	; 0x40
    1ff4:	0029      	movs	r1, r5
    1ff6:	9800      	ldr	r0, [sp, #0]
    1ff8:	47b0      	blx	r6
    1ffa:	4643      	mov	r3, r8
    1ffc:	7018      	strb	r0, [r3, #0]
			(526 + k)  * NVMCTRL_ROW_PAGES * NVMCTRL_PAGE_SIZE,
			tmp_page_buffer, NVMCTRL_PAGE_SIZE);
		} while (error_code == STATUS_BUSY);
    1ffe:	2805      	cmp	r0, #5
    2000:	d0f7      	beq.n	1ff2 <Load_Dev_Time_Form_NVM+0x1a>
    2002:	2300      	movs	r3, #0
		
		for(i = 0; i < NVMCTRL_PAGE_SIZE; i++)
		{
			page_buffer[i + j] = tmp_page_buffer[i];
    2004:	5d5a      	ldrb	r2, [r3, r5]
    2006:	54e2      	strb	r2, [r4, r3]
		for(i = 0; i < NVMCTRL_PAGE_SIZE; i++)
    2008:	3301      	adds	r3, #1
    200a:	2b40      	cmp	r3, #64	; 0x40
    200c:	d1fa      	bne.n	2004 <STACK_SIZE+0x4>
    200e:	3440      	adds	r4, #64	; 0x40
    2010:	9b00      	ldr	r3, [sp, #0]
    2012:	3301      	adds	r3, #1
    2014:	33ff      	adds	r3, #255	; 0xff
    2016:	001a      	movs	r2, r3
    2018:	9300      	str	r3, [sp, #0]
	for(j = 0; j < (NVMCTRL_PAGE_SIZE * NVM_List_Time_Use_Page_MAX); j = j + NVMCTRL_PAGE_SIZE)
    201a:	4b0b      	ldr	r3, [pc, #44]	; (2048 <STACK_SIZE+0x48>)
    201c:	429a      	cmp	r2, r3
    201e:	d1e8      	bne.n	1ff2 <Load_Dev_Time_Form_NVM+0x1a>
    2020:	9c01      	ldr	r4, [sp, #4]
    2022:	aa34      	add	r2, sp, #208	; 0xd0
	
	for( i = 0; i < Dev_Item_MAX; i++)
	{
		j = i * Dev_Time_Data_Item_Max;
		
		tmp_LORA_Dev_List_Index[i].Dev_Time.byte[1] = page_buffer[j];
    2024:	783b      	ldrb	r3, [r7, #0]
    2026:	7263      	strb	r3, [r4, #9]
		tmp_LORA_Dev_List_Index[i].Dev_Time.byte[0] = page_buffer[j+1];
    2028:	787b      	ldrb	r3, [r7, #1]
    202a:	7223      	strb	r3, [r4, #8]
    202c:	3702      	adds	r7, #2
    202e:	3410      	adds	r4, #16
	for( i = 0; i < Dev_Item_MAX; i++)
    2030:	4297      	cmp	r7, r2
    2032:	d1f7      	bne.n	2024 <STACK_SIZE+0x24>
	}
}
    2034:	b052      	add	sp, #328	; 0x148
    2036:	bc04      	pop	{r2}
    2038:	4690      	mov	r8, r2
    203a:	bdf0      	pop	{r4, r5, r6, r7, pc}
    203c:	00020e00 	.word	0x00020e00
    2040:	000002d5 	.word	0x000002d5
    2044:	200027d7 	.word	0x200027d7
    2048:	00021200 	.word	0x00021200

0000204c <Load_LoRa_Profile_in_NVM>:
﻿#include <asf.h>
#include <stdio.h>
#include "myDefine.h"

void Load_LoRa_Profile_in_NVM(volatile LORA_DEFINE_t *tmp_LORA)
{
    204c:	b5f0      	push	{r4, r5, r6, r7, lr}
    204e:	46de      	mov	lr, fp
    2050:	4657      	mov	r7, sl
    2052:	464e      	mov	r6, r9
    2054:	4645      	mov	r5, r8
    2056:	b5e0      	push	{r5, r6, r7, lr}
    2058:	b093      	sub	sp, #76	; 0x4c
    205a:	0004      	movs	r4, r0
	UINT16u_t tmp16;
	unsigned char first_time;
	uint8_t tmp_page_buffer[NVMCTRL_PAGE_SIZE];
	do
	{
		error_code = nvm_read_buffer(
    205c:	4eb9      	ldr	r6, [pc, #740]	; (2344 <Load_LoRa_Profile_in_NVM+0x2f8>)
    205e:	4dba      	ldr	r5, [pc, #744]	; (2348 <Load_LoRa_Profile_in_NVM+0x2fc>)
    2060:	2240      	movs	r2, #64	; 0x40
    2062:	a902      	add	r1, sp, #8
    2064:	48b9      	ldr	r0, [pc, #740]	; (234c <Load_LoRa_Profile_in_NVM+0x300>)
    2066:	47b0      	blx	r6
    2068:	7028      	strb	r0, [r5, #0]
		525  * NVMCTRL_ROW_PAGES * NVMCTRL_PAGE_SIZE,
		tmp_page_buffer, NVMCTRL_PAGE_SIZE);
	} while (error_code == STATUS_BUSY);
    206a:	2805      	cmp	r0, #5
    206c:	d0f8      	beq.n	2060 <Load_LoRa_Profile_in_NVM+0x14>
	
	if(tmp_page_buffer[tmp_LORA->NVM_offset_Value] != 0x55)
    206e:	218e      	movs	r1, #142	; 0x8e
    2070:	0089      	lsls	r1, r1, #2
    2072:	5c63      	ldrb	r3, [r4, r1]
    2074:	b2db      	uxtb	r3, r3
    2076:	aa02      	add	r2, sp, #8
    2078:	5cd2      	ldrb	r2, [r2, r3]
	else
	{
		first_time = 0;
	}
	
	tmp_LORA->MyLoRaPower = tmp_page_buffer[tmp_LORA->NVM_offset_Value + 1];
    207a:	5c63      	ldrb	r3, [r4, r1]
    207c:	a902      	add	r1, sp, #8
    207e:	468c      	mov	ip, r1
    2080:	4463      	add	r3, ip
    2082:	785b      	ldrb	r3, [r3, #1]
    2084:	73a3      	strb	r3, [r4, #14]
	if(first_time == 0)
    2086:	2a55      	cmp	r2, #85	; 0x55
    2088:	d000      	beq.n	208c <Load_LoRa_Profile_in_NVM+0x40>
    208a:	e0f2      	b.n	2272 <Load_LoRa_Profile_in_NVM+0x226>
	{
		tmp_LORA->MyLoRaTmp[Write_LoRa_Mode_FQ_Index][7] = tmp_LORA->MyLoRaPower;
    208c:	7ba3      	ldrb	r3, [r4, #14]
    208e:	b2db      	uxtb	r3, r3
    2090:	21c5      	movs	r1, #197	; 0xc5
    2092:	5463      	strb	r3, [r4, r1]
	else
	{
		tmp_LORA->MyLoRaPower = tmp_LORA->MyLoRaTmp[Write_LoRa_Mode_FQ_Index][7];
	}
	
	tmp_LORA->MyLoRaSF = tmp_page_buffer[tmp_LORA->NVM_offset_Value + 2];
    2094:	238e      	movs	r3, #142	; 0x8e
    2096:	009b      	lsls	r3, r3, #2
    2098:	5ce3      	ldrb	r3, [r4, r3]
    209a:	4463      	add	r3, ip
    209c:	789b      	ldrb	r3, [r3, #2]
    209e:	73e3      	strb	r3, [r4, #15]
	if(first_time == 0)
	{
		tmp_LORA->MyLoRaTmp[Write_LoRa_Setting_Index][5] = tmp_LORA->MyLoRaSF;
    20a0:	7be3      	ldrb	r3, [r4, #15]
    20a2:	b2db      	uxtb	r3, r3
    20a4:	21de      	movs	r1, #222	; 0xde
    20a6:	5463      	strb	r3, [r4, r1]
	else
	{
		tmp_LORA->MyLoRaSF = tmp_LORA->MyLoRaTmp[Write_LoRa_Setting_Index][5];
	}
	
	tmp_LORA->MyLoRaFQ.byte[2] = tmp_page_buffer[tmp_LORA->NVM_offset_Value + 3];
    20a8:	238e      	movs	r3, #142	; 0x8e
    20aa:	009b      	lsls	r3, r3, #2
    20ac:	5ce1      	ldrb	r1, [r4, r3]
    20ae:	a802      	add	r0, sp, #8
    20b0:	4684      	mov	ip, r0
    20b2:	4461      	add	r1, ip
    20b4:	78c9      	ldrb	r1, [r1, #3]
    20b6:	75a1      	strb	r1, [r4, #22]
	tmp_LORA->MyLoRaFQ.byte[1] = tmp_page_buffer[tmp_LORA->NVM_offset_Value + 4];
    20b8:	5ce1      	ldrb	r1, [r4, r3]
    20ba:	4461      	add	r1, ip
    20bc:	7909      	ldrb	r1, [r1, #4]
    20be:	7561      	strb	r1, [r4, #21]
	tmp_LORA->MyLoRaFQ.byte[0] = tmp_page_buffer[tmp_LORA->NVM_offset_Value + 5];
    20c0:	5ce3      	ldrb	r3, [r4, r3]
    20c2:	4463      	add	r3, ip
    20c4:	795b      	ldrb	r3, [r3, #5]
    20c6:	7523      	strb	r3, [r4, #20]
	if(first_time == 0)
    20c8:	2a55      	cmp	r2, #85	; 0x55
    20ca:	d000      	beq.n	20ce <Load_LoRa_Profile_in_NVM+0x82>
    20cc:	e0e2      	b.n	2294 <Load_LoRa_Profile_in_NVM+0x248>
	{
		tmp_LORA->MyLoRaTmp[Write_LoRa_Mode_FQ_Index][4] = tmp_LORA->MyLoRaFQ.byte[2];
    20ce:	7da3      	ldrb	r3, [r4, #22]
    20d0:	b2db      	uxtb	r3, r3
    20d2:	21c2      	movs	r1, #194	; 0xc2
    20d4:	5463      	strb	r3, [r4, r1]
	{
		tmp_LORA->MyLoRaFQ.byte[2] = tmp_LORA->MyLoRaTmp[Write_LoRa_Mode_FQ_Index][4];
	}
	if(first_time == 0)
	{
		tmp_LORA->MyLoRaTmp[Write_LoRa_Mode_FQ_Index][5] = tmp_LORA->MyLoRaFQ.byte[1];
    20d6:	7d63      	ldrb	r3, [r4, #21]
    20d8:	b2db      	uxtb	r3, r3
    20da:	3101      	adds	r1, #1
    20dc:	5463      	strb	r3, [r4, r1]
	{
		tmp_LORA->MyLoRaFQ.byte[1] = tmp_LORA->MyLoRaTmp[Write_LoRa_Mode_FQ_Index][5];
	}
	if(first_time == 0)
	{
		tmp_LORA->MyLoRaTmp[Write_LoRa_Mode_FQ_Index][6] = tmp_LORA->MyLoRaFQ.byte[0];
    20de:	7d23      	ldrb	r3, [r4, #20]
    20e0:	b2db      	uxtb	r3, r3
    20e2:	3101      	adds	r1, #1
    20e4:	5463      	strb	r3, [r4, r1]
	else
	{
		tmp_LORA->MyLoRaFQ.byte[0] = tmp_LORA->MyLoRaTmp[Write_LoRa_Mode_FQ_Index][6];
	}
	
	tmp_LORA->Lora_Debug_Flag = tmp_page_buffer[tmp_LORA->NVM_offset_Value + 6];
    20e6:	208e      	movs	r0, #142	; 0x8e
    20e8:	0080      	lsls	r0, r0, #2
    20ea:	5c23      	ldrb	r3, [r4, r0]
    20ec:	4463      	add	r3, ip
    20ee:	799b      	ldrb	r3, [r3, #6]
    20f0:	2188      	movs	r1, #136	; 0x88
    20f2:	0089      	lsls	r1, r1, #2
    20f4:	5463      	strb	r3, [r4, r1]
	if(first_time == 1)
	{
		tmp_LORA->Lora_Debug_Flag = NeedDebug;
	}
	
	tmp_LORA->Lora_Debug_Flag = tmp_page_buffer[tmp_LORA->NVM_offset_Value + 6];
    20f6:	5c23      	ldrb	r3, [r4, r0]
    20f8:	4463      	add	r3, ip
    20fa:	799b      	ldrb	r3, [r3, #6]
    20fc:	5463      	strb	r3, [r4, r1]
	if(first_time == 1)
	{
		tmp_LORA->Lora_Debug_Flag = NeedDebug;
	}
	
	RESET_COUNT = tmp_page_buffer[tmp_LORA->NVM_offset_Value + 7];
    20fe:	238e      	movs	r3, #142	; 0x8e
    2100:	009b      	lsls	r3, r3, #2
    2102:	5ce1      	ldrb	r1, [r4, r3]
    2104:	a802      	add	r0, sp, #8
    2106:	4684      	mov	ip, r0
    2108:	4461      	add	r1, ip
    210a:	79c8      	ldrb	r0, [r1, #7]
    210c:	4990      	ldr	r1, [pc, #576]	; (2350 <Load_LoRa_Profile_in_NVM+0x304>)
    210e:	7008      	strb	r0, [r1, #0]
	
	tmp_LORA->UserLoRaID[0] = tmp_page_buffer[tmp_LORA->NVM_offset_Value + 8];
    2110:	5ce1      	ldrb	r1, [r4, r3]
    2112:	4461      	add	r1, ip
    2114:	7a09      	ldrb	r1, [r1, #8]
    2116:	7161      	strb	r1, [r4, #5]
	tmp_LORA->UserLoRaID[1] = tmp_page_buffer[tmp_LORA->NVM_offset_Value + 9];
    2118:	5ce1      	ldrb	r1, [r4, r3]
    211a:	4461      	add	r1, ip
    211c:	7a49      	ldrb	r1, [r1, #9]
    211e:	71a1      	strb	r1, [r4, #6]
	tmp_LORA->UserLoRaID[2] = tmp_page_buffer[tmp_LORA->NVM_offset_Value + 10];
    2120:	5ce1      	ldrb	r1, [r4, r3]
    2122:	4461      	add	r1, ip
    2124:	7a89      	ldrb	r1, [r1, #10]
    2126:	71e1      	strb	r1, [r4, #7]
	tmp_LORA->UserLoRaID[3] = tmp_page_buffer[tmp_LORA->NVM_offset_Value + 11];
    2128:	5ce1      	ldrb	r1, [r4, r3]
    212a:	4461      	add	r1, ip
    212c:	7ac9      	ldrb	r1, [r1, #11]
    212e:	7221      	strb	r1, [r4, #8]
	
	tmp_LORA->PLC_Flag = tmp_page_buffer[tmp_LORA->NVM_offset_Value + 12];
    2130:	5ce3      	ldrb	r3, [r4, r3]
    2132:	4463      	add	r3, ip
    2134:	7b1b      	ldrb	r3, [r3, #12]
    2136:	7423      	strb	r3, [r4, #16]
	if(first_time == 1)
    2138:	2a55      	cmp	r2, #85	; 0x55
    213a:	d000      	beq.n	213e <Load_LoRa_Profile_in_NVM+0xf2>
    213c:	e0c8      	b.n	22d0 <Load_LoRa_Profile_in_NVM+0x284>
	{
		tmp_LORA->PLC_Flag = NoPLC;
	}
	//tmp_LORA->PLC_Flag = NoPLC;
	
	tmp_LORA->PLC_Addr = tmp_page_buffer[tmp_LORA->NVM_offset_Value + 13];
    213e:	238e      	movs	r3, #142	; 0x8e
    2140:	009b      	lsls	r3, r3, #2
    2142:	5ce3      	ldrb	r3, [r4, r3]
    2144:	aa02      	add	r2, sp, #8
    2146:	4694      	mov	ip, r2
    2148:	4463      	add	r3, ip
    214a:	7b5b      	ldrb	r3, [r3, #13]
    214c:	7463      	strb	r3, [r4, #17]
	{
		tmp_LORA->PLC_Addr = 0x00;
	}
	
	
	if(tmp_LORA == LORA01)
    214e:	4b81      	ldr	r3, [pc, #516]	; (2354 <Load_LoRa_Profile_in_NVM+0x308>)
    2150:	681b      	ldr	r3, [r3, #0]
    2152:	429c      	cmp	r4, r3
    2154:	d100      	bne.n	2158 <Load_LoRa_Profile_in_NVM+0x10c>
    2156:	e0c5      	b.n	22e4 <Load_LoRa_Profile_in_NVM+0x298>
	
	

	
	
	uTXByte(Debug_COM, 'N');
    2158:	4d7f      	ldr	r5, [pc, #508]	; (2358 <Load_LoRa_Profile_in_NVM+0x30c>)
    215a:	214e      	movs	r1, #78	; 0x4e
    215c:	0028      	movs	r0, r5
    215e:	4e7f      	ldr	r6, [pc, #508]	; (235c <Load_LoRa_Profile_in_NVM+0x310>)
    2160:	47b0      	blx	r6
	uTXByte(Debug_COM, 'V');
    2162:	2156      	movs	r1, #86	; 0x56
    2164:	0028      	movs	r0, r5
    2166:	47b0      	blx	r6
	uTXByte(Debug_COM, 'M');
    2168:	214d      	movs	r1, #77	; 0x4d
    216a:	0028      	movs	r0, r5
    216c:	47b0      	blx	r6
	uTXByte(Debug_COM, ':');
    216e:	213a      	movs	r1, #58	; 0x3a
    2170:	0028      	movs	r0, r5
    2172:	47b0      	blx	r6
	uTXByte(Debug_COM, ' ');
    2174:	2120      	movs	r1, #32
    2176:	0028      	movs	r0, r5
    2178:	47b0      	blx	r6
	uart_send_ascii_byte(Debug_COM, tmp_page_buffer[tmp_LORA->NVM_offset_Value]);
    217a:	238e      	movs	r3, #142	; 0x8e
    217c:	009b      	lsls	r3, r3, #2
    217e:	4698      	mov	r8, r3
    2180:	5ce3      	ldrb	r3, [r4, r3]
    2182:	b2db      	uxtb	r3, r3
    2184:	aa02      	add	r2, sp, #8
    2186:	5cd1      	ldrb	r1, [r2, r3]
    2188:	0028      	movs	r0, r5
    218a:	4f75      	ldr	r7, [pc, #468]	; (2360 <Load_LoRa_Profile_in_NVM+0x314>)
    218c:	47b8      	blx	r7
	uTXByte(Debug_COM, ' ');
    218e:	2120      	movs	r1, #32
    2190:	0028      	movs	r0, r5
    2192:	47b0      	blx	r6
	uart_send_ascii_byte(Debug_COM, tmp_page_buffer[tmp_LORA->NVM_offset_Value + 1]);
    2194:	4643      	mov	r3, r8
    2196:	5ce3      	ldrb	r3, [r4, r3]
    2198:	aa02      	add	r2, sp, #8
    219a:	4694      	mov	ip, r2
    219c:	4463      	add	r3, ip
    219e:	7859      	ldrb	r1, [r3, #1]
    21a0:	0028      	movs	r0, r5
    21a2:	47b8      	blx	r7
	uTXByte(Debug_COM, ' ');
    21a4:	2120      	movs	r1, #32
    21a6:	0028      	movs	r0, r5
    21a8:	47b0      	blx	r6
	uart_send_ascii_byte(Debug_COM, tmp_page_buffer[tmp_LORA->NVM_offset_Value + 2]);
    21aa:	4643      	mov	r3, r8
    21ac:	5ce3      	ldrb	r3, [r4, r3]
    21ae:	aa02      	add	r2, sp, #8
    21b0:	4694      	mov	ip, r2
    21b2:	4463      	add	r3, ip
    21b4:	7899      	ldrb	r1, [r3, #2]
    21b6:	0028      	movs	r0, r5
    21b8:	47b8      	blx	r7
	uTXByte(Debug_COM, ' ');
    21ba:	2120      	movs	r1, #32
    21bc:	0028      	movs	r0, r5
    21be:	47b0      	blx	r6
	uart_send_ascii_byte(Debug_COM, tmp_page_buffer[tmp_LORA->NVM_offset_Value + 3]);
    21c0:	4643      	mov	r3, r8
    21c2:	5ce3      	ldrb	r3, [r4, r3]
    21c4:	aa02      	add	r2, sp, #8
    21c6:	4694      	mov	ip, r2
    21c8:	4463      	add	r3, ip
    21ca:	78d9      	ldrb	r1, [r3, #3]
    21cc:	0028      	movs	r0, r5
    21ce:	47b8      	blx	r7
	uart_send_ascii_byte(Debug_COM, tmp_page_buffer[tmp_LORA->NVM_offset_Value + 4]);
    21d0:	4643      	mov	r3, r8
    21d2:	5ce3      	ldrb	r3, [r4, r3]
    21d4:	aa02      	add	r2, sp, #8
    21d6:	4694      	mov	ip, r2
    21d8:	4463      	add	r3, ip
    21da:	7919      	ldrb	r1, [r3, #4]
    21dc:	0028      	movs	r0, r5
    21de:	47b8      	blx	r7
	uart_send_ascii_byte(Debug_COM, tmp_page_buffer[tmp_LORA->NVM_offset_Value + 5]);
    21e0:	4643      	mov	r3, r8
    21e2:	5ce3      	ldrb	r3, [r4, r3]
    21e4:	aa02      	add	r2, sp, #8
    21e6:	4694      	mov	ip, r2
    21e8:	4463      	add	r3, ip
    21ea:	7959      	ldrb	r1, [r3, #5]
    21ec:	0028      	movs	r0, r5
    21ee:	47b8      	blx	r7
	uTXByte(Debug_COM, ' ');
    21f0:	2120      	movs	r1, #32
    21f2:	0028      	movs	r0, r5
    21f4:	47b0      	blx	r6
	uart_send_ascii_byte(Debug_COM, tmp_page_buffer[tmp_LORA->NVM_offset_Value + 6]);
    21f6:	4643      	mov	r3, r8
    21f8:	5ce3      	ldrb	r3, [r4, r3]
    21fa:	aa02      	add	r2, sp, #8
    21fc:	4694      	mov	ip, r2
    21fe:	4463      	add	r3, ip
    2200:	7999      	ldrb	r1, [r3, #6]
    2202:	0028      	movs	r0, r5
    2204:	47b8      	blx	r7
	uTXByte(Debug_COM, ' ');
    2206:	2120      	movs	r1, #32
    2208:	0028      	movs	r0, r5
    220a:	47b0      	blx	r6
	uart_send_ascii_byte(Debug_COM, tmp_page_buffer[tmp_LORA->NVM_offset_Value + 7]);
    220c:	4643      	mov	r3, r8
    220e:	5ce3      	ldrb	r3, [r4, r3]
    2210:	aa02      	add	r2, sp, #8
    2212:	4694      	mov	ip, r2
    2214:	4463      	add	r3, ip
    2216:	79d9      	ldrb	r1, [r3, #7]
    2218:	0028      	movs	r0, r5
    221a:	47b8      	blx	r7
	uTXByte(Debug_COM, ' ');
    221c:	2120      	movs	r1, #32
    221e:	0028      	movs	r0, r5
    2220:	47b0      	blx	r6
	uart_send_ascii_byte(Debug_COM, tmp_LORA->UserLoRaID[0]);
    2222:	7961      	ldrb	r1, [r4, #5]
    2224:	b2c9      	uxtb	r1, r1
    2226:	0028      	movs	r0, r5
    2228:	47b8      	blx	r7
	uart_send_ascii_byte(Debug_COM, tmp_LORA->UserLoRaID[1]);
    222a:	79a1      	ldrb	r1, [r4, #6]
    222c:	b2c9      	uxtb	r1, r1
    222e:	0028      	movs	r0, r5
    2230:	47b8      	blx	r7
	uart_send_ascii_byte(Debug_COM, tmp_LORA->UserLoRaID[2]);
    2232:	79e1      	ldrb	r1, [r4, #7]
    2234:	b2c9      	uxtb	r1, r1
    2236:	0028      	movs	r0, r5
    2238:	47b8      	blx	r7
	uart_send_ascii_byte(Debug_COM, tmp_LORA->UserLoRaID[3]);
    223a:	7a21      	ldrb	r1, [r4, #8]
    223c:	b2c9      	uxtb	r1, r1
    223e:	0028      	movs	r0, r5
    2240:	47b8      	blx	r7
	uTXByte(Debug_COM, ' ');
    2242:	2120      	movs	r1, #32
    2244:	0028      	movs	r0, r5
    2246:	47b0      	blx	r6
	uart_send_ascii_byte(Debug_COM, tmp_LORA->PLC_Flag);
    2248:	7c21      	ldrb	r1, [r4, #16]
    224a:	b2c9      	uxtb	r1, r1
    224c:	0028      	movs	r0, r5
    224e:	47b8      	blx	r7
	uTXByte(Debug_COM, ' ');
    2250:	2120      	movs	r1, #32
    2252:	0028      	movs	r0, r5
    2254:	47b0      	blx	r6
	uart_send_ascii_byte(Debug_COM, tmp_LORA->PLC_Addr);
    2256:	7c61      	ldrb	r1, [r4, #17]
    2258:	b2c9      	uxtb	r1, r1
    225a:	0028      	movs	r0, r5
    225c:	47b8      	blx	r7
	uTXByte(Debug_COM, 0x0d);
    225e:	210d      	movs	r1, #13
    2260:	0028      	movs	r0, r5
    2262:	47b0      	blx	r6
	
}
    2264:	b013      	add	sp, #76	; 0x4c
    2266:	bc3c      	pop	{r2, r3, r4, r5}
    2268:	4690      	mov	r8, r2
    226a:	4699      	mov	r9, r3
    226c:	46a2      	mov	sl, r4
    226e:	46ab      	mov	fp, r5
    2270:	bdf0      	pop	{r4, r5, r6, r7, pc}
		tmp_LORA->MyLoRaPower = tmp_LORA->MyLoRaTmp[Write_LoRa_Mode_FQ_Index][7];
    2272:	23c5      	movs	r3, #197	; 0xc5
    2274:	5ce3      	ldrb	r3, [r4, r3]
    2276:	b2db      	uxtb	r3, r3
    2278:	73a3      	strb	r3, [r4, #14]
	tmp_LORA->MyLoRaSF = tmp_page_buffer[tmp_LORA->NVM_offset_Value + 2];
    227a:	238e      	movs	r3, #142	; 0x8e
    227c:	009b      	lsls	r3, r3, #2
    227e:	5ce3      	ldrb	r3, [r4, r3]
    2280:	a902      	add	r1, sp, #8
    2282:	468c      	mov	ip, r1
    2284:	4463      	add	r3, ip
    2286:	789b      	ldrb	r3, [r3, #2]
    2288:	73e3      	strb	r3, [r4, #15]
		tmp_LORA->MyLoRaSF = tmp_LORA->MyLoRaTmp[Write_LoRa_Setting_Index][5];
    228a:	23de      	movs	r3, #222	; 0xde
    228c:	5ce3      	ldrb	r3, [r4, r3]
    228e:	b2db      	uxtb	r3, r3
    2290:	73e3      	strb	r3, [r4, #15]
    2292:	e709      	b.n	20a8 <Load_LoRa_Profile_in_NVM+0x5c>
		tmp_LORA->MyLoRaFQ.byte[2] = tmp_LORA->MyLoRaTmp[Write_LoRa_Mode_FQ_Index][4];
    2294:	23c2      	movs	r3, #194	; 0xc2
    2296:	5ce3      	ldrb	r3, [r4, r3]
    2298:	b2db      	uxtb	r3, r3
    229a:	75a3      	strb	r3, [r4, #22]
		tmp_LORA->MyLoRaFQ.byte[1] = tmp_LORA->MyLoRaTmp[Write_LoRa_Mode_FQ_Index][5];
    229c:	23c3      	movs	r3, #195	; 0xc3
    229e:	5ce3      	ldrb	r3, [r4, r3]
    22a0:	b2db      	uxtb	r3, r3
    22a2:	7563      	strb	r3, [r4, #21]
		tmp_LORA->MyLoRaFQ.byte[0] = tmp_LORA->MyLoRaTmp[Write_LoRa_Mode_FQ_Index][6];
    22a4:	23c4      	movs	r3, #196	; 0xc4
    22a6:	5ce3      	ldrb	r3, [r4, r3]
    22a8:	b2db      	uxtb	r3, r3
    22aa:	7523      	strb	r3, [r4, #20]
	tmp_LORA->Lora_Debug_Flag = tmp_page_buffer[tmp_LORA->NVM_offset_Value + 6];
    22ac:	218e      	movs	r1, #142	; 0x8e
    22ae:	0089      	lsls	r1, r1, #2
    22b0:	5c63      	ldrb	r3, [r4, r1]
    22b2:	a802      	add	r0, sp, #8
    22b4:	4684      	mov	ip, r0
    22b6:	4463      	add	r3, ip
    22b8:	7998      	ldrb	r0, [r3, #6]
    22ba:	2388      	movs	r3, #136	; 0x88
    22bc:	009b      	lsls	r3, r3, #2
    22be:	54e0      	strb	r0, [r4, r3]
		tmp_LORA->Lora_Debug_Flag = NeedDebug;
    22c0:	2001      	movs	r0, #1
    22c2:	54e0      	strb	r0, [r4, r3]
	tmp_LORA->Lora_Debug_Flag = tmp_page_buffer[tmp_LORA->NVM_offset_Value + 6];
    22c4:	5c61      	ldrb	r1, [r4, r1]
    22c6:	4461      	add	r1, ip
    22c8:	7989      	ldrb	r1, [r1, #6]
    22ca:	54e1      	strb	r1, [r4, r3]
		tmp_LORA->Lora_Debug_Flag = NeedDebug;
    22cc:	54e0      	strb	r0, [r4, r3]
    22ce:	e716      	b.n	20fe <Load_LoRa_Profile_in_NVM+0xb2>
		tmp_LORA->PLC_Flag = NoPLC;
    22d0:	2200      	movs	r2, #0
    22d2:	7422      	strb	r2, [r4, #16]
	tmp_LORA->PLC_Addr = tmp_page_buffer[tmp_LORA->NVM_offset_Value + 13];
    22d4:	238e      	movs	r3, #142	; 0x8e
    22d6:	009b      	lsls	r3, r3, #2
    22d8:	5ce3      	ldrb	r3, [r4, r3]
    22da:	4463      	add	r3, ip
    22dc:	7b5b      	ldrb	r3, [r3, #13]
    22de:	7463      	strb	r3, [r4, #17]
		tmp_LORA->PLC_Addr = 0x00;
    22e0:	7462      	strb	r2, [r4, #17]
    22e2:	e734      	b.n	214e <Load_LoRa_Profile_in_NVM+0x102>
    22e4:	2632      	movs	r6, #50	; 0x32
    22e6:	ab02      	add	r3, sp, #8
    22e8:	469c      	mov	ip, r3
    22ea:	4466      	add	r6, ip
	if(tmp_LORA == LORA01)
    22ec:	2500      	movs	r5, #0
			tmp16.byte[0] = tmp_page_buffer[50 + (i * 2)];
    22ee:	27ff      	movs	r7, #255	; 0xff
			if(tmp16.word != 0xffff)
    22f0:	4b1c      	ldr	r3, [pc, #112]	; (2364 <Load_LoRa_Profile_in_NVM+0x318>)
    22f2:	469b      	mov	fp, r3
			CH_Formula_base[i] = CH_Formula_base[i] / 1600;
    22f4:	4b1c      	ldr	r3, [pc, #112]	; (2368 <Load_LoRa_Profile_in_NVM+0x31c>)
    22f6:	469a      	mov	sl, r3
    22f8:	4b1c      	ldr	r3, [pc, #112]	; (236c <Load_LoRa_Profile_in_NVM+0x320>)
    22fa:	4699      	mov	r9, r3
    22fc:	46a0      	mov	r8, r4
    22fe:	e00f      	b.n	2320 <Load_LoRa_Profile_in_NVM+0x2d4>
			CH_Formula[i] = 0x00;
    2300:	4b1b      	ldr	r3, [pc, #108]	; (2370 <Load_LoRa_Profile_in_NVM+0x324>)
    2302:	18eb      	adds	r3, r5, r3
    2304:	2200      	movs	r2, #0
    2306:	601a      	str	r2, [r3, #0]
			CH_Formula_base[i] = CH_Formula_base[i] / 1600;
    2308:	4653      	mov	r3, sl
    230a:	18ec      	adds	r4, r5, r3
			CH_Formula_base[i] = tmp16.word * 10000;
    230c:	4b19      	ldr	r3, [pc, #100]	; (2374 <Load_LoRa_Profile_in_NVM+0x328>)
    230e:	4358      	muls	r0, r3
			CH_Formula_base[i] = CH_Formula_base[i] / 1600;
    2310:	21c8      	movs	r1, #200	; 0xc8
    2312:	00c9      	lsls	r1, r1, #3
    2314:	47c8      	blx	r9
    2316:	6020      	str	r0, [r4, #0]
    2318:	3602      	adds	r6, #2
    231a:	3504      	adds	r5, #4
		for (unsigned char i = 0; i < 4; i++)
    231c:	2d10      	cmp	r5, #16
    231e:	d00f      	beq.n	2340 <Load_LoRa_Profile_in_NVM+0x2f4>
			tmp16.byte[0] = tmp_page_buffer[50 + (i * 2)];
    2320:	7830      	ldrb	r0, [r6, #0]
    2322:	9b00      	ldr	r3, [sp, #0]
    2324:	43bb      	bics	r3, r7
    2326:	4318      	orrs	r0, r3
			tmp16.byte[1] = tmp_page_buffer[51 + (i * 2)];
    2328:	7873      	ldrb	r3, [r6, #1]
    232a:	021b      	lsls	r3, r3, #8
    232c:	4038      	ands	r0, r7
    232e:	4318      	orrs	r0, r3
    2330:	466b      	mov	r3, sp
    2332:	8018      	strh	r0, [r3, #0]
			if(tmp16.word != 0xffff)
    2334:	b280      	uxth	r0, r0
    2336:	4558      	cmp	r0, fp
    2338:	d0e2      	beq.n	2300 <Load_LoRa_Profile_in_NVM+0x2b4>
			CH_Formula[i] = tmp16.word;
    233a:	4b0d      	ldr	r3, [pc, #52]	; (2370 <Load_LoRa_Profile_in_NVM+0x324>)
    233c:	5158      	str	r0, [r3, r5]
    233e:	e7e3      	b.n	2308 <Load_LoRa_Profile_in_NVM+0x2bc>
    2340:	4644      	mov	r4, r8
    2342:	e709      	b.n	2158 <Load_LoRa_Profile_in_NVM+0x10c>
    2344:	000002d5 	.word	0x000002d5
    2348:	200027d7 	.word	0x200027d7
    234c:	00020d00 	.word	0x00020d00
    2350:	20002804 	.word	0x20002804
    2354:	200018bc 	.word	0x200018bc
    2358:	20000270 	.word	0x20000270
    235c:	00002725 	.word	0x00002725
    2360:	00002745 	.word	0x00002745
    2364:	0000ffff 	.word	0x0000ffff
    2368:	20001660 	.word	0x20001660
    236c:	00006795 	.word	0x00006795
    2370:	200018c0 	.word	0x200018c0
    2374:	00002710 	.word	0x00002710

00002378 <Save_LoRa_Profile_in_NVM>:

void Save_LoRa_Profile_in_NVM(volatile LORA_DEFINE_t *tmp_LORA)
{
    2378:	b570      	push	{r4, r5, r6, lr}
    237a:	b090      	sub	sp, #64	; 0x40
    237c:	0004      	movs	r4, r0
	UINT16u_t tmp16;
	uint8_t tmp_page_buffer[NVMCTRL_PAGE_SIZE];
	do
	{
		error_code = nvm_read_buffer(
    237e:	4e3c      	ldr	r6, [pc, #240]	; (2470 <Save_LoRa_Profile_in_NVM+0xf8>)
    2380:	4d3c      	ldr	r5, [pc, #240]	; (2474 <Save_LoRa_Profile_in_NVM+0xfc>)
    2382:	2240      	movs	r2, #64	; 0x40
    2384:	4669      	mov	r1, sp
    2386:	483c      	ldr	r0, [pc, #240]	; (2478 <Save_LoRa_Profile_in_NVM+0x100>)
    2388:	47b0      	blx	r6
    238a:	7028      	strb	r0, [r5, #0]
		525  * NVMCTRL_ROW_PAGES * NVMCTRL_PAGE_SIZE,
		tmp_page_buffer, NVMCTRL_PAGE_SIZE);
	} while (error_code == STATUS_BUSY);
    238c:	2805      	cmp	r0, #5
    238e:	d0f8      	beq.n	2382 <Save_LoRa_Profile_in_NVM+0xa>
	
	tmp_page_buffer[tmp_LORA->NVM_offset_Value] = 0x55;
    2390:	238e      	movs	r3, #142	; 0x8e
    2392:	009b      	lsls	r3, r3, #2
    2394:	5ce2      	ldrb	r2, [r4, r3]
    2396:	b2d2      	uxtb	r2, r2
    2398:	2155      	movs	r1, #85	; 0x55
    239a:	4668      	mov	r0, sp
    239c:	5481      	strb	r1, [r0, r2]
	tmp_page_buffer[tmp_LORA->NVM_offset_Value + 1] = tmp_LORA->MyLoRaPower;
    239e:	5ce2      	ldrb	r2, [r4, r3]
    23a0:	7ba1      	ldrb	r1, [r4, #14]
    23a2:	446a      	add	r2, sp
    23a4:	7051      	strb	r1, [r2, #1]
	tmp_page_buffer[tmp_LORA->NVM_offset_Value + 2] = tmp_LORA->MyLoRaSF;
    23a6:	5ce2      	ldrb	r2, [r4, r3]
    23a8:	7be1      	ldrb	r1, [r4, #15]
    23aa:	446a      	add	r2, sp
    23ac:	7091      	strb	r1, [r2, #2]
	tmp_page_buffer[tmp_LORA->NVM_offset_Value + 3] = tmp_LORA->MyLoRaFQ.byte[2];
    23ae:	5ce2      	ldrb	r2, [r4, r3]
    23b0:	7da1      	ldrb	r1, [r4, #22]
    23b2:	446a      	add	r2, sp
    23b4:	70d1      	strb	r1, [r2, #3]
	tmp_page_buffer[tmp_LORA->NVM_offset_Value + 4] = tmp_LORA->MyLoRaFQ.byte[1];
    23b6:	5ce2      	ldrb	r2, [r4, r3]
    23b8:	7d61      	ldrb	r1, [r4, #21]
    23ba:	446a      	add	r2, sp
    23bc:	7111      	strb	r1, [r2, #4]
	tmp_page_buffer[tmp_LORA->NVM_offset_Value + 5] = tmp_LORA->MyLoRaFQ.byte[0];
    23be:	5ce2      	ldrb	r2, [r4, r3]
    23c0:	7d21      	ldrb	r1, [r4, #20]
    23c2:	446a      	add	r2, sp
    23c4:	7151      	strb	r1, [r2, #5]
	tmp_page_buffer[tmp_LORA->NVM_offset_Value + 6] = tmp_LORA->Lora_Debug_Flag;
    23c6:	5ce2      	ldrb	r2, [r4, r3]
    23c8:	2188      	movs	r1, #136	; 0x88
    23ca:	0089      	lsls	r1, r1, #2
    23cc:	5c61      	ldrb	r1, [r4, r1]
    23ce:	446a      	add	r2, sp
    23d0:	7191      	strb	r1, [r2, #6]
	tmp_page_buffer[tmp_LORA->NVM_offset_Value + 7] = RESET_COUNT + 1;
    23d2:	5ce2      	ldrb	r2, [r4, r3]
    23d4:	446a      	add	r2, sp
    23d6:	4929      	ldr	r1, [pc, #164]	; (247c <Save_LoRa_Profile_in_NVM+0x104>)
    23d8:	7809      	ldrb	r1, [r1, #0]
    23da:	3101      	adds	r1, #1
    23dc:	71d1      	strb	r1, [r2, #7]
	tmp_page_buffer[tmp_LORA->NVM_offset_Value + 8] = tmp_LORA->MyLoRaID[0];
    23de:	5ce2      	ldrb	r2, [r4, r3]
    23e0:	7861      	ldrb	r1, [r4, #1]
    23e2:	446a      	add	r2, sp
    23e4:	7211      	strb	r1, [r2, #8]
	tmp_page_buffer[tmp_LORA->NVM_offset_Value + 9] = tmp_LORA->MyLoRaID[1];
    23e6:	5ce2      	ldrb	r2, [r4, r3]
    23e8:	78a1      	ldrb	r1, [r4, #2]
    23ea:	446a      	add	r2, sp
    23ec:	7251      	strb	r1, [r2, #9]
	tmp_page_buffer[tmp_LORA->NVM_offset_Value + 10] = tmp_LORA->MyLoRaID[2];
    23ee:	5ce2      	ldrb	r2, [r4, r3]
    23f0:	78e1      	ldrb	r1, [r4, #3]
    23f2:	446a      	add	r2, sp
    23f4:	7291      	strb	r1, [r2, #10]
	tmp_page_buffer[tmp_LORA->NVM_offset_Value + 11] = tmp_LORA->MyLoRaID[3];
    23f6:	5ce2      	ldrb	r2, [r4, r3]
    23f8:	7921      	ldrb	r1, [r4, #4]
    23fa:	446a      	add	r2, sp
    23fc:	72d1      	strb	r1, [r2, #11]
	tmp_page_buffer[tmp_LORA->NVM_offset_Value + 12] = tmp_LORA->PLC_Flag;
    23fe:	5ce2      	ldrb	r2, [r4, r3]
    2400:	7c21      	ldrb	r1, [r4, #16]
    2402:	446a      	add	r2, sp
    2404:	7311      	strb	r1, [r2, #12]
	tmp_page_buffer[tmp_LORA->NVM_offset_Value + 13] = tmp_LORA->PLC_Addr;
    2406:	5ce3      	ldrb	r3, [r4, r3]
    2408:	7c62      	ldrb	r2, [r4, #17]
    240a:	446b      	add	r3, sp
    240c:	735a      	strb	r2, [r3, #13]
	
	if(tmp_LORA == LORA01)
    240e:	4b1c      	ldr	r3, [pc, #112]	; (2480 <Save_LoRa_Profile_in_NVM+0x108>)
    2410:	681b      	ldr	r3, [r3, #0]
    2412:	429c      	cmp	r4, r3
    2414:	d012      	beq.n	243c <Save_LoRa_Profile_in_NVM+0xc4>
		tmp_page_buffer[57] = tmp16.byte[1];
	}
	
	do
	{
		error_code = nvm_erase_row(
    2416:	4e18      	ldr	r6, [pc, #96]	; (2478 <Save_LoRa_Profile_in_NVM+0x100>)
    2418:	4d1a      	ldr	r5, [pc, #104]	; (2484 <Save_LoRa_Profile_in_NVM+0x10c>)
    241a:	4c16      	ldr	r4, [pc, #88]	; (2474 <Save_LoRa_Profile_in_NVM+0xfc>)
    241c:	0030      	movs	r0, r6
    241e:	47a8      	blx	r5
    2420:	7020      	strb	r0, [r4, #0]
		525 * NVMCTRL_ROW_PAGES * NVMCTRL_PAGE_SIZE);
	} while (error_code == STATUS_BUSY);
    2422:	2805      	cmp	r0, #5
    2424:	d0fa      	beq.n	241c <Save_LoRa_Profile_in_NVM+0xa4>
	
	do
	{
		error_code = nvm_write_buffer(
    2426:	4d18      	ldr	r5, [pc, #96]	; (2488 <Save_LoRa_Profile_in_NVM+0x110>)
    2428:	4c12      	ldr	r4, [pc, #72]	; (2474 <Save_LoRa_Profile_in_NVM+0xfc>)
    242a:	2240      	movs	r2, #64	; 0x40
    242c:	4669      	mov	r1, sp
    242e:	4812      	ldr	r0, [pc, #72]	; (2478 <Save_LoRa_Profile_in_NVM+0x100>)
    2430:	47a8      	blx	r5
    2432:	7020      	strb	r0, [r4, #0]
		525  * NVMCTRL_ROW_PAGES * NVMCTRL_PAGE_SIZE,
		tmp_page_buffer, NVMCTRL_PAGE_SIZE);
	} while (error_code == STATUS_BUSY);
    2434:	2805      	cmp	r0, #5
    2436:	d0f8      	beq.n	242a <Save_LoRa_Profile_in_NVM+0xb2>
    2438:	b010      	add	sp, #64	; 0x40
    243a:	bd70      	pop	{r4, r5, r6, pc}
		tmp16.word = CH_Formula[0];
    243c:	4b13      	ldr	r3, [pc, #76]	; (248c <Save_LoRa_Profile_in_NVM+0x114>)
    243e:	681a      	ldr	r2, [r3, #0]
		tmp_page_buffer[50] = tmp16.byte[0];
    2440:	2132      	movs	r1, #50	; 0x32
    2442:	5442      	strb	r2, [r0, r1]
		tmp_page_buffer[51] = tmp16.byte[1];
    2444:	0a12      	lsrs	r2, r2, #8
    2446:	3101      	adds	r1, #1
    2448:	5442      	strb	r2, [r0, r1]
		tmp16.word = CH_Formula[1];
    244a:	685a      	ldr	r2, [r3, #4]
		tmp_page_buffer[52] = tmp16.byte[0];
    244c:	3101      	adds	r1, #1
    244e:	5442      	strb	r2, [r0, r1]
		tmp_page_buffer[53] = tmp16.byte[1];
    2450:	0a12      	lsrs	r2, r2, #8
    2452:	3101      	adds	r1, #1
    2454:	5442      	strb	r2, [r0, r1]
		tmp16.word = CH_Formula[2];
    2456:	689a      	ldr	r2, [r3, #8]
		tmp_page_buffer[54] = tmp16.byte[0];
    2458:	3101      	adds	r1, #1
    245a:	5442      	strb	r2, [r0, r1]
		tmp_page_buffer[55] = tmp16.byte[1];
    245c:	0a12      	lsrs	r2, r2, #8
    245e:	3101      	adds	r1, #1
    2460:	5442      	strb	r2, [r0, r1]
		tmp16.word = CH_Formula[3];
    2462:	68db      	ldr	r3, [r3, #12]
		tmp_page_buffer[56] = tmp16.byte[0];
    2464:	2238      	movs	r2, #56	; 0x38
    2466:	5483      	strb	r3, [r0, r2]
		tmp_page_buffer[57] = tmp16.byte[1];
    2468:	0a1b      	lsrs	r3, r3, #8
    246a:	3201      	adds	r2, #1
    246c:	5483      	strb	r3, [r0, r2]
    246e:	e7d2      	b.n	2416 <Save_LoRa_Profile_in_NVM+0x9e>
    2470:	000002d5 	.word	0x000002d5
    2474:	200027d7 	.word	0x200027d7
    2478:	00020d00 	.word	0x00020d00
    247c:	20002804 	.word	0x20002804
    2480:	200018bc 	.word	0x200018bc
    2484:	00000341 	.word	0x00000341
    2488:	0000022d 	.word	0x0000022d
    248c:	200018c0 	.word	0x200018c0

00002490 <configure_nvm>:



//! [setup]
void configure_nvm(void)
{
    2490:	b500      	push	{lr}
    2492:	b083      	sub	sp, #12
{
	/* Sanity check the parameters */
	Assert(config);

	/* Write the default configuration for the NVM configuration */
	config->sleep_power_mode  = NVM_SLEEP_POWER_MODE_WAKEONACCESS;
    2494:	2200      	movs	r2, #0
    2496:	466b      	mov	r3, sp
    2498:	701a      	strb	r2, [r3, #0]
	config->manual_page_write = true;
	config->wait_states       = NVMCTRL->CTRLB.bit.RWS;
    249a:	4b07      	ldr	r3, [pc, #28]	; (24b8 <configure_nvm+0x28>)
    249c:	685b      	ldr	r3, [r3, #4]
    249e:	06db      	lsls	r3, r3, #27
    24a0:	0f1b      	lsrs	r3, r3, #28
    24a2:	4669      	mov	r1, sp
    24a4:	708b      	strb	r3, [r1, #2]
	config->disable_cache     = false;
    24a6:	70ca      	strb	r2, [r1, #3]
#if (SAMC20) || (SAMC21)
	config->disable_rww_cache = false;
#endif
	config->cache_readmode    = NVM_CACHE_READMODE_NO_MISS_PENALTY;
    24a8:	710a      	strb	r2, [r1, #4]
	//! [setup_2]
	nvm_get_config_defaults(&config_nvm);
	//! [setup_2]

	//! [setup_3]
	config_nvm.manual_page_write = false;
    24aa:	704a      	strb	r2, [r1, #1]
	//config_nvm.manual_page_write = true;
	//! [setup_3]

	//! [setup_4]
	nvm_set_config(&config_nvm);
    24ac:	4668      	mov	r0, sp
    24ae:	4b03      	ldr	r3, [pc, #12]	; (24bc <configure_nvm+0x2c>)
    24b0:	4798      	blx	r3
	//! [setup_4]
}
    24b2:	b003      	add	sp, #12
    24b4:	bd00      	pop	{pc}
    24b6:	46c0      	nop			; (mov r8, r8)
    24b8:	41004000 	.word	0x41004000
    24bc:	00000105 	.word	0x00000105

000024c0 <Save_List_in_NVM>:




void Save_List_in_NVM(volatile LORA_Dev_List_t *tmp_LORA_Dev_List_Index)
{
    24c0:	b5f0      	push	{r4, r5, r6, r7, lr}
    24c2:	46d6      	mov	lr, sl
    24c4:	4647      	mov	r7, r8
    24c6:	b580      	push	{r7, lr}
    24c8:	4c20      	ldr	r4, [pc, #128]	; (254c <Save_List_in_NVM+0x8c>)
    24ca:	44a5      	add	sp, r4
    24cc:	ae02      	add	r6, sp, #8
    24ce:	a998      	add	r1, sp, #608	; 0x260
    24d0:	0033      	movs	r3, r6
	// Dev_List (二維) 轉換成 page_buffer (一維)
	//======================================
	for( i = 0; i < Dev_Item_MAX; i++)
	{
		j = i * Dev_List_Data_Item_Max;
		page_buffer[j] = tmp_LORA_Dev_List_Index[i].Dev_Number;
    24d2:	7802      	ldrb	r2, [r0, #0]
    24d4:	701a      	strb	r2, [r3, #0]
		page_buffer[j+1] = tmp_LORA_Dev_List_Index[i].Dev_En_Flag;
    24d6:	7842      	ldrb	r2, [r0, #1]
    24d8:	705a      	strb	r2, [r3, #1]
		page_buffer[j+2] = tmp_LORA_Dev_List_Index[i].MAC_ID.byte[0];
    24da:	7902      	ldrb	r2, [r0, #4]
    24dc:	709a      	strb	r2, [r3, #2]
		page_buffer[j+3] = tmp_LORA_Dev_List_Index[i].MAC_ID.byte[1];
    24de:	7942      	ldrb	r2, [r0, #5]
    24e0:	70da      	strb	r2, [r3, #3]
		page_buffer[j+4] = tmp_LORA_Dev_List_Index[i].MAC_ID.byte[2];
    24e2:	7982      	ldrb	r2, [r0, #6]
    24e4:	711a      	strb	r2, [r3, #4]
		page_buffer[j+5] = tmp_LORA_Dev_List_Index[i].MAC_ID.byte[3];
    24e6:	79c2      	ldrb	r2, [r0, #7]
    24e8:	715a      	strb	r2, [r3, #5]
    24ea:	3010      	adds	r0, #16
    24ec:	3306      	adds	r3, #6
	for( i = 0; i < Dev_Item_MAX; i++)
    24ee:	428b      	cmp	r3, r1
    24f0:	d1ef      	bne.n	24d2 <Save_List_in_NVM+0x12>
    24f2:	23fa      	movs	r3, #250	; 0xfa
    24f4:	025b      	lsls	r3, r3, #9
    24f6:	9301      	str	r3, [sp, #4]
		//======================================
		// page_buffer 分次存到 tmp_page_buffer，準備存到NVM使用
		//======================================
		for(i = 0; i < NVMCTRL_PAGE_SIZE; i++)
		{
			tmp_page_buffer[i] = page_buffer[i + j];
    24f8:	aca2      	add	r4, sp, #648	; 0x288
		//======================================
		// 儲存前要先erase
		//======================================
		do
		{
			error_code = nvm_erase_row(
    24fa:	4b15      	ldr	r3, [pc, #84]	; (2550 <Save_List_in_NVM+0x90>)
    24fc:	4698      	mov	r8, r3
    24fe:	4f15      	ldr	r7, [pc, #84]	; (2554 <Save_List_in_NVM+0x94>)
{
    2500:	2300      	movs	r3, #0
			tmp_page_buffer[i] = page_buffer[i + j];
    2502:	5cf2      	ldrb	r2, [r6, r3]
    2504:	551a      	strb	r2, [r3, r4]
		for(i = 0; i < NVMCTRL_PAGE_SIZE; i++)
    2506:	3301      	adds	r3, #1
    2508:	2b40      	cmp	r3, #64	; 0x40
    250a:	d1fa      	bne.n	2502 <Save_List_in_NVM+0x42>
			error_code = nvm_erase_row(
    250c:	9801      	ldr	r0, [sp, #4]
    250e:	47c0      	blx	r8
    2510:	7038      	strb	r0, [r7, #0]
			(500 + k) * NVMCTRL_ROW_PAGES * NVMCTRL_PAGE_SIZE);
		} while (error_code == STATUS_BUSY);
    2512:	2805      	cmp	r0, #5
    2514:	d0fa      	beq.n	250c <Save_List_in_NVM+0x4c>
		//======================================
		// 開始儲存寫入
		//======================================
		do
		{
			error_code = nvm_write_buffer(
    2516:	4b10      	ldr	r3, [pc, #64]	; (2558 <Save_List_in_NVM+0x98>)
    2518:	469a      	mov	sl, r3
    251a:	4d0e      	ldr	r5, [pc, #56]	; (2554 <Save_List_in_NVM+0x94>)
    251c:	2240      	movs	r2, #64	; 0x40
    251e:	0021      	movs	r1, r4
    2520:	9801      	ldr	r0, [sp, #4]
    2522:	47d0      	blx	sl
    2524:	7028      	strb	r0, [r5, #0]
			(500 + k)  * NVMCTRL_ROW_PAGES * NVMCTRL_PAGE_SIZE,
			tmp_page_buffer, NVMCTRL_PAGE_SIZE);
		} while (error_code == STATUS_BUSY);
    2526:	2805      	cmp	r0, #5
    2528:	d0f8      	beq.n	251c <Save_List_in_NVM+0x5c>
    252a:	9b01      	ldr	r3, [sp, #4]
    252c:	3301      	adds	r3, #1
    252e:	33ff      	adds	r3, #255	; 0xff
    2530:	001a      	movs	r2, r3
    2532:	9301      	str	r3, [sp, #4]
    2534:	3640      	adds	r6, #64	; 0x40
	for(j = 0; j < (NVMCTRL_PAGE_SIZE * NVM_Dev_List_Use_Page_MAX); j = j + NVMCTRL_PAGE_SIZE)
    2536:	23ff      	movs	r3, #255	; 0xff
    2538:	025b      	lsls	r3, r3, #9
    253a:	429a      	cmp	r2, r3
    253c:	d1e0      	bne.n	2500 <Save_List_in_NVM+0x40>
		// K = page count，每+1 = 256 位置
		// 因為位置計算公式為 NVMCTRL_ROW_PAGES(4) * NVMCTRL_PAGE_SIZE (64) = 256個位置
		//======================================
		k++;
	}
}
    253e:	23b3      	movs	r3, #179	; 0xb3
    2540:	009b      	lsls	r3, r3, #2
    2542:	449d      	add	sp, r3
    2544:	bc0c      	pop	{r2, r3}
    2546:	4690      	mov	r8, r2
    2548:	469a      	mov	sl, r3
    254a:	bdf0      	pop	{r4, r5, r6, r7, pc}
    254c:	fffffd34 	.word	0xfffffd34
    2550:	00000341 	.word	0x00000341
    2554:	200027d7 	.word	0x200027d7
    2558:	0000022d 	.word	0x0000022d

0000255c <Load_List_Form_NVM>:




void Load_List_Form_NVM(volatile LORA_Dev_List_t *tmp_LORA_Dev_List_Index)
{
    255c:	b5f0      	push	{r4, r5, r6, r7, lr}
    255e:	46c6      	mov	lr, r8
    2560:	b500      	push	{lr}
    2562:	4c1e      	ldr	r4, [pc, #120]	; (25dc <Load_List_Form_NVM+0x80>)
    2564:	44a5      	add	sp, r4
    2566:	9001      	str	r0, [sp, #4]
    2568:	af02      	add	r7, sp, #8
    256a:	003c      	movs	r4, r7
    256c:	23fa      	movs	r3, #250	; 0xfa
    256e:	025b      	lsls	r3, r3, #9
    2570:	9300      	str	r3, [sp, #0]
					//	64 BYTE				24個自訂義PAGE					
	for(j = 0; j < (NVMCTRL_PAGE_SIZE * NVM_Dev_List_Use_Page_MAX); j = j + NVMCTRL_PAGE_SIZE)
	{
		do
		{
			error_code = nvm_read_buffer(	(500 + k)  * NVMCTRL_ROW_PAGES * NVMCTRL_PAGE_SIZE,
    2572:	ada2      	add	r5, sp, #648	; 0x288
    2574:	4e1a      	ldr	r6, [pc, #104]	; (25e0 <Load_List_Form_NVM+0x84>)
    2576:	4b1b      	ldr	r3, [pc, #108]	; (25e4 <Load_List_Form_NVM+0x88>)
    2578:	4698      	mov	r8, r3
    257a:	2240      	movs	r2, #64	; 0x40
    257c:	0029      	movs	r1, r5
    257e:	9800      	ldr	r0, [sp, #0]
    2580:	47b0      	blx	r6
    2582:	4643      	mov	r3, r8
    2584:	7018      	strb	r0, [r3, #0]
											tmp_page_buffer, NVMCTRL_PAGE_SIZE);
		} while (error_code == STATUS_BUSY);
    2586:	2805      	cmp	r0, #5
    2588:	d0f7      	beq.n	257a <Load_List_Form_NVM+0x1e>
    258a:	2300      	movs	r3, #0
		
		for(i = 0; i < NVMCTRL_PAGE_SIZE; i++)
		{
			page_buffer[i + j] = tmp_page_buffer[i];
    258c:	5d5a      	ldrb	r2, [r3, r5]
    258e:	54e2      	strb	r2, [r4, r3]
		for(i = 0; i < NVMCTRL_PAGE_SIZE; i++)
    2590:	3301      	adds	r3, #1
    2592:	2b40      	cmp	r3, #64	; 0x40
    2594:	d1fa      	bne.n	258c <Load_List_Form_NVM+0x30>
    2596:	3440      	adds	r4, #64	; 0x40
    2598:	9b00      	ldr	r3, [sp, #0]
    259a:	3301      	adds	r3, #1
    259c:	33ff      	adds	r3, #255	; 0xff
    259e:	001a      	movs	r2, r3
    25a0:	9300      	str	r3, [sp, #0]
	for(j = 0; j < (NVMCTRL_PAGE_SIZE * NVM_Dev_List_Use_Page_MAX); j = j + NVMCTRL_PAGE_SIZE)
    25a2:	23ff      	movs	r3, #255	; 0xff
    25a4:	025b      	lsls	r3, r3, #9
    25a6:	429a      	cmp	r2, r3
    25a8:	d1e7      	bne.n	257a <Load_List_Form_NVM+0x1e>
    25aa:	9c01      	ldr	r4, [sp, #4]
    25ac:	aa98      	add	r2, sp, #608	; 0x260
	}
	
	for( i = 0; i < Dev_Item_MAX; i++)
	{
		j = i * Dev_List_Data_Item_Max;
		tmp_LORA_Dev_List_Index[i].Dev_Number = page_buffer[j];
    25ae:	783b      	ldrb	r3, [r7, #0]
    25b0:	7023      	strb	r3, [r4, #0]
		tmp_LORA_Dev_List_Index[i].Dev_En_Flag = page_buffer[j+1];
    25b2:	787b      	ldrb	r3, [r7, #1]
    25b4:	7063      	strb	r3, [r4, #1]
		tmp_LORA_Dev_List_Index[i].MAC_ID.byte[0] = page_buffer[j+2];
    25b6:	78bb      	ldrb	r3, [r7, #2]
    25b8:	7123      	strb	r3, [r4, #4]
		tmp_LORA_Dev_List_Index[i].MAC_ID.byte[1] = page_buffer[j+3];
    25ba:	78fb      	ldrb	r3, [r7, #3]
    25bc:	7163      	strb	r3, [r4, #5]
		tmp_LORA_Dev_List_Index[i].MAC_ID.byte[2] = page_buffer[j+4];
    25be:	793b      	ldrb	r3, [r7, #4]
    25c0:	71a3      	strb	r3, [r4, #6]
		tmp_LORA_Dev_List_Index[i].MAC_ID.byte[3] = page_buffer[j+5];
    25c2:	797b      	ldrb	r3, [r7, #5]
    25c4:	71e3      	strb	r3, [r4, #7]
    25c6:	3706      	adds	r7, #6
    25c8:	3410      	adds	r4, #16
	for( i = 0; i < Dev_Item_MAX; i++)
    25ca:	4297      	cmp	r7, r2
    25cc:	d1ef      	bne.n	25ae <Load_List_Form_NVM+0x52>
	}
}
    25ce:	23b2      	movs	r3, #178	; 0xb2
    25d0:	009b      	lsls	r3, r3, #2
    25d2:	449d      	add	sp, r3
    25d4:	bc04      	pop	{r2}
    25d6:	4690      	mov	r8, r2
    25d8:	bdf0      	pop	{r4, r5, r6, r7, pc}
    25da:	46c0      	nop			; (mov r8, r8)
    25dc:	fffffd38 	.word	0xfffffd38
    25e0:	000002d5 	.word	0x000002d5
    25e4:	200027d7 	.word	0x200027d7

000025e8 <Save_Write_PLC_List_in_NVM>:
#include <stdio.h>
#include "myDefine.h"


void Save_Write_PLC_List_in_NVM(volatile Write_PLC_List_t *tmp_Write_PLC_List_Index)
{
    25e8:	b5f0      	push	{r4, r5, r6, r7, lr}
    25ea:	46d6      	mov	lr, sl
    25ec:	4647      	mov	r7, r8
    25ee:	b580      	push	{r7, lr}
    25f0:	4c20      	ldr	r4, [pc, #128]	; (2674 <Save_Write_PLC_List_in_NVM+0x8c>)
    25f2:	44a5      	add	sp, r4
    25f4:	ae02      	add	r6, sp, #8
    25f6:	2196      	movs	r1, #150	; 0x96
    25f8:	0109      	lsls	r1, r1, #4
    25fa:	0033      	movs	r3, r6
    25fc:	46b4      	mov	ip, r6
    25fe:	4461      	add	r1, ip
	// Dev_List (二維) 轉換成 page_buffer (一維)
	//======================================
	for( i = 0; i < Write_PLC_List_Max; i++)
	{
		k = i * Write_PLC_List_Item_Max;
		page_buffer[k]		= tmp_Write_PLC_List_Index[i].MAC_ID_Index.byte[1];
    2600:	7842      	ldrb	r2, [r0, #1]
    2602:	701a      	strb	r2, [r3, #0]
		page_buffer[k + 1]	= tmp_Write_PLC_List_Index[i].MAC_ID_Index.byte[0];
    2604:	7802      	ldrb	r2, [r0, #0]
    2606:	705a      	strb	r2, [r3, #1]
		page_buffer[k + 2]	= tmp_Write_PLC_List_Index[i].Channel_Index;
    2608:	7882      	ldrb	r2, [r0, #2]
    260a:	709a      	strb	r2, [r3, #2]
		page_buffer[k + 3]	= tmp_Write_PLC_List_Index[i].Channel_En;
    260c:	78c2      	ldrb	r2, [r0, #3]
    260e:	70da      	strb	r2, [r3, #3]
    2610:	3004      	adds	r0, #4
    2612:	3304      	adds	r3, #4
	for( i = 0; i < Write_PLC_List_Max; i++)
    2614:	428b      	cmp	r3, r1
    2616:	d1f3      	bne.n	2600 <Save_Write_PLC_List_in_NVM+0x18>
    2618:	4b17      	ldr	r3, [pc, #92]	; (2678 <Save_Write_PLC_List_in_NVM+0x90>)
    261a:	9301      	str	r3, [sp, #4]
		//======================================
		// page_buffer 分次存到 tmp_page_buffer，準備存到NVM使用
		//======================================
		for(i = 0; i < NVMCTRL_PAGE_SIZE; i++)
		{
			tmp_page_buffer[i] = page_buffer[i + j];
    261c:	2498      	movs	r4, #152	; 0x98
    261e:	0124      	lsls	r4, r4, #4
    2620:	ab02      	add	r3, sp, #8
    2622:	469c      	mov	ip, r3
    2624:	4464      	add	r4, ip
		//======================================
		// 儲存前要先erase
		//======================================
		do
		{
			error_code = nvm_erase_row(
    2626:	4b15      	ldr	r3, [pc, #84]	; (267c <Save_Write_PLC_List_in_NVM+0x94>)
    2628:	4698      	mov	r8, r3
    262a:	4f15      	ldr	r7, [pc, #84]	; (2680 <Save_Write_PLC_List_in_NVM+0x98>)
{
    262c:	2300      	movs	r3, #0
			tmp_page_buffer[i] = page_buffer[i + j];
    262e:	5cf2      	ldrb	r2, [r6, r3]
    2630:	551a      	strb	r2, [r3, r4]
		for(i = 0; i < NVMCTRL_PAGE_SIZE; i++)
    2632:	3301      	adds	r3, #1
    2634:	2b40      	cmp	r3, #64	; 0x40
    2636:	d1fa      	bne.n	262e <Save_Write_PLC_List_in_NVM+0x46>
			error_code = nvm_erase_row(
    2638:	9801      	ldr	r0, [sp, #4]
    263a:	47c0      	blx	r8
    263c:	7038      	strb	r0, [r7, #0]
			(535 + k) * NVMCTRL_ROW_PAGES * NVMCTRL_PAGE_SIZE);
		} while (error_code == STATUS_BUSY);
    263e:	2805      	cmp	r0, #5
    2640:	d0fa      	beq.n	2638 <Save_Write_PLC_List_in_NVM+0x50>
		//======================================
		// 開始儲存寫入
		//======================================
		do
		{
			error_code = nvm_write_buffer(
    2642:	4b10      	ldr	r3, [pc, #64]	; (2684 <Save_Write_PLC_List_in_NVM+0x9c>)
    2644:	469a      	mov	sl, r3
    2646:	4d0e      	ldr	r5, [pc, #56]	; (2680 <Save_Write_PLC_List_in_NVM+0x98>)
    2648:	2240      	movs	r2, #64	; 0x40
    264a:	0021      	movs	r1, r4
    264c:	9801      	ldr	r0, [sp, #4]
    264e:	47d0      	blx	sl
    2650:	7028      	strb	r0, [r5, #0]
			(535 + k)  * NVMCTRL_ROW_PAGES * NVMCTRL_PAGE_SIZE,
			tmp_page_buffer, NVMCTRL_PAGE_SIZE);
		} while (error_code == STATUS_BUSY);
    2652:	2805      	cmp	r0, #5
    2654:	d0f8      	beq.n	2648 <Save_Write_PLC_List_in_NVM+0x60>
    2656:	9b01      	ldr	r3, [sp, #4]
    2658:	3301      	adds	r3, #1
    265a:	33ff      	adds	r3, #255	; 0xff
    265c:	001a      	movs	r2, r3
    265e:	9301      	str	r3, [sp, #4]
    2660:	3640      	adds	r6, #64	; 0x40
	for(j = 0; j < (NVMCTRL_PAGE_SIZE * NVM_Write_PLC_List_Page_MAX); j = j + NVMCTRL_PAGE_SIZE)
    2662:	4b09      	ldr	r3, [pc, #36]	; (2688 <Save_Write_PLC_List_in_NVM+0xa0>)
    2664:	429a      	cmp	r2, r3
    2666:	d1e1      	bne.n	262c <Save_Write_PLC_List_in_NVM+0x44>
		// K = page count，每+1 = 256 位置
		// 因為位置計算公式為 NVMCTRL_ROW_PAGES(4) * NVMCTRL_PAGE_SIZE (64) = 256個位置
		//======================================
		k++;
	}
}
    2668:	4b08      	ldr	r3, [pc, #32]	; (268c <Save_Write_PLC_List_in_NVM+0xa4>)
    266a:	449d      	add	sp, r3
    266c:	bc0c      	pop	{r2, r3}
    266e:	4690      	mov	r8, r2
    2670:	469a      	mov	sl, r3
    2672:	bdf0      	pop	{r4, r5, r6, r7, pc}
    2674:	fffff634 	.word	0xfffff634
    2678:	00021700 	.word	0x00021700
    267c:	00000341 	.word	0x00000341
    2680:	200027d7 	.word	0x200027d7
    2684:	0000022d 	.word	0x0000022d
    2688:	00023d00 	.word	0x00023d00
    268c:	000009cc 	.word	0x000009cc

00002690 <Load_Write_PLC_List_in_NVM>:


void Load_Write_PLC_List_in_NVM(volatile Write_PLC_List_t *tmp_Write_PLC_List_Index)
{
    2690:	b5f0      	push	{r4, r5, r6, r7, lr}
    2692:	46d6      	mov	lr, sl
    2694:	b500      	push	{lr}
    2696:	4c1d      	ldr	r4, [pc, #116]	; (270c <Load_Write_PLC_List_in_NVM+0x7c>)
    2698:	44a5      	add	sp, r4
    269a:	9001      	str	r0, [sp, #4]
    269c:	ae02      	add	r6, sp, #8
    269e:	0037      	movs	r7, r6
    26a0:	4b1b      	ldr	r3, [pc, #108]	; (2710 <Load_Write_PLC_List_in_NVM+0x80>)
    26a2:	9300      	str	r3, [sp, #0]
	//	64 BYTE				24個自訂義PAGE
	for(j = 0; j < (NVMCTRL_PAGE_SIZE * NVM_Write_PLC_List_Page_MAX); j = j + NVMCTRL_PAGE_SIZE)
	{
		do
		{
			error_code = nvm_read_buffer(
    26a4:	2498      	movs	r4, #152	; 0x98
    26a6:	0124      	lsls	r4, r4, #4
    26a8:	46b4      	mov	ip, r6
    26aa:	4464      	add	r4, ip
    26ac:	4b19      	ldr	r3, [pc, #100]	; (2714 <Load_Write_PLC_List_in_NVM+0x84>)
    26ae:	469a      	mov	sl, r3
    26b0:	4d19      	ldr	r5, [pc, #100]	; (2718 <Load_Write_PLC_List_in_NVM+0x88>)
    26b2:	2240      	movs	r2, #64	; 0x40
    26b4:	0021      	movs	r1, r4
    26b6:	9800      	ldr	r0, [sp, #0]
    26b8:	47d0      	blx	sl
    26ba:	7028      	strb	r0, [r5, #0]
			(535 + k)  * NVMCTRL_ROW_PAGES * NVMCTRL_PAGE_SIZE,
			tmp_page_buffer, NVMCTRL_PAGE_SIZE);
		} while (error_code == STATUS_BUSY);
    26bc:	2805      	cmp	r0, #5
    26be:	d0f8      	beq.n	26b2 <Load_Write_PLC_List_in_NVM+0x22>
    26c0:	2300      	movs	r3, #0
		
		for(i = 0; i < NVMCTRL_PAGE_SIZE; i++)
		{
			page_buffer[i + j] = tmp_page_buffer[i];
    26c2:	5d1a      	ldrb	r2, [r3, r4]
    26c4:	54fa      	strb	r2, [r7, r3]
		for(i = 0; i < NVMCTRL_PAGE_SIZE; i++)
    26c6:	3301      	adds	r3, #1
    26c8:	2b40      	cmp	r3, #64	; 0x40
    26ca:	d1fa      	bne.n	26c2 <Load_Write_PLC_List_in_NVM+0x32>
    26cc:	3740      	adds	r7, #64	; 0x40
    26ce:	9b00      	ldr	r3, [sp, #0]
    26d0:	3301      	adds	r3, #1
    26d2:	33ff      	adds	r3, #255	; 0xff
    26d4:	001a      	movs	r2, r3
    26d6:	9300      	str	r3, [sp, #0]
	for(j = 0; j < (NVMCTRL_PAGE_SIZE * NVM_Write_PLC_List_Page_MAX); j = j + NVMCTRL_PAGE_SIZE)
    26d8:	4b10      	ldr	r3, [pc, #64]	; (271c <Load_Write_PLC_List_in_NVM+0x8c>)
    26da:	429a      	cmp	r2, r3
    26dc:	d1e9      	bne.n	26b2 <Load_Write_PLC_List_in_NVM+0x22>
    26de:	9d01      	ldr	r5, [sp, #4]
    26e0:	2296      	movs	r2, #150	; 0x96
    26e2:	0112      	lsls	r2, r2, #4
    26e4:	ab02      	add	r3, sp, #8
    26e6:	469c      	mov	ip, r3
    26e8:	4462      	add	r2, ip
		k++;
	}
	
	for( i = 0; i < Write_PLC_List_Max; i++)
	{
		tmp_Write_PLC_List_Index[i].MAC_ID_Index.byte [1]	= page_buffer[(i * Write_PLC_List_Item_Max)];
    26ea:	7833      	ldrb	r3, [r6, #0]
    26ec:	706b      	strb	r3, [r5, #1]
		tmp_Write_PLC_List_Index[i].MAC_ID_Index.byte [0]	= page_buffer[(i * Write_PLC_List_Item_Max) + 1];
    26ee:	7873      	ldrb	r3, [r6, #1]
    26f0:	702b      	strb	r3, [r5, #0]
		tmp_Write_PLC_List_Index[i].Channel_Index			= page_buffer[(i * Write_PLC_List_Item_Max) + 2];
    26f2:	78b3      	ldrb	r3, [r6, #2]
    26f4:	70ab      	strb	r3, [r5, #2]
		tmp_Write_PLC_List_Index[i].Channel_En				= page_buffer[(i * Write_PLC_List_Item_Max) + 3];
    26f6:	78f3      	ldrb	r3, [r6, #3]
    26f8:	70eb      	strb	r3, [r5, #3]
    26fa:	3604      	adds	r6, #4
    26fc:	3504      	adds	r5, #4
	for( i = 0; i < Write_PLC_List_Max; i++)
    26fe:	4296      	cmp	r6, r2
    2700:	d1f3      	bne.n	26ea <Load_Write_PLC_List_in_NVM+0x5a>
	}
    2702:	4b07      	ldr	r3, [pc, #28]	; (2720 <Load_Write_PLC_List_in_NVM+0x90>)
    2704:	449d      	add	sp, r3
    2706:	bc04      	pop	{r2}
    2708:	4692      	mov	sl, r2
    270a:	bdf0      	pop	{r4, r5, r6, r7, pc}
    270c:	fffff638 	.word	0xfffff638
    2710:	00021700 	.word	0x00021700
    2714:	000002d5 	.word	0x000002d5
    2718:	200027d7 	.word	0x200027d7
    271c:	00023d00 	.word	0x00023d00
    2720:	000009c8 	.word	0x000009c8

00002724 <uTXByte>:
	}
	uTXByte(Debug_COM, ']');
}

void uTXByte(struct usart_module *const usart_module, uint8_t tmp_data)
{
    2724:	b510      	push	{r4, lr}
	usart_write_wait(usart_module, tmp_data);
    2726:	b289      	uxth	r1, r1
    2728:	4b01      	ldr	r3, [pc, #4]	; (2730 <uTXByte+0xc>)
    272a:	4798      	blx	r3
}
    272c:	bd10      	pop	{r4, pc}
    272e:	46c0      	nop			; (mov r8, r8)
    2730:	00005b05 	.word	0x00005b05

00002734 <hex_to_ascii>:

unsigned char hex_to_ascii(unsigned char tmp)
{
	if(tmp > 9)
    2734:	2809      	cmp	r0, #9
    2736:	d802      	bhi.n	273e <hex_to_ascii+0xa>
	{
		return (tmp + 0x37);
	}
	else
	{
		return (tmp + 0x30);
    2738:	3030      	adds	r0, #48	; 0x30
    273a:	b2c0      	uxtb	r0, r0
	}
}
    273c:	4770      	bx	lr
		return (tmp + 0x37);
    273e:	3037      	adds	r0, #55	; 0x37
    2740:	b2c0      	uxtb	r0, r0
    2742:	e7fb      	b.n	273c <hex_to_ascii+0x8>

00002744 <uart_send_ascii_byte>:
{
    2744:	b5f8      	push	{r3, r4, r5, r6, r7, lr}
    2746:	0005      	movs	r5, r0
    2748:	000c      	movs	r4, r1
	uTXByte(usart_module, hex_to_ascii(tmp8.HL.H));
    274a:	0908      	lsrs	r0, r1, #4
    274c:	4f06      	ldr	r7, [pc, #24]	; (2768 <uart_send_ascii_byte+0x24>)
    274e:	47b8      	blx	r7
	usart_write_wait(usart_module, tmp_data);
    2750:	b281      	uxth	r1, r0
    2752:	0028      	movs	r0, r5
    2754:	4e05      	ldr	r6, [pc, #20]	; (276c <uart_send_ascii_byte+0x28>)
    2756:	47b0      	blx	r6
	uTXByte(usart_module, hex_to_ascii(tmp8.HL.L));
    2758:	0720      	lsls	r0, r4, #28
    275a:	0f00      	lsrs	r0, r0, #28
    275c:	47b8      	blx	r7
	usart_write_wait(usart_module, tmp_data);
    275e:	b281      	uxth	r1, r0
    2760:	0028      	movs	r0, r5
    2762:	47b0      	blx	r6
}
    2764:	bdf8      	pop	{r3, r4, r5, r6, r7, pc}
    2766:	46c0      	nop			; (mov r8, r8)
    2768:	00002735 	.word	0x00002735
    276c:	00005b05 	.word	0x00005b05

00002770 <Print_Write_Buffer>:
{
    2770:	b5f8      	push	{r3, r4, r5, r6, r7, lr}
	usart_write_wait(usart_module, tmp_data);
    2772:	4d0d      	ldr	r5, [pc, #52]	; (27a8 <Print_Write_Buffer+0x38>)
    2774:	215b      	movs	r1, #91	; 0x5b
    2776:	0028      	movs	r0, r5
    2778:	4c0c      	ldr	r4, [pc, #48]	; (27ac <Print_Write_Buffer+0x3c>)
    277a:	47a0      	blx	r4
    277c:	2120      	movs	r1, #32
    277e:	0028      	movs	r0, r5
    2780:	47a0      	blx	r4
    2782:	4c0b      	ldr	r4, [pc, #44]	; (27b0 <Print_Write_Buffer+0x40>)
    2784:	0025      	movs	r5, r4
    2786:	3512      	adds	r5, #18
		uart_send_ascii_byte(Debug_COM, WriteBufferHex[i]);
    2788:	4f0a      	ldr	r7, [pc, #40]	; (27b4 <Print_Write_Buffer+0x44>)
	usart_write_wait(usart_module, tmp_data);
    278a:	4e08      	ldr	r6, [pc, #32]	; (27ac <Print_Write_Buffer+0x3c>)
		uart_send_ascii_byte(Debug_COM, WriteBufferHex[i]);
    278c:	7821      	ldrb	r1, [r4, #0]
    278e:	4806      	ldr	r0, [pc, #24]	; (27a8 <Print_Write_Buffer+0x38>)
    2790:	47b8      	blx	r7
	usart_write_wait(usart_module, tmp_data);
    2792:	2120      	movs	r1, #32
    2794:	4804      	ldr	r0, [pc, #16]	; (27a8 <Print_Write_Buffer+0x38>)
    2796:	47b0      	blx	r6
    2798:	3401      	adds	r4, #1
	for(unsigned char i = 0; i < 18; i++)
    279a:	42a5      	cmp	r5, r4
    279c:	d1f6      	bne.n	278c <Print_Write_Buffer+0x1c>
	usart_write_wait(usart_module, tmp_data);
    279e:	215d      	movs	r1, #93	; 0x5d
    27a0:	4801      	ldr	r0, [pc, #4]	; (27a8 <Print_Write_Buffer+0x38>)
    27a2:	4b02      	ldr	r3, [pc, #8]	; (27ac <Print_Write_Buffer+0x3c>)
    27a4:	4798      	blx	r3
}
    27a6:	bdf8      	pop	{r3, r4, r5, r6, r7, pc}
    27a8:	20000270 	.word	0x20000270
    27ac:	00005b05 	.word	0x00005b05
    27b0:	200027b0 	.word	0x200027b0
    27b4:	00002745 	.word	0x00002745

000027b8 <uart_send_word>:
{
    27b8:	b5f0      	push	{r4, r5, r6, r7, lr}
    27ba:	b083      	sub	sp, #12
    27bc:	9001      	str	r0, [sp, #4]
    27be:	000c      	movs	r4, r1
	tmp8.byte = tmp16.byte[1];
    27c0:	0408      	lsls	r0, r1, #16
	uTXByte(usart_module, hex_to_ascii(tmp8.HL.H));
    27c2:	0e06      	lsrs	r6, r0, #24
    27c4:	0f00      	lsrs	r0, r0, #28
    27c6:	4d0d      	ldr	r5, [pc, #52]	; (27fc <uart_send_word+0x44>)
    27c8:	47a8      	blx	r5
	usart_write_wait(usart_module, tmp_data);
    27ca:	b281      	uxth	r1, r0
    27cc:	9801      	ldr	r0, [sp, #4]
    27ce:	4f0c      	ldr	r7, [pc, #48]	; (2800 <uart_send_word+0x48>)
    27d0:	47b8      	blx	r7
	uTXByte(usart_module, hex_to_ascii(tmp8.HL.L));
    27d2:	0730      	lsls	r0, r6, #28
    27d4:	0f00      	lsrs	r0, r0, #28
    27d6:	47a8      	blx	r5
	usart_write_wait(usart_module, tmp_data);
    27d8:	b281      	uxth	r1, r0
    27da:	9801      	ldr	r0, [sp, #4]
    27dc:	47b8      	blx	r7
	uTXByte(usart_module, hex_to_ascii(tmp8.HL.H));
    27de:	0620      	lsls	r0, r4, #24
    27e0:	0f00      	lsrs	r0, r0, #28
    27e2:	47a8      	blx	r5
	usart_write_wait(usart_module, tmp_data);
    27e4:	b281      	uxth	r1, r0
    27e6:	9801      	ldr	r0, [sp, #4]
    27e8:	47b8      	blx	r7
	uTXByte(usart_module, hex_to_ascii(tmp8.HL.L));
    27ea:	0720      	lsls	r0, r4, #28
    27ec:	0f00      	lsrs	r0, r0, #28
    27ee:	47a8      	blx	r5
	usart_write_wait(usart_module, tmp_data);
    27f0:	b281      	uxth	r1, r0
    27f2:	9801      	ldr	r0, [sp, #4]
    27f4:	47b8      	blx	r7
}
    27f6:	b003      	add	sp, #12
    27f8:	bdf0      	pop	{r4, r5, r6, r7, pc}
    27fa:	46c0      	nop			; (mov r8, r8)
    27fc:	00002735 	.word	0x00002735
    2800:	00005b05 	.word	0x00005b05

00002804 <uart_send_word_for_ListNumber>:
{
    2804:	b5f8      	push	{r3, r4, r5, r6, r7, lr}
    2806:	0005      	movs	r5, r0
    2808:	000c      	movs	r4, r1
	uTXByte(usart_module, hex_to_ascii(tmp8.HL.L));
    280a:	0508      	lsls	r0, r1, #20
    280c:	0f00      	lsrs	r0, r0, #28
    280e:	4f09      	ldr	r7, [pc, #36]	; (2834 <uart_send_word_for_ListNumber+0x30>)
    2810:	47b8      	blx	r7
	usart_write_wait(usart_module, tmp_data);
    2812:	b281      	uxth	r1, r0
    2814:	0028      	movs	r0, r5
    2816:	4e08      	ldr	r6, [pc, #32]	; (2838 <uart_send_word_for_ListNumber+0x34>)
    2818:	47b0      	blx	r6
	uTXByte(usart_module, hex_to_ascii(tmp8.HL.H));
    281a:	0620      	lsls	r0, r4, #24
    281c:	0f00      	lsrs	r0, r0, #28
    281e:	47b8      	blx	r7
	usart_write_wait(usart_module, tmp_data);
    2820:	b281      	uxth	r1, r0
    2822:	0028      	movs	r0, r5
    2824:	47b0      	blx	r6
	uTXByte(usart_module, hex_to_ascii(tmp8.HL.L));
    2826:	0720      	lsls	r0, r4, #28
    2828:	0f00      	lsrs	r0, r0, #28
    282a:	47b8      	blx	r7
	usart_write_wait(usart_module, tmp_data);
    282c:	b281      	uxth	r1, r0
    282e:	0028      	movs	r0, r5
    2830:	47b0      	blx	r6
}
    2832:	bdf8      	pop	{r3, r4, r5, r6, r7, pc}
    2834:	00002735 	.word	0x00002735
    2838:	00005b05 	.word	0x00005b05

0000283c <ascii_to_hex>:

unsigned char ascii_to_hex(unsigned char tmp)
{
	if(tmp == '0') return KEY0;
    283c:	2830      	cmp	r0, #48	; 0x30
    283e:	d100      	bne.n	2842 <ascii_to_hex+0x6>
    2840:	e0c8      	b.n	29d4 <ascii_to_hex+0x198>
	if(tmp == '1') return KEY1;
    2842:	2831      	cmp	r0, #49	; 0x31
    2844:	d100      	bne.n	2848 <ascii_to_hex+0xc>
    2846:	e0c8      	b.n	29da <ascii_to_hex+0x19e>
	if(tmp == '2') return KEY2;
    2848:	2302      	movs	r3, #2
    284a:	2832      	cmp	r0, #50	; 0x32
    284c:	d100      	bne.n	2850 <ascii_to_hex+0x14>
    284e:	e0c2      	b.n	29d6 <ascii_to_hex+0x19a>
	if(tmp == '3') return KEY3;
    2850:	3301      	adds	r3, #1
    2852:	2833      	cmp	r0, #51	; 0x33
    2854:	d100      	bne.n	2858 <ascii_to_hex+0x1c>
    2856:	e0be      	b.n	29d6 <ascii_to_hex+0x19a>
	if(tmp == '4') return KEY4;
    2858:	3301      	adds	r3, #1
    285a:	2834      	cmp	r0, #52	; 0x34
    285c:	d100      	bne.n	2860 <ascii_to_hex+0x24>
    285e:	e0ba      	b.n	29d6 <ascii_to_hex+0x19a>
	if(tmp == '5') return KEY5;
    2860:	3301      	adds	r3, #1
    2862:	2835      	cmp	r0, #53	; 0x35
    2864:	d100      	bne.n	2868 <ascii_to_hex+0x2c>
    2866:	e0b6      	b.n	29d6 <ascii_to_hex+0x19a>
	if(tmp == '6') return KEY6;
    2868:	3301      	adds	r3, #1
    286a:	2836      	cmp	r0, #54	; 0x36
    286c:	d100      	bne.n	2870 <ascii_to_hex+0x34>
    286e:	e0b2      	b.n	29d6 <ascii_to_hex+0x19a>
	if(tmp == '7') return KEY7;
    2870:	3301      	adds	r3, #1
    2872:	2837      	cmp	r0, #55	; 0x37
    2874:	d100      	bne.n	2878 <ascii_to_hex+0x3c>
    2876:	e0ae      	b.n	29d6 <ascii_to_hex+0x19a>
	if(tmp == '8') return KEY8;
    2878:	3301      	adds	r3, #1
    287a:	2838      	cmp	r0, #56	; 0x38
    287c:	d100      	bne.n	2880 <ascii_to_hex+0x44>
    287e:	e0aa      	b.n	29d6 <ascii_to_hex+0x19a>
	if(tmp == '9') return KEY9;
    2880:	3301      	adds	r3, #1
    2882:	2839      	cmp	r0, #57	; 0x39
    2884:	d100      	bne.n	2888 <ascii_to_hex+0x4c>
    2886:	e0a6      	b.n	29d6 <ascii_to_hex+0x19a>
	
	if(tmp == 'a') return KEYA;
    2888:	3301      	adds	r3, #1
    288a:	2861      	cmp	r0, #97	; 0x61
    288c:	d100      	bne.n	2890 <ascii_to_hex+0x54>
    288e:	e0a2      	b.n	29d6 <ascii_to_hex+0x19a>
	if(tmp == 'b') return KEYB;
    2890:	3301      	adds	r3, #1
    2892:	2862      	cmp	r0, #98	; 0x62
    2894:	d100      	bne.n	2898 <ascii_to_hex+0x5c>
    2896:	e09e      	b.n	29d6 <ascii_to_hex+0x19a>
	if(tmp == 'c') return KEYC;
    2898:	3301      	adds	r3, #1
    289a:	2863      	cmp	r0, #99	; 0x63
    289c:	d100      	bne.n	28a0 <ascii_to_hex+0x64>
    289e:	e09a      	b.n	29d6 <ascii_to_hex+0x19a>
	if(tmp == 'd') return KEYD;
    28a0:	3301      	adds	r3, #1
    28a2:	2864      	cmp	r0, #100	; 0x64
    28a4:	d100      	bne.n	28a8 <ascii_to_hex+0x6c>
    28a6:	e096      	b.n	29d6 <ascii_to_hex+0x19a>
	if(tmp == 'e') return KEYE;
    28a8:	3301      	adds	r3, #1
    28aa:	2865      	cmp	r0, #101	; 0x65
    28ac:	d100      	bne.n	28b0 <ascii_to_hex+0x74>
    28ae:	e092      	b.n	29d6 <ascii_to_hex+0x19a>
	if(tmp == 'f') return KEYF;
    28b0:	3301      	adds	r3, #1
    28b2:	2866      	cmp	r0, #102	; 0x66
    28b4:	d100      	bne.n	28b8 <ascii_to_hex+0x7c>
    28b6:	e08e      	b.n	29d6 <ascii_to_hex+0x19a>
	
	if(tmp == 'A') return KEYA;
    28b8:	3b05      	subs	r3, #5
    28ba:	2841      	cmp	r0, #65	; 0x41
    28bc:	d100      	bne.n	28c0 <ascii_to_hex+0x84>
    28be:	e08a      	b.n	29d6 <ascii_to_hex+0x19a>
	if(tmp == 'B') return KEYB;
    28c0:	3301      	adds	r3, #1
    28c2:	2842      	cmp	r0, #66	; 0x42
    28c4:	d100      	bne.n	28c8 <ascii_to_hex+0x8c>
    28c6:	e086      	b.n	29d6 <ascii_to_hex+0x19a>
	if(tmp == 'C') return KEYC;
    28c8:	3301      	adds	r3, #1
    28ca:	2843      	cmp	r0, #67	; 0x43
    28cc:	d100      	bne.n	28d0 <ascii_to_hex+0x94>
    28ce:	e082      	b.n	29d6 <ascii_to_hex+0x19a>
	if(tmp == 'D') return KEYD;
    28d0:	3301      	adds	r3, #1
    28d2:	2844      	cmp	r0, #68	; 0x44
    28d4:	d07f      	beq.n	29d6 <ascii_to_hex+0x19a>
	if(tmp == 'E') return KEYE;
    28d6:	3301      	adds	r3, #1
    28d8:	2845      	cmp	r0, #69	; 0x45
    28da:	d07c      	beq.n	29d6 <ascii_to_hex+0x19a>
	if(tmp == 'F') return KEYF;
    28dc:	3301      	adds	r3, #1
    28de:	2846      	cmp	r0, #70	; 0x46
    28e0:	d079      	beq.n	29d6 <ascii_to_hex+0x19a>
	
	if(tmp == 'g') return KEYG;
    28e2:	3301      	adds	r3, #1
    28e4:	2867      	cmp	r0, #103	; 0x67
    28e6:	d076      	beq.n	29d6 <ascii_to_hex+0x19a>
	if(tmp == 'h') return KEYH;
    28e8:	3301      	adds	r3, #1
    28ea:	2868      	cmp	r0, #104	; 0x68
    28ec:	d073      	beq.n	29d6 <ascii_to_hex+0x19a>
	if(tmp == 'i') return KEYI;
    28ee:	3301      	adds	r3, #1
    28f0:	2869      	cmp	r0, #105	; 0x69
    28f2:	d070      	beq.n	29d6 <ascii_to_hex+0x19a>
	if(tmp == 'j') return KEYJ;
    28f4:	3301      	adds	r3, #1
    28f6:	286a      	cmp	r0, #106	; 0x6a
    28f8:	d06d      	beq.n	29d6 <ascii_to_hex+0x19a>
	if(tmp == 'k') return KEYK;
    28fa:	3301      	adds	r3, #1
    28fc:	286b      	cmp	r0, #107	; 0x6b
    28fe:	d06a      	beq.n	29d6 <ascii_to_hex+0x19a>
	if(tmp == 'l') return KEYL;
    2900:	3301      	adds	r3, #1
    2902:	286c      	cmp	r0, #108	; 0x6c
    2904:	d067      	beq.n	29d6 <ascii_to_hex+0x19a>
	if(tmp == 'm') return KEYM;
    2906:	3301      	adds	r3, #1
    2908:	286d      	cmp	r0, #109	; 0x6d
    290a:	d064      	beq.n	29d6 <ascii_to_hex+0x19a>
	if(tmp == 'n') return KEYN;
    290c:	3301      	adds	r3, #1
    290e:	286e      	cmp	r0, #110	; 0x6e
    2910:	d061      	beq.n	29d6 <ascii_to_hex+0x19a>
	if(tmp == 'o') return KEYO;
    2912:	3301      	adds	r3, #1
    2914:	286f      	cmp	r0, #111	; 0x6f
    2916:	d05e      	beq.n	29d6 <ascii_to_hex+0x19a>
	if(tmp == 'p') return KEYP;
    2918:	3301      	adds	r3, #1
    291a:	2870      	cmp	r0, #112	; 0x70
    291c:	d05b      	beq.n	29d6 <ascii_to_hex+0x19a>
	if(tmp == 'q') return KEYQ;
    291e:	3301      	adds	r3, #1
    2920:	2871      	cmp	r0, #113	; 0x71
    2922:	d058      	beq.n	29d6 <ascii_to_hex+0x19a>
	if(tmp == 'r') return KEYR;
    2924:	3301      	adds	r3, #1
    2926:	2872      	cmp	r0, #114	; 0x72
    2928:	d055      	beq.n	29d6 <ascii_to_hex+0x19a>
	if(tmp == 's') return KEYS;
    292a:	3301      	adds	r3, #1
    292c:	2873      	cmp	r0, #115	; 0x73
    292e:	d052      	beq.n	29d6 <ascii_to_hex+0x19a>
	if(tmp == 't') return KEYT;
    2930:	3301      	adds	r3, #1
    2932:	2874      	cmp	r0, #116	; 0x74
    2934:	d04f      	beq.n	29d6 <ascii_to_hex+0x19a>
	if(tmp == 'u') return KEYU;
    2936:	3301      	adds	r3, #1
    2938:	2875      	cmp	r0, #117	; 0x75
    293a:	d04c      	beq.n	29d6 <ascii_to_hex+0x19a>
	if(tmp == 'v') return KEYV;
    293c:	3301      	adds	r3, #1
    293e:	2876      	cmp	r0, #118	; 0x76
    2940:	d049      	beq.n	29d6 <ascii_to_hex+0x19a>
	if(tmp == 'w') return KEYW;
    2942:	3301      	adds	r3, #1
    2944:	2877      	cmp	r0, #119	; 0x77
    2946:	d046      	beq.n	29d6 <ascii_to_hex+0x19a>
	if(tmp == 'x') return KEYX;
    2948:	3301      	adds	r3, #1
    294a:	2878      	cmp	r0, #120	; 0x78
    294c:	d043      	beq.n	29d6 <ascii_to_hex+0x19a>
	if(tmp == 'y') return KEYY;
    294e:	3301      	adds	r3, #1
    2950:	2879      	cmp	r0, #121	; 0x79
    2952:	d040      	beq.n	29d6 <ascii_to_hex+0x19a>
	if(tmp == 'z') return KEYZ;
    2954:	3301      	adds	r3, #1
    2956:	287a      	cmp	r0, #122	; 0x7a
    2958:	d03d      	beq.n	29d6 <ascii_to_hex+0x19a>
	
	if(tmp == 'G') return KEYG;
    295a:	3b13      	subs	r3, #19
    295c:	2847      	cmp	r0, #71	; 0x47
    295e:	d03a      	beq.n	29d6 <ascii_to_hex+0x19a>
	if(tmp == 'H') return KEYH;
    2960:	3301      	adds	r3, #1
    2962:	2848      	cmp	r0, #72	; 0x48
    2964:	d037      	beq.n	29d6 <ascii_to_hex+0x19a>
	if(tmp == 'I') return KEYI;
    2966:	3301      	adds	r3, #1
    2968:	2849      	cmp	r0, #73	; 0x49
    296a:	d034      	beq.n	29d6 <ascii_to_hex+0x19a>
	if(tmp == 'J') return KEYJ;
    296c:	3301      	adds	r3, #1
    296e:	284a      	cmp	r0, #74	; 0x4a
    2970:	d031      	beq.n	29d6 <ascii_to_hex+0x19a>
	if(tmp == 'K') return KEYK;
    2972:	3301      	adds	r3, #1
    2974:	284b      	cmp	r0, #75	; 0x4b
    2976:	d02e      	beq.n	29d6 <ascii_to_hex+0x19a>
	if(tmp == 'L') return KEYL;
    2978:	3301      	adds	r3, #1
    297a:	284c      	cmp	r0, #76	; 0x4c
    297c:	d02b      	beq.n	29d6 <ascii_to_hex+0x19a>
	if(tmp == 'M') return KEYM;
    297e:	3301      	adds	r3, #1
    2980:	284d      	cmp	r0, #77	; 0x4d
    2982:	d028      	beq.n	29d6 <ascii_to_hex+0x19a>
	if(tmp == 'N') return KEYN;
    2984:	3301      	adds	r3, #1
    2986:	284e      	cmp	r0, #78	; 0x4e
    2988:	d025      	beq.n	29d6 <ascii_to_hex+0x19a>
	if(tmp == 'O') return KEYO;
    298a:	3301      	adds	r3, #1
    298c:	284f      	cmp	r0, #79	; 0x4f
    298e:	d022      	beq.n	29d6 <ascii_to_hex+0x19a>
	if(tmp == 'P') return KEYP;
    2990:	3301      	adds	r3, #1
    2992:	2850      	cmp	r0, #80	; 0x50
    2994:	d01f      	beq.n	29d6 <ascii_to_hex+0x19a>
	if(tmp == 'Q') return KEYQ;
    2996:	3301      	adds	r3, #1
    2998:	2851      	cmp	r0, #81	; 0x51
    299a:	d01c      	beq.n	29d6 <ascii_to_hex+0x19a>
	if(tmp == 'R') return KEYR;
    299c:	3301      	adds	r3, #1
    299e:	2852      	cmp	r0, #82	; 0x52
    29a0:	d019      	beq.n	29d6 <ascii_to_hex+0x19a>
	if(tmp == 'S') return KEYS;
    29a2:	3301      	adds	r3, #1
    29a4:	2853      	cmp	r0, #83	; 0x53
    29a6:	d016      	beq.n	29d6 <ascii_to_hex+0x19a>
	if(tmp == 'T') return KEYT;
    29a8:	3301      	adds	r3, #1
    29aa:	2854      	cmp	r0, #84	; 0x54
    29ac:	d013      	beq.n	29d6 <ascii_to_hex+0x19a>
	if(tmp == 'U') return KEYU;
    29ae:	3301      	adds	r3, #1
    29b0:	2855      	cmp	r0, #85	; 0x55
    29b2:	d010      	beq.n	29d6 <ascii_to_hex+0x19a>
	if(tmp == 'V') return KEYV;
    29b4:	3301      	adds	r3, #1
    29b6:	2856      	cmp	r0, #86	; 0x56
    29b8:	d00d      	beq.n	29d6 <ascii_to_hex+0x19a>
	if(tmp == 'W') return KEYW;
    29ba:	3301      	adds	r3, #1
    29bc:	2857      	cmp	r0, #87	; 0x57
    29be:	d00a      	beq.n	29d6 <ascii_to_hex+0x19a>
	if(tmp == 'X') return KEYX;
    29c0:	3301      	adds	r3, #1
    29c2:	2858      	cmp	r0, #88	; 0x58
    29c4:	d007      	beq.n	29d6 <ascii_to_hex+0x19a>
	if(tmp == 'Y') return KEYY;
    29c6:	3301      	adds	r3, #1
    29c8:	2859      	cmp	r0, #89	; 0x59
    29ca:	d004      	beq.n	29d6 <ascii_to_hex+0x19a>
	if(tmp == 'Z') return KEYZ;
    29cc:	285a      	cmp	r0, #90	; 0x5a
    29ce:	d006      	beq.n	29de <ascii_to_hex+0x1a2>
	return 0xff;
    29d0:	33dd      	adds	r3, #221	; 0xdd
    29d2:	e000      	b.n	29d6 <ascii_to_hex+0x19a>
	if(tmp == '0') return KEY0;
    29d4:	2300      	movs	r3, #0
}
    29d6:	0018      	movs	r0, r3
    29d8:	4770      	bx	lr
	if(tmp == '1') return KEY1;
    29da:	2301      	movs	r3, #1
    29dc:	e7fb      	b.n	29d6 <ascii_to_hex+0x19a>
	if(tmp == 'Z') return KEYZ;
    29de:	2323      	movs	r3, #35	; 0x23
    29e0:	e7f9      	b.n	29d6 <ascii_to_hex+0x19a>
	...

000029e4 <hex_to_bcd>:


unsigned int hex_to_bcd(unsigned int tmp)
{
    29e4:	b5f0      	push	{r4, r5, r6, r7, lr}
    29e6:	46ce      	mov	lr, r9
    29e8:	b500      	push	{lr}
    29ea:	b082      	sub	sp, #8
    29ec:	0006      	movs	r6, r0
	UINT16u_t	tmp16;
	UINT8u_t	tmp8;

	tmp8.HL.H = tmp / 1000;
    29ee:	4b17      	ldr	r3, [pc, #92]	; (2a4c <hex_to_bcd+0x68>)
    29f0:	4699      	mov	r9, r3
    29f2:	21fa      	movs	r1, #250	; 0xfa
    29f4:	0089      	lsls	r1, r1, #2
    29f6:	4798      	blx	r3
    29f8:	270f      	movs	r7, #15
    29fa:	0104      	lsls	r4, r0, #4
	tmp8.HL.L = (tmp % 1000) / 100;
    29fc:	4d14      	ldr	r5, [pc, #80]	; (2a50 <hex_to_bcd+0x6c>)
    29fe:	21fa      	movs	r1, #250	; 0xfa
    2a00:	0089      	lsls	r1, r1, #2
    2a02:	0030      	movs	r0, r6
    2a04:	47a8      	blx	r5
    2a06:	000b      	movs	r3, r1
    2a08:	2164      	movs	r1, #100	; 0x64
    2a0a:	9301      	str	r3, [sp, #4]
    2a0c:	0018      	movs	r0, r3
    2a0e:	47c8      	blx	r9
    2a10:	4038      	ands	r0, r7
    2a12:	4304      	orrs	r4, r0
	tmp16.byte[1] = tmp8.byte;
    2a14:	b2e6      	uxtb	r6, r4
    2a16:	0236      	lsls	r6, r6, #8
	
	tmp8.HL.H = ((tmp % 1000) % 100 ) / 10;
    2a18:	2164      	movs	r1, #100	; 0x64
    2a1a:	9801      	ldr	r0, [sp, #4]
    2a1c:	47a8      	blx	r5
    2a1e:	000b      	movs	r3, r1
    2a20:	210a      	movs	r1, #10
    2a22:	9301      	str	r3, [sp, #4]
    2a24:	0018      	movs	r0, r3
    2a26:	47c8      	blx	r9
    2a28:	0100      	lsls	r0, r0, #4
    2a2a:	403c      	ands	r4, r7
    2a2c:	4304      	orrs	r4, r0
	tmp8.HL.L = ((tmp % 1000) % 100 ) % 10;
    2a2e:	210a      	movs	r1, #10
    2a30:	9801      	ldr	r0, [sp, #4]
    2a32:	47a8      	blx	r5
    2a34:	0038      	movs	r0, r7
    2a36:	4008      	ands	r0, r1
    2a38:	230f      	movs	r3, #15
    2a3a:	439c      	bics	r4, r3
    2a3c:	4320      	orrs	r0, r4
	tmp16.byte[0] = tmp8.byte;
    2a3e:	b2c0      	uxtb	r0, r0
	return tmp16.word;
    2a40:	4330      	orrs	r0, r6
}
    2a42:	b002      	add	sp, #8
    2a44:	bc04      	pop	{r2}
    2a46:	4691      	mov	r9, r2
    2a48:	bdf0      	pop	{r4, r5, r6, r7, pc}
    2a4a:	46c0      	nop			; (mov r8, r8)
    2a4c:	00006795 	.word	0x00006795
    2a50:	000068a1 	.word	0x000068a1

00002a54 <long_to_bcd>:


unsigned long long_to_bcd(unsigned long tmp)
{
    2a54:	b5f0      	push	{r4, r5, r6, r7, lr}
    2a56:	46ce      	mov	lr, r9
    2a58:	4647      	mov	r7, r8
    2a5a:	b580      	push	{r7, lr}
    2a5c:	b083      	sub	sp, #12
	UINT32u_t	tmp32;
	//UINT16u_t	tmp16;
	UINT8u_t	tmp8;

	tmp8.HL.H = 0;
    2a5e:	230f      	movs	r3, #15
    2a60:	4699      	mov	r9, r3
    2a62:	240f      	movs	r4, #15
	tmp8.HL.L = tmp / 10000;
    2a64:	4b1f      	ldr	r3, [pc, #124]	; (2ae4 <long_to_bcd+0x90>)
    2a66:	4698      	mov	r8, r3
    2a68:	491f      	ldr	r1, [pc, #124]	; (2ae8 <long_to_bcd+0x94>)
    2a6a:	9001      	str	r0, [sp, #4]
    2a6c:	4798      	blx	r3
    2a6e:	0007      	movs	r7, r0
    2a70:	4027      	ands	r7, r4
	tmp32.byte[2] = tmp8.byte;
    2a72:	043d      	lsls	r5, r7, #16
	
	tmp8.HL.H = (tmp % 10000) / 1000;
    2a74:	4e1d      	ldr	r6, [pc, #116]	; (2aec <long_to_bcd+0x98>)
    2a76:	491c      	ldr	r1, [pc, #112]	; (2ae8 <long_to_bcd+0x94>)
    2a78:	9801      	ldr	r0, [sp, #4]
    2a7a:	47b0      	blx	r6
    2a7c:	000b      	movs	r3, r1
    2a7e:	21fa      	movs	r1, #250	; 0xfa
    2a80:	0089      	lsls	r1, r1, #2
    2a82:	9301      	str	r3, [sp, #4]
    2a84:	0018      	movs	r0, r3
    2a86:	47c0      	blx	r8
    2a88:	0100      	lsls	r0, r0, #4
    2a8a:	4307      	orrs	r7, r0
	tmp8.HL.L = (tmp % 10000) % 1000 / 100;
    2a8c:	21fa      	movs	r1, #250	; 0xfa
    2a8e:	0089      	lsls	r1, r1, #2
    2a90:	9801      	ldr	r0, [sp, #4]
    2a92:	47b0      	blx	r6
    2a94:	000b      	movs	r3, r1
    2a96:	2164      	movs	r1, #100	; 0x64
    2a98:	9301      	str	r3, [sp, #4]
    2a9a:	0018      	movs	r0, r3
    2a9c:	47c0      	blx	r8
    2a9e:	4020      	ands	r0, r4
    2aa0:	464a      	mov	r2, r9
    2aa2:	4397      	bics	r7, r2
    2aa4:	4307      	orrs	r7, r0
	tmp32.byte[1] = tmp8.byte;
    2aa6:	b2fb      	uxtb	r3, r7
    2aa8:	021b      	lsls	r3, r3, #8
    2aaa:	431d      	orrs	r5, r3
	
	tmp8.HL.H = ((tmp % 10000) % 1000 % 100 ) / 10;
    2aac:	2164      	movs	r1, #100	; 0x64
    2aae:	9801      	ldr	r0, [sp, #4]
    2ab0:	47b0      	blx	r6
    2ab2:	000b      	movs	r3, r1
    2ab4:	210a      	movs	r1, #10
    2ab6:	9301      	str	r3, [sp, #4]
    2ab8:	0018      	movs	r0, r3
    2aba:	47c0      	blx	r8
    2abc:	0100      	lsls	r0, r0, #4
    2abe:	4027      	ands	r7, r4
    2ac0:	4307      	orrs	r7, r0
	tmp8.HL.L = ((tmp % 10000) % 1000 % 100 ) % 10;
    2ac2:	210a      	movs	r1, #10
    2ac4:	9801      	ldr	r0, [sp, #4]
    2ac6:	47b0      	blx	r6
    2ac8:	4021      	ands	r1, r4
    2aca:	003c      	movs	r4, r7
    2acc:	464b      	mov	r3, r9
    2ace:	439c      	bics	r4, r3
    2ad0:	430c      	orrs	r4, r1
	tmp32.byte[0] = tmp8.byte;
    2ad2:	b2e4      	uxtb	r4, r4
    2ad4:	4325      	orrs	r5, r4
	
	return tmp32.dword;
    2ad6:	0028      	movs	r0, r5
    2ad8:	b003      	add	sp, #12
    2ada:	bc0c      	pop	{r2, r3}
    2adc:	4690      	mov	r8, r2
    2ade:	4699      	mov	r9, r3
    2ae0:	bdf0      	pop	{r4, r5, r6, r7, pc}
    2ae2:	46c0      	nop			; (mov r8, r8)
    2ae4:	00006795 	.word	0x00006795
    2ae8:	00002710 	.word	0x00002710
    2aec:	000068a1 	.word	0x000068a1

00002af0 <Cal_list_table_index>:
#include "myDefine.h"



unsigned int Cal_list_table_index(unsigned char tmpA, unsigned char tmpB, unsigned char tmpC)
{
    2af0:	b5f8      	push	{r3, r4, r5, r6, r7, lr}
    2af2:	000c      	movs	r4, r1
    2af4:	0015      	movs	r5, r2
	return	ascii_to_hex(tmpA) * 100 + ascii_to_hex(tmpB) * 10 + ascii_to_hex(tmpC);
    2af6:	4e07      	ldr	r6, [pc, #28]	; (2b14 <Cal_list_table_index+0x24>)
    2af8:	47b0      	blx	r6
    2afa:	0007      	movs	r7, r0
    2afc:	0020      	movs	r0, r4
    2afe:	47b0      	blx	r6
    2b00:	2464      	movs	r4, #100	; 0x64
    2b02:	437c      	muls	r4, r7
    2b04:	0083      	lsls	r3, r0, #2
    2b06:	1818      	adds	r0, r3, r0
    2b08:	0040      	lsls	r0, r0, #1
    2b0a:	1824      	adds	r4, r4, r0
    2b0c:	0028      	movs	r0, r5
    2b0e:	47b0      	blx	r6
    2b10:	1900      	adds	r0, r0, r4
}
    2b12:	bdf8      	pop	{r3, r4, r5, r6, r7, pc}
    2b14:	0000283d 	.word	0x0000283d

00002b18 <CMD_Save_Func>:

void CMD_Save_Func(volatile LORA_DEFINE_t *tmp_LORA)
{
    2b18:	b510      	push	{r4, lr}
    2b1a:	0004      	movs	r4, r0
	//if(tmp_LORA->Lora_initial_Flag == 1)
	//{
		Print_Lora_number(tmp_LORA);
    2b1c:	4b05      	ldr	r3, [pc, #20]	; (2b34 <CMD_Save_Func+0x1c>)
    2b1e:	4798      	blx	r3
		Save_LoRa_Profile_in_NVM(tmp_LORA);
    2b20:	0020      	movs	r0, r4
    2b22:	4b05      	ldr	r3, [pc, #20]	; (2b38 <CMD_Save_Func+0x20>)
    2b24:	4798      	blx	r3
		Load_LoRa_Profile_in_NVM(tmp_LORA);
    2b26:	0020      	movs	r0, r4
    2b28:	4b04      	ldr	r3, [pc, #16]	; (2b3c <CMD_Save_Func+0x24>)
    2b2a:	4798      	blx	r3
		CMD_Index = CMD_NOP_Index;
    2b2c:	2200      	movs	r2, #0
    2b2e:	4b04      	ldr	r3, [pc, #16]	; (2b40 <CMD_Save_Func+0x28>)
    2b30:	701a      	strb	r2, [r3, #0]
	//}
}
    2b32:	bd10      	pop	{r4, pc}
    2b34:	00003021 	.word	0x00003021
    2b38:	00002379 	.word	0x00002379
    2b3c:	0000204d 	.word	0x0000204d
    2b40:	200027ac 	.word	0x200027ac

00002b44 <CMD_Func>:


void CMD_Func(void)
{
    2b44:	b5f0      	push	{r4, r5, r6, r7, lr}
    2b46:	46c6      	mov	lr, r8
    2b48:	b500      	push	{lr}
	switch(CMD_Index)
    2b4a:	4b15      	ldr	r3, [pc, #84]	; (2ba0 <CMD_Func+0x5c>)
    2b4c:	781b      	ldrb	r3, [r3, #0]
    2b4e:	2b0c      	cmp	r3, #12
    2b50:	d122      	bne.n	2b98 <CMD_Func+0x54>
    2b52:	4c14      	ldr	r4, [pc, #80]	; (2ba4 <CMD_Func+0x60>)
    2b54:	4d14      	ldr	r5, [pc, #80]	; (2ba8 <CMD_Func+0x64>)
    2b56:	3316      	adds	r3, #22
    2b58:	4698      	mov	r8, r3
    2b5a:	44a0      	add	r8, r4
			uTXByte(Debug_COM, 'k');
			uTXByte(Debug_COM, 0x0d);
		*/	
			for(unsigned char i = 0; i < UserKeyInBufMax; i++)
			{
				WriteBuffer[i] = ascii_to_hex(UserKeyInBuf[i]);
    2b5c:	4f13      	ldr	r7, [pc, #76]	; (2bac <CMD_Func+0x68>)
				UserKeyInBuf[i]	= "";
    2b5e:	4e14      	ldr	r6, [pc, #80]	; (2bb0 <CMD_Func+0x6c>)
				WriteBuffer[i] = ascii_to_hex(UserKeyInBuf[i]);
    2b60:	7820      	ldrb	r0, [r4, #0]
    2b62:	47b8      	blx	r7
    2b64:	7028      	strb	r0, [r5, #0]
				UserKeyInBuf[i]	= "";
    2b66:	7026      	strb	r6, [r4, #0]
    2b68:	3401      	adds	r4, #1
    2b6a:	3501      	adds	r5, #1
			for(unsigned char i = 0; i < UserKeyInBufMax; i++)
    2b6c:	4544      	cmp	r4, r8
    2b6e:	d1f7      	bne.n	2b60 <CMD_Func+0x1c>
    2b70:	4a10      	ldr	r2, [pc, #64]	; (2bb4 <CMD_Func+0x70>)
    2b72:	4911      	ldr	r1, [pc, #68]	; (2bb8 <CMD_Func+0x74>)
    2b74:	0014      	movs	r4, r2
    2b76:	3422      	adds	r4, #34	; 0x22
			}
			//	uTXByte(Debug_COM, 0x0d);
			
			for(unsigned char i = 0; i < (UserKeyInBufMax / 2); i++)
			{
				WriteBufferHex[i] = WriteBuffer[(i*2)+1]<<4 | WriteBuffer[(i*2)+2];
    2b78:	7813      	ldrb	r3, [r2, #0]
    2b7a:	011b      	lsls	r3, r3, #4
    2b7c:	7850      	ldrb	r0, [r2, #1]
    2b7e:	4303      	orrs	r3, r0
    2b80:	700b      	strb	r3, [r1, #0]
    2b82:	3202      	adds	r2, #2
    2b84:	3101      	adds	r1, #1
			for(unsigned char i = 0; i < (UserKeyInBufMax / 2); i++)
    2b86:	42a2      	cmp	r2, r4
    2b88:	d1f6      	bne.n	2b78 <CMD_Func+0x34>
			//	uart_send_ascii_byte(Debug_COM, WriteBufferHex[i]);
			//	uTXByte(Debug_COM, ' ');
			}
			WriteBufferHex[16] = 0x33;
    2b8a:	4b0b      	ldr	r3, [pc, #44]	; (2bb8 <CMD_Func+0x74>)
    2b8c:	2233      	movs	r2, #51	; 0x33
    2b8e:	741a      	strb	r2, [r3, #16]
			WriteBufferHex[17] = 0x33;
    2b90:	745a      	strb	r2, [r3, #17]
			//	uTXByte(Debug_COM, 0x0d);
			
			CMD_Index = CMD_NOP_Index;
    2b92:	2200      	movs	r2, #0
    2b94:	4b02      	ldr	r3, [pc, #8]	; (2ba0 <CMD_Func+0x5c>)
    2b96:	701a      	strb	r2, [r3, #0]
		case CMD_NOP_Index:
			break;
	}
	

    2b98:	bc04      	pop	{r2}
    2b9a:	4690      	mov	r8, r2
    2b9c:	bdf0      	pop	{r4, r5, r6, r7, pc}
    2b9e:	46c0      	nop			; (mov r8, r8)
    2ba0:	200027ac 	.word	0x200027ac
    2ba4:	200002d4 	.word	0x200002d4
    2ba8:	200002fc 	.word	0x200002fc
    2bac:	0000283d 	.word	0x0000283d
    2bb0:	00006d6c 	.word	0x00006d6c
    2bb4:	200002fd 	.word	0x200002fd
    2bb8:	200027b0 	.word	0x200027b0

00002bbc <Define_Profile_COPY_TO_RAM>:
	{0xC1, 0x06, 0x00, 0xFF, 0xFF, 0xFF, 0xFF, 0xFF, 0xFF, 0xFF, 0xFF, 0xFF, 0xFF, 0xFF, 0xFF, 0xFF, 0xFF, 0xFF, 0xFF, 0xFF, 0xFF, 0xFF, 0xFF, 0xFF, 0xFF, 0xFF, 0xFF},
	{0xC1, 0x07, 0x00, 0xFF, 0xFF, 0xFF, 0xFF, 0xFF, 0xFF, 0xFF, 0xFF, 0xFF, 0xFF, 0xFF, 0xFF, 0xFF, 0xFF, 0xFF, 0xFF, 0xFF, 0xFF, 0xFF, 0xFF, 0xFF, 0xFF, 0xFF, 0xFF}
};

void Define_Profile_COPY_TO_RAM(void)
{
    2bbc:	b5f8      	push	{r3, r4, r5, r6, r7, lr}
    2bbe:	46de      	mov	lr, fp
    2bc0:	4657      	mov	r7, sl
    2bc2:	464e      	mov	r6, r9
    2bc4:	4645      	mov	r5, r8
    2bc6:	b5e0      	push	{r5, r6, r7, lr}
    2bc8:	245d      	movs	r4, #93	; 0x5d
    2bca:	4b1e      	ldr	r3, [pc, #120]	; (2c44 <Define_Profile_COPY_TO_RAM+0x88>)
    2bcc:	4698      	mov	r8, r3

	unsigned int i, j;
	
	for(i = 0; i < 15; i++)
	{
		change_and_check(&(LORA01->MyLoRaTmpCount[i]), Define_MyLoRaTmpCount[i]);
    2bce:	4f1e      	ldr	r7, [pc, #120]	; (2c48 <Define_Profile_COPY_TO_RAM+0x8c>)
    2bd0:	4e1e      	ldr	r6, [pc, #120]	; (2c4c <Define_Profile_COPY_TO_RAM+0x90>)
    2bd2:	0025      	movs	r5, r4
    2bd4:	3d5d      	subs	r5, #93	; 0x5d
    2bd6:	4445      	add	r5, r8
    2bd8:	7829      	ldrb	r1, [r5, #0]
    2bda:	683b      	ldr	r3, [r7, #0]
    2bdc:	1918      	adds	r0, r3, r4
    2bde:	47b0      	blx	r6
		change_and_check(&(LORA02->MyLoRaTmpCount[i]), Define_MyLoRaTmpCount[i]);
    2be0:	7829      	ldrb	r1, [r5, #0]
    2be2:	4b1b      	ldr	r3, [pc, #108]	; (2c50 <Define_Profile_COPY_TO_RAM+0x94>)
    2be4:	6818      	ldr	r0, [r3, #0]
    2be6:	1900      	adds	r0, r0, r4
    2be8:	47b0      	blx	r6
    2bea:	3401      	adds	r4, #1
	for(i = 0; i < 15; i++)
    2bec:	2c6c      	cmp	r4, #108	; 0x6c
    2bee:	d1f0      	bne.n	2bd2 <Define_Profile_COPY_TO_RAM+0x16>
    2bf0:	2300      	movs	r3, #0
    2bf2:	4699      	mov	r9, r3
    2bf4:	4b17      	ldr	r3, [pc, #92]	; (2c54 <Define_Profile_COPY_TO_RAM+0x98>)
    2bf6:	469a      	mov	sl, r3
    2bf8:	226d      	movs	r2, #109	; 0x6d
    2bfa:	1ad3      	subs	r3, r2, r3
    2bfc:	4698      	mov	r8, r3
    2bfe:	4654      	mov	r4, sl
    2c00:	444c      	add	r4, r9
    2c02:	464e      	mov	r6, r9
    2c04:	361c      	adds	r6, #28
    2c06:	4456      	add	r6, sl
    2c08:	46b3      	mov	fp, r6
	}
	for(i = 0; i < 15; i++)
	{
		for(j = 0; j < 28; j++)
		{
			change_and_check(&(LORA01->MyLoRaTmp[i][j]), Define_MyLoRaTmp[i][j]);
    2c0a:	4f0f      	ldr	r7, [pc, #60]	; (2c48 <Define_Profile_COPY_TO_RAM+0x8c>)
    2c0c:	4643      	mov	r3, r8
    2c0e:	191e      	adds	r6, r3, r4
    2c10:	7821      	ldrb	r1, [r4, #0]
    2c12:	683b      	ldr	r3, [r7, #0]
    2c14:	1998      	adds	r0, r3, r6
    2c16:	4d0d      	ldr	r5, [pc, #52]	; (2c4c <Define_Profile_COPY_TO_RAM+0x90>)
    2c18:	47a8      	blx	r5
			change_and_check(&(LORA02->MyLoRaTmp[i][j]), Define_MyLoRaTmp[i][j]);
    2c1a:	7821      	ldrb	r1, [r4, #0]
    2c1c:	4b0c      	ldr	r3, [pc, #48]	; (2c50 <Define_Profile_COPY_TO_RAM+0x94>)
    2c1e:	6818      	ldr	r0, [r3, #0]
    2c20:	1980      	adds	r0, r0, r6
    2c22:	47a8      	blx	r5
    2c24:	3401      	adds	r4, #1
		for(j = 0; j < 28; j++)
    2c26:	455c      	cmp	r4, fp
    2c28:	d1f0      	bne.n	2c0c <Define_Profile_COPY_TO_RAM+0x50>
    2c2a:	231b      	movs	r3, #27
    2c2c:	469c      	mov	ip, r3
    2c2e:	44e1      	add	r9, ip
	for(i = 0; i < 15; i++)
    2c30:	2396      	movs	r3, #150	; 0x96
    2c32:	33ff      	adds	r3, #255	; 0xff
    2c34:	4599      	cmp	r9, r3
    2c36:	d1e2      	bne.n	2bfe <Define_Profile_COPY_TO_RAM+0x42>
		}
	}
}
    2c38:	bc3c      	pop	{r2, r3, r4, r5}
    2c3a:	4690      	mov	r8, r2
    2c3c:	4699      	mov	r9, r3
    2c3e:	46a2      	mov	sl, r4
    2c40:	46ab      	mov	fp, r5
    2c42:	bdf8      	pop	{r3, r4, r5, r6, r7, pc}
    2c44:	200001b0 	.word	0x200001b0
    2c48:	200018bc 	.word	0x200018bc
    2c4c:	00004201 	.word	0x00004201
    2c50:	20000c90 	.word	0x20000c90
    2c54:	20000000 	.word	0x20000000

00002c58 <Find_Now_And_Next_Wait_Upload_Func>:


void Find_Now_And_Next_Wait_Upload_Func(volatile LORA_DEFINE_t *tmp_LORA)
{
    2c58:	b5f8      	push	{r3, r4, r5, r6, r7, lr}
    2c5a:	0005      	movs	r5, r0
	unsigned char i;
	unsigned char k = 0;
	for(i = tmp_LORA->List_Now + 1 ; k < Dev_Item_MAX; i = (i + 1) % Dev_Item_MAX)
    2c5c:	235b      	movs	r3, #91	; 0x5b
    2c5e:	5cc0      	ldrb	r0, [r0, r3]
    2c60:	3001      	adds	r0, #1
    2c62:	b2c0      	uxtb	r0, r0
	{
		if(dev_value[i][dev_value_New_Data_Input] == Dev_Have_New_Data)
    2c64:	0002      	movs	r2, r0
    2c66:	00c3      	lsls	r3, r0, #3
    2c68:	181b      	adds	r3, r3, r0
    2c6a:	009b      	lsls	r3, r3, #2
    2c6c:	181b      	adds	r3, r3, r0
    2c6e:	493c      	ldr	r1, [pc, #240]	; (2d60 <Find_Now_And_Next_Wait_Upload_Func+0x108>)
    2c70:	18cb      	adds	r3, r1, r3
    2c72:	3323      	adds	r3, #35	; 0x23
    2c74:	781b      	ldrb	r3, [r3, #0]
    2c76:	2b01      	cmp	r3, #1
    2c78:	d01a      	beq.n	2cb0 <Find_Now_And_Next_Wait_Upload_Func+0x58>
	for(i = tmp_LORA->List_Now + 1 ; k < Dev_Item_MAX; i = (i + 1) % Dev_Item_MAX)
    2c7a:	3001      	adds	r0, #1
    2c7c:	2164      	movs	r1, #100	; 0x64
    2c7e:	4b39      	ldr	r3, [pc, #228]	; (2d64 <Find_Now_And_Next_Wait_Upload_Func+0x10c>)
    2c80:	4798      	blx	r3
    2c82:	b2c8      	uxtb	r0, r1
    2c84:	2463      	movs	r4, #99	; 0x63
		if(dev_value[i][dev_value_New_Data_Input] == Dev_Have_New_Data)
    2c86:	4e36      	ldr	r6, [pc, #216]	; (2d60 <Find_Now_And_Next_Wait_Upload_Func+0x108>)
	for(i = tmp_LORA->List_Now + 1 ; k < Dev_Item_MAX; i = (i + 1) % Dev_Item_MAX)
    2c88:	4f36      	ldr	r7, [pc, #216]	; (2d64 <Find_Now_And_Next_Wait_Upload_Func+0x10c>)
		if(dev_value[i][dev_value_New_Data_Input] == Dev_Have_New_Data)
    2c8a:	0002      	movs	r2, r0
    2c8c:	00c3      	lsls	r3, r0, #3
    2c8e:	181b      	adds	r3, r3, r0
    2c90:	009b      	lsls	r3, r3, #2
    2c92:	181b      	adds	r3, r3, r0
    2c94:	18f3      	adds	r3, r6, r3
    2c96:	3323      	adds	r3, #35	; 0x23
    2c98:	781b      	ldrb	r3, [r3, #0]
    2c9a:	2b01      	cmp	r3, #1
    2c9c:	d008      	beq.n	2cb0 <Find_Now_And_Next_Wait_Upload_Func+0x58>
	for(i = tmp_LORA->List_Now + 1 ; k < Dev_Item_MAX; i = (i + 1) % Dev_Item_MAX)
    2c9e:	3001      	adds	r0, #1
    2ca0:	2164      	movs	r1, #100	; 0x64
    2ca2:	47b8      	blx	r7
    2ca4:	b2c8      	uxtb	r0, r1
    2ca6:	3c01      	subs	r4, #1
    2ca8:	b2e4      	uxtb	r4, r4
    2caa:	2c00      	cmp	r4, #0
    2cac:	d1ed      	bne.n	2c8a <Find_Now_And_Next_Wait_Upload_Func+0x32>
    2cae:	e056      	b.n	2d5e <Find_Now_And_Next_Wait_Upload_Func+0x106>
		{
			tmp_LORA->MyLoRaTmp[Write_LoRa_TxBuffer_Index][3] = dev_value[i][3];
    2cb0:	00d3      	lsls	r3, r2, #3
    2cb2:	189b      	adds	r3, r3, r2
    2cb4:	009b      	lsls	r3, r3, #2
    2cb6:	189a      	adds	r2, r3, r2
    2cb8:	4b29      	ldr	r3, [pc, #164]	; (2d60 <Find_Now_And_Next_Wait_Upload_Func+0x108>)
    2cba:	189a      	adds	r2, r3, r2
    2cbc:	78d1      	ldrb	r1, [r2, #3]
    2cbe:	23f7      	movs	r3, #247	; 0xf7
    2cc0:	54e9      	strb	r1, [r5, r3]
			tmp_LORA->MyLoRaTmp[Write_LoRa_TxBuffer_Index][4] = dev_value[i][4];
    2cc2:	7911      	ldrb	r1, [r2, #4]
    2cc4:	3301      	adds	r3, #1
    2cc6:	54e9      	strb	r1, [r5, r3]
			tmp_LORA->MyLoRaTmp[Write_LoRa_TxBuffer_Index][5] = dev_value[i][5];
    2cc8:	7951      	ldrb	r1, [r2, #5]
    2cca:	3301      	adds	r3, #1
    2ccc:	54e9      	strb	r1, [r5, r3]
			tmp_LORA->MyLoRaTmp[Write_LoRa_TxBuffer_Index][6] = dev_value[i][6];
    2cce:	7991      	ldrb	r1, [r2, #6]
    2cd0:	3301      	adds	r3, #1
    2cd2:	54e9      	strb	r1, [r5, r3]
			// dev index
			tmp_LORA->MyLoRaTmp[Write_LoRa_TxBuffer_Index][7] = dev_value[i][7];
    2cd4:	79d1      	ldrb	r1, [r2, #7]
    2cd6:	3301      	adds	r3, #1
    2cd8:	54e9      	strb	r1, [r5, r3]
			// R1
			tmp_LORA->MyLoRaTmp[Write_LoRa_TxBuffer_Index][8] = dev_value[i][8];
    2cda:	7a11      	ldrb	r1, [r2, #8]
    2cdc:	3301      	adds	r3, #1
    2cde:	54e9      	strb	r1, [r5, r3]
			tmp_LORA->MyLoRaTmp[Write_LoRa_TxBuffer_Index][9] = dev_value[i][9];
    2ce0:	7a51      	ldrb	r1, [r2, #9]
    2ce2:	3301      	adds	r3, #1
    2ce4:	54e9      	strb	r1, [r5, r3]
			// R2
			tmp_LORA->MyLoRaTmp[Write_LoRa_TxBuffer_Index][10] = dev_value[i][10];
    2ce6:	7a91      	ldrb	r1, [r2, #10]
    2ce8:	3301      	adds	r3, #1
    2cea:	54e9      	strb	r1, [r5, r3]
			tmp_LORA->MyLoRaTmp[Write_LoRa_TxBuffer_Index][11] = dev_value[i][11];
    2cec:	7ad1      	ldrb	r1, [r2, #11]
    2cee:	3301      	adds	r3, #1
    2cf0:	54e9      	strb	r1, [r5, r3]
			// R3
			tmp_LORA->MyLoRaTmp[Write_LoRa_TxBuffer_Index][12] = dev_value[i][12];
    2cf2:	7b11      	ldrb	r1, [r2, #12]
    2cf4:	3301      	adds	r3, #1
    2cf6:	54e9      	strb	r1, [r5, r3]
			tmp_LORA->MyLoRaTmp[Write_LoRa_TxBuffer_Index][13] = dev_value[i][13];
    2cf8:	7b51      	ldrb	r1, [r2, #13]
    2cfa:	2302      	movs	r3, #2
    2cfc:	33ff      	adds	r3, #255	; 0xff
    2cfe:	54e9      	strb	r1, [r5, r3]
			// R4
			tmp_LORA->MyLoRaTmp[Write_LoRa_TxBuffer_Index][14] = dev_value[i][14];
    2d00:	7b91      	ldrb	r1, [r2, #14]
    2d02:	3301      	adds	r3, #1
    2d04:	54e9      	strb	r1, [r5, r3]
			tmp_LORA->MyLoRaTmp[Write_LoRa_TxBuffer_Index][15] = dev_value[i][15];
    2d06:	7bd1      	ldrb	r1, [r2, #15]
    2d08:	2304      	movs	r3, #4
    2d0a:	33ff      	adds	r3, #255	; 0xff
    2d0c:	54e9      	strb	r1, [r5, r3]
			// R5
			tmp_LORA->MyLoRaTmp[Write_LoRa_TxBuffer_Index][16] = dev_value[i][16];
    2d0e:	7c11      	ldrb	r1, [r2, #16]
    2d10:	3301      	adds	r3, #1
    2d12:	54e9      	strb	r1, [r5, r3]
			tmp_LORA->MyLoRaTmp[Write_LoRa_TxBuffer_Index][17] = dev_value[i][17];
    2d14:	7c51      	ldrb	r1, [r2, #17]
    2d16:	2306      	movs	r3, #6
    2d18:	33ff      	adds	r3, #255	; 0xff
    2d1a:	54e9      	strb	r1, [r5, r3]
			// R6
			tmp_LORA->MyLoRaTmp[Write_LoRa_TxBuffer_Index][18] = dev_value[i][18];
    2d1c:	7c91      	ldrb	r1, [r2, #18]
    2d1e:	3301      	adds	r3, #1
    2d20:	54e9      	strb	r1, [r5, r3]
			tmp_LORA->MyLoRaTmp[Write_LoRa_TxBuffer_Index][19] = dev_value[i][19];
    2d22:	7cd1      	ldrb	r1, [r2, #19]
    2d24:	2308      	movs	r3, #8
    2d26:	33ff      	adds	r3, #255	; 0xff
    2d28:	54e9      	strb	r1, [r5, r3]
			// R7
			tmp_LORA->MyLoRaTmp[Write_LoRa_TxBuffer_Index][20] = dev_value[i][20];
    2d2a:	7d11      	ldrb	r1, [r2, #20]
    2d2c:	3301      	adds	r3, #1
    2d2e:	54e9      	strb	r1, [r5, r3]
			tmp_LORA->MyLoRaTmp[Write_LoRa_TxBuffer_Index][21] = dev_value[i][21];
    2d30:	7d51      	ldrb	r1, [r2, #21]
    2d32:	230a      	movs	r3, #10
    2d34:	33ff      	adds	r3, #255	; 0xff
    2d36:	54e9      	strb	r1, [r5, r3]
			// R8
			tmp_LORA->MyLoRaTmp[Write_LoRa_TxBuffer_Index][22] = dev_value[i][22];
    2d38:	7d91      	ldrb	r1, [r2, #22]
    2d3a:	3301      	adds	r3, #1
    2d3c:	54e9      	strb	r1, [r5, r3]
			tmp_LORA->MyLoRaTmp[Write_LoRa_TxBuffer_Index][23] = dev_value[i][23];
    2d3e:	7dd1      	ldrb	r1, [r2, #23]
    2d40:	230c      	movs	r3, #12
    2d42:	33ff      	adds	r3, #255	; 0xff
    2d44:	54e9      	strb	r1, [r5, r3]
			
			//Version
			tmp_LORA->MyLoRaTmp[Write_LoRa_TxBuffer_Index][24] = dev_value[i][24];
    2d46:	7e11      	ldrb	r1, [r2, #24]
    2d48:	3301      	adds	r3, #1
    2d4a:	54e9      	strb	r1, [r5, r3]
			
			//Dev RSSI
			tmp_LORA->MyLoRaTmp[Write_LoRa_TxBuffer_Index][25] = dev_value[i][27];
    2d4c:	7ed1      	ldrb	r1, [r2, #27]
    2d4e:	230e      	movs	r3, #14
    2d50:	33ff      	adds	r3, #255	; 0xff
    2d52:	54e9      	strb	r1, [r5, r3]
			tmp_LORA->MyLoRaTmp[Write_LoRa_TxBuffer_Index][26] = dev_value[i][28];
    2d54:	7f12      	ldrb	r2, [r2, #28]
    2d56:	3301      	adds	r3, #1
    2d58:	54ea      	strb	r2, [r5, r3]
			tmp_LORA->List_Now = i;
    2d5a:	3bb3      	subs	r3, #179	; 0xb3
    2d5c:	54e8      	strb	r0, [r5, r3]
			break;
		}
		k++;
	}

}
    2d5e:	bdf8      	pop	{r3, r4, r5, r6, r7, pc}
    2d60:	20001938 	.word	0x20001938
    2d64:	00006a75 	.word	0x00006a75

00002d68 <Find_Now_And_Next_Enable_Func>:


void Find_Now_And_Next_Enable_Func(volatile LORA_DEFINE_t *tmp_LORA, volatile LORA_Dev_List_t *tmp_LORA_Dev_List_Index)
{
    2d68:	b5f8      	push	{r3, r4, r5, r6, r7, lr}
    2d6a:	0004      	movs	r4, r0
    2d6c:	000d      	movs	r5, r1
	unsigned char i,j;
	unsigned char k;
	
	k = 0;
	for(i = (tmp_LORA->List_Now + 1); k < Dev_Item_MAX; i = (i + 1) % Dev_Item_MAX)
    2d6e:	235b      	movs	r3, #91	; 0x5b
    2d70:	5cc0      	ldrb	r0, [r0, r3]
    2d72:	3001      	adds	r0, #1
    2d74:	b2c0      	uxtb	r0, r0
		#ifdef Dev_Repeater					// Repeater詢問有Enable and (Dev_Not_New_Data or Sensor)
			if(	tmp_LORA_Dev_List_Index[i].Dev_En_Flag == Dev_EN 
				&& (dev_value[i][dev_value_New_Data_Input] == Dev_Not_New_Data
				|| dev_value[i][dev_type] == 0x00))
		#elif defined(Dev_Master_RS232)		// Master只詢問有Enable
			if(tmp_LORA_Dev_List_Index[i].Dev_En_Flag == Dev_EN)
    2d76:	0103      	lsls	r3, r0, #4
    2d78:	18cb      	adds	r3, r1, r3
    2d7a:	785a      	ldrb	r2, [r3, #1]
    2d7c:	2a01      	cmp	r2, #1
    2d7e:	d014      	beq.n	2daa <Find_Now_And_Next_Enable_Func+0x42>
	for(i = (tmp_LORA->List_Now + 1); k < Dev_Item_MAX; i = (i + 1) % Dev_Item_MAX)
    2d80:	3001      	adds	r0, #1
    2d82:	2164      	movs	r1, #100	; 0x64
    2d84:	4b1b      	ldr	r3, [pc, #108]	; (2df4 <Find_Now_And_Next_Enable_Func+0x8c>)
    2d86:	4798      	blx	r3
    2d88:	b2c8      	uxtb	r0, r1
    2d8a:	2663      	movs	r6, #99	; 0x63
    2d8c:	4f19      	ldr	r7, [pc, #100]	; (2df4 <Find_Now_And_Next_Enable_Func+0x8c>)
			if(tmp_LORA_Dev_List_Index[i].Dev_En_Flag == Dev_EN)
    2d8e:	0103      	lsls	r3, r0, #4
    2d90:	18eb      	adds	r3, r5, r3
    2d92:	785a      	ldrb	r2, [r3, #1]
    2d94:	2a01      	cmp	r2, #1
    2d96:	d008      	beq.n	2daa <Find_Now_And_Next_Enable_Func+0x42>
	for(i = (tmp_LORA->List_Now + 1); k < Dev_Item_MAX; i = (i + 1) % Dev_Item_MAX)
    2d98:	3001      	adds	r0, #1
    2d9a:	2164      	movs	r1, #100	; 0x64
    2d9c:	47b8      	blx	r7
    2d9e:	b2c8      	uxtb	r0, r1
    2da0:	3e01      	subs	r6, #1
    2da2:	b2f6      	uxtb	r6, r6
    2da4:	2e00      	cmp	r6, #0
    2da6:	d1f2      	bne.n	2d8e <Find_Now_And_Next_Enable_Func+0x26>
    2da8:	e023      	b.n	2df2 <Find_Now_And_Next_Enable_Func+0x8a>
		#endif
		{
			tmp_LORA->List_Now =  i;
    2daa:	225b      	movs	r2, #91	; 0x5b
    2dac:	54a0      	strb	r0, [r4, r2]
			tmp_LORA->MyLoRaTmp[Write_LoRa_TxBuffer_Index][3] = tmp_LORA_Dev_List_Index[i].MAC_ID.byte[0];
    2dae:	791a      	ldrb	r2, [r3, #4]
    2db0:	b2d2      	uxtb	r2, r2
    2db2:	21f7      	movs	r1, #247	; 0xf7
    2db4:	5462      	strb	r2, [r4, r1]
			tmp_LORA->MyLoRaTmp[Write_LoRa_TxBuffer_Index][4] = tmp_LORA_Dev_List_Index[i].MAC_ID.byte[1];
    2db6:	795a      	ldrb	r2, [r3, #5]
    2db8:	b2d2      	uxtb	r2, r2
    2dba:	3101      	adds	r1, #1
    2dbc:	5462      	strb	r2, [r4, r1]
			tmp_LORA->MyLoRaTmp[Write_LoRa_TxBuffer_Index][5] = tmp_LORA_Dev_List_Index[i].MAC_ID.byte[2];
    2dbe:	799a      	ldrb	r2, [r3, #6]
    2dc0:	b2d2      	uxtb	r2, r2
    2dc2:	3101      	adds	r1, #1
    2dc4:	5462      	strb	r2, [r4, r1]
			tmp_LORA->MyLoRaTmp[Write_LoRa_TxBuffer_Index][6] = tmp_LORA_Dev_List_Index[i].MAC_ID.byte[3];
    2dc6:	79db      	ldrb	r3, [r3, #7]
    2dc8:	b2db      	uxtb	r3, r3
    2dca:	22fa      	movs	r2, #250	; 0xfa
    2dcc:	54a3      	strb	r3, [r4, r2]
			tmp_LORA->MyLoRaTmp[Write_LoRa_TxBuffer_Index][7] = tmp_LORA->MyLoRaPower;
    2dce:	7ba3      	ldrb	r3, [r4, #14]
    2dd0:	b2db      	uxtb	r3, r3
    2dd2:	3201      	adds	r2, #1
    2dd4:	54a3      	strb	r3, [r4, r2]
			tmp_LORA->MyLoRaTmp[Write_LoRa_TxBuffer_Index][8] = 0xFE;	//Write Mode
    2dd6:	3203      	adds	r2, #3
    2dd8:	23fc      	movs	r3, #252	; 0xfc
    2dda:	54e2      	strb	r2, [r4, r3]
    2ddc:	3bf3      	subs	r3, #243	; 0xf3
			
			//把數據寫入封包後段，當作廣播使用
			for(j = 0; j < 18; j++)
			{
				tmp_LORA->MyLoRaTmp[Write_LoRa_TxBuffer_Index][9+j] = WriteBufferHex[j];
    2dde:	4806      	ldr	r0, [pc, #24]	; (2df8 <Find_Now_And_Next_Enable_Func+0x90>)
    2de0:	001a      	movs	r2, r3
    2de2:	3a09      	subs	r2, #9
    2de4:	5c81      	ldrb	r1, [r0, r2]
    2de6:	18e2      	adds	r2, r4, r3
    2de8:	32f4      	adds	r2, #244	; 0xf4
    2dea:	7011      	strb	r1, [r2, #0]
    2dec:	3301      	adds	r3, #1
			for(j = 0; j < 18; j++)
    2dee:	2b1b      	cmp	r3, #27
    2df0:	d1f6      	bne.n	2de0 <Find_Now_And_Next_Enable_Func+0x78>
			}
			break;
		}
		k++;
	}
}
    2df2:	bdf8      	pop	{r3, r4, r5, r6, r7, pc}
    2df4:	00006a75 	.word	0x00006a75
    2df8:	200027b0 	.word	0x200027b0

00002dfc <Catch_Data_Form_RX_Func>:


void Catch_Data_Form_RX_Func(volatile LORA_DEFINE_t *tmp_LORA)
{
    2dfc:	b570      	push	{r4, r5, r6, lr}
    2dfe:	0004      	movs	r4, r0
	
	if(tmp_LORA->Lora_Show_Flag == true)
    2e00:	4b25      	ldr	r3, [pc, #148]	; (2e98 <Catch_Data_Form_RX_Func+0x9c>)
    2e02:	5cc3      	ldrb	r3, [r0, r3]
    2e04:	2b01      	cmp	r3, #1
    2e06:	d027      	beq.n	2e58 <Catch_Data_Form_RX_Func+0x5c>
{
    2e08:	2100      	movs	r1, #0
	if(tmp_LORA->MyBuffer[4] != tmp_LORA->MyLoRaTmp[Write_LoRa_TxBuffer_Index][4])	return;
	if(tmp_LORA->MyBuffer[5] != tmp_LORA->MyLoRaTmp[Write_LoRa_TxBuffer_Index][5])	return;
	if(tmp_LORA->MyBuffer[6] != tmp_LORA->MyLoRaTmp[Write_LoRa_TxBuffer_Index][6])	return;
	#endif
	
	for(unsigned char i = 0; i < 30; i++)	dev_value[tmp_LORA->List_Now][i] = tmp_LORA->MyBuffer[i];
    2e0a:	265b      	movs	r6, #91	; 0x5b
    2e0c:	4d23      	ldr	r5, [pc, #140]	; (2e9c <Catch_Data_Form_RX_Func+0xa0>)
    2e0e:	5da2      	ldrb	r2, [r4, r6]
    2e10:	b2d2      	uxtb	r2, r2
    2e12:	1863      	adds	r3, r4, r1
    2e14:	7fd8      	ldrb	r0, [r3, #31]
    2e16:	00d3      	lsls	r3, r2, #3
    2e18:	189b      	adds	r3, r3, r2
    2e1a:	009b      	lsls	r3, r3, #2
    2e1c:	189b      	adds	r3, r3, r2
    2e1e:	18eb      	adds	r3, r5, r3
    2e20:	5458      	strb	r0, [r3, r1]
    2e22:	3101      	adds	r1, #1
    2e24:	291e      	cmp	r1, #30
    2e26:	d1f2      	bne.n	2e0e <Catch_Data_Form_RX_Func+0x12>
	dev_value[tmp_LORA->List_Now][dev_value_missnode]		= Dev_Found_Node;
    2e28:	255b      	movs	r5, #91	; 0x5b
    2e2a:	5d61      	ldrb	r1, [r4, r5]
    2e2c:	b2c9      	uxtb	r1, r1
    2e2e:	4a1b      	ldr	r2, [pc, #108]	; (2e9c <Catch_Data_Form_RX_Func+0xa0>)
    2e30:	00cb      	lsls	r3, r1, #3
    2e32:	185b      	adds	r3, r3, r1
    2e34:	009b      	lsls	r3, r3, #2
    2e36:	185b      	adds	r3, r3, r1
    2e38:	18d3      	adds	r3, r2, r3
    2e3a:	2001      	movs	r0, #1
    2e3c:	7798      	strb	r0, [r3, #30]
	dev_value[tmp_LORA->List_Now][dev_value_New_Data_Input] = Dev_Have_New_Data;
    2e3e:	5d61      	ldrb	r1, [r4, r5]
    2e40:	b2c9      	uxtb	r1, r1
    2e42:	00cb      	lsls	r3, r1, #3
    2e44:	185b      	adds	r3, r3, r1
    2e46:	009b      	lsls	r3, r3, #2
    2e48:	185b      	adds	r3, r3, r1
    2e4a:	18d3      	adds	r3, r2, r3
    2e4c:	3323      	adds	r3, #35	; 0x23
    2e4e:	7018      	strb	r0, [r3, #0]

	#ifdef Dev_Master_RS232
	// Master接收到的資料馬上回傳給電腦
	Master_RS232_To_UART(tmp_LORA);
    2e50:	0020      	movs	r0, r4
    2e52:	4b13      	ldr	r3, [pc, #76]	; (2ea0 <Catch_Data_Form_RX_Func+0xa4>)
    2e54:	4798      	blx	r3
	#endif
}
    2e56:	bd70      	pop	{r4, r5, r6, pc}
		Print_Lora_number(tmp_LORA);
    2e58:	4b12      	ldr	r3, [pc, #72]	; (2ea4 <Catch_Data_Form_RX_Func+0xa8>)
    2e5a:	4798      	blx	r3
		uart_str(" ---> \0");
    2e5c:	4812      	ldr	r0, [pc, #72]	; (2ea8 <Catch_Data_Form_RX_Func+0xac>)
    2e5e:	4b13      	ldr	r3, [pc, #76]	; (2eac <Catch_Data_Form_RX_Func+0xb0>)
    2e60:	4798      	blx	r3
		uart_send_ascii_byte(Debug_COM, tmp_LORA->MyBuffer[3]);
    2e62:	2322      	movs	r3, #34	; 0x22
    2e64:	5ce1      	ldrb	r1, [r4, r3]
    2e66:	b2c9      	uxtb	r1, r1
    2e68:	4d11      	ldr	r5, [pc, #68]	; (2eb0 <Catch_Data_Form_RX_Func+0xb4>)
    2e6a:	0028      	movs	r0, r5
    2e6c:	4e11      	ldr	r6, [pc, #68]	; (2eb4 <Catch_Data_Form_RX_Func+0xb8>)
    2e6e:	47b0      	blx	r6
		uart_send_ascii_byte(Debug_COM, tmp_LORA->MyBuffer[4]);
    2e70:	2323      	movs	r3, #35	; 0x23
    2e72:	5ce1      	ldrb	r1, [r4, r3]
    2e74:	b2c9      	uxtb	r1, r1
    2e76:	0028      	movs	r0, r5
    2e78:	47b0      	blx	r6
		uart_send_ascii_byte(Debug_COM, tmp_LORA->MyBuffer[5]);
    2e7a:	2324      	movs	r3, #36	; 0x24
    2e7c:	5ce1      	ldrb	r1, [r4, r3]
    2e7e:	b2c9      	uxtb	r1, r1
    2e80:	0028      	movs	r0, r5
    2e82:	47b0      	blx	r6
		uart_send_ascii_byte(Debug_COM, tmp_LORA->MyBuffer[6]);
    2e84:	2325      	movs	r3, #37	; 0x25
    2e86:	5ce1      	ldrb	r1, [r4, r3]
    2e88:	b2c9      	uxtb	r1, r1
    2e8a:	0028      	movs	r0, r5
    2e8c:	47b0      	blx	r6
		uTXByte(Debug_COM, 0x0d);
    2e8e:	210d      	movs	r1, #13
    2e90:	0028      	movs	r0, r5
    2e92:	4b09      	ldr	r3, [pc, #36]	; (2eb8 <Catch_Data_Form_RX_Func+0xbc>)
    2e94:	4798      	blx	r3
    2e96:	e7b7      	b.n	2e08 <Catch_Data_Form_RX_Func+0xc>
    2e98:	00000226 	.word	0x00000226
    2e9c:	20001938 	.word	0x20001938
    2ea0:	00001be1 	.word	0x00001be1
    2ea4:	00003021 	.word	0x00003021
    2ea8:	00006d70 	.word	0x00006d70
    2eac:	00002ffd 	.word	0x00002ffd
    2eb0:	20000270 	.word	0x20000270
    2eb4:	00002745 	.word	0x00002745
    2eb8:	00002725 	.word	0x00002725

00002ebc <Define_Dev_Time_Func>:


void Define_Dev_Time_Func(volatile LORA_Dev_List_t *tmp_LORA_Dev_List_Index)
{
    2ebc:	b510      	push	{r4, lr}
    2ebe:	0004      	movs	r4, r0
	Load_Dev_Time_Form_NVM(tmp_LORA_Dev_List_Index);
    2ec0:	4b09      	ldr	r3, [pc, #36]	; (2ee8 <Define_Dev_Time_Func+0x2c>)
    2ec2:	4798      	blx	r3
	if(tmp_LORA_Dev_List_Index[0].Dev_Time.word == 0xffff)
    2ec4:	8923      	ldrh	r3, [r4, #8]
    2ec6:	b29b      	uxth	r3, r3
    2ec8:	4a08      	ldr	r2, [pc, #32]	; (2eec <Define_Dev_Time_Func+0x30>)
    2eca:	4293      	cmp	r3, r2
    2ecc:	d000      	beq.n	2ed0 <Define_Dev_Time_Func+0x14>
		{
			tmp_LORA_Dev_List_Index[i].Dev_Time.word;
		}
		Save_Dev_Time_into_NVM(tmp_LORA_Dev_List_Index);
	}
}
    2ece:	bd10      	pop	{r4, pc}
    2ed0:	0023      	movs	r3, r4
    2ed2:	22c8      	movs	r2, #200	; 0xc8
    2ed4:	00d2      	lsls	r2, r2, #3
    2ed6:	18a2      	adds	r2, r4, r2
			tmp_LORA_Dev_List_Index[i].Dev_Time.word;
    2ed8:	8919      	ldrh	r1, [r3, #8]
    2eda:	3310      	adds	r3, #16
		for ( unsigned char i = 0; i < Dev_Item_MAX; i++)
    2edc:	4293      	cmp	r3, r2
    2ede:	d1fb      	bne.n	2ed8 <Define_Dev_Time_Func+0x1c>
		Save_Dev_Time_into_NVM(tmp_LORA_Dev_List_Index);
    2ee0:	0020      	movs	r0, r4
    2ee2:	4b03      	ldr	r3, [pc, #12]	; (2ef0 <Define_Dev_Time_Func+0x34>)
    2ee4:	4798      	blx	r3
}
    2ee6:	e7f2      	b.n	2ece <Define_Dev_Time_Func+0x12>
    2ee8:	00001fd9 	.word	0x00001fd9
    2eec:	0000ffff 	.word	0x0000ffff
    2ef0:	00001f51 	.word	0x00001f51

00002ef4 <Define_Dev_List_Func>:


void Define_Dev_List_Func(volatile LORA_Dev_List_t *tmp_LORA_Dev_List_Index)
{
    2ef4:	b510      	push	{r4, lr}
    2ef6:	0004      	movs	r4, r0
	Load_List_Form_NVM(tmp_LORA_Dev_List_Index);
    2ef8:	4b0a      	ldr	r3, [pc, #40]	; (2f24 <Define_Dev_List_Func+0x30>)
    2efa:	4798      	blx	r3
	if(tmp_LORA_Dev_List_Index[0].Dev_Number == 0xff)
    2efc:	7823      	ldrb	r3, [r4, #0]
    2efe:	b2db      	uxtb	r3, r3
    2f00:	2bff      	cmp	r3, #255	; 0xff
    2f02:	d000      	beq.n	2f06 <Define_Dev_List_Func+0x12>
			tmp_LORA_Dev_List_Index[i].Dev_En_Flag = Dev_Dis;
			tmp_LORA_Dev_List_Index[i].MAC_ID.dword = 0;
		}
		Save_List_in_NVM(tmp_LORA_Dev_List_Index);
	}
}
    2f04:	bd10      	pop	{r4, pc}
    2f06:	0022      	movs	r2, r4
	if(tmp_LORA_Dev_List_Index[0].Dev_Number == 0xff)
    2f08:	2300      	movs	r3, #0
			tmp_LORA_Dev_List_Index[i].Dev_En_Flag = Dev_Dis;
    2f0a:	2100      	movs	r1, #0
			tmp_LORA_Dev_List_Index[i].Dev_Number = i;
    2f0c:	7013      	strb	r3, [r2, #0]
			tmp_LORA_Dev_List_Index[i].Dev_En_Flag = Dev_Dis;
    2f0e:	7051      	strb	r1, [r2, #1]
			tmp_LORA_Dev_List_Index[i].MAC_ID.dword = 0;
    2f10:	6051      	str	r1, [r2, #4]
		for (unsigned char i = 0; i < Dev_Item_MAX; i++)
    2f12:	3301      	adds	r3, #1
    2f14:	b2db      	uxtb	r3, r3
    2f16:	3210      	adds	r2, #16
    2f18:	2b64      	cmp	r3, #100	; 0x64
    2f1a:	d1f7      	bne.n	2f0c <Define_Dev_List_Func+0x18>
		Save_List_in_NVM(tmp_LORA_Dev_List_Index);
    2f1c:	0020      	movs	r0, r4
    2f1e:	4b02      	ldr	r3, [pc, #8]	; (2f28 <Define_Dev_List_Func+0x34>)
    2f20:	4798      	blx	r3
}
    2f22:	e7ef      	b.n	2f04 <Define_Dev_List_Func+0x10>
    2f24:	0000255d 	.word	0x0000255d
    2f28:	000024c1 	.word	0x000024c1

00002f2c <Dev_Time_Counter_By_Timer_Func>:



void Dev_Time_Counter_By_Timer_Func(unsigned char tmp_start, unsigned char tmp_end, volatile LORA_Dev_List_t *tmp_LORA_Dev_List_Index)
{
	for(unsigned char i = tmp_start; i < tmp_end; i++)
    2f2c:	4288      	cmp	r0, r1
    2f2e:	d216      	bcs.n	2f5e <Dev_Time_Counter_By_Timer_Func+0x32>
    2f30:	0103      	lsls	r3, r0, #4
    2f32:	18d3      	adds	r3, r2, r3
    2f34:	3901      	subs	r1, #1
    2f36:	1a09      	subs	r1, r1, r0
    2f38:	b2c9      	uxtb	r1, r1
    2f3a:	3001      	adds	r0, #1
    2f3c:	1808      	adds	r0, r1, r0
    2f3e:	0100      	lsls	r0, r0, #4
    2f40:	1812      	adds	r2, r2, r0
	{
		if(tmp_LORA_Dev_List_Index[i].Now_Counter.word < 10000)
    2f42:	4807      	ldr	r0, [pc, #28]	; (2f60 <Dev_Time_Counter_By_Timer_Func+0x34>)
    2f44:	e002      	b.n	2f4c <Dev_Time_Counter_By_Timer_Func+0x20>
    2f46:	3310      	adds	r3, #16
	for(unsigned char i = tmp_start; i < tmp_end; i++)
    2f48:	4293      	cmp	r3, r2
    2f4a:	d008      	beq.n	2f5e <Dev_Time_Counter_By_Timer_Func+0x32>
		if(tmp_LORA_Dev_List_Index[i].Now_Counter.word < 10000)
    2f4c:	8999      	ldrh	r1, [r3, #12]
    2f4e:	b289      	uxth	r1, r1
    2f50:	4281      	cmp	r1, r0
    2f52:	d8f8      	bhi.n	2f46 <Dev_Time_Counter_By_Timer_Func+0x1a>
		{
			tmp_LORA_Dev_List_Index[i].Now_Counter.word++;
    2f54:	8999      	ldrh	r1, [r3, #12]
    2f56:	3101      	adds	r1, #1
    2f58:	b289      	uxth	r1, r1
    2f5a:	8199      	strh	r1, [r3, #12]
    2f5c:	e7f3      	b.n	2f46 <Dev_Time_Counter_By_Timer_Func+0x1a>
		}
	}
}
    2f5e:	4770      	bx	lr
    2f60:	0000270f 	.word	0x0000270f

00002f64 <Fill_Dev_Time_into_dev_value>:
{
    2f64:	b510      	push	{r4, lr}
    2f66:	0004      	movs	r4, r0
	if(LORA01->Lora_Dev_Count_IRQ_Flag == 1)
    2f68:	4b08      	ldr	r3, [pc, #32]	; (2f8c <Fill_Dev_Time_into_dev_value+0x28>)
    2f6a:	6818      	ldr	r0, [r3, #0]
    2f6c:	4b08      	ldr	r3, [pc, #32]	; (2f90 <Fill_Dev_Time_into_dev_value+0x2c>)
    2f6e:	5cc3      	ldrb	r3, [r0, r3]
    2f70:	2b01      	cmp	r3, #1
    2f72:	d000      	beq.n	2f76 <Fill_Dev_Time_into_dev_value+0x12>
}
    2f74:	bd10      	pop	{r4, pc}
		Dev_Time_Counter_By_Timer_Func(0, 100 ,tmp_LORA_Dev_List_Index);
    2f76:	000a      	movs	r2, r1
    2f78:	2164      	movs	r1, #100	; 0x64
    2f7a:	2000      	movs	r0, #0
    2f7c:	4b05      	ldr	r3, [pc, #20]	; (2f94 <Fill_Dev_Time_into_dev_value+0x30>)
    2f7e:	4798      	blx	r3
		tmp_LORA->Lora_Dev_Count_IRQ_Flag = 0;
    2f80:	2300      	movs	r3, #0
    2f82:	4a03      	ldr	r2, [pc, #12]	; (2f90 <Fill_Dev_Time_into_dev_value+0x2c>)
    2f84:	54a3      	strb	r3, [r4, r2]
		tmp_LORA->t2_tmp_count = 0;
    2f86:	3219      	adds	r2, #25
    2f88:	50a3      	str	r3, [r4, r2]
}
    2f8a:	e7f3      	b.n	2f74 <Fill_Dev_Time_into_dev_value+0x10>
    2f8c:	200018bc 	.word	0x200018bc
    2f90:	00000227 	.word	0x00000227
    2f94:	00002f2d 	.word	0x00002f2d

00002f98 <Search_list_table_index>:
unsigned char Search_list_table_index(unsigned char tmp_list_table_index, volatile LORA_Dev_List_t *tmp_LORA_Dev_List_Index)
{
	unsigned int i;
	for(i = 0; i < Dev_Item_MAX; i++)
	{
		if(tmp_LORA_Dev_List_Index[i].Dev_Number == tmp_list_table_index)
    2f98:	780b      	ldrb	r3, [r1, #0]
    2f9a:	b2db      	uxtb	r3, r3
    2f9c:	4298      	cmp	r0, r3
    2f9e:	d00b      	beq.n	2fb8 <Search_list_table_index+0x20>
    2fa0:	3110      	adds	r1, #16
	for(i = 0; i < Dev_Item_MAX; i++)
    2fa2:	2201      	movs	r2, #1
		if(tmp_LORA_Dev_List_Index[i].Dev_Number == tmp_list_table_index)
    2fa4:	780b      	ldrb	r3, [r1, #0]
    2fa6:	b2db      	uxtb	r3, r3
    2fa8:	4283      	cmp	r3, r0
    2faa:	d006      	beq.n	2fba <Search_list_table_index+0x22>
	for(i = 0; i < Dev_Item_MAX; i++)
    2fac:	3201      	adds	r2, #1
    2fae:	3110      	adds	r1, #16
    2fb0:	2a64      	cmp	r2, #100	; 0x64
    2fb2:	d1f7      	bne.n	2fa4 <Search_list_table_index+0xc>
		{
			return i;
		}
	}
	return Not_found_Index;
    2fb4:	20ff      	movs	r0, #255	; 0xff
    2fb6:	e001      	b.n	2fbc <Search_list_table_index+0x24>
	for(i = 0; i < Dev_Item_MAX; i++)
    2fb8:	2200      	movs	r2, #0
			return i;
    2fba:	b2d0      	uxtb	r0, r2
    2fbc:	4770      	bx	lr
	...

00002fc0 <Judg_KEY_W>:
﻿#include <asf.h>
#include <stdio.h>
#include "myDefine.h"

void Judg_KEY_W(void)
{
    2fc0:	b510      	push	{r4, lr}
	//W020000000000010000CC5678EEEEF111Z
	if(UserKeyInBuf[0]  != 'w' && UserKeyInBuf[0]  != 'W') return;		//Check 'w' or W
    2fc2:	4b0a      	ldr	r3, [pc, #40]	; (2fec <Judg_KEY_W+0x2c>)
    2fc4:	781b      	ldrb	r3, [r3, #0]
    2fc6:	2220      	movs	r2, #32
    2fc8:	4393      	bics	r3, r2
    2fca:	2b57      	cmp	r3, #87	; 0x57
    2fcc:	d000      	beq.n	2fd0 <Judg_KEY_W+0x10>
	if(UserKeyInBuf[UserKeyInBufMax-1] != 'z' && UserKeyInBuf[UserKeyInBufMax-1] != 'Z') return;		//Check 'w' or W
	CMD_Index = Write_Data_Form_UART_Index;
	uart_str("To PLC OK\r\0");
}
    2fce:	bd10      	pop	{r4, pc}
	if(UserKeyInBuf[UserKeyInBufMax-1] != 'z' && UserKeyInBuf[UserKeyInBufMax-1] != 'Z') return;		//Check 'w' or W
    2fd0:	3b36      	subs	r3, #54	; 0x36
    2fd2:	4a06      	ldr	r2, [pc, #24]	; (2fec <Judg_KEY_W+0x2c>)
    2fd4:	5cd3      	ldrb	r3, [r2, r3]
    2fd6:	2220      	movs	r2, #32
    2fd8:	4393      	bics	r3, r2
    2fda:	2b5a      	cmp	r3, #90	; 0x5a
    2fdc:	d1f7      	bne.n	2fce <Judg_KEY_W+0xe>
	CMD_Index = Write_Data_Form_UART_Index;
    2fde:	3a14      	subs	r2, #20
    2fe0:	4b03      	ldr	r3, [pc, #12]	; (2ff0 <Judg_KEY_W+0x30>)
    2fe2:	701a      	strb	r2, [r3, #0]
	uart_str("To PLC OK\r\0");
    2fe4:	4803      	ldr	r0, [pc, #12]	; (2ff4 <Judg_KEY_W+0x34>)
    2fe6:	4b04      	ldr	r3, [pc, #16]	; (2ff8 <Judg_KEY_W+0x38>)
    2fe8:	4798      	blx	r3
    2fea:	e7f0      	b.n	2fce <Judg_KEY_W+0xe>
    2fec:	200002d4 	.word	0x200002d4
    2ff0:	200027ac 	.word	0x200027ac
    2ff4:	00006d78 	.word	0x00006d78
    2ff8:	00002ffd 	.word	0x00002ffd

00002ffc <uart_str>:




void uart_str(const char *tmp_ptr)
{
    2ffc:	b570      	push	{r4, r5, r6, lr}
	char *ptr;
	ptr = tmp_ptr;
	while(*ptr != '\0')
    2ffe:	7801      	ldrb	r1, [r0, #0]
    3000:	2900      	cmp	r1, #0
    3002:	d008      	beq.n	3016 <uart_str+0x1a>
    3004:	0004      	movs	r4, r0
	{
		uTXByte(Debug_COM, *ptr);
    3006:	4e04      	ldr	r6, [pc, #16]	; (3018 <uart_str+0x1c>)
    3008:	4d04      	ldr	r5, [pc, #16]	; (301c <uart_str+0x20>)
    300a:	0030      	movs	r0, r6
    300c:	47a8      	blx	r5
		ptr++;
    300e:	3401      	adds	r4, #1
	while(*ptr != '\0')
    3010:	7821      	ldrb	r1, [r4, #0]
    3012:	2900      	cmp	r1, #0
    3014:	d1f9      	bne.n	300a <uart_str+0xe>
	}
}
    3016:	bd70      	pop	{r4, r5, r6, pc}
    3018:	20000270 	.word	0x20000270
    301c:	00002725 	.word	0x00002725

00003020 <Print_Lora_number>:


void Print_Lora_number(volatile LORA_DEFINE_t *tmp_LORA)
{
    3020:	b510      	push	{r4, lr}
	if(tmp_LORA == LORA01)
    3022:	4b06      	ldr	r3, [pc, #24]	; (303c <Print_Lora_number+0x1c>)
    3024:	681b      	ldr	r3, [r3, #0]
    3026:	4283      	cmp	r3, r0
    3028:	d003      	beq.n	3032 <Print_Lora_number+0x12>
		uart_str(&Msg_LoRA01[0]);
	else
		uart_str(&Msg_LoRA02[0]);
    302a:	4805      	ldr	r0, [pc, #20]	; (3040 <Print_Lora_number+0x20>)
    302c:	4b05      	ldr	r3, [pc, #20]	; (3044 <Print_Lora_number+0x24>)
    302e:	4798      	blx	r3
}
    3030:	bd10      	pop	{r4, pc}
		uart_str(&Msg_LoRA01[0]);
    3032:	4805      	ldr	r0, [pc, #20]	; (3048 <Print_Lora_number+0x28>)
    3034:	4b03      	ldr	r3, [pc, #12]	; (3044 <Print_Lora_number+0x24>)
    3036:	4798      	blx	r3
    3038:	e7fa      	b.n	3030 <Print_Lora_number+0x10>
    303a:	46c0      	nop			; (mov r8, r8)
    303c:	200018bc 	.word	0x200018bc
    3040:	00006dd4 	.word	0x00006dd4
    3044:	00002ffd 	.word	0x00002ffd
    3048:	00006dcc 	.word	0x00006dcc

0000304c <Print_Line_Msg>:

void Print_Line_Msg(void)
{
    304c:	b510      	push	{r4, lr}
	uart_str(&Msg_Desh[0]);
    304e:	4802      	ldr	r0, [pc, #8]	; (3058 <Print_Line_Msg+0xc>)
    3050:	4b02      	ldr	r3, [pc, #8]	; (305c <Print_Line_Msg+0x10>)
    3052:	4798      	blx	r3
}
    3054:	bd10      	pop	{r4, pc}
    3056:	46c0      	nop			; (mov r8, r8)
    3058:	00006da0 	.word	0x00006da0
    305c:	00002ffd 	.word	0x00002ffd

00003060 <Print_Start_Msg>:



void Print_Start_Msg(void)
{
    3060:	b510      	push	{r4, lr}
	uart_str(&Msg_Power_ON_START[0]);
    3062:	4803      	ldr	r0, [pc, #12]	; (3070 <Print_Start_Msg+0x10>)
    3064:	4b03      	ldr	r3, [pc, #12]	; (3074 <Print_Start_Msg+0x14>)
    3066:	4798      	blx	r3
	Print_Line_Msg();
    3068:	4b03      	ldr	r3, [pc, #12]	; (3078 <Print_Start_Msg+0x18>)
    306a:	4798      	blx	r3
}
    306c:	bd10      	pop	{r4, pc}
    306e:	46c0      	nop			; (mov r8, r8)
    3070:	00006dec 	.word	0x00006dec
    3074:	00002ffd 	.word	0x00002ffd
    3078:	0000304d 	.word	0x0000304d

0000307c <Print_Find_Msg>:


void Print_Find_Msg(void)
{
    307c:	b510      	push	{r4, lr}
	uart_str(&Msg_FoundIt[0]);
    307e:	4802      	ldr	r0, [pc, #8]	; (3088 <Print_Find_Msg+0xc>)
    3080:	4b02      	ldr	r3, [pc, #8]	; (308c <Print_Find_Msg+0x10>)
    3082:	4798      	blx	r3
}
    3084:	bd10      	pop	{r4, pc}
    3086:	46c0      	nop			; (mov r8, r8)
    3088:	00006dbc 	.word	0x00006dbc
    308c:	00002ffd 	.word	0x00002ffd

00003090 <Print_Enable_CMD_Msg>:

void Print_Enable_CMD_Msg(void)
{
    3090:	b510      	push	{r4, lr}
	uTXByte(Debug_COM, 'E');
    3092:	2145      	movs	r1, #69	; 0x45
    3094:	4801      	ldr	r0, [pc, #4]	; (309c <Print_Enable_CMD_Msg+0xc>)
    3096:	4b02      	ldr	r3, [pc, #8]	; (30a0 <Print_Enable_CMD_Msg+0x10>)
    3098:	4798      	blx	r3
}
    309a:	bd10      	pop	{r4, pc}
    309c:	20000270 	.word	0x20000270
    30a0:	00002725 	.word	0x00002725

000030a4 <Print_Disable_CMD_Msg>:

void Print_Disable_CMD_Msg(void)
{
    30a4:	b510      	push	{r4, lr}
	uTXByte(Debug_COM, ' ');
    30a6:	2120      	movs	r1, #32
    30a8:	4801      	ldr	r0, [pc, #4]	; (30b0 <Print_Disable_CMD_Msg+0xc>)
    30aa:	4b02      	ldr	r3, [pc, #8]	; (30b4 <Print_Disable_CMD_Msg+0x10>)
    30ac:	4798      	blx	r3
}
    30ae:	bd10      	pop	{r4, pc}
    30b0:	20000270 	.word	0x20000270
    30b4:	00002725 	.word	0x00002725

000030b8 <Print_Dev_Time_Value>:

void Print_Dev_Time_Value(unsigned char tmp_index, volatile LORA_Dev_List_t *tmp_LORA_Dev_List_Index)
{
    30b8:	b5f8      	push	{r3, r4, r5, r6, r7, lr}
    30ba:	0007      	movs	r7, r0
    30bc:	000c      	movs	r4, r1
	UINT16u_t tmp16;
	uTXByte(Debug_COM, ' ');
    30be:	4d0a      	ldr	r5, [pc, #40]	; (30e8 <Print_Dev_Time_Value+0x30>)
    30c0:	2120      	movs	r1, #32
    30c2:	0028      	movs	r0, r5
    30c4:	4e09      	ldr	r6, [pc, #36]	; (30ec <Print_Dev_Time_Value+0x34>)
    30c6:	47b0      	blx	r6
	tmp16.byte[1] = tmp_LORA_Dev_List_Index[tmp_index].Dev_Time.byte[1];
    30c8:	0139      	lsls	r1, r7, #4
    30ca:	1861      	adds	r1, r4, r1
    30cc:	7a4b      	ldrb	r3, [r1, #9]
	tmp16.byte[0] = tmp_LORA_Dev_List_Index[tmp_index].Dev_Time.byte[0];
    30ce:	7a08      	ldrb	r0, [r1, #8]
    30d0:	021b      	lsls	r3, r3, #8
	uart_send_word(Debug_COM, hex_to_bcd(tmp16.word));
    30d2:	4318      	orrs	r0, r3
    30d4:	4b06      	ldr	r3, [pc, #24]	; (30f0 <Print_Dev_Time_Value+0x38>)
    30d6:	4798      	blx	r3
    30d8:	0001      	movs	r1, r0
    30da:	0028      	movs	r0, r5
    30dc:	4b05      	ldr	r3, [pc, #20]	; (30f4 <Print_Dev_Time_Value+0x3c>)
    30de:	4798      	blx	r3
	uTXByte(Debug_COM, ' ');
    30e0:	2120      	movs	r1, #32
    30e2:	0028      	movs	r0, r5
    30e4:	47b0      	blx	r6
}
    30e6:	bdf8      	pop	{r3, r4, r5, r6, r7, pc}
    30e8:	20000270 	.word	0x20000270
    30ec:	00002725 	.word	0x00002725
    30f0:	000029e5 	.word	0x000029e5
    30f4:	000027b9 	.word	0x000027b9

000030f8 <Print_One_Form_List_Table>:

void Print_One_Form_List_Table(unsigned char tmp_index, volatile LORA_Dev_List_t *tmp_LORA_Dev_List_Index)
{
    30f8:	b5f0      	push	{r4, r5, r6, r7, lr}
    30fa:	b083      	sub	sp, #12
    30fc:	0004      	movs	r4, r0
    30fe:	000e      	movs	r6, r1
	uart_str("No.\0");
    3100:	4820      	ldr	r0, [pc, #128]	; (3184 <Print_One_Form_List_Table+0x8c>)
    3102:	4b21      	ldr	r3, [pc, #132]	; (3188 <Print_One_Form_List_Table+0x90>)
    3104:	4798      	blx	r3
	uart_send_word_for_ListNumber(Debug_COM, hex_to_bcd(tmp_LORA_Dev_List_Index[tmp_index].Dev_Number));
    3106:	9400      	str	r4, [sp, #0]
    3108:	0125      	lsls	r5, r4, #4
    310a:	9601      	str	r6, [sp, #4]
    310c:	46b4      	mov	ip, r6
    310e:	4465      	add	r5, ip
    3110:	7828      	ldrb	r0, [r5, #0]
    3112:	b2c0      	uxtb	r0, r0
    3114:	4b1d      	ldr	r3, [pc, #116]	; (318c <Print_One_Form_List_Table+0x94>)
    3116:	4798      	blx	r3
    3118:	0001      	movs	r1, r0
    311a:	4c1d      	ldr	r4, [pc, #116]	; (3190 <Print_One_Form_List_Table+0x98>)
    311c:	0020      	movs	r0, r4
    311e:	4b1d      	ldr	r3, [pc, #116]	; (3194 <Print_One_Form_List_Table+0x9c>)
    3120:	4798      	blx	r3
	uTXByte(Debug_COM, ' ');
    3122:	2120      	movs	r1, #32
    3124:	0020      	movs	r0, r4
    3126:	4e1c      	ldr	r6, [pc, #112]	; (3198 <Print_One_Form_List_Table+0xa0>)
    3128:	47b0      	blx	r6
	uart_send_ascii_byte(Debug_COM, tmp_LORA_Dev_List_Index[tmp_index].MAC_ID.byte[0]);
    312a:	7929      	ldrb	r1, [r5, #4]
    312c:	b2c9      	uxtb	r1, r1
    312e:	0020      	movs	r0, r4
    3130:	4f1a      	ldr	r7, [pc, #104]	; (319c <Print_One_Form_List_Table+0xa4>)
    3132:	47b8      	blx	r7
	uart_send_ascii_byte(Debug_COM, tmp_LORA_Dev_List_Index[tmp_index].MAC_ID.byte[1]);
    3134:	7969      	ldrb	r1, [r5, #5]
    3136:	b2c9      	uxtb	r1, r1
    3138:	0020      	movs	r0, r4
    313a:	47b8      	blx	r7
	uart_send_ascii_byte(Debug_COM, tmp_LORA_Dev_List_Index[tmp_index].MAC_ID.byte[2]);
    313c:	79a9      	ldrb	r1, [r5, #6]
    313e:	b2c9      	uxtb	r1, r1
    3140:	0020      	movs	r0, r4
    3142:	47b8      	blx	r7
	uart_send_ascii_byte(Debug_COM, tmp_LORA_Dev_List_Index[tmp_index].MAC_ID.byte[3]);
    3144:	79e9      	ldrb	r1, [r5, #7]
    3146:	b2c9      	uxtb	r1, r1
    3148:	0020      	movs	r0, r4
    314a:	47b8      	blx	r7
	uTXByte(Debug_COM, ' ');
    314c:	2120      	movs	r1, #32
    314e:	0020      	movs	r0, r4
    3150:	47b0      	blx	r6
	Print_Dev_Time_Value(tmp_index, tmp_LORA_Dev_List_Index);
    3152:	9901      	ldr	r1, [sp, #4]
    3154:	9800      	ldr	r0, [sp, #0]
    3156:	4b12      	ldr	r3, [pc, #72]	; (31a0 <Print_One_Form_List_Table+0xa8>)
    3158:	4798      	blx	r3
	uTXByte(Debug_COM, ' ');
    315a:	2120      	movs	r1, #32
    315c:	0020      	movs	r0, r4
    315e:	47b0      	blx	r6
	uTXByte(Debug_COM, '[');
    3160:	215b      	movs	r1, #91	; 0x5b
    3162:	0020      	movs	r0, r4
    3164:	47b0      	blx	r6
	if(tmp_LORA_Dev_List_Index[tmp_index].Dev_En_Flag == Dev_EN)
    3166:	786b      	ldrb	r3, [r5, #1]
    3168:	2b01      	cmp	r3, #1
    316a:	d007      	beq.n	317c <Print_One_Form_List_Table+0x84>
	{
		Print_Enable_CMD_Msg();
	}
	else
	{
		Print_Disable_CMD_Msg();
    316c:	4b0d      	ldr	r3, [pc, #52]	; (31a4 <Print_One_Form_List_Table+0xac>)
    316e:	4798      	blx	r3
	}
	uTXByte(Debug_COM, ']');
    3170:	215d      	movs	r1, #93	; 0x5d
    3172:	4807      	ldr	r0, [pc, #28]	; (3190 <Print_One_Form_List_Table+0x98>)
    3174:	4b08      	ldr	r3, [pc, #32]	; (3198 <Print_One_Form_List_Table+0xa0>)
    3176:	4798      	blx	r3
}
    3178:	b003      	add	sp, #12
    317a:	bdf0      	pop	{r4, r5, r6, r7, pc}
		Print_Enable_CMD_Msg();
    317c:	4b0a      	ldr	r3, [pc, #40]	; (31a8 <Print_One_Form_List_Table+0xb0>)
    317e:	4798      	blx	r3
    3180:	e7f6      	b.n	3170 <Print_One_Form_List_Table+0x78>
    3182:	46c0      	nop			; (mov r8, r8)
    3184:	00006d84 	.word	0x00006d84
    3188:	00002ffd 	.word	0x00002ffd
    318c:	000029e5 	.word	0x000029e5
    3190:	20000270 	.word	0x20000270
    3194:	00002805 	.word	0x00002805
    3198:	00002725 	.word	0x00002725
    319c:	00002745 	.word	0x00002745
    31a0:	000030b9 	.word	0x000030b9
    31a4:	000030a5 	.word	0x000030a5
    31a8:	00003091 	.word	0x00003091

000031ac <Print_Arrow_Right>:



void Print_Arrow_Right(void)
{
    31ac:	b510      	push	{r4, lr}
	uart_str(&Msg_Arrow_Right[0]);
    31ae:	4802      	ldr	r0, [pc, #8]	; (31b8 <Print_Arrow_Right+0xc>)
    31b0:	4b02      	ldr	r3, [pc, #8]	; (31bc <Print_Arrow_Right+0x10>)
    31b2:	4798      	blx	r3
}
    31b4:	bd10      	pop	{r4, pc}
    31b6:	46c0      	nop			; (mov r8, r8)
    31b8:	00006d98 	.word	0x00006d98
    31bc:	00002ffd 	.word	0x00002ffd

000031c0 <Print_MissNode_Form_RX_Msg>:



void Print_MissNode_Form_RX_Msg(volatile LORA_DEFINE_t *tmp_LORA, volatile LORA_Dev_List_t *tmp_LORA_Dev_List_Index)
{
    31c0:	b5f8      	push	{r3, r4, r5, r6, r7, lr}
    31c2:	0004      	movs	r4, r0
    31c4:	000d      	movs	r5, r1
	if(tmp_LORA->Lora_Show_Flag == false) return;
    31c6:	4b0e      	ldr	r3, [pc, #56]	; (3200 <Print_MissNode_Form_RX_Msg+0x40>)
    31c8:	5cc3      	ldrb	r3, [r0, r3]
    31ca:	2b00      	cmp	r3, #0
    31cc:	d100      	bne.n	31d0 <Print_MissNode_Form_RX_Msg+0x10>
	Print_Lora_number(tmp_LORA);
	uart_str("No.\0");
	uart_send_word_for_ListNumber(Debug_COM, hex_to_bcd(tmp_LORA_Dev_List_Index[tmp_LORA->List_Now].Dev_Number));
	uart_str(&Msg_MISSNODE);
	Print_Line_Msg();
}
    31ce:	bdf8      	pop	{r3, r4, r5, r6, r7, pc}
	Print_Line_Msg();
    31d0:	4e0c      	ldr	r6, [pc, #48]	; (3204 <Print_MissNode_Form_RX_Msg+0x44>)
    31d2:	47b0      	blx	r6
	Print_Lora_number(tmp_LORA);
    31d4:	0020      	movs	r0, r4
    31d6:	4b0c      	ldr	r3, [pc, #48]	; (3208 <Print_MissNode_Form_RX_Msg+0x48>)
    31d8:	4798      	blx	r3
	uart_str("No.\0");
    31da:	480c      	ldr	r0, [pc, #48]	; (320c <Print_MissNode_Form_RX_Msg+0x4c>)
    31dc:	4f0c      	ldr	r7, [pc, #48]	; (3210 <Print_MissNode_Form_RX_Msg+0x50>)
    31de:	47b8      	blx	r7
	uart_send_word_for_ListNumber(Debug_COM, hex_to_bcd(tmp_LORA_Dev_List_Index[tmp_LORA->List_Now].Dev_Number));
    31e0:	235b      	movs	r3, #91	; 0x5b
    31e2:	5ce3      	ldrb	r3, [r4, r3]
    31e4:	011b      	lsls	r3, r3, #4
    31e6:	18ed      	adds	r5, r5, r3
    31e8:	7828      	ldrb	r0, [r5, #0]
    31ea:	b2c0      	uxtb	r0, r0
    31ec:	4b09      	ldr	r3, [pc, #36]	; (3214 <Print_MissNode_Form_RX_Msg+0x54>)
    31ee:	4798      	blx	r3
    31f0:	0001      	movs	r1, r0
    31f2:	4809      	ldr	r0, [pc, #36]	; (3218 <Print_MissNode_Form_RX_Msg+0x58>)
    31f4:	4b09      	ldr	r3, [pc, #36]	; (321c <Print_MissNode_Form_RX_Msg+0x5c>)
    31f6:	4798      	blx	r3
	uart_str(&Msg_MISSNODE);
    31f8:	4809      	ldr	r0, [pc, #36]	; (3220 <Print_MissNode_Form_RX_Msg+0x60>)
    31fa:	47b8      	blx	r7
	Print_Line_Msg();
    31fc:	47b0      	blx	r6
    31fe:	e7e6      	b.n	31ce <Print_MissNode_Form_RX_Msg+0xe>
    3200:	00000226 	.word	0x00000226
    3204:	0000304d 	.word	0x0000304d
    3208:	00003021 	.word	0x00003021
    320c:	00006d84 	.word	0x00006d84
    3210:	00002ffd 	.word	0x00002ffd
    3214:	000029e5 	.word	0x000029e5
    3218:	20000270 	.word	0x20000270
    321c:	00002805 	.word	0x00002805
    3220:	00006ddc 	.word	0x00006ddc

00003224 <Print_Catch_Data_Form_RX_Msg>:




void Print_Catch_Data_Form_RX_Msg(volatile LORA_DEFINE_t *tmp_LORA, volatile LORA_Dev_List_t *tmp_LORA_Dev_List_Index)
{
    3224:	b5f8      	push	{r3, r4, r5, r6, r7, lr}
    3226:	0006      	movs	r6, r0
    3228:	000c      	movs	r4, r1
	UINT16u_t tmp16;
	
	if(tmp_LORA->Lora_Show_Flag == false) return;
    322a:	4b1d      	ldr	r3, [pc, #116]	; (32a0 <Print_Catch_Data_Form_RX_Msg+0x7c>)
    322c:	5cc3      	ldrb	r3, [r0, r3]
    322e:	2b00      	cmp	r3, #0
    3230:	d100      	bne.n	3234 <Print_Catch_Data_Form_RX_Msg+0x10>
		uart_send_ascii_byte(Debug_COM, dev_value[tmp_LORA->List_Now][i]);
		uTXByte(Debug_COM, ' ');
	}
	uTXByte(Debug_COM, 0x0d);
	Print_Line_Msg();
}
    3232:	bdf8      	pop	{r3, r4, r5, r6, r7, pc}
	Print_Line_Msg();
    3234:	4b1b      	ldr	r3, [pc, #108]	; (32a4 <Print_Catch_Data_Form_RX_Msg+0x80>)
    3236:	4798      	blx	r3
	Print_Lora_number(tmp_LORA);
    3238:	0030      	movs	r0, r6
    323a:	4b1b      	ldr	r3, [pc, #108]	; (32a8 <Print_Catch_Data_Form_RX_Msg+0x84>)
    323c:	4798      	blx	r3
	uart_str("No.\0");
    323e:	481b      	ldr	r0, [pc, #108]	; (32ac <Print_Catch_Data_Form_RX_Msg+0x88>)
    3240:	4b1b      	ldr	r3, [pc, #108]	; (32b0 <Print_Catch_Data_Form_RX_Msg+0x8c>)
    3242:	4798      	blx	r3
	uart_send_word_for_ListNumber(Debug_COM, hex_to_bcd(tmp_LORA_Dev_List_Index[tmp_LORA->List_Now].Dev_Number));
    3244:	235b      	movs	r3, #91	; 0x5b
    3246:	5cf3      	ldrb	r3, [r6, r3]
    3248:	011b      	lsls	r3, r3, #4
    324a:	18e4      	adds	r4, r4, r3
    324c:	7820      	ldrb	r0, [r4, #0]
    324e:	b2c0      	uxtb	r0, r0
    3250:	4b18      	ldr	r3, [pc, #96]	; (32b4 <Print_Catch_Data_Form_RX_Msg+0x90>)
    3252:	4798      	blx	r3
    3254:	0001      	movs	r1, r0
    3256:	4c18      	ldr	r4, [pc, #96]	; (32b8 <Print_Catch_Data_Form_RX_Msg+0x94>)
    3258:	0020      	movs	r0, r4
    325a:	4b18      	ldr	r3, [pc, #96]	; (32bc <Print_Catch_Data_Form_RX_Msg+0x98>)
    325c:	4798      	blx	r3
	uTXByte(Debug_COM, ' ');
    325e:	2120      	movs	r1, #32
    3260:	0020      	movs	r0, r4
    3262:	4b17      	ldr	r3, [pc, #92]	; (32c0 <Print_Catch_Data_Form_RX_Msg+0x9c>)
    3264:	4798      	blx	r3
    3266:	2500      	movs	r5, #0
		uart_send_ascii_byte(Debug_COM, dev_value[tmp_LORA->List_Now][i]);
    3268:	4c16      	ldr	r4, [pc, #88]	; (32c4 <Print_Catch_Data_Form_RX_Msg+0xa0>)
    326a:	4f17      	ldr	r7, [pc, #92]	; (32c8 <Print_Catch_Data_Form_RX_Msg+0xa4>)
    326c:	235b      	movs	r3, #91	; 0x5b
    326e:	5cf2      	ldrb	r2, [r6, r3]
    3270:	b2d2      	uxtb	r2, r2
    3272:	00d3      	lsls	r3, r2, #3
    3274:	189b      	adds	r3, r3, r2
    3276:	009b      	lsls	r3, r3, #2
    3278:	189b      	adds	r3, r3, r2
    327a:	18e3      	adds	r3, r4, r3
    327c:	5d59      	ldrb	r1, [r3, r5]
    327e:	480e      	ldr	r0, [pc, #56]	; (32b8 <Print_Catch_Data_Form_RX_Msg+0x94>)
    3280:	47b8      	blx	r7
		uTXByte(Debug_COM, ' ');
    3282:	2120      	movs	r1, #32
    3284:	480c      	ldr	r0, [pc, #48]	; (32b8 <Print_Catch_Data_Form_RX_Msg+0x94>)
    3286:	4b0e      	ldr	r3, [pc, #56]	; (32c0 <Print_Catch_Data_Form_RX_Msg+0x9c>)
    3288:	4798      	blx	r3
    328a:	3501      	adds	r5, #1
	for(unsigned char i = 0; i < dev_value_data_max - 7; i++)
    328c:	2d1e      	cmp	r5, #30
    328e:	d1ed      	bne.n	326c <Print_Catch_Data_Form_RX_Msg+0x48>
	uTXByte(Debug_COM, 0x0d);
    3290:	210d      	movs	r1, #13
    3292:	4809      	ldr	r0, [pc, #36]	; (32b8 <Print_Catch_Data_Form_RX_Msg+0x94>)
    3294:	4b0a      	ldr	r3, [pc, #40]	; (32c0 <Print_Catch_Data_Form_RX_Msg+0x9c>)
    3296:	4798      	blx	r3
	Print_Line_Msg();
    3298:	4b02      	ldr	r3, [pc, #8]	; (32a4 <Print_Catch_Data_Form_RX_Msg+0x80>)
    329a:	4798      	blx	r3
    329c:	e7c9      	b.n	3232 <Print_Catch_Data_Form_RX_Msg+0xe>
    329e:	46c0      	nop			; (mov r8, r8)
    32a0:	00000226 	.word	0x00000226
    32a4:	0000304d 	.word	0x0000304d
    32a8:	00003021 	.word	0x00003021
    32ac:	00006d84 	.word	0x00006d84
    32b0:	00002ffd 	.word	0x00002ffd
    32b4:	000029e5 	.word	0x000029e5
    32b8:	20000270 	.word	0x20000270
    32bc:	00002805 	.word	0x00002805
    32c0:	00002725 	.word	0x00002725
    32c4:	20001938 	.word	0x20001938
    32c8:	00002745 	.word	0x00002745

000032cc <Print_Send_Dev_No_Msg>:
}



void Print_Send_Dev_No_Msg(volatile LORA_DEFINE_t *tmp_LORA)
{
    32cc:	b5f8      	push	{r3, r4, r5, r6, r7, lr}
    32ce:	0004      	movs	r4, r0
	if(tmp_LORA->Lora_Show_Flag == false) return;
    32d0:	4b17      	ldr	r3, [pc, #92]	; (3330 <Print_Send_Dev_No_Msg+0x64>)
    32d2:	5cc3      	ldrb	r3, [r0, r3]
    32d4:	2b00      	cmp	r3, #0
    32d6:	d100      	bne.n	32da <Print_Send_Dev_No_Msg+0xe>
	uart_send_ascii_byte(Debug_COM, tmp_LORA->MyLoRaTmp[Write_LoRa_TxBuffer_Index][6]);
	//uTXByte(Debug_COM, ' ');
	//uart_send_word_for_ListNumber(Debug_COM, hex_to_bcd(tmp_LORA->List_Next));
	//uTXByte(Debug_COM, ' ');
	uTXByte(Debug_COM, 0x0d);
}
    32d8:	bdf8      	pop	{r3, r4, r5, r6, r7, pc}
	uart_str(" <--- No.\0");
    32da:	4816      	ldr	r0, [pc, #88]	; (3334 <Print_Send_Dev_No_Msg+0x68>)
    32dc:	3008      	adds	r0, #8
    32de:	4b16      	ldr	r3, [pc, #88]	; (3338 <Print_Send_Dev_No_Msg+0x6c>)
    32e0:	4798      	blx	r3
	uart_send_word_for_ListNumber(Debug_COM, hex_to_bcd(tmp_LORA->List_Now));
    32e2:	235b      	movs	r3, #91	; 0x5b
    32e4:	5ce0      	ldrb	r0, [r4, r3]
    32e6:	b2c0      	uxtb	r0, r0
    32e8:	4b14      	ldr	r3, [pc, #80]	; (333c <Print_Send_Dev_No_Msg+0x70>)
    32ea:	4798      	blx	r3
    32ec:	0001      	movs	r1, r0
    32ee:	4d14      	ldr	r5, [pc, #80]	; (3340 <Print_Send_Dev_No_Msg+0x74>)
    32f0:	0028      	movs	r0, r5
    32f2:	4b14      	ldr	r3, [pc, #80]	; (3344 <Print_Send_Dev_No_Msg+0x78>)
    32f4:	4798      	blx	r3
	uTXByte(Debug_COM, ' ');
    32f6:	2120      	movs	r1, #32
    32f8:	0028      	movs	r0, r5
    32fa:	4f13      	ldr	r7, [pc, #76]	; (3348 <Print_Send_Dev_No_Msg+0x7c>)
    32fc:	47b8      	blx	r7
	uart_send_ascii_byte(Debug_COM, tmp_LORA->MyLoRaTmp[Write_LoRa_TxBuffer_Index][3]);
    32fe:	23f7      	movs	r3, #247	; 0xf7
    3300:	5ce1      	ldrb	r1, [r4, r3]
    3302:	b2c9      	uxtb	r1, r1
    3304:	0028      	movs	r0, r5
    3306:	4e11      	ldr	r6, [pc, #68]	; (334c <Print_Send_Dev_No_Msg+0x80>)
    3308:	47b0      	blx	r6
	uart_send_ascii_byte(Debug_COM, tmp_LORA->MyLoRaTmp[Write_LoRa_TxBuffer_Index][4]);
    330a:	23f8      	movs	r3, #248	; 0xf8
    330c:	5ce1      	ldrb	r1, [r4, r3]
    330e:	b2c9      	uxtb	r1, r1
    3310:	0028      	movs	r0, r5
    3312:	47b0      	blx	r6
	uart_send_ascii_byte(Debug_COM, tmp_LORA->MyLoRaTmp[Write_LoRa_TxBuffer_Index][5]);
    3314:	23f9      	movs	r3, #249	; 0xf9
    3316:	5ce1      	ldrb	r1, [r4, r3]
    3318:	b2c9      	uxtb	r1, r1
    331a:	0028      	movs	r0, r5
    331c:	47b0      	blx	r6
	uart_send_ascii_byte(Debug_COM, tmp_LORA->MyLoRaTmp[Write_LoRa_TxBuffer_Index][6]);
    331e:	23fa      	movs	r3, #250	; 0xfa
    3320:	5ce1      	ldrb	r1, [r4, r3]
    3322:	b2c9      	uxtb	r1, r1
    3324:	0028      	movs	r0, r5
    3326:	47b0      	blx	r6
	uTXByte(Debug_COM, 0x0d);
    3328:	210d      	movs	r1, #13
    332a:	0028      	movs	r0, r5
    332c:	47b8      	blx	r7
    332e:	e7d3      	b.n	32d8 <Print_Send_Dev_No_Msg+0xc>
    3330:	00000226 	.word	0x00000226
    3334:	00006d84 	.word	0x00006d84
    3338:	00002ffd 	.word	0x00002ffd
    333c:	000029e5 	.word	0x000029e5
    3340:	20000270 	.word	0x20000270
    3344:	00002805 	.word	0x00002805
    3348:	00002725 	.word	0x00002725
    334c:	00002745 	.word	0x00002745

00003350 <watchdog_early_warning_callback>:


void watchdog_early_warning_callback(void)
{
	
}
    3350:	4770      	bx	lr
	...

00003354 <configure_wdt>:

void configure_wdt(void)
{
    3354:	b500      	push	{lr}
    3356:	b083      	sub	sp, #12
{
	/* Sanity check arguments */
	Assert(config);

	/* Default configuration values */
	config->always_on            = false;
    3358:	2300      	movs	r3, #0
    335a:	466a      	mov	r2, sp
    335c:	7013      	strb	r3, [r2, #0]
	config->enable               = true;
    335e:	2201      	movs	r2, #1
    3360:	4669      	mov	r1, sp
    3362:	704a      	strb	r2, [r1, #1]
#if !(SAML21) && !(SAML22) && !(SAMC20) && !(SAMC21) && !(SAMR30)
	config->clock_source         = GCLK_GENERATOR_4;
    3364:	3203      	adds	r2, #3
    3366:	708a      	strb	r2, [r1, #2]
#endif
	config->timeout_period       = WDT_PERIOD_16384CLK;
	config->window_period        = WDT_PERIOD_NONE;
    3368:	710b      	strb	r3, [r1, #4]
	config_wdt.always_on            = false;
#if !((SAML21) || (SAMC21) || (SAML22) || (SAMR30))
	config_wdt.clock_source         = GCLK_GENERATOR_4;
#endif
	//config_wdt.timeout_period       = WDT_PERIOD_4096CLK;
	config_wdt.timeout_period       = WDT_PERIOD_8192CLK;
    336a:	330b      	adds	r3, #11
    336c:	70cb      	strb	r3, [r1, #3]
	config_wdt.early_warning_period = WDT_PERIOD_2048CLK;
    336e:	3b02      	subs	r3, #2
    3370:	714b      	strb	r3, [r1, #5]
	//! [setup_3]

	/* Initialize and enable the Watchdog with the user settings */
	//! [setup_4]
	wdt_set_config(&config_wdt);
    3372:	4668      	mov	r0, sp
    3374:	4b01      	ldr	r3, [pc, #4]	; (337c <configure_wdt+0x28>)
    3376:	4798      	blx	r3
	//! [setup_4]
}
    3378:	b003      	add	sp, #12
    337a:	bd00      	pop	{pc}
    337c:	00003e4d 	.word	0x00003e4d

00003380 <configure_wdt_callbacks>:

void configure_wdt_callbacks(void)
{
    3380:	b510      	push	{r4, lr}
	//! [setup_5]
	wdt_register_callback(watchdog_early_warning_callback,
    3382:	2100      	movs	r1, #0
    3384:	4803      	ldr	r0, [pc, #12]	; (3394 <configure_wdt_callbacks+0x14>)
    3386:	4b04      	ldr	r3, [pc, #16]	; (3398 <configure_wdt_callbacks+0x18>)
    3388:	4798      	blx	r3
		WDT_CALLBACK_EARLY_WARNING);
	//! [setup_5]

	//! [setup_6]
	wdt_enable_callback(WDT_CALLBACK_EARLY_WARNING);
    338a:	2000      	movs	r0, #0
    338c:	4b03      	ldr	r3, [pc, #12]	; (339c <configure_wdt_callbacks+0x1c>)
    338e:	4798      	blx	r3
	//! [setup_6]
}
    3390:	bd10      	pop	{r4, pc}
    3392:	46c0      	nop			; (mov r8, r8)
    3394:	00003351 	.word	0x00003351
    3398:	00003f65 	.word	0x00003f65
    339c:	00003f79 	.word	0x00003f79

000033a0 <configure_adc>:



//! [setup]
void configure_adc(void)
{
    33a0:	b510      	push	{r4, lr}
    33a2:	b08c      	sub	sp, #48	; 0x30
	//! [setup_config]
	struct adc_config config_adc;
	//! [setup_config]
	//! [setup_config_defaults]
	adc_get_config_defaults(&config_adc);
    33a4:	4668      	mov	r0, sp
    33a6:	4b0e      	ldr	r3, [pc, #56]	; (33e0 <configure_adc+0x40>)
    33a8:	4798      	blx	r3
	//! [setup_config_defaults]

	//! [setup_set_config]
	adc_init(&adc_instance, ADC, &config_adc);
    33aa:	4c0e      	ldr	r4, [pc, #56]	; (33e4 <configure_adc+0x44>)
    33ac:	466a      	mov	r2, sp
    33ae:	490e      	ldr	r1, [pc, #56]	; (33e8 <configure_adc+0x48>)
    33b0:	0020      	movs	r0, r4
    33b2:	4b0e      	ldr	r3, [pc, #56]	; (33ec <configure_adc+0x4c>)
    33b4:	4798      	blx	r3
		struct adc_module *const module_inst)
{
	Assert(module_inst);
	Assert(module_inst->hw);

	Adc *const adc_module = module_inst->hw;
    33b6:	6822      	ldr	r2, [r4, #0]
	/* Sanity check arguments */
	Assert(module_inst);

	Adc *const adc_module = module_inst->hw;

	if (adc_module->STATUS.reg & ADC_STATUS_SYNCBUSY) {
    33b8:	7e53      	ldrb	r3, [r2, #25]

	while (adc_is_syncing(module_inst)) {
    33ba:	b25b      	sxtb	r3, r3
    33bc:	2b00      	cmp	r3, #0
    33be:	dbfb      	blt.n	33b8 <configure_adc+0x18>
		system_interrupt_enable(SYSTEM_INTERRUPT_MODULE_ADC);
#   endif
#endif

	/* Disbale interrupt */
	adc_module->INTENCLR.reg = ADC_INTENCLR_MASK;
    33c0:	230f      	movs	r3, #15
    33c2:	7593      	strb	r3, [r2, #22]
	/* Clear interrupt flag */
	adc_module->INTFLAG.reg = ADC_INTFLAG_MASK;
    33c4:	7613      	strb	r3, [r2, #24]

	adc_module->CTRLA.reg |= ADC_CTRLA_ENABLE;
    33c6:	7813      	ldrb	r3, [r2, #0]
    33c8:	2102      	movs	r1, #2
    33ca:	430b      	orrs	r3, r1
    33cc:	7013      	strb	r3, [r2, #0]
	Adc *const adc_module = module_inst->hw;
    33ce:	4b05      	ldr	r3, [pc, #20]	; (33e4 <configure_adc+0x44>)
    33d0:	681a      	ldr	r2, [r3, #0]
	if (adc_module->STATUS.reg & ADC_STATUS_SYNCBUSY) {
    33d2:	7e53      	ldrb	r3, [r2, #25]

	while (adc_is_syncing(module_inst)) {
    33d4:	b25b      	sxtb	r3, r3
    33d6:	2b00      	cmp	r3, #0
    33d8:	dbfb      	blt.n	33d2 <configure_adc+0x32>
	//! [setup_set_config]

	//! [setup_enable]
	adc_enable(&adc_instance);
	//! [setup_enable]
}
    33da:	b00c      	add	sp, #48	; 0x30
    33dc:	bd10      	pop	{r4, pc}
    33de:	46c0      	nop			; (mov r8, r8)
    33e0:	0000347d 	.word	0x0000347d
    33e4:	200027fc 	.word	0x200027fc
    33e8:	42004000 	.word	0x42004000
    33ec:	000034c5 	.word	0x000034c5

000033f0 <adc_get_val>:
//! [setup]


uint16_t  adc_get_val(enum adc_positive_input adc_pin )
{
    33f0:	b530      	push	{r4, r5, lr}
	static uint16_t result;
	adc_instance.hw->INPUTCTRL.reg &=~ ADC_INPUTCTRL_MUXPOS_Msk;
    33f2:	4b20      	ldr	r3, [pc, #128]	; (3474 <adc_get_val+0x84>)
    33f4:	6819      	ldr	r1, [r3, #0]
    33f6:	690b      	ldr	r3, [r1, #16]
    33f8:	221f      	movs	r2, #31
    33fa:	4393      	bics	r3, r2
    33fc:	610b      	str	r3, [r1, #16]
	adc_instance.hw->INPUTCTRL.reg |= (adc_pin<<ADC_INPUTCTRL_MUXPOS_Pos);
    33fe:	690b      	ldr	r3, [r1, #16]
    3400:	4318      	orrs	r0, r3
    3402:	6108      	str	r0, [r1, #16]
    3404:	7e4b      	ldrb	r3, [r1, #25]
	Assert(module_inst);
	Assert(module_inst->hw);

	Adc *const adc_module = module_inst->hw;

	while (adc_is_syncing(module_inst)) {
    3406:	b25b      	sxtb	r3, r3
    3408:	2b00      	cmp	r3, #0
    340a:	dbfb      	blt.n	3404 <adc_get_val+0x14>
		/* Wait for synchronization */
	}

	adc_module->SWTRIG.reg |= ADC_SWTRIG_START;
    340c:	7b0b      	ldrb	r3, [r1, #12]
    340e:	2202      	movs	r2, #2
    3410:	4313      	orrs	r3, r2
    3412:	730b      	strb	r3, [r1, #12]
    3414:	7e4b      	ldrb	r3, [r1, #25]

	while (adc_is_syncing(module_inst)) {
    3416:	b25b      	sxtb	r3, r3
    3418:	2b00      	cmp	r3, #0
    341a:	dbfb      	blt.n	3414 <adc_get_val+0x24>
	if (int_flags & ADC_INTFLAG_RESRDY) {
    341c:	2001      	movs	r0, #1
	if (int_flags & ADC_INTFLAG_WINMON) {
    341e:	2504      	movs	r5, #4
		status_flags |= ADC_STATUS_WINDOW;
    3420:	2402      	movs	r4, #2
    3422:	e001      	b.n	3428 <adc_get_val+0x38>
{
	Assert(module_inst);
	Assert(module_inst->hw);
	Assert(result);

	if (!(adc_get_status(module_inst) & ADC_STATUS_RESULT_READY)) {
    3424:	4210      	tst	r0, r2
    3426:	d10a      	bne.n	343e <adc_get_val+0x4e>
	uint32_t int_flags = adc_module->INTFLAG.reg;
    3428:	7e0b      	ldrb	r3, [r1, #24]
    342a:	b2db      	uxtb	r3, r3
	if (int_flags & ADC_INTFLAG_RESRDY) {
    342c:	0002      	movs	r2, r0
    342e:	401a      	ands	r2, r3
	if (int_flags & ADC_INTFLAG_WINMON) {
    3430:	421d      	tst	r5, r3
    3432:	d000      	beq.n	3436 <adc_get_val+0x46>
		status_flags |= ADC_STATUS_WINDOW;
    3434:	4322      	orrs	r2, r4
	if (int_flags & ADC_INTFLAG_OVERRUN) {
    3436:	421c      	tst	r4, r3
    3438:	d0f4      	beq.n	3424 <adc_get_val+0x34>
		status_flags |= ADC_STATUS_OVERRUN;
    343a:	432a      	orrs	r2, r5
    343c:	e7f2      	b.n	3424 <adc_get_val+0x34>
    343e:	7e4b      	ldrb	r3, [r1, #25]
	}

	Adc *const adc_module = module_inst->hw;

#if (SAMD) || (SAMHA1) || (SAMR21)
	while (adc_is_syncing(module_inst)) {
    3440:	b25b      	sxtb	r3, r3
    3442:	2b00      	cmp	r3, #0
    3444:	dbfb      	blt.n	343e <adc_get_val+0x4e>
		/* Wait for synchronization */
	}
#endif

	/* Get ADC result */
	*result = adc_module->RESULT.reg;
    3446:	8b48      	ldrh	r0, [r1, #26]
    3448:	b280      	uxth	r0, r0
    344a:	4b0b      	ldr	r3, [pc, #44]	; (3478 <adc_get_val+0x88>)
    344c:	8018      	strh	r0, [r3, #0]
	adc_module->INTFLAG.reg = int_flags;
    344e:	2301      	movs	r3, #1
    3450:	760b      	strb	r3, [r1, #24]
	uint32_t int_flags = adc_module->INTFLAG.reg;
    3452:	7e0a      	ldrb	r2, [r1, #24]
    3454:	b2d2      	uxtb	r2, r2
	if (int_flags & ADC_INTFLAG_RESRDY) {
    3456:	4013      	ands	r3, r2
	if (int_flags & ADC_INTFLAG_WINMON) {
    3458:	0754      	lsls	r4, r2, #29
    345a:	d501      	bpl.n	3460 <adc_get_val+0x70>
		status_flags |= ADC_STATUS_WINDOW;
    345c:	2402      	movs	r4, #2
    345e:	4323      	orrs	r3, r4
	if (int_flags & ADC_INTFLAG_OVERRUN) {
    3460:	0792      	lsls	r2, r2, #30
    3462:	d501      	bpl.n	3468 <adc_get_val+0x78>
		status_flags |= ADC_STATUS_OVERRUN;
    3464:	2204      	movs	r2, #4
    3466:	4313      	orrs	r3, r2

	/* Reset ready flag */
	adc_clear_status(module_inst, ADC_STATUS_RESULT_READY);

	if (adc_get_status(module_inst) & ADC_STATUS_OVERRUN) {
    3468:	075b      	lsls	r3, r3, #29
    346a:	d501      	bpl.n	3470 <adc_get_val+0x80>
	adc_module->INTFLAG.reg = int_flags;
    346c:	2302      	movs	r3, #2
    346e:	760b      	strb	r3, [r1, #24]
	do {
		/* Wait for conversion to be done and read out result */
	} while (adc_read(&adc_instance, &result) == STATUS_BUSY);

	return result;
}
    3470:	bd30      	pop	{r4, r5, pc}
    3472:	46c0      	nop			; (mov r8, r8)
    3474:	200027fc 	.word	0x200027fc
    3478:	200001ee 	.word	0x200001ee

0000347c <adc_get_config_defaults>:
 *
 * \param[out] config  Pointer to configuration struct to initialize to
 *                     default values
 */
void adc_get_config_defaults(struct adc_config *const config)
{
    347c:	b510      	push	{r4, lr}
	Assert(config);
	config->clock_source                  = GCLK_GENERATOR_0;
    347e:	2200      	movs	r2, #0
    3480:	2300      	movs	r3, #0
    3482:	7002      	strb	r2, [r0, #0]
	config->reference                     = ADC_REFERENCE_INT1V;
    3484:	7042      	strb	r2, [r0, #1]
	config->clock_prescaler               = ADC_CLOCK_PRESCALER_DIV4;
    3486:	2100      	movs	r1, #0
    3488:	8042      	strh	r2, [r0, #2]
	config->resolution                    = ADC_RESOLUTION_12BIT;
    348a:	7101      	strb	r1, [r0, #4]
	config->window.window_mode            = ADC_WINDOW_MODE_DISABLE;
    348c:	7603      	strb	r3, [r0, #24]
	config->window.window_upper_value     = 0;
    348e:	6202      	str	r2, [r0, #32]
	config->window.window_lower_value     = 0;
    3490:	61c2      	str	r2, [r0, #28]
	config->gain_factor                   = ADC_GAIN_FACTOR_1X;
    3492:	6082      	str	r2, [r0, #8]
#if SAMR21
	config->positive_input                = ADC_POSITIVE_INPUT_PIN6 ;
#else
	//FDOק
	#ifndef Dev_DO
 		config->positive_input                = ADC_POSITIVE_INPUT_PIN7 ;
    3494:	2407      	movs	r4, #7
    3496:	7304      	strb	r4, [r0, #12]
	#else
		config->positive_input                = ADC_POSITIVE_INPUT_PIN4 ;
	#endif
#endif
	config->negative_input                = ADC_NEGATIVE_INPUT_GND ;
    3498:	24c0      	movs	r4, #192	; 0xc0
    349a:	0164      	lsls	r4, r4, #5
    349c:	81c4      	strh	r4, [r0, #14]
	config->accumulate_samples            = ADC_ACCUMULATE_DISABLE;
    349e:	7403      	strb	r3, [r0, #16]
	config->divide_result                 = ADC_DIVIDE_RESULT_DISABLE;
    34a0:	7443      	strb	r3, [r0, #17]
	config->left_adjust                   = false;
    34a2:	7483      	strb	r3, [r0, #18]
	config->differential_mode             = false;
    34a4:	74c3      	strb	r3, [r0, #19]
	config->freerunning                   = false;
    34a6:	7503      	strb	r3, [r0, #20]
	config->event_action                  = ADC_EVENT_ACTION_DISABLED;
    34a8:	242a      	movs	r4, #42	; 0x2a
    34aa:	5503      	strb	r3, [r0, r4]
	config->run_in_standby                = false;
    34ac:	7543      	strb	r3, [r0, #21]
	config->reference_compensation_enable = false;
    34ae:	7583      	strb	r3, [r0, #22]
	config->correction.correction_enable  = false;
    34b0:	3c06      	subs	r4, #6
    34b2:	5503      	strb	r3, [r0, r4]
	config->correction.gain_correction    = ADC_GAINCORR_RESETVALUE;
    34b4:	84c2      	strh	r2, [r0, #38]	; 0x26
	config->correction.offset_correction  = ADC_OFFSETCORR_RESETVALUE;
    34b6:	8502      	strh	r2, [r0, #40]	; 0x28
	config->sample_length                 = 0;
    34b8:	75c1      	strb	r1, [r0, #23]
	config->pin_scan.offset_start_scan    = 0;
    34ba:	232b      	movs	r3, #43	; 0x2b
    34bc:	54c1      	strb	r1, [r0, r3]
	config->pin_scan.inputs_to_scan       = 0;
    34be:	3301      	adds	r3, #1
    34c0:	54c1      	strb	r1, [r0, r3]
}
    34c2:	bd10      	pop	{r4, pc}

000034c4 <adc_init>:
 */
enum status_code adc_init(
		struct adc_module *const module_inst,
		Adc *hw,
		struct adc_config *config)
{
    34c4:	b5f0      	push	{r4, r5, r6, r7, lr}
    34c6:	46de      	mov	lr, fp
    34c8:	4657      	mov	r7, sl
    34ca:	464e      	mov	r6, r9
    34cc:	4645      	mov	r5, r8
    34ce:	b5e0      	push	{r5, r6, r7, lr}
    34d0:	b097      	sub	sp, #92	; 0x5c
    34d2:	0007      	movs	r7, r0
    34d4:	0016      	movs	r6, r2
	Assert(module_inst);
	Assert(hw);
	Assert(config);

	/* Associate the software module instance with the hardware module */
	module_inst->hw = hw;
    34d6:	6001      	str	r1, [r0, #0]
		case SYSTEM_CLOCK_APB_APBB:
			PM->APBBMASK.reg |= mask;
			break;

		case SYSTEM_CLOCK_APB_APBC:
			PM->APBCMASK.reg |= mask;
    34d8:	4ac9      	ldr	r2, [pc, #804]	; (3800 <adc_init+0x33c>)
    34da:	6a10      	ldr	r0, [r2, #32]
    34dc:	2380      	movs	r3, #128	; 0x80
    34de:	025b      	lsls	r3, r3, #9
    34e0:	4303      	orrs	r3, r0
    34e2:	6213      	str	r3, [r2, #32]

	/* Turn on the digital interface clock */
	system_apb_clock_set_mask(SYSTEM_CLOCK_APB_APBC, PM_APBCMASK_ADC);

	if (hw->CTRLA.reg & ADC_CTRLA_SWRST) {
    34e4:	780b      	ldrb	r3, [r1, #0]
		/* We are in the middle of a reset. Abort. */
		return STATUS_BUSY;
    34e6:	2005      	movs	r0, #5
	if (hw->CTRLA.reg & ADC_CTRLA_SWRST) {
    34e8:	07db      	lsls	r3, r3, #31
    34ea:	d506      	bpl.n	34fa <adc_init+0x36>
	}
#endif

	/* Write configuration to module */
	return _adc_set_config(module_inst, config);
}
    34ec:	b017      	add	sp, #92	; 0x5c
    34ee:	bc3c      	pop	{r2, r3, r4, r5}
    34f0:	4690      	mov	r8, r2
    34f2:	4699      	mov	r9, r3
    34f4:	46a2      	mov	sl, r4
    34f6:	46ab      	mov	fp, r5
    34f8:	bdf0      	pop	{r4, r5, r6, r7, pc}
	if (hw->CTRLA.reg & ADC_CTRLA_ENABLE) {
    34fa:	780b      	ldrb	r3, [r1, #0]
		return STATUS_ERR_DENIED;
    34fc:	3017      	adds	r0, #23
	if (hw->CTRLA.reg & ADC_CTRLA_ENABLE) {
    34fe:	079b      	lsls	r3, r3, #30
    3500:	d4f4      	bmi.n	34ec <adc_init+0x28>
	module_inst->reference = config->reference;
    3502:	7873      	ldrb	r3, [r6, #1]
    3504:	713b      	strb	r3, [r7, #4]
	if (module_inst->reference == ADC_REFERENCE_INT1V) {
    3506:	2b00      	cmp	r3, #0
    3508:	d104      	bne.n	3514 <adc_init+0x50>
		case SYSTEM_VOLTAGE_REFERENCE_TEMPSENSE:
			SYSCTRL->VREF.reg |= SYSCTRL_VREF_TSEN;
			break;

		case SYSTEM_VOLTAGE_REFERENCE_BANDGAP:
			SYSCTRL->VREF.reg |= SYSCTRL_VREF_BGOUTEN;
    350a:	4abe      	ldr	r2, [pc, #760]	; (3804 <adc_init+0x340>)
    350c:	6c13      	ldr	r3, [r2, #64]	; 0x40
    350e:	2104      	movs	r1, #4
    3510:	430b      	orrs	r3, r1
    3512:	6413      	str	r3, [r2, #64]	; 0x40
	uint8_t revision_num = ((REG_DSU_DID & DSU_DID_DIE_Msk) >> DSU_DID_DIE_Pos);
    3514:	4bbc      	ldr	r3, [pc, #752]	; (3808 <adc_init+0x344>)
    3516:	681b      	ldr	r3, [r3, #0]
    3518:	041b      	lsls	r3, r3, #16
    351a:	0f1b      	lsrs	r3, r3, #28
    351c:	4698      	mov	r8, r3
	Adc *const adc_module = module_inst->hw;
    351e:	683b      	ldr	r3, [r7, #0]
    3520:	469b      	mov	fp, r3
	gclk_chan_conf.source_generator = config->clock_source;
    3522:	7833      	ldrb	r3, [r6, #0]
    3524:	466a      	mov	r2, sp
    3526:	7013      	strb	r3, [r2, #0]
	system_gclk_chan_set_config(ADC_GCLK_ID, &gclk_chan_conf);
    3528:	4669      	mov	r1, sp
    352a:	2017      	movs	r0, #23
    352c:	4bb7      	ldr	r3, [pc, #732]	; (380c <adc_init+0x348>)
    352e:	4798      	blx	r3
	system_gclk_chan_enable(ADC_GCLK_ID);
    3530:	2017      	movs	r0, #23
    3532:	4bb7      	ldr	r3, [pc, #732]	; (3810 <adc_init+0x34c>)
    3534:	4798      	blx	r3
	if (config->pin_scan.inputs_to_scan != 0) {
    3536:	232c      	movs	r3, #44	; 0x2c
    3538:	5cf2      	ldrb	r2, [r6, r3]
    353a:	2a00      	cmp	r2, #0
    353c:	d05a      	beq.n	35f4 <adc_init+0x130>
		uint8_t offset = config->pin_scan.offset_start_scan;
    353e:	3b01      	subs	r3, #1
    3540:	5cf5      	ldrb	r5, [r6, r3]
		uint8_t start_pin =
    3542:	7b33      	ldrb	r3, [r6, #12]
    3544:	18eb      	adds	r3, r5, r3
    3546:	b2db      	uxtb	r3, r3
		uint8_t end_pin =
    3548:	18d1      	adds	r1, r2, r3
		while (start_pin < end_pin) {
    354a:	b2c9      	uxtb	r1, r1
    354c:	428b      	cmp	r3, r1
    354e:	d227      	bcs.n	35a0 <adc_init+0xdc>
    3550:	1952      	adds	r2, r2, r5
    3552:	b2d3      	uxtb	r3, r2
    3554:	4699      	mov	r9, r3
	const uint32_t pinmapping[] = {
    3556:	4baf      	ldr	r3, [pc, #700]	; (3814 <adc_init+0x350>)
    3558:	469a      	mov	sl, r3
		system_pinmux_pin_set_config(pin_map_result, &config);
    355a:	0033      	movs	r3, r6
    355c:	464e      	mov	r6, r9
    355e:	46b9      	mov	r9, r7
    3560:	001f      	movs	r7, r3
    3562:	e003      	b.n	356c <adc_init+0xa8>
			offset++;
    3564:	3501      	adds	r5, #1
    3566:	b2ed      	uxtb	r5, r5
		while (start_pin < end_pin) {
    3568:	42ae      	cmp	r6, r5
    356a:	d017      	beq.n	359c <adc_init+0xd8>
			_adc_configure_ain_pin((offset % 16)+(uint8_t)config->positive_input);
    356c:	240f      	movs	r4, #15
    356e:	402c      	ands	r4, r5
    3570:	7b3b      	ldrb	r3, [r7, #12]
    3572:	18e4      	adds	r4, r4, r3
	const uint32_t pinmapping[] = {
    3574:	2250      	movs	r2, #80	; 0x50
    3576:	49a8      	ldr	r1, [pc, #672]	; (3818 <adc_init+0x354>)
    3578:	a802      	add	r0, sp, #8
    357a:	47d0      	blx	sl
	if (pin <= ADC_EXTCHANNEL_MSB) {
    357c:	2c13      	cmp	r4, #19
    357e:	d8f1      	bhi.n	3564 <adc_init+0xa0>
		pin_map_result = pinmapping[pin >> ADC_INPUTCTRL_MUXPOS_Pos];
    3580:	00a4      	lsls	r4, r4, #2
    3582:	ab02      	add	r3, sp, #8
    3584:	58e0      	ldr	r0, [r4, r3]
	/* Sanity check arguments */
	Assert(config);

	/* Default configuration values */
	config->mux_position = SYSTEM_PINMUX_GPIO;
	config->direction    = SYSTEM_PINMUX_PIN_DIR_INPUT;
    3586:	a901      	add	r1, sp, #4
    3588:	2300      	movs	r3, #0
    358a:	704b      	strb	r3, [r1, #1]
	config->input_pull   = SYSTEM_PINMUX_PIN_PULL_UP;
	config->powersave    = false;
    358c:	70cb      	strb	r3, [r1, #3]
		config.input_pull   = SYSTEM_PINMUX_PIN_PULL_NONE;
    358e:	708b      	strb	r3, [r1, #2]
		config.mux_position = 1;
    3590:	3301      	adds	r3, #1
    3592:	700b      	strb	r3, [r1, #0]
		system_pinmux_pin_set_config(pin_map_result, &config);
    3594:	b2c0      	uxtb	r0, r0
    3596:	4ba1      	ldr	r3, [pc, #644]	; (381c <adc_init+0x358>)
    3598:	4798      	blx	r3
    359a:	e7e3      	b.n	3564 <adc_init+0xa0>
    359c:	003e      	movs	r6, r7
    359e:	464f      	mov	r7, r9
		_adc_configure_ain_pin(config->negative_input);
    35a0:	89f4      	ldrh	r4, [r6, #14]
	const uint32_t pinmapping[] = {
    35a2:	2250      	movs	r2, #80	; 0x50
    35a4:	499c      	ldr	r1, [pc, #624]	; (3818 <adc_init+0x354>)
    35a6:	a802      	add	r0, sp, #8
    35a8:	4b9a      	ldr	r3, [pc, #616]	; (3814 <adc_init+0x350>)
    35aa:	4798      	blx	r3
	if (pin <= ADC_EXTCHANNEL_MSB) {
    35ac:	2c13      	cmp	r4, #19
    35ae:	d913      	bls.n	35d8 <adc_init+0x114>
	adc_module->CTRLA.reg = (config->run_in_standby << ADC_CTRLA_RUNSTDBY_Pos);
    35b0:	7d73      	ldrb	r3, [r6, #21]
    35b2:	009b      	lsls	r3, r3, #2
    35b4:	b2db      	uxtb	r3, r3
    35b6:	465a      	mov	r2, fp
    35b8:	7013      	strb	r3, [r2, #0]
			(config->reference_compensation_enable << ADC_REFCTRL_REFCOMP_Pos) |
    35ba:	7db3      	ldrb	r3, [r6, #22]
    35bc:	01db      	lsls	r3, r3, #7
    35be:	7872      	ldrb	r2, [r6, #1]
    35c0:	4313      	orrs	r3, r2
    35c2:	b2db      	uxtb	r3, r3
	adc_module->REFCTRL.reg =
    35c4:	465a      	mov	r2, fp
    35c6:	7053      	strb	r3, [r2, #1]
	switch (config->resolution) {
    35c8:	7933      	ldrb	r3, [r6, #4]
    35ca:	2b34      	cmp	r3, #52	; 0x34
    35cc:	d900      	bls.n	35d0 <adc_init+0x10c>
    35ce:	e18c      	b.n	38ea <adc_init+0x426>
    35d0:	009b      	lsls	r3, r3, #2
    35d2:	4a93      	ldr	r2, [pc, #588]	; (3820 <adc_init+0x35c>)
    35d4:	58d3      	ldr	r3, [r2, r3]
    35d6:	469f      	mov	pc, r3
		pin_map_result = pinmapping[pin >> ADC_INPUTCTRL_MUXPOS_Pos];
    35d8:	00a4      	lsls	r4, r4, #2
    35da:	ab02      	add	r3, sp, #8
    35dc:	58e0      	ldr	r0, [r4, r3]
	config->direction    = SYSTEM_PINMUX_PIN_DIR_INPUT;
    35de:	a901      	add	r1, sp, #4
    35e0:	2300      	movs	r3, #0
    35e2:	704b      	strb	r3, [r1, #1]
	config->powersave    = false;
    35e4:	70cb      	strb	r3, [r1, #3]
		config.input_pull   = SYSTEM_PINMUX_PIN_PULL_NONE;
    35e6:	708b      	strb	r3, [r1, #2]
		config.mux_position = 1;
    35e8:	3301      	adds	r3, #1
    35ea:	700b      	strb	r3, [r1, #0]
		system_pinmux_pin_set_config(pin_map_result, &config);
    35ec:	b2c0      	uxtb	r0, r0
    35ee:	4b8b      	ldr	r3, [pc, #556]	; (381c <adc_init+0x358>)
    35f0:	4798      	blx	r3
    35f2:	e7dd      	b.n	35b0 <adc_init+0xec>
		_adc_configure_ain_pin(config->positive_input);
    35f4:	7b34      	ldrb	r4, [r6, #12]
	const uint32_t pinmapping[] = {
    35f6:	2250      	movs	r2, #80	; 0x50
    35f8:	4987      	ldr	r1, [pc, #540]	; (3818 <adc_init+0x354>)
    35fa:	a802      	add	r0, sp, #8
    35fc:	4b85      	ldr	r3, [pc, #532]	; (3814 <adc_init+0x350>)
    35fe:	4798      	blx	r3
	if (pin <= ADC_EXTCHANNEL_MSB) {
    3600:	2c13      	cmp	r4, #19
    3602:	d915      	bls.n	3630 <adc_init+0x16c>
		_adc_configure_ain_pin(config->negative_input);
    3604:	89f4      	ldrh	r4, [r6, #14]
	const uint32_t pinmapping[] = {
    3606:	2250      	movs	r2, #80	; 0x50
    3608:	4983      	ldr	r1, [pc, #524]	; (3818 <adc_init+0x354>)
    360a:	a802      	add	r0, sp, #8
    360c:	4b81      	ldr	r3, [pc, #516]	; (3814 <adc_init+0x350>)
    360e:	4798      	blx	r3
	if (pin <= ADC_EXTCHANNEL_MSB) {
    3610:	2c13      	cmp	r4, #19
    3612:	d8cd      	bhi.n	35b0 <adc_init+0xec>
		pin_map_result = pinmapping[pin >> ADC_INPUTCTRL_MUXPOS_Pos];
    3614:	00a4      	lsls	r4, r4, #2
    3616:	ab02      	add	r3, sp, #8
    3618:	58e0      	ldr	r0, [r4, r3]
	config->direction    = SYSTEM_PINMUX_PIN_DIR_INPUT;
    361a:	a901      	add	r1, sp, #4
    361c:	2300      	movs	r3, #0
    361e:	704b      	strb	r3, [r1, #1]
	config->powersave    = false;
    3620:	70cb      	strb	r3, [r1, #3]
		config.input_pull   = SYSTEM_PINMUX_PIN_PULL_NONE;
    3622:	708b      	strb	r3, [r1, #2]
		config.mux_position = 1;
    3624:	3301      	adds	r3, #1
    3626:	700b      	strb	r3, [r1, #0]
		system_pinmux_pin_set_config(pin_map_result, &config);
    3628:	b2c0      	uxtb	r0, r0
    362a:	4b7c      	ldr	r3, [pc, #496]	; (381c <adc_init+0x358>)
    362c:	4798      	blx	r3
    362e:	e7bf      	b.n	35b0 <adc_init+0xec>
		pin_map_result = pinmapping[pin >> ADC_INPUTCTRL_MUXPOS_Pos];
    3630:	00a4      	lsls	r4, r4, #2
    3632:	ab02      	add	r3, sp, #8
    3634:	58e0      	ldr	r0, [r4, r3]
	config->direction    = SYSTEM_PINMUX_PIN_DIR_INPUT;
    3636:	a901      	add	r1, sp, #4
    3638:	2300      	movs	r3, #0
    363a:	704b      	strb	r3, [r1, #1]
	config->powersave    = false;
    363c:	70cb      	strb	r3, [r1, #3]
		config.input_pull   = SYSTEM_PINMUX_PIN_PULL_NONE;
    363e:	708b      	strb	r3, [r1, #2]
		config.mux_position = 1;
    3640:	3301      	adds	r3, #1
    3642:	700b      	strb	r3, [r1, #0]
		system_pinmux_pin_set_config(pin_map_result, &config);
    3644:	b2c0      	uxtb	r0, r0
    3646:	4b75      	ldr	r3, [pc, #468]	; (381c <adc_init+0x358>)
    3648:	4798      	blx	r3
    364a:	e7db      	b.n	3604 <adc_init+0x140>
		accumulate = ADC_ACCUMULATE_SAMPLES_16;
    364c:	2304      	movs	r3, #4
		resolution = ADC_RESOLUTION_16BIT;
    364e:	2410      	movs	r4, #16
		adjres = ADC_DIVIDE_RESULT_4;
    3650:	2102      	movs	r1, #2
    3652:	e022      	b.n	369a <adc_init+0x1d6>
		adjres = config->divide_result;
    3654:	7c71      	ldrb	r1, [r6, #17]
		accumulate = config->accumulate_samples;
    3656:	7c33      	ldrb	r3, [r6, #16]
		resolution = ADC_RESOLUTION_16BIT;
    3658:	2410      	movs	r4, #16
    365a:	e01e      	b.n	369a <adc_init+0x1d6>
		if(revision_num < REVISON_D_NUM) {
    365c:	4643      	mov	r3, r8
    365e:	2b02      	cmp	r3, #2
    3660:	d800      	bhi.n	3664 <adc_init+0x1a0>
    3662:	e0c4      	b.n	37ee <adc_init+0x32a>
		accumulate = ADC_ACCUMULATE_SAMPLES_64;
    3664:	2306      	movs	r3, #6
		resolution = ADC_RESOLUTION_16BIT;
    3666:	2410      	movs	r4, #16
			adjres = ADC_DIVIDE_RESULT_2;
    3668:	2101      	movs	r1, #1
    366a:	e016      	b.n	369a <adc_init+0x1d6>
		if(revision_num < REVISON_D_NUM) {
    366c:	4643      	mov	r3, r8
    366e:	2b02      	cmp	r3, #2
    3670:	d800      	bhi.n	3674 <adc_init+0x1b0>
    3672:	e0c0      	b.n	37f6 <adc_init+0x332>
		accumulate = ADC_ACCUMULATE_SAMPLES_256;
    3674:	2308      	movs	r3, #8
		resolution = ADC_RESOLUTION_16BIT;
    3676:	2410      	movs	r4, #16
			adjres = ADC_DIVIDE_RESULT_DISABLE;
    3678:	2100      	movs	r1, #0
    367a:	e00e      	b.n	369a <adc_init+0x1d6>
	enum adc_accumulate_samples accumulate = ADC_ACCUMULATE_DISABLE;
    367c:	2300      	movs	r3, #0
		resolution = ADC_RESOLUTION_8BIT;
    367e:	2430      	movs	r4, #48	; 0x30
	uint8_t adjres = 0;
    3680:	2100      	movs	r1, #0
    3682:	e00a      	b.n	369a <adc_init+0x1d6>
	enum adc_accumulate_samples accumulate = ADC_ACCUMULATE_DISABLE;
    3684:	2300      	movs	r3, #0
		resolution = ADC_RESOLUTION_10BIT;
    3686:	2420      	movs	r4, #32
	uint8_t adjres = 0;
    3688:	2100      	movs	r1, #0
    368a:	e006      	b.n	369a <adc_init+0x1d6>
	enum adc_accumulate_samples accumulate = ADC_ACCUMULATE_DISABLE;
    368c:	2300      	movs	r3, #0
		resolution = ADC_RESOLUTION_12BIT;
    368e:	2400      	movs	r4, #0
	uint8_t adjres = 0;
    3690:	2100      	movs	r1, #0
    3692:	e002      	b.n	369a <adc_init+0x1d6>
		accumulate = ADC_ACCUMULATE_SAMPLES_4;
    3694:	2302      	movs	r3, #2
		resolution = ADC_RESOLUTION_16BIT;
    3696:	2410      	movs	r4, #16
		adjres = ADC_DIVIDE_RESULT_2;
    3698:	2101      	movs	r1, #1
	adc_module->AVGCTRL.reg = ADC_AVGCTRL_ADJRES(adjres) | accumulate;
    369a:	0109      	lsls	r1, r1, #4
    369c:	2270      	movs	r2, #112	; 0x70
    369e:	400a      	ands	r2, r1
    36a0:	4313      	orrs	r3, r2
    36a2:	465a      	mov	r2, fp
    36a4:	7093      	strb	r3, [r2, #2]
	if (config->sample_length > 63) {
    36a6:	7df3      	ldrb	r3, [r6, #23]
		return STATUS_ERR_INVALID_ARG;
    36a8:	2017      	movs	r0, #23
	if (config->sample_length > 63) {
    36aa:	2b3f      	cmp	r3, #63	; 0x3f
    36ac:	d900      	bls.n	36b0 <adc_init+0x1ec>
    36ae:	e71d      	b.n	34ec <adc_init+0x28>
		adc_module->SAMPCTRL.reg =
    36b0:	70d3      	strb	r3, [r2, #3]
	struct adc_module *const module_inst)
{
	/* Sanity check arguments */
	Assert(module_inst);

	Adc *const adc_module = module_inst->hw;
    36b2:	683a      	ldr	r2, [r7, #0]

	if (adc_module->STATUS.reg & ADC_STATUS_SYNCBUSY) {
    36b4:	7e53      	ldrb	r3, [r2, #25]
	while (adc_is_syncing(module_inst)) {
    36b6:	b25b      	sxtb	r3, r3
    36b8:	2b00      	cmp	r3, #0
    36ba:	dbfb      	blt.n	36b4 <adc_init+0x1f0>
			(config->differential_mode << ADC_CTRLB_DIFFMODE_Pos);
    36bc:	7cf3      	ldrb	r3, [r6, #19]
			(config->left_adjust << ADC_CTRLB_LEFTADJ_Pos) |
    36be:	8872      	ldrh	r2, [r6, #2]
    36c0:	4313      	orrs	r3, r2
			(config->correction.correction_enable << ADC_CTRLB_CORREN_Pos) |
    36c2:	2224      	movs	r2, #36	; 0x24
    36c4:	5cb2      	ldrb	r2, [r6, r2]
    36c6:	00d2      	lsls	r2, r2, #3
			(config->left_adjust << ADC_CTRLB_LEFTADJ_Pos) |
    36c8:	4313      	orrs	r3, r2
			(config->freerunning << ADC_CTRLB_FREERUN_Pos) |
    36ca:	7d32      	ldrb	r2, [r6, #20]
    36cc:	0092      	lsls	r2, r2, #2
			(config->left_adjust << ADC_CTRLB_LEFTADJ_Pos) |
    36ce:	4313      	orrs	r3, r2
    36d0:	7cb2      	ldrb	r2, [r6, #18]
    36d2:	0052      	lsls	r2, r2, #1
    36d4:	4313      	orrs	r3, r2
    36d6:	4323      	orrs	r3, r4
	adc_module->CTRLB.reg =
    36d8:	465a      	mov	r2, fp
    36da:	8093      	strh	r3, [r2, #4]
	if (config->window.window_mode != ADC_WINDOW_MODE_DISABLE) {
    36dc:	7e33      	ldrb	r3, [r6, #24]
    36de:	2b00      	cmp	r3, #0
    36e0:	d020      	beq.n	3724 <adc_init+0x260>
		switch (resolution) {
    36e2:	2c10      	cmp	r4, #16
    36e4:	d100      	bne.n	36e8 <adc_init+0x224>
    36e6:	e0e2      	b.n	38ae <adc_init+0x3ea>
    36e8:	d800      	bhi.n	36ec <adc_init+0x228>
    36ea:	e0a1      	b.n	3830 <adc_init+0x36c>
    36ec:	2c20      	cmp	r4, #32
    36ee:	d100      	bne.n	36f2 <adc_init+0x22e>
    36f0:	e0bf      	b.n	3872 <adc_init+0x3ae>
    36f2:	2c30      	cmp	r4, #48	; 0x30
    36f4:	d116      	bne.n	3724 <adc_init+0x260>
			if (config->differential_mode &&
    36f6:	7cf2      	ldrb	r2, [r6, #19]
    36f8:	2a00      	cmp	r2, #0
    36fa:	d00a      	beq.n	3712 <adc_init+0x24e>
					(config->window.window_lower_value > 127 ||
    36fc:	69f2      	ldr	r2, [r6, #28]
    36fe:	3280      	adds	r2, #128	; 0x80
				return STATUS_ERR_INVALID_ARG;
    3700:	2017      	movs	r0, #23
			if (config->differential_mode &&
    3702:	2aff      	cmp	r2, #255	; 0xff
    3704:	d900      	bls.n	3708 <adc_init+0x244>
    3706:	e6f1      	b.n	34ec <adc_init+0x28>
					config->window.window_lower_value < -128 ||
    3708:	6a32      	ldr	r2, [r6, #32]
    370a:	3280      	adds	r2, #128	; 0x80
    370c:	2aff      	cmp	r2, #255	; 0xff
    370e:	d900      	bls.n	3712 <adc_init+0x24e>
    3710:	e6ec      	b.n	34ec <adc_init+0x28>
				return STATUS_ERR_INVALID_ARG;
    3712:	2017      	movs	r0, #23
			} else if (config->window.window_lower_value > 255 ||
    3714:	69f2      	ldr	r2, [r6, #28]
    3716:	2aff      	cmp	r2, #255	; 0xff
    3718:	dd00      	ble.n	371c <adc_init+0x258>
    371a:	e6e7      	b.n	34ec <adc_init+0x28>
    371c:	6a32      	ldr	r2, [r6, #32]
    371e:	2aff      	cmp	r2, #255	; 0xff
    3720:	dd00      	ble.n	3724 <adc_init+0x260>
    3722:	e6e3      	b.n	34ec <adc_init+0x28>
	Adc *const adc_module = module_inst->hw;
    3724:	6839      	ldr	r1, [r7, #0]
	if (adc_module->STATUS.reg & ADC_STATUS_SYNCBUSY) {
    3726:	7e4a      	ldrb	r2, [r1, #25]
	while (adc_is_syncing(module_inst)) {
    3728:	b252      	sxtb	r2, r2
    372a:	2a00      	cmp	r2, #0
    372c:	dbfb      	blt.n	3726 <adc_init+0x262>
	adc_module->WINCTRL.reg = config->window.window_mode;
    372e:	465a      	mov	r2, fp
    3730:	7213      	strb	r3, [r2, #8]
	Adc *const adc_module = module_inst->hw;
    3732:	683a      	ldr	r2, [r7, #0]
	if (adc_module->STATUS.reg & ADC_STATUS_SYNCBUSY) {
    3734:	7e53      	ldrb	r3, [r2, #25]
	while (adc_is_syncing(module_inst)) {
    3736:	b25b      	sxtb	r3, r3
    3738:	2b00      	cmp	r3, #0
    373a:	dbfb      	blt.n	3734 <adc_init+0x270>
	adc_module->WINLT.reg =
    373c:	8bb3      	ldrh	r3, [r6, #28]
    373e:	465a      	mov	r2, fp
    3740:	8393      	strh	r3, [r2, #28]
	Adc *const adc_module = module_inst->hw;
    3742:	683a      	ldr	r2, [r7, #0]
	if (adc_module->STATUS.reg & ADC_STATUS_SYNCBUSY) {
    3744:	7e53      	ldrb	r3, [r2, #25]
	while (adc_is_syncing(module_inst)) {
    3746:	b25b      	sxtb	r3, r3
    3748:	2b00      	cmp	r3, #0
    374a:	dbfb      	blt.n	3744 <adc_init+0x280>
	adc_module->WINUT.reg = config->window.window_upper_value <<
    374c:	8c33      	ldrh	r3, [r6, #32]
    374e:	465a      	mov	r2, fp
    3750:	8413      	strh	r3, [r2, #32]
	uint8_t inputs_to_scan = config->pin_scan.inputs_to_scan;
    3752:	232c      	movs	r3, #44	; 0x2c
    3754:	5cf3      	ldrb	r3, [r6, r3]
	if (inputs_to_scan > 0) {
    3756:	2b00      	cmp	r3, #0
    3758:	d005      	beq.n	3766 <adc_init+0x2a2>
		inputs_to_scan--;
    375a:	3b01      	subs	r3, #1
    375c:	b2db      	uxtb	r3, r3
		return STATUS_ERR_INVALID_ARG;
    375e:	2017      	movs	r0, #23
	if (inputs_to_scan > (ADC_INPUTCTRL_INPUTSCAN_Msk >> ADC_INPUTCTRL_INPUTSCAN_Pos) ||
    3760:	2b0f      	cmp	r3, #15
    3762:	d900      	bls.n	3766 <adc_init+0x2a2>
    3764:	e6c2      	b.n	34ec <adc_init+0x28>
			config->pin_scan.offset_start_scan > (ADC_INPUTCTRL_INPUTOFFSET_Msk >> ADC_INPUTCTRL_INPUTOFFSET_Pos)) {
    3766:	222b      	movs	r2, #43	; 0x2b
    3768:	5cb1      	ldrb	r1, [r6, r2]
		return STATUS_ERR_INVALID_ARG;
    376a:	2017      	movs	r0, #23
	if (inputs_to_scan > (ADC_INPUTCTRL_INPUTSCAN_Msk >> ADC_INPUTCTRL_INPUTSCAN_Pos) ||
    376c:	290f      	cmp	r1, #15
    376e:	d900      	bls.n	3772 <adc_init+0x2ae>
    3770:	e6bc      	b.n	34ec <adc_init+0x28>
	Adc *const adc_module = module_inst->hw;
    3772:	6838      	ldr	r0, [r7, #0]
	if (adc_module->STATUS.reg & ADC_STATUS_SYNCBUSY) {
    3774:	7e42      	ldrb	r2, [r0, #25]
	while (adc_is_syncing(module_inst)) {
    3776:	b252      	sxtb	r2, r2
    3778:	2a00      	cmp	r2, #0
    377a:	dbfb      	blt.n	3774 <adc_init+0x2b0>
			config->negative_input |
    377c:	89f2      	ldrh	r2, [r6, #14]
			config->positive_input;
    377e:	7b30      	ldrb	r0, [r6, #12]
			config->negative_input |
    3780:	4302      	orrs	r2, r0
    3782:	68b0      	ldr	r0, [r6, #8]
    3784:	4302      	orrs	r2, r0
			(config->pin_scan.offset_start_scan <<
    3786:	0509      	lsls	r1, r1, #20
			config->negative_input |
    3788:	430a      	orrs	r2, r1
			(inputs_to_scan << ADC_INPUTCTRL_INPUTSCAN_Pos) |
    378a:	041b      	lsls	r3, r3, #16
			config->negative_input |
    378c:	4313      	orrs	r3, r2
	adc_module->INPUTCTRL.reg =
    378e:	465a      	mov	r2, fp
    3790:	6113      	str	r3, [r2, #16]
	adc_module->EVCTRL.reg = config->event_action;
    3792:	232a      	movs	r3, #42	; 0x2a
    3794:	5cf3      	ldrb	r3, [r6, r3]
    3796:	7513      	strb	r3, [r2, #20]
	adc_module->INTENCLR.reg =
    3798:	230f      	movs	r3, #15
    379a:	7593      	strb	r3, [r2, #22]
	if (config->correction.correction_enable){
    379c:	3315      	adds	r3, #21
    379e:	5cf3      	ldrb	r3, [r6, r3]
    37a0:	2b00      	cmp	r3, #0
    37a2:	d012      	beq.n	37ca <adc_init+0x306>
		if (config->correction.gain_correction > ADC_GAINCORR_GAINCORR_Msk) {
    37a4:	8cf3      	ldrh	r3, [r6, #38]	; 0x26
    37a6:	4a1f      	ldr	r2, [pc, #124]	; (3824 <adc_init+0x360>)
			return STATUS_ERR_INVALID_ARG;
    37a8:	2017      	movs	r0, #23
		if (config->correction.gain_correction > ADC_GAINCORR_GAINCORR_Msk) {
    37aa:	4293      	cmp	r3, r2
    37ac:	d900      	bls.n	37b0 <adc_init+0x2ec>
    37ae:	e69d      	b.n	34ec <adc_init+0x28>
			adc_module->GAINCORR.reg = config->correction.gain_correction <<
    37b0:	465a      	mov	r2, fp
    37b2:	8493      	strh	r3, [r2, #36]	; 0x24
		if (config->correction.offset_correction > 2047 ||
    37b4:	8d32      	ldrh	r2, [r6, #40]	; 0x28
    37b6:	2380      	movs	r3, #128	; 0x80
    37b8:	011b      	lsls	r3, r3, #4
    37ba:	18d3      	adds	r3, r2, r3
    37bc:	4919      	ldr	r1, [pc, #100]	; (3824 <adc_init+0x360>)
    37be:	b29b      	uxth	r3, r3
    37c0:	428b      	cmp	r3, r1
    37c2:	d900      	bls.n	37c6 <adc_init+0x302>
    37c4:	e692      	b.n	34ec <adc_init+0x28>
			adc_module->OFFSETCORR.reg = config->correction.offset_correction <<
    37c6:	465b      	mov	r3, fp
    37c8:	84da      	strh	r2, [r3, #38]	; 0x26
			ADC_CALIB_BIAS_CAL(
    37ca:	4b17      	ldr	r3, [pc, #92]	; (3828 <adc_init+0x364>)
    37cc:	681b      	ldr	r3, [r3, #0]
    37ce:	015b      	lsls	r3, r3, #5
    37d0:	22e0      	movs	r2, #224	; 0xe0
    37d2:	00d2      	lsls	r2, r2, #3
    37d4:	4013      	ands	r3, r2
			ADC_CALIB_LINEARITY_CAL(
    37d6:	4a15      	ldr	r2, [pc, #84]	; (382c <adc_init+0x368>)
    37d8:	6851      	ldr	r1, [r2, #4]
    37da:	0149      	lsls	r1, r1, #5
    37dc:	6812      	ldr	r2, [r2, #0]
    37de:	0ed2      	lsrs	r2, r2, #27
    37e0:	430a      	orrs	r2, r1
    37e2:	b2d2      	uxtb	r2, r2
			) |
    37e4:	4313      	orrs	r3, r2
	adc_module->CALIB.reg =
    37e6:	465a      	mov	r2, fp
    37e8:	8513      	strh	r3, [r2, #40]	; 0x28
	return STATUS_OK;
    37ea:	2000      	movs	r0, #0
    37ec:	e67e      	b.n	34ec <adc_init+0x28>
		accumulate = ADC_ACCUMULATE_SAMPLES_64;
    37ee:	2306      	movs	r3, #6
		resolution = ADC_RESOLUTION_16BIT;
    37f0:	2410      	movs	r4, #16
			adjres = ADC_DIVIDE_RESULT_8;
    37f2:	2103      	movs	r1, #3
    37f4:	e751      	b.n	369a <adc_init+0x1d6>
		accumulate = ADC_ACCUMULATE_SAMPLES_256;
    37f6:	2308      	movs	r3, #8
		resolution = ADC_RESOLUTION_16BIT;
    37f8:	2410      	movs	r4, #16
			adjres = ADC_DIVIDE_RESULT_16;
    37fa:	2104      	movs	r1, #4
    37fc:	e74d      	b.n	369a <adc_init+0x1d6>
    37fe:	46c0      	nop			; (mov r8, r8)
    3800:	40000400 	.word	0x40000400
    3804:	40000800 	.word	0x40000800
    3808:	41002018 	.word	0x41002018
    380c:	00006121 	.word	0x00006121
    3810:	00006095 	.word	0x00006095
    3814:	00006b1d 	.word	0x00006b1d
    3818:	00006ed4 	.word	0x00006ed4
    381c:	00006249 	.word	0x00006249
    3820:	00006e00 	.word	0x00006e00
    3824:	00000fff 	.word	0x00000fff
    3828:	00806024 	.word	0x00806024
    382c:	00806020 	.word	0x00806020
		switch (resolution) {
    3830:	2c00      	cmp	r4, #0
    3832:	d000      	beq.n	3836 <adc_init+0x372>
    3834:	e776      	b.n	3724 <adc_init+0x260>
			if (config->differential_mode &&
    3836:	7cf2      	ldrb	r2, [r6, #19]
    3838:	2a00      	cmp	r2, #0
    383a:	d00f      	beq.n	385c <adc_init+0x398>
					(config->window.window_lower_value > 2047 ||
    383c:	69f2      	ldr	r2, [r6, #28]
    383e:	2180      	movs	r1, #128	; 0x80
    3840:	0109      	lsls	r1, r1, #4
    3842:	468c      	mov	ip, r1
    3844:	4462      	add	r2, ip
			if (config->differential_mode &&
    3846:	492a      	ldr	r1, [pc, #168]	; (38f0 <adc_init+0x42c>)
				return STATUS_ERR_INVALID_ARG;
    3848:	2017      	movs	r0, #23
			if (config->differential_mode &&
    384a:	428a      	cmp	r2, r1
    384c:	d900      	bls.n	3850 <adc_init+0x38c>
    384e:	e64d      	b.n	34ec <adc_init+0x28>
					config->window.window_lower_value < -2048 ||
    3850:	6a32      	ldr	r2, [r6, #32]
    3852:	4462      	add	r2, ip
    3854:	4926      	ldr	r1, [pc, #152]	; (38f0 <adc_init+0x42c>)
    3856:	428a      	cmp	r2, r1
    3858:	d900      	bls.n	385c <adc_init+0x398>
    385a:	e647      	b.n	34ec <adc_init+0x28>
			} else if (config->window.window_lower_value > 4095 ||
    385c:	4a24      	ldr	r2, [pc, #144]	; (38f0 <adc_init+0x42c>)
				return STATUS_ERR_INVALID_ARG;
    385e:	2017      	movs	r0, #23
			} else if (config->window.window_lower_value > 4095 ||
    3860:	69f1      	ldr	r1, [r6, #28]
    3862:	4291      	cmp	r1, r2
    3864:	dd00      	ble.n	3868 <adc_init+0x3a4>
    3866:	e641      	b.n	34ec <adc_init+0x28>
    3868:	6a31      	ldr	r1, [r6, #32]
    386a:	4291      	cmp	r1, r2
    386c:	dd00      	ble.n	3870 <adc_init+0x3ac>
    386e:	e63d      	b.n	34ec <adc_init+0x28>
    3870:	e758      	b.n	3724 <adc_init+0x260>
			if (config->differential_mode &&
    3872:	7cf2      	ldrb	r2, [r6, #19]
    3874:	2a00      	cmp	r2, #0
    3876:	d00f      	beq.n	3898 <adc_init+0x3d4>
					(config->window.window_lower_value > 511 ||
    3878:	69f2      	ldr	r2, [r6, #28]
    387a:	2180      	movs	r1, #128	; 0x80
    387c:	0089      	lsls	r1, r1, #2
    387e:	468c      	mov	ip, r1
    3880:	4462      	add	r2, ip
			if (config->differential_mode &&
    3882:	491c      	ldr	r1, [pc, #112]	; (38f4 <adc_init+0x430>)
				return STATUS_ERR_INVALID_ARG;
    3884:	2017      	movs	r0, #23
			if (config->differential_mode &&
    3886:	428a      	cmp	r2, r1
    3888:	d900      	bls.n	388c <adc_init+0x3c8>
    388a:	e62f      	b.n	34ec <adc_init+0x28>
					config->window.window_lower_value < -512 ||
    388c:	6a32      	ldr	r2, [r6, #32]
    388e:	4462      	add	r2, ip
    3890:	4918      	ldr	r1, [pc, #96]	; (38f4 <adc_init+0x430>)
    3892:	428a      	cmp	r2, r1
    3894:	d900      	bls.n	3898 <adc_init+0x3d4>
    3896:	e629      	b.n	34ec <adc_init+0x28>
			} else if (config->window.window_lower_value > 1023 ||
    3898:	4a16      	ldr	r2, [pc, #88]	; (38f4 <adc_init+0x430>)
				return STATUS_ERR_INVALID_ARG;
    389a:	2017      	movs	r0, #23
			} else if (config->window.window_lower_value > 1023 ||
    389c:	69f1      	ldr	r1, [r6, #28]
    389e:	4291      	cmp	r1, r2
    38a0:	dd00      	ble.n	38a4 <adc_init+0x3e0>
    38a2:	e623      	b.n	34ec <adc_init+0x28>
    38a4:	6a31      	ldr	r1, [r6, #32]
    38a6:	4291      	cmp	r1, r2
    38a8:	dd00      	ble.n	38ac <adc_init+0x3e8>
    38aa:	e61f      	b.n	34ec <adc_init+0x28>
    38ac:	e73a      	b.n	3724 <adc_init+0x260>
			if (config->differential_mode &&
    38ae:	7cf2      	ldrb	r2, [r6, #19]
    38b0:	2a00      	cmp	r2, #0
    38b2:	d00f      	beq.n	38d4 <adc_init+0x410>
					(config->window.window_lower_value > 32767 ||
    38b4:	69f2      	ldr	r2, [r6, #28]
    38b6:	2180      	movs	r1, #128	; 0x80
    38b8:	0209      	lsls	r1, r1, #8
    38ba:	468c      	mov	ip, r1
    38bc:	4462      	add	r2, ip
			if (config->differential_mode &&
    38be:	490e      	ldr	r1, [pc, #56]	; (38f8 <adc_init+0x434>)
				return STATUS_ERR_INVALID_ARG;
    38c0:	2017      	movs	r0, #23
			if (config->differential_mode &&
    38c2:	428a      	cmp	r2, r1
    38c4:	d900      	bls.n	38c8 <adc_init+0x404>
    38c6:	e611      	b.n	34ec <adc_init+0x28>
					config->window.window_lower_value < -32768 ||
    38c8:	6a32      	ldr	r2, [r6, #32]
    38ca:	4462      	add	r2, ip
    38cc:	490a      	ldr	r1, [pc, #40]	; (38f8 <adc_init+0x434>)
    38ce:	428a      	cmp	r2, r1
    38d0:	d900      	bls.n	38d4 <adc_init+0x410>
    38d2:	e60b      	b.n	34ec <adc_init+0x28>
			} else if (config->window.window_lower_value > 65535 ||
    38d4:	4a08      	ldr	r2, [pc, #32]	; (38f8 <adc_init+0x434>)
				return STATUS_ERR_INVALID_ARG;
    38d6:	2017      	movs	r0, #23
			} else if (config->window.window_lower_value > 65535 ||
    38d8:	69f1      	ldr	r1, [r6, #28]
    38da:	4291      	cmp	r1, r2
    38dc:	dd00      	ble.n	38e0 <adc_init+0x41c>
    38de:	e605      	b.n	34ec <adc_init+0x28>
    38e0:	6a31      	ldr	r1, [r6, #32]
    38e2:	4291      	cmp	r1, r2
    38e4:	dd00      	ble.n	38e8 <adc_init+0x424>
    38e6:	e601      	b.n	34ec <adc_init+0x28>
    38e8:	e71c      	b.n	3724 <adc_init+0x260>
		return STATUS_ERR_INVALID_ARG;
    38ea:	2017      	movs	r0, #23
    38ec:	e5fe      	b.n	34ec <adc_init+0x28>
    38ee:	46c0      	nop			; (mov r8, r8)
    38f0:	00000fff 	.word	0x00000fff
    38f4:	000003ff 	.word	0x000003ff
    38f8:	0000ffff 	.word	0x0000ffff

000038fc <extint_register_callback>:
	/* Sanity check arguments */
	Assert(callback);

	if (type != EXTINT_CALLBACK_TYPE_DETECT) {
		Assert(false);
		return STATUS_ERR_INVALID_ARG;
    38fc:	2317      	movs	r3, #23
	if (type != EXTINT_CALLBACK_TYPE_DETECT) {
    38fe:	2a00      	cmp	r2, #0
    3900:	d001      	beq.n	3906 <extint_register_callback+0xa>
	} else if (_extint_dev.callbacks[channel] == callback) {
		return STATUS_OK;
	}

	return STATUS_ERR_ALREADY_INITIALIZED;
}
    3902:	0018      	movs	r0, r3
    3904:	4770      	bx	lr
	if (_extint_dev.callbacks[channel] == NULL) {
    3906:	008b      	lsls	r3, r1, #2
    3908:	4a06      	ldr	r2, [pc, #24]	; (3924 <extint_register_callback+0x28>)
    390a:	589b      	ldr	r3, [r3, r2]
    390c:	2b00      	cmp	r3, #0
    390e:	d003      	beq.n	3918 <extint_register_callback+0x1c>
	} else if (_extint_dev.callbacks[channel] == callback) {
    3910:	4283      	cmp	r3, r0
    3912:	d005      	beq.n	3920 <extint_register_callback+0x24>
	return STATUS_ERR_ALREADY_INITIALIZED;
    3914:	231d      	movs	r3, #29
    3916:	e7f4      	b.n	3902 <extint_register_callback+0x6>
		_extint_dev.callbacks[channel] = callback;
    3918:	0089      	lsls	r1, r1, #2
    391a:	5088      	str	r0, [r1, r2]
		return STATUS_OK;
    391c:	2300      	movs	r3, #0
    391e:	e7f0      	b.n	3902 <extint_register_callback+0x6>
		return STATUS_OK;
    3920:	2300      	movs	r3, #0
    3922:	e7ee      	b.n	3902 <extint_register_callback+0x6>
    3924:	200034bc 	.word	0x200034bc

00003928 <extint_chan_enable_callback>:

		eic->INTENSET.reg = (1UL << channel);
	}
	else {
		Assert(false);
		return STATUS_ERR_INVALID_ARG;
    3928:	2317      	movs	r3, #23
	if (type == EXTINT_CALLBACK_TYPE_DETECT) {
    392a:	2900      	cmp	r1, #0
    392c:	d001      	beq.n	3932 <extint_chan_enable_callback+0xa>
	}

	return STATUS_OK;
}
    392e:	0018      	movs	r0, r3
    3930:	4770      	bx	lr
		Eic *const eics[EIC_INST_NUM] = EIC_INSTS;

		return eics[eic_index];
	} else {
		Assert(false);
		return NULL;
    3932:	2200      	movs	r2, #0
	if (eic_index < EIC_INST_NUM) {
    3934:	281f      	cmp	r0, #31
    3936:	d800      	bhi.n	393a <extint_chan_enable_callback+0x12>
		return eics[eic_index];
    3938:	4a02      	ldr	r2, [pc, #8]	; (3944 <extint_chan_enable_callback+0x1c>)
		eic->INTENSET.reg = (1UL << channel);
    393a:	2301      	movs	r3, #1
    393c:	4083      	lsls	r3, r0
    393e:	60d3      	str	r3, [r2, #12]
	return STATUS_OK;
    3940:	2300      	movs	r3, #0
    3942:	e7f4      	b.n	392e <extint_chan_enable_callback+0x6>
    3944:	40001800 	.word	0x40001800

00003948 <extint_chan_disable_callback>:

		eic->INTENCLR.reg = (1UL << channel);
	}
	else {
		Assert(false);
		return STATUS_ERR_INVALID_ARG;
    3948:	2317      	movs	r3, #23
	if (type == EXTINT_CALLBACK_TYPE_DETECT) {
    394a:	2900      	cmp	r1, #0
    394c:	d001      	beq.n	3952 <extint_chan_disable_callback+0xa>
	}

	return STATUS_OK;
}
    394e:	0018      	movs	r0, r3
    3950:	4770      	bx	lr
		return NULL;
    3952:	2200      	movs	r2, #0
	if (eic_index < EIC_INST_NUM) {
    3954:	281f      	cmp	r0, #31
    3956:	d800      	bhi.n	395a <extint_chan_disable_callback+0x12>
		return eics[eic_index];
    3958:	4a02      	ldr	r2, [pc, #8]	; (3964 <extint_chan_disable_callback+0x1c>)
		eic->INTENCLR.reg = (1UL << channel);
    395a:	2301      	movs	r3, #1
    395c:	4083      	lsls	r3, r0
    395e:	6093      	str	r3, [r2, #8]
	return STATUS_OK;
    3960:	2300      	movs	r3, #0
    3962:	e7f4      	b.n	394e <extint_chan_disable_callback+0x6>
    3964:	40001800 	.word	0x40001800

00003968 <EIC_Handler>:
	return _current_channel;
}

/** Handler for the EXTINT hardware module interrupt. */
void EIC_Handler(void)
{
    3968:	b570      	push	{r4, r5, r6, lr}
	/* Find any triggered channels, run associated callback handlers */
	for (_current_channel = 0; _current_channel < EIC_NUMBER_OF_INTERRUPTS ; _current_channel++) {
    396a:	2200      	movs	r2, #0
    396c:	4b10      	ldr	r3, [pc, #64]	; (39b0 <EIC_Handler+0x48>)
    396e:	701a      	strb	r2, [r3, #0]
    3970:	2300      	movs	r3, #0
    3972:	4910      	ldr	r1, [pc, #64]	; (39b4 <EIC_Handler+0x4c>)
 */
static inline bool extint_chan_is_detected(
		const uint8_t channel)
{
	Eic *const eic_module = _extint_get_eic_from_channel(channel);
	uint32_t eic_mask   = (1UL << (channel % 32));
    3974:	251f      	movs	r5, #31
		if (extint_chan_is_detected(_current_channel)) {
			/* Clear flag */
			extint_chan_clear_detected(_current_channel);
			/* Find any associated callback entries in the callback table */
			if (_extint_dev.callbacks[_current_channel] != NULL) {
    3976:	4e10      	ldr	r6, [pc, #64]	; (39b8 <EIC_Handler+0x50>)
	for (_current_channel = 0; _current_channel < EIC_NUMBER_OF_INTERRUPTS ; _current_channel++) {
    3978:	4c0d      	ldr	r4, [pc, #52]	; (39b0 <EIC_Handler+0x48>)
    397a:	e00a      	b.n	3992 <EIC_Handler+0x2a>
		return eics[eic_index];
    397c:	490d      	ldr	r1, [pc, #52]	; (39b4 <EIC_Handler+0x4c>)
    397e:	e008      	b.n	3992 <EIC_Handler+0x2a>
    3980:	7823      	ldrb	r3, [r4, #0]
    3982:	3301      	adds	r3, #1
    3984:	b2db      	uxtb	r3, r3
    3986:	7023      	strb	r3, [r4, #0]
    3988:	2b0f      	cmp	r3, #15
    398a:	d810      	bhi.n	39ae <EIC_Handler+0x46>
		return NULL;
    398c:	2100      	movs	r1, #0
	if (eic_index < EIC_INST_NUM) {
    398e:	2b1f      	cmp	r3, #31
    3990:	d9f4      	bls.n	397c <EIC_Handler+0x14>
	uint32_t eic_mask   = (1UL << (channel % 32));
    3992:	0028      	movs	r0, r5
    3994:	4018      	ands	r0, r3
    3996:	2201      	movs	r2, #1
    3998:	4082      	lsls	r2, r0

	return (eic_module->INTFLAG.reg & eic_mask);
    399a:	6908      	ldr	r0, [r1, #16]
		if (extint_chan_is_detected(_current_channel)) {
    399c:	4210      	tst	r0, r2
    399e:	d0ef      	beq.n	3980 <EIC_Handler+0x18>
		const uint8_t channel)
{
	Eic *const eic_module = _extint_get_eic_from_channel(channel);
	uint32_t eic_mask   = (1UL << (channel % 32));

	eic_module->INTFLAG.reg = eic_mask;
    39a0:	610a      	str	r2, [r1, #16]
			if (_extint_dev.callbacks[_current_channel] != NULL) {
    39a2:	009b      	lsls	r3, r3, #2
    39a4:	599b      	ldr	r3, [r3, r6]
    39a6:	2b00      	cmp	r3, #0
    39a8:	d0ea      	beq.n	3980 <EIC_Handler+0x18>
				/* Run the registered callback */
				_extint_dev.callbacks[_current_channel]();
    39aa:	4798      	blx	r3
    39ac:	e7e8      	b.n	3980 <EIC_Handler+0x18>
			}
		}
	}
}
    39ae:	bd70      	pop	{r4, r5, r6, pc}
    39b0:	200034b9 	.word	0x200034b9
    39b4:	40001800 	.word	0x40001800
    39b8:	200034bc 	.word	0x200034bc

000039bc <_extint_enable>:
{
	Eic *const eics[EIC_INST_NUM] = EIC_INSTS;

	/* Enable all EIC hardware modules. */
	for (uint32_t i = 0; i < EIC_INST_NUM; i++) {
		eics[i]->CTRL.reg |= EIC_CTRL_ENABLE;
    39bc:	4a04      	ldr	r2, [pc, #16]	; (39d0 <_extint_enable+0x14>)
    39be:	7813      	ldrb	r3, [r2, #0]
    39c0:	2102      	movs	r1, #2
    39c2:	430b      	orrs	r3, r1
    39c4:	7013      	strb	r3, [r2, #0]
		if (eics[i]->STATUS.reg & EIC_STATUS_SYNCBUSY) {
    39c6:	7853      	ldrb	r3, [r2, #1]
    39c8:	b25b      	sxtb	r3, r3
    39ca:	2b00      	cmp	r3, #0
    39cc:	dbfb      	blt.n	39c6 <_extint_enable+0xa>
	}

	while (extint_is_syncing()) {
		/* Wait for all hardware modules to complete synchronization */
	}
}
    39ce:	4770      	bx	lr
    39d0:	40001800 	.word	0x40001800

000039d4 <_system_extint_init>:
{
    39d4:	b500      	push	{lr}
    39d6:	b083      	sub	sp, #12
			PM->APBAMASK.reg |= mask;
    39d8:	4a12      	ldr	r2, [pc, #72]	; (3a24 <_system_extint_init+0x50>)
    39da:	6993      	ldr	r3, [r2, #24]
    39dc:	2140      	movs	r1, #64	; 0x40
    39de:	430b      	orrs	r3, r1
    39e0:	6193      	str	r3, [r2, #24]
{
	/* Sanity check arguments */
	Assert(config);

	/* Default configuration values */
	config->source_generator = GCLK_GENERATOR_0;
    39e2:	a901      	add	r1, sp, #4
    39e4:	2300      	movs	r3, #0
    39e6:	700b      	strb	r3, [r1, #0]
	system_gclk_chan_set_config(EIC_GCLK_ID, &gclk_chan_conf);
    39e8:	2003      	movs	r0, #3
    39ea:	4b0f      	ldr	r3, [pc, #60]	; (3a28 <_system_extint_init+0x54>)
    39ec:	4798      	blx	r3
	system_gclk_chan_enable(EIC_GCLK_ID);
    39ee:	2003      	movs	r0, #3
    39f0:	4b0e      	ldr	r3, [pc, #56]	; (3a2c <_system_extint_init+0x58>)
    39f2:	4798      	blx	r3
		eics[i]->CTRL.reg |= EIC_CTRL_SWRST;
    39f4:	4a0e      	ldr	r2, [pc, #56]	; (3a30 <_system_extint_init+0x5c>)
    39f6:	7813      	ldrb	r3, [r2, #0]
    39f8:	2101      	movs	r1, #1
    39fa:	430b      	orrs	r3, r1
    39fc:	7013      	strb	r3, [r2, #0]
		if (eics[i]->STATUS.reg & EIC_STATUS_SYNCBUSY) {
    39fe:	7853      	ldrb	r3, [r2, #1]
    3a00:	b25b      	sxtb	r3, r3
    3a02:	2b00      	cmp	r3, #0
    3a04:	dbfb      	blt.n	39fe <_system_extint_init+0x2a>
    3a06:	4b0b      	ldr	r3, [pc, #44]	; (3a34 <_system_extint_init+0x60>)
    3a08:	0019      	movs	r1, r3
    3a0a:	3140      	adds	r1, #64	; 0x40
		_extint_dev.callbacks[j] = NULL;
    3a0c:	2200      	movs	r2, #0
    3a0e:	c304      	stmia	r3!, {r2}
	for (uint8_t j = 0; j < EIC_NUMBER_OF_INTERRUPTS; j++) {
    3a10:	4299      	cmp	r1, r3
    3a12:	d1fc      	bne.n	3a0e <_system_extint_init+0x3a>
 * \param[in] vector Interrupt vector to enable
 */
static inline void system_interrupt_enable(
		const enum system_interrupt_vector vector)
{
	NVIC->ISER[0] = (uint32_t)(1 << ((uint32_t)vector & 0x0000001f));
    3a14:	2210      	movs	r2, #16
    3a16:	4b08      	ldr	r3, [pc, #32]	; (3a38 <_system_extint_init+0x64>)
    3a18:	601a      	str	r2, [r3, #0]
	_extint_enable();
    3a1a:	4b08      	ldr	r3, [pc, #32]	; (3a3c <_system_extint_init+0x68>)
    3a1c:	4798      	blx	r3
}
    3a1e:	b003      	add	sp, #12
    3a20:	bd00      	pop	{pc}
    3a22:	46c0      	nop			; (mov r8, r8)
    3a24:	40000400 	.word	0x40000400
    3a28:	00006121 	.word	0x00006121
    3a2c:	00006095 	.word	0x00006095
    3a30:	40001800 	.word	0x40001800
    3a34:	200034bc 	.word	0x200034bc
    3a38:	e000e100 	.word	0xe000e100
    3a3c:	000039bd 	.word	0x000039bd

00003a40 <extint_chan_get_config_defaults>:
{
	/* Sanity check arguments */
	Assert(config);

	/* Default configuration values */
	config->gpio_pin            = 0;
    3a40:	2300      	movs	r3, #0
    3a42:	6003      	str	r3, [r0, #0]
	config->gpio_pin_mux        = 0;
    3a44:	6043      	str	r3, [r0, #4]
	config->gpio_pin_pull       = EXTINT_PULL_UP;
    3a46:	2201      	movs	r2, #1
    3a48:	7202      	strb	r2, [r0, #8]
	config->wake_if_sleeping    = true;
    3a4a:	7242      	strb	r2, [r0, #9]
	config->filter_input_signal = false;
    3a4c:	7283      	strb	r3, [r0, #10]
	config->detection_criteria  = EXTINT_DETECT_FALLING;
    3a4e:	3302      	adds	r3, #2
    3a50:	72c3      	strb	r3, [r0, #11]
}
    3a52:	4770      	bx	lr

00003a54 <extint_chan_set_config>:

 */
void extint_chan_set_config(
		const uint8_t channel,
		const struct extint_chan_conf *const config)
{
    3a54:	b5f0      	push	{r4, r5, r6, r7, lr}
    3a56:	b083      	sub	sp, #12
    3a58:	0005      	movs	r5, r0
    3a5a:	000c      	movs	r4, r1
	config->direction    = SYSTEM_PINMUX_PIN_DIR_INPUT;
    3a5c:	a901      	add	r1, sp, #4
    3a5e:	2300      	movs	r3, #0
    3a60:	704b      	strb	r3, [r1, #1]
	config->powersave    = false;
    3a62:	70cb      	strb	r3, [r1, #3]
			config->detection_criteria)));

	struct system_pinmux_config pinmux_config;
	system_pinmux_get_config_defaults(&pinmux_config);

	pinmux_config.mux_position = config->gpio_pin_mux;
    3a64:	7923      	ldrb	r3, [r4, #4]
    3a66:	700b      	strb	r3, [r1, #0]
	pinmux_config.direction    = SYSTEM_PINMUX_PIN_DIR_INPUT;
	pinmux_config.input_pull   = (enum system_pinmux_pin_pull)config->gpio_pin_pull;
    3a68:	7a23      	ldrb	r3, [r4, #8]
    3a6a:	708b      	strb	r3, [r1, #2]
	system_pinmux_pin_set_config(config->gpio_pin, &pinmux_config);
    3a6c:	7820      	ldrb	r0, [r4, #0]
    3a6e:	4b15      	ldr	r3, [pc, #84]	; (3ac4 <extint_chan_set_config+0x70>)
    3a70:	4798      	blx	r3
		return NULL;
    3a72:	2000      	movs	r0, #0
	if (eic_index < EIC_INST_NUM) {
    3a74:	2d1f      	cmp	r5, #31
    3a76:	d800      	bhi.n	3a7a <extint_chan_set_config+0x26>
		return eics[eic_index];
    3a78:	4813      	ldr	r0, [pc, #76]	; (3ac8 <extint_chan_set_config+0x74>)

	/* Get a pointer to the module hardware instance */
	Eic *const EIC_module = _extint_get_eic_from_channel(channel);

	uint32_t config_pos = (4 * (channel % 8));
    3a7a:	2207      	movs	r2, #7
    3a7c:	402a      	ands	r2, r5
    3a7e:	0092      	lsls	r2, r2, #2
	uint32_t new_config;

	/* Determine the channel's new edge detection configuration */
	new_config = (config->detection_criteria << EIC_CONFIG_SENSE0_Pos);
    3a80:	7ae7      	ldrb	r7, [r4, #11]

	/* Enable the hardware signal filter if requested in the config */
	if (config->filter_input_signal) {
    3a82:	7aa3      	ldrb	r3, [r4, #10]
    3a84:	2b00      	cmp	r3, #0
    3a86:	d001      	beq.n	3a8c <extint_chan_set_config+0x38>
    3a88:	2308      	movs	r3, #8
    3a8a:	431f      	orrs	r7, r3
    3a8c:	08eb      	lsrs	r3, r5, #3
    3a8e:	009b      	lsls	r3, r3, #2
    3a90:	18c3      	adds	r3, r0, r3
		new_config |= EIC_CONFIG_FILTEN0;
	}

	/* Clear the existing and set the new channel configuration */
	EIC_module->CONFIG[channel / 8].reg
		= (EIC_module->CONFIG[channel / 8].reg &
    3a92:	6999      	ldr	r1, [r3, #24]
			~((EIC_CONFIG_SENSE0_Msk | EIC_CONFIG_FILTEN0) << config_pos)) |
    3a94:	260f      	movs	r6, #15
    3a96:	4096      	lsls	r6, r2
		= (EIC_module->CONFIG[channel / 8].reg &
    3a98:	43b1      	bics	r1, r6
			(new_config << config_pos);
    3a9a:	4097      	lsls	r7, r2
    3a9c:	003a      	movs	r2, r7
			~((EIC_CONFIG_SENSE0_Msk | EIC_CONFIG_FILTEN0) << config_pos)) |
    3a9e:	430a      	orrs	r2, r1
		= (EIC_module->CONFIG[channel / 8].reg &
    3aa0:	619a      	str	r2, [r3, #24]

	/* Set the channel's new wake up mode setting */
	if (config->wake_if_sleeping) {
    3aa2:	7a63      	ldrb	r3, [r4, #9]
    3aa4:	2b00      	cmp	r3, #0
    3aa6:	d106      	bne.n	3ab6 <extint_chan_set_config+0x62>
		EIC_module->WAKEUP.reg |=  (1UL << channel);
	} else {
		EIC_module->WAKEUP.reg &= ~(1UL << channel);
    3aa8:	6943      	ldr	r3, [r0, #20]
    3aaa:	2201      	movs	r2, #1
    3aac:	40aa      	lsls	r2, r5
    3aae:	4393      	bics	r3, r2
    3ab0:	6143      	str	r3, [r0, #20]
	}
}
    3ab2:	b003      	add	sp, #12
    3ab4:	bdf0      	pop	{r4, r5, r6, r7, pc}
		EIC_module->WAKEUP.reg |=  (1UL << channel);
    3ab6:	6942      	ldr	r2, [r0, #20]
    3ab8:	2301      	movs	r3, #1
    3aba:	40ab      	lsls	r3, r5
    3abc:	4313      	orrs	r3, r2
    3abe:	6143      	str	r3, [r0, #20]
    3ac0:	e7f7      	b.n	3ab2 <extint_chan_set_config+0x5e>
    3ac2:	46c0      	nop			; (mov r8, r8)
    3ac4:	00006249 	.word	0x00006249
    3ac8:	40001800 	.word	0x40001800

00003acc <tc_register_callback>:
	/* Sanity check arguments */
	Assert(module);
	Assert(callback_func);

	/* Register callback function */
	module->callback[callback_type] = callback_func;
    3acc:	1c93      	adds	r3, r2, #2
    3ace:	009b      	lsls	r3, r3, #2
    3ad0:	5019      	str	r1, [r3, r0]

	/* Set the bit corresponding to the callback_type */
	if (callback_type == TC_CALLBACK_CC_CHANNEL0) {
    3ad2:	2a02      	cmp	r2, #2
    3ad4:	d009      	beq.n	3aea <tc_register_callback+0x1e>
		module->register_callback_mask |= TC_INTFLAG_MC(1);
	}
	else if (callback_type == TC_CALLBACK_CC_CHANNEL1) {
    3ad6:	2a03      	cmp	r2, #3
    3ad8:	d00c      	beq.n	3af4 <tc_register_callback+0x28>
		module->register_callback_mask |= TC_INTFLAG_MC(2);
	}
	else {
		module->register_callback_mask |= (1 << callback_type);
    3ada:	2301      	movs	r3, #1
    3adc:	4093      	lsls	r3, r2
    3ade:	001a      	movs	r2, r3
    3ae0:	7e03      	ldrb	r3, [r0, #24]
    3ae2:	4313      	orrs	r3, r2
    3ae4:	7603      	strb	r3, [r0, #24]
	}
	return STATUS_OK;
}
    3ae6:	2000      	movs	r0, #0
    3ae8:	4770      	bx	lr
		module->register_callback_mask |= TC_INTFLAG_MC(1);
    3aea:	7e03      	ldrb	r3, [r0, #24]
    3aec:	2210      	movs	r2, #16
    3aee:	4313      	orrs	r3, r2
    3af0:	7603      	strb	r3, [r0, #24]
    3af2:	e7f8      	b.n	3ae6 <tc_register_callback+0x1a>
		module->register_callback_mask |= TC_INTFLAG_MC(2);
    3af4:	7e03      	ldrb	r3, [r0, #24]
    3af6:	2220      	movs	r2, #32
    3af8:	4313      	orrs	r3, r2
    3afa:	7603      	strb	r3, [r0, #24]
    3afc:	e7f3      	b.n	3ae6 <tc_register_callback+0x1a>
	...

00003b00 <_tc_interrupt_handler>:
 * \param[in]  instance  ID of the TC instance calling the interrupt
 *                       handler
 */
void _tc_interrupt_handler(
		uint8_t instance)
{
    3b00:	b570      	push	{r4, r5, r6, lr}
	/* Temporary variable */
	uint8_t interrupt_and_callback_status_mask;

	/* Get device instance from the look-up table */
	struct tc_module *module
    3b02:	0080      	lsls	r0, r0, #2
    3b04:	4b16      	ldr	r3, [pc, #88]	; (3b60 <_tc_interrupt_handler+0x60>)
    3b06:	58c4      	ldr	r4, [r0, r3]
			= (struct tc_module *)_tc_instances[instance];

	/* Read and mask interrupt flag register */
	interrupt_and_callback_status_mask = module->hw->COUNT8.INTFLAG.reg &
    3b08:	6823      	ldr	r3, [r4, #0]
    3b0a:	7b9d      	ldrb	r5, [r3, #14]
    3b0c:	7e22      	ldrb	r2, [r4, #24]
    3b0e:	7e63      	ldrb	r3, [r4, #25]
    3b10:	4013      	ands	r3, r2
    3b12:	401d      	ands	r5, r3
			module->register_callback_mask &
			module->enable_callback_mask;

	/* Check if an Overflow interrupt has occurred */
	if (interrupt_and_callback_status_mask & TC_INTFLAG_OVF) {
    3b14:	07eb      	lsls	r3, r5, #31
    3b16:	d406      	bmi.n	3b26 <_tc_interrupt_handler+0x26>
		/* Clear interrupt flag */
		module->hw->COUNT8.INTFLAG.reg = TC_INTFLAG_OVF;
	}

	/* Check if an Error interrupt has occurred */
	if (interrupt_and_callback_status_mask & TC_INTFLAG_ERR) {
    3b18:	07ab      	lsls	r3, r5, #30
    3b1a:	d40b      	bmi.n	3b34 <_tc_interrupt_handler+0x34>
		/* Clear interrupt flag */
		module->hw->COUNT8.INTFLAG.reg = TC_INTFLAG_ERR;
	}

	/* Check if an Match/Capture Channel 0 interrupt has occurred */
	if (interrupt_and_callback_status_mask & TC_INTFLAG_MC(1)) {
    3b1c:	06eb      	lsls	r3, r5, #27
    3b1e:	d410      	bmi.n	3b42 <_tc_interrupt_handler+0x42>
		/* Clear interrupt flag */
		module->hw->COUNT8.INTFLAG.reg = TC_INTFLAG_MC(1);
	}

	/* Check if an Match/Capture Channel 1 interrupt has occurred */
	if (interrupt_and_callback_status_mask & TC_INTFLAG_MC(2)) {
    3b20:	06ab      	lsls	r3, r5, #26
    3b22:	d415      	bmi.n	3b50 <_tc_interrupt_handler+0x50>
		/* Invoke registered and enabled callback function */
		(module->callback[TC_CALLBACK_CC_CHANNEL1])(module);
		/* Clear interrupt flag */
		module->hw->COUNT8.INTFLAG.reg = TC_INTFLAG_MC(2);
	}
}
    3b24:	bd70      	pop	{r4, r5, r6, pc}
		(module->callback[TC_CALLBACK_OVERFLOW])(module);
    3b26:	0020      	movs	r0, r4
    3b28:	68a3      	ldr	r3, [r4, #8]
    3b2a:	4798      	blx	r3
		module->hw->COUNT8.INTFLAG.reg = TC_INTFLAG_OVF;
    3b2c:	2301      	movs	r3, #1
    3b2e:	6822      	ldr	r2, [r4, #0]
    3b30:	7393      	strb	r3, [r2, #14]
    3b32:	e7f1      	b.n	3b18 <_tc_interrupt_handler+0x18>
		(module->callback[TC_CALLBACK_ERROR])(module);
    3b34:	0020      	movs	r0, r4
    3b36:	68e3      	ldr	r3, [r4, #12]
    3b38:	4798      	blx	r3
		module->hw->COUNT8.INTFLAG.reg = TC_INTFLAG_ERR;
    3b3a:	2302      	movs	r3, #2
    3b3c:	6822      	ldr	r2, [r4, #0]
    3b3e:	7393      	strb	r3, [r2, #14]
    3b40:	e7ec      	b.n	3b1c <_tc_interrupt_handler+0x1c>
		(module->callback[TC_CALLBACK_CC_CHANNEL0])(module);
    3b42:	0020      	movs	r0, r4
    3b44:	6923      	ldr	r3, [r4, #16]
    3b46:	4798      	blx	r3
		module->hw->COUNT8.INTFLAG.reg = TC_INTFLAG_MC(1);
    3b48:	2310      	movs	r3, #16
    3b4a:	6822      	ldr	r2, [r4, #0]
    3b4c:	7393      	strb	r3, [r2, #14]
    3b4e:	e7e7      	b.n	3b20 <_tc_interrupt_handler+0x20>
		(module->callback[TC_CALLBACK_CC_CHANNEL1])(module);
    3b50:	0020      	movs	r0, r4
    3b52:	6963      	ldr	r3, [r4, #20]
    3b54:	4798      	blx	r3
		module->hw->COUNT8.INTFLAG.reg = TC_INTFLAG_MC(2);
    3b56:	6823      	ldr	r3, [r4, #0]
    3b58:	2220      	movs	r2, #32
    3b5a:	739a      	strb	r2, [r3, #14]
}
    3b5c:	e7e2      	b.n	3b24 <_tc_interrupt_handler+0x24>
    3b5e:	46c0      	nop			; (mov r8, r8)
    3b60:	200034fc 	.word	0x200034fc

00003b64 <TC0_Handler>:
	MRECURSION(TC_INST_NUM, _TC_INTERRUPT_HANDLER, TC_INST_MAX_ID)
    3b64:	b510      	push	{r4, lr}
    3b66:	2000      	movs	r0, #0
    3b68:	4b01      	ldr	r3, [pc, #4]	; (3b70 <TC0_Handler+0xc>)
    3b6a:	4798      	blx	r3
    3b6c:	bd10      	pop	{r4, pc}
    3b6e:	46c0      	nop			; (mov r8, r8)
    3b70:	00003b01 	.word	0x00003b01

00003b74 <TC1_Handler>:
    3b74:	b510      	push	{r4, lr}
    3b76:	2001      	movs	r0, #1
    3b78:	4b01      	ldr	r3, [pc, #4]	; (3b80 <TC1_Handler+0xc>)
    3b7a:	4798      	blx	r3
    3b7c:	bd10      	pop	{r4, pc}
    3b7e:	46c0      	nop			; (mov r8, r8)
    3b80:	00003b01 	.word	0x00003b01

00003b84 <TC2_Handler>:
    3b84:	b510      	push	{r4, lr}
    3b86:	2002      	movs	r0, #2
    3b88:	4b01      	ldr	r3, [pc, #4]	; (3b90 <TC2_Handler+0xc>)
    3b8a:	4798      	blx	r3
    3b8c:	bd10      	pop	{r4, pc}
    3b8e:	46c0      	nop			; (mov r8, r8)
    3b90:	00003b01 	.word	0x00003b01

00003b94 <TC3_Handler>:
    3b94:	b510      	push	{r4, lr}
    3b96:	2003      	movs	r0, #3
    3b98:	4b01      	ldr	r3, [pc, #4]	; (3ba0 <TC3_Handler+0xc>)
    3b9a:	4798      	blx	r3
    3b9c:	bd10      	pop	{r4, pc}
    3b9e:	46c0      	nop			; (mov r8, r8)
    3ba0:	00003b01 	.word	0x00003b01

00003ba4 <TC4_Handler>:
    3ba4:	b510      	push	{r4, lr}
    3ba6:	2004      	movs	r0, #4
    3ba8:	4b01      	ldr	r3, [pc, #4]	; (3bb0 <TC4_Handler+0xc>)
    3baa:	4798      	blx	r3
    3bac:	bd10      	pop	{r4, pc}
    3bae:	46c0      	nop			; (mov r8, r8)
    3bb0:	00003b01 	.word	0x00003b01

00003bb4 <TC5_Handler>:
    3bb4:	b510      	push	{r4, lr}
    3bb6:	2005      	movs	r0, #5
    3bb8:	4b01      	ldr	r3, [pc, #4]	; (3bc0 <TC5_Handler+0xc>)
    3bba:	4798      	blx	r3
    3bbc:	bd10      	pop	{r4, pc}
    3bbe:	46c0      	nop			; (mov r8, r8)
    3bc0:	00003b01 	.word	0x00003b01

00003bc4 <_tc_get_inst_index>:
 *
 * \return Index of the given TC module instance.
 */
uint8_t _tc_get_inst_index(
		Tc *const hw)
{
    3bc4:	b530      	push	{r4, r5, lr}
    3bc6:	b087      	sub	sp, #28
	/* List of available TC modules. */
	Tc *const tc_modules[TC_INST_NUM] = TC_INSTS;
    3bc8:	4b0b      	ldr	r3, [pc, #44]	; (3bf8 <_tc_get_inst_index+0x34>)
    3bca:	466a      	mov	r2, sp
    3bcc:	cb32      	ldmia	r3!, {r1, r4, r5}
    3bce:	c232      	stmia	r2!, {r1, r4, r5}
    3bd0:	cb32      	ldmia	r3!, {r1, r4, r5}
    3bd2:	c232      	stmia	r2!, {r1, r4, r5}

	/* Find index for TC instance. */
	for (uint32_t i = 0; i < TC_INST_NUM; i++) {
		if (hw == tc_modules[i]) {
    3bd4:	9b00      	ldr	r3, [sp, #0]
    3bd6:	4298      	cmp	r0, r3
    3bd8:	d00b      	beq.n	3bf2 <_tc_get_inst_index+0x2e>
    3bda:	2301      	movs	r3, #1
    3bdc:	009a      	lsls	r2, r3, #2
    3bde:	4669      	mov	r1, sp
    3be0:	5852      	ldr	r2, [r2, r1]
    3be2:	4282      	cmp	r2, r0
    3be4:	d006      	beq.n	3bf4 <_tc_get_inst_index+0x30>
	for (uint32_t i = 0; i < TC_INST_NUM; i++) {
    3be6:	3301      	adds	r3, #1
    3be8:	2b06      	cmp	r3, #6
    3bea:	d1f7      	bne.n	3bdc <_tc_get_inst_index+0x18>
		}
	}

	/* Invalid data given. */
	Assert(false);
	return 0;
    3bec:	2000      	movs	r0, #0
}
    3bee:	b007      	add	sp, #28
    3bf0:	bd30      	pop	{r4, r5, pc}
	for (uint32_t i = 0; i < TC_INST_NUM; i++) {
    3bf2:	2300      	movs	r3, #0
			return i;
    3bf4:	b2d8      	uxtb	r0, r3
    3bf6:	e7fa      	b.n	3bee <_tc_get_inst_index+0x2a>
    3bf8:	00006f24 	.word	0x00006f24

00003bfc <tc_init>:
 */
enum status_code tc_init(
		struct tc_module *const module_inst,
		Tc *const hw,
		const struct tc_config *const config)
{
    3bfc:	b5f0      	push	{r4, r5, r6, r7, lr}
    3bfe:	46c6      	mov	lr, r8
    3c00:	b500      	push	{lr}
    3c02:	b088      	sub	sp, #32
    3c04:	0004      	movs	r4, r0
    3c06:	000d      	movs	r5, r1
    3c08:	0016      	movs	r6, r2
	uint8_t ctrlbset_tmp = 0;
	/* Temporary variable to hold all updates to the CTRLC
	 * register before they are written to it */
	uint8_t ctrlc_tmp = 0;
	/* Temporary variable to hold TC instance number */
	uint8_t instance = _tc_get_inst_index(hw);
    3c0a:	0008      	movs	r0, r1
    3c0c:	4b88      	ldr	r3, [pc, #544]	; (3e30 <tc_init+0x234>)
    3c0e:	4798      	blx	r3
    3c10:	4680      	mov	r8, r0

	/* Array of GLCK ID for different TC instances */
	uint8_t inst_gclk_id[] = TC_INST_GCLK_ID;
    3c12:	ab06      	add	r3, sp, #24
    3c14:	2213      	movs	r2, #19
    3c16:	701a      	strb	r2, [r3, #0]
    3c18:	705a      	strb	r2, [r3, #1]
    3c1a:	3201      	adds	r2, #1
    3c1c:	709a      	strb	r2, [r3, #2]
    3c1e:	70da      	strb	r2, [r3, #3]
    3c20:	3201      	adds	r2, #1
    3c22:	711a      	strb	r2, [r3, #4]
    3c24:	715a      	strb	r2, [r3, #5]
	/* Array of PM APBC mask bit position for different TC instances */
	uint16_t inst_pm_apbmask[] = TC_INST_PM_APBCMASK;
    3c26:	aa03      	add	r2, sp, #12
    3c28:	4b82      	ldr	r3, [pc, #520]	; (3e34 <tc_init+0x238>)
    3c2a:	3318      	adds	r3, #24
    3c2c:	cb83      	ldmia	r3!, {r0, r1, r7}
    3c2e:	c283      	stmia	r2!, {r0, r1, r7}
	struct system_gclk_chan_config gclk_chan_config;

#if TC_ASYNC == true
	/* Initialize parameters */
	for (uint8_t i = 0; i < TC_CALLBACK_N; i++) {
		module_inst->callback[i]        = NULL;
    3c30:	2300      	movs	r3, #0
    3c32:	60a3      	str	r3, [r4, #8]
    3c34:	60e3      	str	r3, [r4, #12]
    3c36:	6123      	str	r3, [r4, #16]
    3c38:	6163      	str	r3, [r4, #20]
	}
	module_inst->register_callback_mask     = 0x00;
    3c3a:	7623      	strb	r3, [r4, #24]
	module_inst->enable_callback_mask       = 0x00;
    3c3c:	7663      	strb	r3, [r4, #25]

	/* Register this instance for callbacks*/
	_tc_instances[instance] = module_inst;
    3c3e:	4643      	mov	r3, r8
    3c40:	009a      	lsls	r2, r3, #2
    3c42:	4b7d      	ldr	r3, [pc, #500]	; (3e38 <tc_init+0x23c>)
    3c44:	50d4      	str	r4, [r2, r3]
#endif

	/* Associate the given device instance with the hardware module */
	module_inst->hw = hw;
    3c46:	6025      	str	r5, [r4, #0]
#else
	/* Check if odd numbered TC modules are being configured in 32-bit
	 * counter size. Only even numbered counters are allowed to be
	 * configured in 32-bit counter size.
	 */
	if ((config->counter_size == TC_COUNTER_SIZE_32BIT) &&
    3c48:	78b3      	ldrb	r3, [r6, #2]
    3c4a:	2b08      	cmp	r3, #8
    3c4c:	d008      	beq.n	3c60 <tc_init+0x64>
#endif

	/* Make the counter size variable in the module_inst struct reflect
	 * the counter size in the module
	 */
	module_inst->counter_size = config->counter_size;
    3c4e:	7123      	strb	r3, [r4, #4]

	if (hw->COUNT8.CTRLA.reg & TC_CTRLA_SWRST) {
    3c50:	882b      	ldrh	r3, [r5, #0]
		/* We are in the middle of a reset. Abort. */
		return STATUS_BUSY;
    3c52:	2005      	movs	r0, #5
	if (hw->COUNT8.CTRLA.reg & TC_CTRLA_SWRST) {
    3c54:	07db      	lsls	r3, r3, #31
    3c56:	d508      	bpl.n	3c6a <tc_init+0x6e>
			return STATUS_OK;
	}

	Assert(false);
	return STATUS_ERR_INVALID_ARG;
}
    3c58:	b008      	add	sp, #32
    3c5a:	bc04      	pop	{r2}
    3c5c:	4690      	mov	r8, r2
    3c5e:	bdf0      	pop	{r4, r5, r6, r7, pc}
		return STATUS_ERR_INVALID_ARG;
    3c60:	2017      	movs	r0, #23
	if ((config->counter_size == TC_COUNTER_SIZE_32BIT) &&
    3c62:	4642      	mov	r2, r8
    3c64:	07d2      	lsls	r2, r2, #31
    3c66:	d4f7      	bmi.n	3c58 <tc_init+0x5c>
    3c68:	e7f1      	b.n	3c4e <tc_init+0x52>
	if (hw->COUNT8.STATUS.reg & TC_STATUS_SLAVE) {
    3c6a:	7beb      	ldrb	r3, [r5, #15]
		return STATUS_ERR_DENIED;
    3c6c:	3017      	adds	r0, #23
	if (hw->COUNT8.STATUS.reg & TC_STATUS_SLAVE) {
    3c6e:	06db      	lsls	r3, r3, #27
    3c70:	d4f2      	bmi.n	3c58 <tc_init+0x5c>
	if (hw->COUNT8.CTRLA.reg & TC_CTRLA_ENABLE) {
    3c72:	882b      	ldrh	r3, [r5, #0]
    3c74:	079b      	lsls	r3, r3, #30
    3c76:	d4ef      	bmi.n	3c58 <tc_init+0x5c>
	if (config->pwm_channel[0].enabled) {
    3c78:	7c33      	ldrb	r3, [r6, #16]
    3c7a:	2b00      	cmp	r3, #0
    3c7c:	d000      	beq.n	3c80 <tc_init+0x84>
    3c7e:	e07b      	b.n	3d78 <tc_init+0x17c>
	if (config->pwm_channel[1].enabled) {
    3c80:	7f33      	ldrb	r3, [r6, #28]
    3c82:	2b00      	cmp	r3, #0
    3c84:	d000      	beq.n	3c88 <tc_init+0x8c>
    3c86:	e083      	b.n	3d90 <tc_init+0x194>
			PM->APBCMASK.reg |= mask;
    3c88:	496c      	ldr	r1, [pc, #432]	; (3e3c <tc_init+0x240>)
    3c8a:	6a08      	ldr	r0, [r1, #32]
			inst_pm_apbmask[instance]);
    3c8c:	4643      	mov	r3, r8
    3c8e:	005a      	lsls	r2, r3, #1
	system_apb_clock_set_mask(SYSTEM_CLOCK_APB_APBC,
    3c90:	ab03      	add	r3, sp, #12
    3c92:	5ad3      	ldrh	r3, [r2, r3]
    3c94:	4303      	orrs	r3, r0
    3c96:	620b      	str	r3, [r1, #32]
	if ((config->counter_size == TC_COUNTER_SIZE_32BIT))
    3c98:	78b3      	ldrb	r3, [r6, #2]
    3c9a:	2b08      	cmp	r3, #8
    3c9c:	d100      	bne.n	3ca0 <tc_init+0xa4>
    3c9e:	e087      	b.n	3db0 <tc_init+0x1b4>
	gclk_chan_config.source_generator = config->clock_source;
    3ca0:	a901      	add	r1, sp, #4
    3ca2:	7833      	ldrb	r3, [r6, #0]
    3ca4:	700b      	strb	r3, [r1, #0]
	system_gclk_chan_set_config(inst_gclk_id[instance], &gclk_chan_config);
    3ca6:	ab06      	add	r3, sp, #24
    3ca8:	4642      	mov	r2, r8
    3caa:	5c9f      	ldrb	r7, [r3, r2]
    3cac:	0038      	movs	r0, r7
    3cae:	4b64      	ldr	r3, [pc, #400]	; (3e40 <tc_init+0x244>)
    3cb0:	4798      	blx	r3
	system_gclk_chan_enable(inst_gclk_id[instance]);
    3cb2:	0038      	movs	r0, r7
    3cb4:	4b63      	ldr	r3, [pc, #396]	; (3e44 <tc_init+0x248>)
    3cb6:	4798      	blx	r3
	ctrla_tmp =
    3cb8:	8931      	ldrh	r1, [r6, #8]
    3cba:	88b3      	ldrh	r3, [r6, #4]
    3cbc:	430b      	orrs	r3, r1
			(uint32_t)config->wave_generation |
    3cbe:	78b1      	ldrb	r1, [r6, #2]
    3cc0:	79b2      	ldrb	r2, [r6, #6]
    3cc2:	4311      	orrs	r1, r2
	ctrla_tmp =
    3cc4:	4319      	orrs	r1, r3
	if (config->run_in_standby) {
    3cc6:	7873      	ldrb	r3, [r6, #1]
    3cc8:	2b00      	cmp	r3, #0
    3cca:	d002      	beq.n	3cd2 <tc_init+0xd6>
		ctrla_tmp |= TC_CTRLA_RUNSTDBY;
    3ccc:	2380      	movs	r3, #128	; 0x80
    3cce:	011b      	lsls	r3, r3, #4
    3cd0:	4319      	orrs	r1, r3
	/* Sanity check arguments */
	Assert(module_inst);
	Assert(module_inst->hw);

	/* Get a pointer to the module's hardware instance */
	TcCount8 *const tc_module = &(module_inst->hw->COUNT8);
    3cd2:	6822      	ldr	r2, [r4, #0]

#if (SAML21) || (SAML22) || (SAMC20) || (SAMC21) || (SAMR30)
	return (tc_module->SYNCBUSY.reg);
#else
	return (tc_module->STATUS.reg & TC_STATUS_SYNCBUSY);
    3cd4:	7bd3      	ldrb	r3, [r2, #15]
	while (tc_is_syncing(module_inst)) {
    3cd6:	b25b      	sxtb	r3, r3
    3cd8:	2b00      	cmp	r3, #0
    3cda:	dbfb      	blt.n	3cd4 <tc_init+0xd8>
	hw->COUNT8.CTRLA.reg = ctrla_tmp;
    3cdc:	8029      	strh	r1, [r5, #0]
	if (config->oneshot) {
    3cde:	7b71      	ldrb	r1, [r6, #13]
		ctrlbset_tmp = TC_CTRLBSET_ONESHOT;
    3ce0:	1e4b      	subs	r3, r1, #1
    3ce2:	4199      	sbcs	r1, r3
    3ce4:	0089      	lsls	r1, r1, #2
	if (config->count_direction) {
    3ce6:	7bb3      	ldrb	r3, [r6, #14]
    3ce8:	2b00      	cmp	r3, #0
    3cea:	d001      	beq.n	3cf0 <tc_init+0xf4>
		ctrlbset_tmp |= TC_CTRLBSET_DIR;
    3cec:	2301      	movs	r3, #1
    3cee:	4319      	orrs	r1, r3
	TcCount8 *const tc_module = &(module_inst->hw->COUNT8);
    3cf0:	6822      	ldr	r2, [r4, #0]
	return (tc_module->STATUS.reg & TC_STATUS_SYNCBUSY);
    3cf2:	7bd3      	ldrb	r3, [r2, #15]
	while (tc_is_syncing(module_inst)) {
    3cf4:	b25b      	sxtb	r3, r3
    3cf6:	2b00      	cmp	r3, #0
    3cf8:	dbfb      	blt.n	3cf2 <tc_init+0xf6>
	hw->COUNT8.CTRLBCLR.reg = 0xFF;
    3cfa:	23ff      	movs	r3, #255	; 0xff
    3cfc:	712b      	strb	r3, [r5, #4]
	if (ctrlbset_tmp) {
    3cfe:	2900      	cmp	r1, #0
    3d00:	d005      	beq.n	3d0e <tc_init+0x112>
	TcCount8 *const tc_module = &(module_inst->hw->COUNT8);
    3d02:	6822      	ldr	r2, [r4, #0]
	return (tc_module->STATUS.reg & TC_STATUS_SYNCBUSY);
    3d04:	7bd3      	ldrb	r3, [r2, #15]
		while (tc_is_syncing(module_inst)) {
    3d06:	b25b      	sxtb	r3, r3
    3d08:	2b00      	cmp	r3, #0
    3d0a:	dbfb      	blt.n	3d04 <tc_init+0x108>
		hw->COUNT8.CTRLBSET.reg = ctrlbset_tmp;
    3d0c:	7169      	strb	r1, [r5, #5]
	ctrlc_tmp = config->waveform_invert_output;
    3d0e:	7ab1      	ldrb	r1, [r6, #10]
		if (config->enable_capture_on_channel[i] == true) {
    3d10:	7af3      	ldrb	r3, [r6, #11]
    3d12:	2b00      	cmp	r3, #0
    3d14:	d001      	beq.n	3d1a <tc_init+0x11e>
			ctrlc_tmp |= (TC_CTRLC_CPTEN(1) << i);
    3d16:	2310      	movs	r3, #16
    3d18:	4319      	orrs	r1, r3
		if (config->enable_capture_on_channel[i] == true) {
    3d1a:	7b33      	ldrb	r3, [r6, #12]
    3d1c:	2b00      	cmp	r3, #0
    3d1e:	d001      	beq.n	3d24 <tc_init+0x128>
			ctrlc_tmp |= (TC_CTRLC_CPTEN(1) << i);
    3d20:	2320      	movs	r3, #32
    3d22:	4319      	orrs	r1, r3
	TcCount8 *const tc_module = &(module_inst->hw->COUNT8);
    3d24:	6822      	ldr	r2, [r4, #0]
	return (tc_module->STATUS.reg & TC_STATUS_SYNCBUSY);
    3d26:	7bd3      	ldrb	r3, [r2, #15]
	while (tc_is_syncing(module_inst)) {
    3d28:	b25b      	sxtb	r3, r3
    3d2a:	2b00      	cmp	r3, #0
    3d2c:	dbfb      	blt.n	3d26 <tc_init+0x12a>
	hw->COUNT8.CTRLC.reg = ctrlc_tmp;
    3d2e:	71a9      	strb	r1, [r5, #6]
	TcCount8 *const tc_module = &(module_inst->hw->COUNT8);
    3d30:	6822      	ldr	r2, [r4, #0]
	return (tc_module->STATUS.reg & TC_STATUS_SYNCBUSY);
    3d32:	7bd3      	ldrb	r3, [r2, #15]
	while (tc_is_syncing(module_inst)) {
    3d34:	b25b      	sxtb	r3, r3
    3d36:	2b00      	cmp	r3, #0
    3d38:	dbfb      	blt.n	3d32 <tc_init+0x136>
	switch (module_inst->counter_size) {
    3d3a:	7923      	ldrb	r3, [r4, #4]
    3d3c:	2b04      	cmp	r3, #4
    3d3e:	d040      	beq.n	3dc2 <tc_init+0x1c6>
    3d40:	2b08      	cmp	r3, #8
    3d42:	d05f      	beq.n	3e04 <tc_init+0x208>
	return STATUS_ERR_INVALID_ARG;
    3d44:	2017      	movs	r0, #23
	switch (module_inst->counter_size) {
    3d46:	2b00      	cmp	r3, #0
    3d48:	d000      	beq.n	3d4c <tc_init+0x150>
    3d4a:	e785      	b.n	3c58 <tc_init+0x5c>
    3d4c:	7bd3      	ldrb	r3, [r2, #15]
			while (tc_is_syncing(module_inst)) {
    3d4e:	b25b      	sxtb	r3, r3
    3d50:	2b00      	cmp	r3, #0
    3d52:	dbfb      	blt.n	3d4c <tc_init+0x150>
				= config->counter_16_bit.value;
    3d54:	8d33      	ldrh	r3, [r6, #40]	; 0x28
    3d56:	822b      	strh	r3, [r5, #16]
	TcCount8 *const tc_module = &(module_inst->hw->COUNT8);
    3d58:	6822      	ldr	r2, [r4, #0]
	return (tc_module->STATUS.reg & TC_STATUS_SYNCBUSY);
    3d5a:	7bd3      	ldrb	r3, [r2, #15]
			while (tc_is_syncing(module_inst)) {
    3d5c:	b25b      	sxtb	r3, r3
    3d5e:	2b00      	cmp	r3, #0
    3d60:	dbfb      	blt.n	3d5a <tc_init+0x15e>
					config->counter_16_bit.compare_capture_channel[0];
    3d62:	8d73      	ldrh	r3, [r6, #42]	; 0x2a
			hw->COUNT16.CC[0].reg =
    3d64:	832b      	strh	r3, [r5, #24]
	TcCount8 *const tc_module = &(module_inst->hw->COUNT8);
    3d66:	6822      	ldr	r2, [r4, #0]
	return (tc_module->STATUS.reg & TC_STATUS_SYNCBUSY);
    3d68:	7bd3      	ldrb	r3, [r2, #15]
			while (tc_is_syncing(module_inst)) {
    3d6a:	b25b      	sxtb	r3, r3
    3d6c:	2b00      	cmp	r3, #0
    3d6e:	dbfb      	blt.n	3d68 <tc_init+0x16c>
					config->counter_16_bit.compare_capture_channel[1];
    3d70:	8db3      	ldrh	r3, [r6, #44]	; 0x2c
			hw->COUNT16.CC[1].reg =
    3d72:	836b      	strh	r3, [r5, #26]
			return STATUS_OK;
    3d74:	2000      	movs	r0, #0
    3d76:	e76f      	b.n	3c58 <tc_init+0x5c>
	config->input_pull   = SYSTEM_PINMUX_PIN_PULL_UP;
    3d78:	a902      	add	r1, sp, #8
    3d7a:	2301      	movs	r3, #1
    3d7c:	708b      	strb	r3, [r1, #2]
	config->powersave    = false;
    3d7e:	2200      	movs	r2, #0
    3d80:	70ca      	strb	r2, [r1, #3]
		pin_config.mux_position = config->pwm_channel[0].pin_mux;
    3d82:	7e32      	ldrb	r2, [r6, #24]
    3d84:	700a      	strb	r2, [r1, #0]
		pin_config.direction = SYSTEM_PINMUX_PIN_DIR_OUTPUT;
    3d86:	704b      	strb	r3, [r1, #1]
		system_pinmux_pin_set_config(
    3d88:	7d30      	ldrb	r0, [r6, #20]
    3d8a:	4b2f      	ldr	r3, [pc, #188]	; (3e48 <tc_init+0x24c>)
    3d8c:	4798      	blx	r3
    3d8e:	e777      	b.n	3c80 <tc_init+0x84>
	config->input_pull   = SYSTEM_PINMUX_PIN_PULL_UP;
    3d90:	a902      	add	r1, sp, #8
    3d92:	2301      	movs	r3, #1
    3d94:	708b      	strb	r3, [r1, #2]
	config->powersave    = false;
    3d96:	2200      	movs	r2, #0
    3d98:	70ca      	strb	r2, [r1, #3]
		pin_config.mux_position = config->pwm_channel[1].pin_mux;
    3d9a:	3224      	adds	r2, #36	; 0x24
    3d9c:	18b2      	adds	r2, r6, r2
    3d9e:	7812      	ldrb	r2, [r2, #0]
    3da0:	700a      	strb	r2, [r1, #0]
		pin_config.direction = SYSTEM_PINMUX_PIN_DIR_OUTPUT;
    3da2:	704b      	strb	r3, [r1, #1]
		system_pinmux_pin_set_config(
    3da4:	331f      	adds	r3, #31
    3da6:	18f3      	adds	r3, r6, r3
    3da8:	7818      	ldrb	r0, [r3, #0]
    3daa:	4b27      	ldr	r3, [pc, #156]	; (3e48 <tc_init+0x24c>)
    3dac:	4798      	blx	r3
    3dae:	e76b      	b.n	3c88 <tc_init+0x8c>
    3db0:	6a08      	ldr	r0, [r1, #32]
				inst_pm_apbmask[instance + 1]);
    3db2:	4643      	mov	r3, r8
    3db4:	1c5a      	adds	r2, r3, #1
    3db6:	0052      	lsls	r2, r2, #1
		system_apb_clock_set_mask(SYSTEM_CLOCK_APB_APBC,
    3db8:	ab03      	add	r3, sp, #12
    3dba:	5ad3      	ldrh	r3, [r2, r3]
    3dbc:	4303      	orrs	r3, r0
    3dbe:	620b      	str	r3, [r1, #32]
    3dc0:	e76e      	b.n	3ca0 <tc_init+0xa4>
    3dc2:	7bd3      	ldrb	r3, [r2, #15]
			while (tc_is_syncing(module_inst)) {
    3dc4:	b25b      	sxtb	r3, r3
    3dc6:	2b00      	cmp	r3, #0
    3dc8:	dbfb      	blt.n	3dc2 <tc_init+0x1c6>
					config->counter_8_bit.value;
    3dca:	2328      	movs	r3, #40	; 0x28
    3dcc:	5cf3      	ldrb	r3, [r6, r3]
			hw->COUNT8.COUNT.reg =
    3dce:	742b      	strb	r3, [r5, #16]
	TcCount8 *const tc_module = &(module_inst->hw->COUNT8);
    3dd0:	6822      	ldr	r2, [r4, #0]
	return (tc_module->STATUS.reg & TC_STATUS_SYNCBUSY);
    3dd2:	7bd3      	ldrb	r3, [r2, #15]
			while (tc_is_syncing(module_inst)) {
    3dd4:	b25b      	sxtb	r3, r3
    3dd6:	2b00      	cmp	r3, #0
    3dd8:	dbfb      	blt.n	3dd2 <tc_init+0x1d6>
					config->counter_8_bit.period;
    3dda:	2329      	movs	r3, #41	; 0x29
    3ddc:	5cf3      	ldrb	r3, [r6, r3]
			hw->COUNT8.PER.reg =
    3dde:	752b      	strb	r3, [r5, #20]
	TcCount8 *const tc_module = &(module_inst->hw->COUNT8);
    3de0:	6822      	ldr	r2, [r4, #0]
	return (tc_module->STATUS.reg & TC_STATUS_SYNCBUSY);
    3de2:	7bd3      	ldrb	r3, [r2, #15]
			while (tc_is_syncing(module_inst)) {
    3de4:	b25b      	sxtb	r3, r3
    3de6:	2b00      	cmp	r3, #0
    3de8:	dbfb      	blt.n	3de2 <tc_init+0x1e6>
					config->counter_8_bit.compare_capture_channel[0];
    3dea:	232a      	movs	r3, #42	; 0x2a
    3dec:	5cf3      	ldrb	r3, [r6, r3]
			hw->COUNT8.CC[0].reg =
    3dee:	762b      	strb	r3, [r5, #24]
	TcCount8 *const tc_module = &(module_inst->hw->COUNT8);
    3df0:	6822      	ldr	r2, [r4, #0]
	return (tc_module->STATUS.reg & TC_STATUS_SYNCBUSY);
    3df2:	7bd3      	ldrb	r3, [r2, #15]
			while (tc_is_syncing(module_inst)) {
    3df4:	b25b      	sxtb	r3, r3
    3df6:	2b00      	cmp	r3, #0
    3df8:	dbfb      	blt.n	3df2 <tc_init+0x1f6>
					config->counter_8_bit.compare_capture_channel[1];
    3dfa:	232b      	movs	r3, #43	; 0x2b
    3dfc:	5cf3      	ldrb	r3, [r6, r3]
			hw->COUNT8.CC[1].reg =
    3dfe:	766b      	strb	r3, [r5, #25]
			return STATUS_OK;
    3e00:	2000      	movs	r0, #0
    3e02:	e729      	b.n	3c58 <tc_init+0x5c>
    3e04:	7bd3      	ldrb	r3, [r2, #15]
			while (tc_is_syncing(module_inst)) {
    3e06:	b25b      	sxtb	r3, r3
    3e08:	2b00      	cmp	r3, #0
    3e0a:	dbfb      	blt.n	3e04 <tc_init+0x208>
				= config->counter_32_bit.value;
    3e0c:	6ab3      	ldr	r3, [r6, #40]	; 0x28
    3e0e:	612b      	str	r3, [r5, #16]
	TcCount8 *const tc_module = &(module_inst->hw->COUNT8);
    3e10:	6822      	ldr	r2, [r4, #0]
	return (tc_module->STATUS.reg & TC_STATUS_SYNCBUSY);
    3e12:	7bd3      	ldrb	r3, [r2, #15]
			while (tc_is_syncing(module_inst)) {
    3e14:	b25b      	sxtb	r3, r3
    3e16:	2b00      	cmp	r3, #0
    3e18:	dbfb      	blt.n	3e12 <tc_init+0x216>
			hw->COUNT32.CC[0].reg =
    3e1a:	6af3      	ldr	r3, [r6, #44]	; 0x2c
    3e1c:	61ab      	str	r3, [r5, #24]
	TcCount8 *const tc_module = &(module_inst->hw->COUNT8);
    3e1e:	6822      	ldr	r2, [r4, #0]
	return (tc_module->STATUS.reg & TC_STATUS_SYNCBUSY);
    3e20:	7bd3      	ldrb	r3, [r2, #15]
			while (tc_is_syncing(module_inst)) {
    3e22:	b25b      	sxtb	r3, r3
    3e24:	2b00      	cmp	r3, #0
    3e26:	dbfb      	blt.n	3e20 <tc_init+0x224>
					config->counter_32_bit.compare_capture_channel[1];
    3e28:	6b33      	ldr	r3, [r6, #48]	; 0x30
			hw->COUNT32.CC[1].reg =
    3e2a:	61eb      	str	r3, [r5, #28]
			return STATUS_OK;
    3e2c:	2000      	movs	r0, #0
    3e2e:	e713      	b.n	3c58 <tc_init+0x5c>
    3e30:	00003bc5 	.word	0x00003bc5
    3e34:	00006f24 	.word	0x00006f24
    3e38:	200034fc 	.word	0x200034fc
    3e3c:	40000400 	.word	0x40000400
    3e40:	00006121 	.word	0x00006121
    3e44:	00006095 	.word	0x00006095
    3e48:	00006249 	.word	0x00006249

00003e4c <wdt_set_config>:
	return STATUS_OK;
}
#else
enum status_code wdt_set_config(
		const struct wdt_conf *const config)
{
    3e4c:	b510      	push	{r4, lr}
    3e4e:	b082      	sub	sp, #8
    3e50:	0004      	movs	r4, r0
			PM->APBAMASK.reg |= mask;
    3e52:	4a39      	ldr	r2, [pc, #228]	; (3f38 <wdt_set_config+0xec>)
    3e54:	6993      	ldr	r3, [r2, #24]
    3e56:	2110      	movs	r1, #16
    3e58:	430b      	orrs	r3, r1
    3e5a:	6193      	str	r3, [r2, #24]
	Wdt *const WDT_module = WDT;

#if (SAML21) || (SAML22) || (SAMC20) || (SAMC21) || (SAMR30)
	return (WDT_module->CTRLA.reg & WDT_CTRLA_ALWAYSON);
#else
	return (WDT_module->CTRL.reg & WDT_CTRL_ALWAYSON);
    3e5c:	4b37      	ldr	r3, [pc, #220]	; (3f3c <wdt_set_config+0xf0>)
    3e5e:	781b      	ldrb	r3, [r3, #0]

	/* Turn on the digital interface clock */
	system_apb_clock_set_mask(SYSTEM_CLOCK_APB_APBA, PM_APBAMASK_WDT);

	/* Check of the Watchdog has been locked to be always on, if so, abort */
	if (wdt_is_locked()) {
    3e60:	b25b      	sxtb	r3, r3
		return STATUS_ERR_IO;
    3e62:	2010      	movs	r0, #16
	if (wdt_is_locked()) {
    3e64:	2b00      	cmp	r3, #0
    3e66:	db03      	blt.n	3e70 <wdt_set_config+0x24>
	}

	/* Check for an invalid timeout period, abort if found */
	if (config->timeout_period == WDT_PERIOD_NONE) {
    3e68:	78e3      	ldrb	r3, [r4, #3]
		return STATUS_ERR_INVALID_ARG;
    3e6a:	3007      	adds	r0, #7
	if (config->timeout_period == WDT_PERIOD_NONE) {
    3e6c:	2b00      	cmp	r3, #0
    3e6e:	d101      	bne.n	3e74 <wdt_set_config+0x28>
	while (wdt_is_syncing()) {
		/* Wait for all hardware modules to complete synchronization */
	}

	return STATUS_OK;
}
    3e70:	b002      	add	sp, #8
    3e72:	bd10      	pop	{r4, pc}
	if ((config->timeout_period < config->window_period) ||
    3e74:	7922      	ldrb	r2, [r4, #4]
    3e76:	429a      	cmp	r2, r3
    3e78:	d8fa      	bhi.n	3e70 <wdt_set_config+0x24>
    3e7a:	7962      	ldrb	r2, [r4, #5]
    3e7c:	429a      	cmp	r2, r3
    3e7e:	d8f7      	bhi.n	3e70 <wdt_set_config+0x24>
	WDT_module->CTRL.reg &= ~WDT_CTRL_ENABLE;
    3e80:	4a2e      	ldr	r2, [pc, #184]	; (3f3c <wdt_set_config+0xf0>)
    3e82:	7813      	ldrb	r3, [r2, #0]
    3e84:	390e      	subs	r1, #14
    3e86:	438b      	bics	r3, r1
    3e88:	7013      	strb	r3, [r2, #0]
	if (WDT_module->STATUS.reg & WDT_STATUS_SYNCBUSY) {
    3e8a:	79d3      	ldrb	r3, [r2, #7]
	while (wdt_is_syncing()) {
    3e8c:	b25b      	sxtb	r3, r3
    3e8e:	2b00      	cmp	r3, #0
    3e90:	dbfb      	blt.n	3e8a <wdt_set_config+0x3e>
	if(config->enable == false) {
    3e92:	7863      	ldrb	r3, [r4, #1]
		return STATUS_OK;
    3e94:	2000      	movs	r0, #0
	if(config->enable == false) {
    3e96:	2b00      	cmp	r3, #0
    3e98:	d0ea      	beq.n	3e70 <wdt_set_config+0x24>
	gclk_chan_conf.source_generator = config->clock_source;
    3e9a:	a901      	add	r1, sp, #4
    3e9c:	78a3      	ldrb	r3, [r4, #2]
    3e9e:	700b      	strb	r3, [r1, #0]
	system_gclk_chan_set_config(WDT_GCLK_ID, &gclk_chan_conf);
    3ea0:	3001      	adds	r0, #1
    3ea2:	4b27      	ldr	r3, [pc, #156]	; (3f40 <wdt_set_config+0xf4>)
    3ea4:	4798      	blx	r3
	system_gclk_chan_enable(WDT_GCLK_ID);
    3ea6:	2001      	movs	r0, #1
    3ea8:	4b26      	ldr	r3, [pc, #152]	; (3f44 <wdt_set_config+0xf8>)
    3eaa:	4798      	blx	r3
	if (config->always_on) {
    3eac:	7823      	ldrb	r3, [r4, #0]
    3eae:	2b00      	cmp	r3, #0
    3eb0:	d127      	bne.n	3f02 <wdt_set_config+0xb6>
	new_config |= (config->timeout_period - 1) << WDT_CONFIG_PER_Pos;
    3eb2:	78e3      	ldrb	r3, [r4, #3]
    3eb4:	3b01      	subs	r3, #1
	if (config->window_period != WDT_PERIOD_NONE) {
    3eb6:	7922      	ldrb	r2, [r4, #4]
    3eb8:	2a00      	cmp	r2, #0
    3eba:	d026      	beq.n	3f0a <wdt_set_config+0xbe>
		WDT_module->CTRL.reg |= WDT_CTRL_WEN;
    3ebc:	491f      	ldr	r1, [pc, #124]	; (3f3c <wdt_set_config+0xf0>)
    3ebe:	780a      	ldrb	r2, [r1, #0]
    3ec0:	2004      	movs	r0, #4
    3ec2:	4302      	orrs	r2, r0
    3ec4:	700a      	strb	r2, [r1, #0]
		new_config |= (config->window_period - 1) << WDT_CONFIG_WINDOW_Pos;
    3ec6:	7922      	ldrb	r2, [r4, #4]
    3ec8:	3a01      	subs	r2, #1
    3eca:	4082      	lsls	r2, r0
    3ecc:	4313      	orrs	r3, r2
    3ece:	491b      	ldr	r1, [pc, #108]	; (3f3c <wdt_set_config+0xf0>)
    3ed0:	79ca      	ldrb	r2, [r1, #7]
	while (wdt_is_syncing()) {
    3ed2:	b252      	sxtb	r2, r2
    3ed4:	2a00      	cmp	r2, #0
    3ed6:	dbfb      	blt.n	3ed0 <wdt_set_config+0x84>
	WDT_module->CONFIG.reg = new_config;
    3ed8:	b2db      	uxtb	r3, r3
    3eda:	4a18      	ldr	r2, [pc, #96]	; (3f3c <wdt_set_config+0xf0>)
    3edc:	7053      	strb	r3, [r2, #1]
	if (config->early_warning_period != WDT_PERIOD_NONE) {
    3ede:	7963      	ldrb	r3, [r4, #5]
    3ee0:	2b00      	cmp	r3, #0
    3ee2:	d118      	bne.n	3f16 <wdt_set_config+0xca>
	if (config->always_on) {
    3ee4:	7823      	ldrb	r3, [r4, #0]
    3ee6:	2b00      	cmp	r3, #0
    3ee8:	d01f      	beq.n	3f2a <wdt_set_config+0xde>
		WDT_module->CTRL.reg |= WDT_CTRL_ALWAYSON;
    3eea:	4a14      	ldr	r2, [pc, #80]	; (3f3c <wdt_set_config+0xf0>)
    3eec:	7813      	ldrb	r3, [r2, #0]
    3eee:	2180      	movs	r1, #128	; 0x80
    3ef0:	430b      	orrs	r3, r1
    3ef2:	7013      	strb	r3, [r2, #0]
    3ef4:	4a11      	ldr	r2, [pc, #68]	; (3f3c <wdt_set_config+0xf0>)
    3ef6:	79d3      	ldrb	r3, [r2, #7]
	while (wdt_is_syncing()) {
    3ef8:	b25b      	sxtb	r3, r3
    3efa:	2b00      	cmp	r3, #0
    3efc:	dbfb      	blt.n	3ef6 <wdt_set_config+0xaa>
	return STATUS_OK;
    3efe:	2000      	movs	r0, #0
    3f00:	e7b6      	b.n	3e70 <wdt_set_config+0x24>
		system_gclk_chan_lock(WDT_GCLK_ID);
    3f02:	2001      	movs	r0, #1
    3f04:	4b10      	ldr	r3, [pc, #64]	; (3f48 <wdt_set_config+0xfc>)
    3f06:	4798      	blx	r3
    3f08:	e7d3      	b.n	3eb2 <wdt_set_config+0x66>
		WDT_module->CTRL.reg &= ~WDT_CTRL_WEN;
    3f0a:	490c      	ldr	r1, [pc, #48]	; (3f3c <wdt_set_config+0xf0>)
    3f0c:	780a      	ldrb	r2, [r1, #0]
    3f0e:	2004      	movs	r0, #4
    3f10:	4382      	bics	r2, r0
    3f12:	700a      	strb	r2, [r1, #0]
    3f14:	e7db      	b.n	3ece <wdt_set_config+0x82>
    3f16:	0011      	movs	r1, r2
    3f18:	79ca      	ldrb	r2, [r1, #7]
		while (wdt_is_syncing()) {
    3f1a:	b252      	sxtb	r2, r2
    3f1c:	2a00      	cmp	r2, #0
    3f1e:	dbfb      	blt.n	3f18 <wdt_set_config+0xcc>
			= (config->early_warning_period - 1) << WDT_EWCTRL_EWOFFSET_Pos;
    3f20:	3b01      	subs	r3, #1
    3f22:	b2db      	uxtb	r3, r3
    3f24:	4a05      	ldr	r2, [pc, #20]	; (3f3c <wdt_set_config+0xf0>)
    3f26:	7093      	strb	r3, [r2, #2]
    3f28:	e7dc      	b.n	3ee4 <wdt_set_config+0x98>
		WDT_module->CTRL.reg |= WDT_CTRL_ENABLE;
    3f2a:	4a04      	ldr	r2, [pc, #16]	; (3f3c <wdt_set_config+0xf0>)
    3f2c:	7813      	ldrb	r3, [r2, #0]
    3f2e:	2102      	movs	r1, #2
    3f30:	430b      	orrs	r3, r1
    3f32:	7013      	strb	r3, [r2, #0]
    3f34:	e7de      	b.n	3ef4 <wdt_set_config+0xa8>
    3f36:	46c0      	nop			; (mov r8, r8)
    3f38:	40000400 	.word	0x40000400
    3f3c:	40001000 	.word	0x40001000
    3f40:	00006121 	.word	0x00006121
    3f44:	00006095 	.word	0x00006095
    3f48:	0000613d 	.word	0x0000613d

00003f4c <wdt_reset_count>:
void wdt_reset_count(void)
{
	Wdt *const WDT_module = WDT;

	/* Disable the Watchdog module */
	WDT_module->CLEAR.reg = WDT_CLEAR_CLEAR_KEY;
    3f4c:	22a5      	movs	r2, #165	; 0xa5
    3f4e:	4b04      	ldr	r3, [pc, #16]	; (3f60 <wdt_reset_count+0x14>)
    3f50:	721a      	strb	r2, [r3, #8]
    3f52:	001a      	movs	r2, r3
    3f54:	79d3      	ldrb	r3, [r2, #7]

	while (wdt_is_syncing()) {
    3f56:	b25b      	sxtb	r3, r3
    3f58:	2b00      	cmp	r3, #0
    3f5a:	dbfb      	blt.n	3f54 <wdt_reset_count+0x8>
		/* Wait for all hardware modules to complete synchronization */
	}
}
    3f5c:	4770      	bx	lr
    3f5e:	46c0      	nop			; (mov r8, r8)
    3f60:	40001000 	.word	0x40001000

00003f64 <wdt_register_callback>:
		const enum wdt_callback type)
{
	/* Sanity check arguments */
	Assert(callback);

	switch (type)
    3f64:	2900      	cmp	r1, #0
    3f66:	d001      	beq.n	3f6c <wdt_register_callback+0x8>
	case WDT_CALLBACK_EARLY_WARNING:
		wdt_early_warning_callback = callback;
		return STATUS_OK;
	default:
		Assert(false);
		return STATUS_ERR_INVALID_ARG;
    3f68:	2017      	movs	r0, #23
	}
}
    3f6a:	4770      	bx	lr
		wdt_early_warning_callback = callback;
    3f6c:	4b01      	ldr	r3, [pc, #4]	; (3f74 <wdt_register_callback+0x10>)
    3f6e:	6018      	str	r0, [r3, #0]
		return STATUS_OK;
    3f70:	2000      	movs	r0, #0
    3f72:	e7fa      	b.n	3f6a <wdt_register_callback+0x6>
    3f74:	20003514 	.word	0x20003514

00003f78 <wdt_enable_callback>:
enum status_code wdt_enable_callback(
		const enum wdt_callback type)
{
	Wdt *const WDT_module = WDT;

	switch (type)
    3f78:	2800      	cmp	r0, #0
    3f7a:	d001      	beq.n	3f80 <wdt_enable_callback+0x8>
		WDT_module->INTENSET.reg = WDT_INTENSET_EW;
		system_interrupt_enable(SYSTEM_INTERRUPT_MODULE_WDT);
		return STATUS_OK;
	default:
		Assert(false);
		return STATUS_ERR_INVALID_ARG;
    3f7c:	2017      	movs	r0, #23
	}
}
    3f7e:	4770      	bx	lr
		WDT_module->INTENSET.reg = WDT_INTENSET_EW;
    3f80:	2201      	movs	r2, #1
    3f82:	4b03      	ldr	r3, [pc, #12]	; (3f90 <wdt_enable_callback+0x18>)
    3f84:	715a      	strb	r2, [r3, #5]
    3f86:	3203      	adds	r2, #3
    3f88:	4b02      	ldr	r3, [pc, #8]	; (3f94 <wdt_enable_callback+0x1c>)
    3f8a:	601a      	str	r2, [r3, #0]
		return STATUS_OK;
    3f8c:	e7f7      	b.n	3f7e <wdt_enable_callback+0x6>
    3f8e:	46c0      	nop			; (mov r8, r8)
    3f90:	40001000 	.word	0x40001000
    3f94:	e000e100 	.word	0xe000e100

00003f98 <WDT_Handler>:
	}
}

/** Handler for the WDT hardware module interrupt. */
void WDT_Handler(void)
{
    3f98:	b510      	push	{r4, lr}
 */
static inline void wdt_clear_early_warning(void)
{
	Wdt *const WDT_module = WDT;

	WDT_module->INTFLAG.reg = WDT_INTFLAG_EW;
    3f9a:	2201      	movs	r2, #1
    3f9c:	4b03      	ldr	r3, [pc, #12]	; (3fac <WDT_Handler+0x14>)
    3f9e:	719a      	strb	r2, [r3, #6]
	wdt_clear_early_warning();

	if (wdt_early_warning_callback) {
    3fa0:	4b03      	ldr	r3, [pc, #12]	; (3fb0 <WDT_Handler+0x18>)
    3fa2:	681b      	ldr	r3, [r3, #0]
    3fa4:	2b00      	cmp	r3, #0
    3fa6:	d000      	beq.n	3faa <WDT_Handler+0x12>
		wdt_early_warning_callback();
    3fa8:	4798      	blx	r3
	}
}
    3faa:	bd10      	pop	{r4, pc}
    3fac:	40001000 	.word	0x40001000
    3fb0:	20003514 	.word	0x20003514

00003fb4 <LORA01_extint_detection_callback>:
}


unsigned char tmp_data;
void LORA01_extint_detection_callback(void)
{
    3fb4:	b510      	push	{r4, lr}
	if(LORA01->LoRa_IRQ_Flag == 0)
    3fb6:	4b07      	ldr	r3, [pc, #28]	; (3fd4 <LORA01_extint_detection_callback+0x20>)
    3fb8:	6818      	ldr	r0, [r3, #0]
    3fba:	4b07      	ldr	r3, [pc, #28]	; (3fd8 <LORA01_extint_detection_callback+0x24>)
    3fbc:	5cc3      	ldrb	r3, [r0, r3]
    3fbe:	2b00      	cmp	r3, #0
    3fc0:	d000      	beq.n	3fc4 <LORA01_extint_detection_callback+0x10>
	{
		change_and_check(&(LORA01->LoRa_IRQ_Flag), 1);
	}
}
    3fc2:	bd10      	pop	{r4, pc}
		change_and_check(&(LORA01->LoRa_IRQ_Flag), 1);
    3fc4:	4b04      	ldr	r3, [pc, #16]	; (3fd8 <LORA01_extint_detection_callback+0x24>)
    3fc6:	469c      	mov	ip, r3
    3fc8:	4460      	add	r0, ip
    3fca:	2101      	movs	r1, #1
    3fcc:	4b03      	ldr	r3, [pc, #12]	; (3fdc <LORA01_extint_detection_callback+0x28>)
    3fce:	4798      	blx	r3
}
    3fd0:	e7f7      	b.n	3fc2 <LORA01_extint_detection_callback+0xe>
    3fd2:	46c0      	nop			; (mov r8, r8)
    3fd4:	200018bc 	.word	0x200018bc
    3fd8:	00000223 	.word	0x00000223
    3fdc:	00004201 	.word	0x00004201

00003fe0 <LORA02_extint_detection_callback>:

void LORA02_extint_detection_callback(void)
{
    3fe0:	b510      	push	{r4, lr}
	if(LORA02->LoRa_IRQ_Flag == 0)
    3fe2:	4b07      	ldr	r3, [pc, #28]	; (4000 <LORA02_extint_detection_callback+0x20>)
    3fe4:	6818      	ldr	r0, [r3, #0]
    3fe6:	4b07      	ldr	r3, [pc, #28]	; (4004 <LORA02_extint_detection_callback+0x24>)
    3fe8:	5cc3      	ldrb	r3, [r0, r3]
    3fea:	2b00      	cmp	r3, #0
    3fec:	d000      	beq.n	3ff0 <LORA02_extint_detection_callback+0x10>
	{
		change_and_check(&(LORA02->LoRa_IRQ_Flag), 1);
	}
}
    3fee:	bd10      	pop	{r4, pc}
		change_and_check(&(LORA02->LoRa_IRQ_Flag), 1);
    3ff0:	4b04      	ldr	r3, [pc, #16]	; (4004 <LORA02_extint_detection_callback+0x24>)
    3ff2:	469c      	mov	ip, r3
    3ff4:	4460      	add	r0, ip
    3ff6:	2101      	movs	r1, #1
    3ff8:	4b03      	ldr	r3, [pc, #12]	; (4008 <LORA02_extint_detection_callback+0x28>)
    3ffa:	4798      	blx	r3
}
    3ffc:	e7f7      	b.n	3fee <LORA02_extint_detection_callback+0xe>
    3ffe:	46c0      	nop			; (mov r8, r8)
    4000:	20000c90 	.word	0x20000c90
    4004:	00000223 	.word	0x00000223
    4008:	00004201 	.word	0x00004201

0000400c <configure_extint_channel>:
{
    400c:	b5f0      	push	{r4, r5, r6, r7, lr}
    400e:	b085      	sub	sp, #20
	extint_chan_get_config_defaults(&config_extint_chan);
    4010:	ac01      	add	r4, sp, #4
    4012:	0020      	movs	r0, r4
    4014:	4b0b      	ldr	r3, [pc, #44]	; (4044 <configure_extint_channel+0x38>)
    4016:	4798      	blx	r3
	config_extint_chan.gpio_pin           = PIN_PA11A_EIC_EXTINT11;
    4018:	230b      	movs	r3, #11
    401a:	9301      	str	r3, [sp, #4]
	config_extint_chan.gpio_pin_mux       = MUX_PA11A_EIC_EXTINT11;
    401c:	2500      	movs	r5, #0
    401e:	6065      	str	r5, [r4, #4]
	config_extint_chan.gpio_pin_pull      = EXTINT_PULL_NONE;
    4020:	7225      	strb	r5, [r4, #8]
	config_extint_chan.detection_criteria = EXTINT_DETECT_RISING;
    4022:	2701      	movs	r7, #1
    4024:	72e7      	strb	r7, [r4, #11]
	extint_chan_set_config(PIN_PA11, &config_extint_chan);
    4026:	0021      	movs	r1, r4
    4028:	200b      	movs	r0, #11
    402a:	4e07      	ldr	r6, [pc, #28]	; (4048 <configure_extint_channel+0x3c>)
    402c:	47b0      	blx	r6
	config_extint_chan.gpio_pin           = PIN_PA07A_EIC_EXTINT7;
    402e:	2307      	movs	r3, #7
    4030:	9301      	str	r3, [sp, #4]
	config_extint_chan.gpio_pin_mux       = MUX_PA07A_EIC_EXTINT7;
    4032:	6065      	str	r5, [r4, #4]
	config_extint_chan.gpio_pin_pull      = EXTINT_PULL_NONE;
    4034:	7225      	strb	r5, [r4, #8]
	config_extint_chan.detection_criteria = EXTINT_DETECT_RISING;
    4036:	72e7      	strb	r7, [r4, #11]
	extint_chan_set_config(PIN_PA07, &config_extint_chan);
    4038:	0021      	movs	r1, r4
    403a:	2007      	movs	r0, #7
    403c:	47b0      	blx	r6
}
    403e:	b005      	add	sp, #20
    4040:	bdf0      	pop	{r4, r5, r6, r7, pc}
    4042:	46c0      	nop			; (mov r8, r8)
    4044:	00003a41 	.word	0x00003a41
    4048:	00003a55 	.word	0x00003a55

0000404c <configure_extint_callbacks>:
{
    404c:	b570      	push	{r4, r5, r6, lr}
	extint_register_callback(LORA01_extint_detection_callback, PIN_PA11, EXTINT_CALLBACK_TYPE_DETECT);
    404e:	2200      	movs	r2, #0
    4050:	210b      	movs	r1, #11
    4052:	4807      	ldr	r0, [pc, #28]	; (4070 <configure_extint_callbacks+0x24>)
    4054:	4d07      	ldr	r5, [pc, #28]	; (4074 <configure_extint_callbacks+0x28>)
    4056:	47a8      	blx	r5
	extint_chan_enable_callback(PIN_PA11, EXTINT_CALLBACK_TYPE_DETECT);
    4058:	2100      	movs	r1, #0
    405a:	200b      	movs	r0, #11
    405c:	4c06      	ldr	r4, [pc, #24]	; (4078 <configure_extint_callbacks+0x2c>)
    405e:	47a0      	blx	r4
	extint_register_callback(LORA02_extint_detection_callback, PIN_PA07, EXTINT_CALLBACK_TYPE_DETECT);
    4060:	2200      	movs	r2, #0
    4062:	2107      	movs	r1, #7
    4064:	4805      	ldr	r0, [pc, #20]	; (407c <configure_extint_callbacks+0x30>)
    4066:	47a8      	blx	r5
	extint_chan_enable_callback(PIN_PA07, EXTINT_CALLBACK_TYPE_DETECT);
    4068:	2100      	movs	r1, #0
    406a:	2007      	movs	r0, #7
    406c:	47a0      	blx	r4
}
    406e:	bd70      	pop	{r4, r5, r6, pc}
    4070:	00003fb5 	.word	0x00003fb5
    4074:	000038fd 	.word	0x000038fd
    4078:	00003929 	.word	0x00003929
    407c:	00003fe1 	.word	0x00003fe1

00004080 <LoRA_INT_IO_SETTING>:
#include "myDefine.h"



void LoRA_INT_IO_SETTING(unsigned char tmp_index)
{
    4080:	b500      	push	{lr}
    4082:	b085      	sub	sp, #20
	config->direction  = PORT_PIN_DIR_INPUT;
    4084:	ab03      	add	r3, sp, #12
    4086:	2200      	movs	r2, #0
    4088:	701a      	strb	r2, [r3, #0]
	config->input_pull = PORT_PIN_PULL_UP;
    408a:	2101      	movs	r1, #1
    408c:	7059      	strb	r1, [r3, #1]
	config->powersave  = false;
    408e:	709a      	strb	r2, [r3, #2]
	struct port_config pin_conf;
	port_get_config_defaults(&pin_conf);
	if(tmp_index == true)
    4090:	2801      	cmp	r0, #1
    4092:	d00b      	beq.n	40ac <LoRA_INT_IO_SETTING+0x2c>
		config_extint_chan.detection_criteria = EXTINT_DETECT_RISING;
		extint_chan_set_config(PIN_PA11, &config_extint_chan);
	}
	else
	{
		pin_conf.direction  = PORT_PIN_DIR_OUTPUT;
    4094:	a903      	add	r1, sp, #12
    4096:	2301      	movs	r3, #1
    4098:	700b      	strb	r3, [r1, #0]
		port_pin_set_config(PIN_PA11, &pin_conf);	//LoRA interrupt
    409a:	200b      	movs	r0, #11
    409c:	4b0b      	ldr	r3, [pc, #44]	; (40cc <LoRA_INT_IO_SETTING+0x4c>)
    409e:	4798      	blx	r3
		port_base->OUTCLR.reg = pin_mask;
    40a0:	2280      	movs	r2, #128	; 0x80
    40a2:	0112      	lsls	r2, r2, #4
    40a4:	4b0a      	ldr	r3, [pc, #40]	; (40d0 <LoRA_INT_IO_SETTING+0x50>)
    40a6:	615a      	str	r2, [r3, #20]
		port_pin_set_output_level(PIN_PA11, false);
	}
	
}
    40a8:	b005      	add	sp, #20
    40aa:	bd00      	pop	{pc}
		extint_chan_get_config_defaults(&config_extint_chan);
    40ac:	4668      	mov	r0, sp
    40ae:	4b09      	ldr	r3, [pc, #36]	; (40d4 <LoRA_INT_IO_SETTING+0x54>)
    40b0:	4798      	blx	r3
		config_extint_chan.gpio_pin           = PIN_PA11A_EIC_EXTINT11;
    40b2:	230b      	movs	r3, #11
    40b4:	9300      	str	r3, [sp, #0]
		config_extint_chan.gpio_pin_mux       = MUX_PA11A_EIC_EXTINT11;
    40b6:	2300      	movs	r3, #0
    40b8:	9301      	str	r3, [sp, #4]
		config_extint_chan.gpio_pin_pull      = EXTINT_PULL_NONE;
    40ba:	466a      	mov	r2, sp
    40bc:	7213      	strb	r3, [r2, #8]
		config_extint_chan.detection_criteria = EXTINT_DETECT_RISING;
    40be:	3301      	adds	r3, #1
    40c0:	72d3      	strb	r3, [r2, #11]
		extint_chan_set_config(PIN_PA11, &config_extint_chan);
    40c2:	4669      	mov	r1, sp
    40c4:	200b      	movs	r0, #11
    40c6:	4b04      	ldr	r3, [pc, #16]	; (40d8 <LoRA_INT_IO_SETTING+0x58>)
    40c8:	4798      	blx	r3
    40ca:	e7ed      	b.n	40a8 <LoRA_INT_IO_SETTING+0x28>
    40cc:	000054dd 	.word	0x000054dd
    40d0:	41004400 	.word	0x41004400
    40d4:	00003a41 	.word	0x00003a41
    40d8:	00003a55 	.word	0x00003a55

000040dc <Reset_LoRa_Func>:

void Reset_LoRa_Func(volatile LORA_DEFINE_t *tmp_LORA)
{
    40dc:	b5f8      	push	{r3, r4, r5, r6, r7, lr}
    40de:	0004      	movs	r4, r0
	
	if(tmp_LORA == LORA01)
    40e0:	4b3f      	ldr	r3, [pc, #252]	; (41e0 <Reset_LoRa_Func+0x104>)
    40e2:	681b      	ldr	r3, [r3, #0]
    40e4:	4283      	cmp	r3, r0
    40e6:	d004      	beq.n	40f2 <Reset_LoRa_Func+0x16>
		change_and_check(&(tmp_LORA->LoRa_TxRx_Mode_Flag), SetRx);
		change_and_check(&(tmp_LORA->LoRa_Tx_Send_Time_Out_Count), 0);
		change_and_check(&(tmp_LORA->LoRa_IRQ_Flag), 0);
		
	}
	else if(tmp_LORA == LORA02)
    40e8:	4b3e      	ldr	r3, [pc, #248]	; (41e4 <Reset_LoRa_Func+0x108>)
    40ea:	681b      	ldr	r3, [r3, #0]
    40ec:	4298      	cmp	r0, r3
    40ee:	d03b      	beq.n	4168 <Reset_LoRa_Func+0x8c>
		change_and_check(&(tmp_LORA->LoRa_TxRx_Mode_Flag), SetRx);
		change_and_check(&(tmp_LORA->LoRa_Tx_Send_Time_Out_Count), 0);
		change_and_check(&(tmp_LORA->LoRa_IRQ_Flag), 0);
		tmp_LORA->f_count = 0;
	}
}
    40f0:	bdf8      	pop	{r3, r4, r5, r6, r7, pc}
		LORA01_Reset_Func(false);
    40f2:	2000      	movs	r0, #0
    40f4:	4f3c      	ldr	r7, [pc, #240]	; (41e8 <Reset_LoRa_Func+0x10c>)
    40f6:	47b8      	blx	r7
		delay_ms(500);
    40f8:	26fa      	movs	r6, #250	; 0xfa
    40fa:	0076      	lsls	r6, r6, #1
    40fc:	0030      	movs	r0, r6
    40fe:	4d3b      	ldr	r5, [pc, #236]	; (41ec <Reset_LoRa_Func+0x110>)
    4100:	47a8      	blx	r5
		LORA01_Reset_Func(true);
    4102:	2001      	movs	r0, #1
    4104:	47b8      	blx	r7
		delay_ms(500);
    4106:	0030      	movs	r0, r6
    4108:	47a8      	blx	r5
		tmp_LORA->f_count = 0;
    410a:	2200      	movs	r2, #0
    410c:	238f      	movs	r3, #143	; 0x8f
    410e:	009b      	lsls	r3, r3, #2
    4110:	50e2      	str	r2, [r4, r3]

void change_and_check(volatile unsigned char *tmp_LORA, unsigned char tmp_status)
{
	while(*tmp_LORA != tmp_status)
    4112:	4b37      	ldr	r3, [pc, #220]	; (41f0 <Reset_LoRa_Func+0x114>)
    4114:	5ce3      	ldrb	r3, [r4, r3]
    4116:	2b00      	cmp	r3, #0
    4118:	d005      	beq.n	4126 <Reset_LoRa_Func+0x4a>
	{
		*tmp_LORA = tmp_status;
    411a:	4b35      	ldr	r3, [pc, #212]	; (41f0 <Reset_LoRa_Func+0x114>)
    411c:	2100      	movs	r1, #0
    411e:	54e1      	strb	r1, [r4, r3]
	while(*tmp_LORA != tmp_status)
    4120:	5ce2      	ldrb	r2, [r4, r3]
    4122:	2a00      	cmp	r2, #0
    4124:	d1fb      	bne.n	411e <Reset_LoRa_Func+0x42>
    4126:	4b33      	ldr	r3, [pc, #204]	; (41f4 <Reset_LoRa_Func+0x118>)
    4128:	5ce3      	ldrb	r3, [r4, r3]
    412a:	2b03      	cmp	r3, #3
    412c:	d005      	beq.n	413a <Reset_LoRa_Func+0x5e>
		*tmp_LORA = tmp_status;
    412e:	4b31      	ldr	r3, [pc, #196]	; (41f4 <Reset_LoRa_Func+0x118>)
    4130:	2103      	movs	r1, #3
    4132:	54e1      	strb	r1, [r4, r3]
	while(*tmp_LORA != tmp_status)
    4134:	5ce2      	ldrb	r2, [r4, r3]
    4136:	2a03      	cmp	r2, #3
    4138:	d1fb      	bne.n	4132 <Reset_LoRa_Func+0x56>
    413a:	238a      	movs	r3, #138	; 0x8a
    413c:	009b      	lsls	r3, r3, #2
    413e:	5ce3      	ldrb	r3, [r4, r3]
    4140:	2b00      	cmp	r3, #0
    4142:	d006      	beq.n	4152 <Reset_LoRa_Func+0x76>
		*tmp_LORA = tmp_status;
    4144:	238a      	movs	r3, #138	; 0x8a
    4146:	009b      	lsls	r3, r3, #2
    4148:	2100      	movs	r1, #0
    414a:	54e1      	strb	r1, [r4, r3]
	while(*tmp_LORA != tmp_status)
    414c:	5ce2      	ldrb	r2, [r4, r3]
    414e:	2a00      	cmp	r2, #0
    4150:	d1fb      	bne.n	414a <Reset_LoRa_Func+0x6e>
    4152:	4b29      	ldr	r3, [pc, #164]	; (41f8 <Reset_LoRa_Func+0x11c>)
    4154:	5ce3      	ldrb	r3, [r4, r3]
    4156:	2b00      	cmp	r3, #0
    4158:	d0ca      	beq.n	40f0 <Reset_LoRa_Func+0x14>
		*tmp_LORA = tmp_status;
    415a:	4b27      	ldr	r3, [pc, #156]	; (41f8 <Reset_LoRa_Func+0x11c>)
    415c:	2100      	movs	r1, #0
    415e:	54e1      	strb	r1, [r4, r3]
	while(*tmp_LORA != tmp_status)
    4160:	5ce2      	ldrb	r2, [r4, r3]
    4162:	2a00      	cmp	r2, #0
    4164:	d1fb      	bne.n	415e <Reset_LoRa_Func+0x82>
    4166:	e7c3      	b.n	40f0 <Reset_LoRa_Func+0x14>
		LORA02_Reset_Func(false);
    4168:	2000      	movs	r0, #0
    416a:	4f24      	ldr	r7, [pc, #144]	; (41fc <Reset_LoRa_Func+0x120>)
    416c:	47b8      	blx	r7
		delay_ms(500);
    416e:	26fa      	movs	r6, #250	; 0xfa
    4170:	0076      	lsls	r6, r6, #1
    4172:	0030      	movs	r0, r6
    4174:	4d1d      	ldr	r5, [pc, #116]	; (41ec <Reset_LoRa_Func+0x110>)
    4176:	47a8      	blx	r5
		LORA02_Reset_Func(true);
    4178:	2001      	movs	r0, #1
    417a:	47b8      	blx	r7
		delay_ms(500);
    417c:	0030      	movs	r0, r6
    417e:	47a8      	blx	r5
	while(*tmp_LORA != tmp_status)
    4180:	4b1b      	ldr	r3, [pc, #108]	; (41f0 <Reset_LoRa_Func+0x114>)
    4182:	5ce3      	ldrb	r3, [r4, r3]
    4184:	2b00      	cmp	r3, #0
    4186:	d005      	beq.n	4194 <Reset_LoRa_Func+0xb8>
		*tmp_LORA = tmp_status;
    4188:	4b19      	ldr	r3, [pc, #100]	; (41f0 <Reset_LoRa_Func+0x114>)
    418a:	2100      	movs	r1, #0
    418c:	54e1      	strb	r1, [r4, r3]
	while(*tmp_LORA != tmp_status)
    418e:	5ce2      	ldrb	r2, [r4, r3]
    4190:	2a00      	cmp	r2, #0
    4192:	d1fb      	bne.n	418c <Reset_LoRa_Func+0xb0>
    4194:	4b17      	ldr	r3, [pc, #92]	; (41f4 <Reset_LoRa_Func+0x118>)
    4196:	5ce3      	ldrb	r3, [r4, r3]
    4198:	2b03      	cmp	r3, #3
    419a:	d005      	beq.n	41a8 <Reset_LoRa_Func+0xcc>
		*tmp_LORA = tmp_status;
    419c:	4b15      	ldr	r3, [pc, #84]	; (41f4 <Reset_LoRa_Func+0x118>)
    419e:	2103      	movs	r1, #3
    41a0:	54e1      	strb	r1, [r4, r3]
	while(*tmp_LORA != tmp_status)
    41a2:	5ce2      	ldrb	r2, [r4, r3]
    41a4:	2a03      	cmp	r2, #3
    41a6:	d1fb      	bne.n	41a0 <Reset_LoRa_Func+0xc4>
    41a8:	238a      	movs	r3, #138	; 0x8a
    41aa:	009b      	lsls	r3, r3, #2
    41ac:	5ce3      	ldrb	r3, [r4, r3]
    41ae:	2b00      	cmp	r3, #0
    41b0:	d006      	beq.n	41c0 <Reset_LoRa_Func+0xe4>
		*tmp_LORA = tmp_status;
    41b2:	238a      	movs	r3, #138	; 0x8a
    41b4:	009b      	lsls	r3, r3, #2
    41b6:	2100      	movs	r1, #0
    41b8:	54e1      	strb	r1, [r4, r3]
	while(*tmp_LORA != tmp_status)
    41ba:	5ce2      	ldrb	r2, [r4, r3]
    41bc:	2a00      	cmp	r2, #0
    41be:	d1fb      	bne.n	41b8 <Reset_LoRa_Func+0xdc>
    41c0:	4b0d      	ldr	r3, [pc, #52]	; (41f8 <Reset_LoRa_Func+0x11c>)
    41c2:	5ce3      	ldrb	r3, [r4, r3]
    41c4:	2b00      	cmp	r3, #0
    41c6:	d005      	beq.n	41d4 <Reset_LoRa_Func+0xf8>
		*tmp_LORA = tmp_status;
    41c8:	4b0b      	ldr	r3, [pc, #44]	; (41f8 <Reset_LoRa_Func+0x11c>)
    41ca:	2100      	movs	r1, #0
    41cc:	54e1      	strb	r1, [r4, r3]
	while(*tmp_LORA != tmp_status)
    41ce:	5ce2      	ldrb	r2, [r4, r3]
    41d0:	2a00      	cmp	r2, #0
    41d2:	d1fb      	bne.n	41cc <Reset_LoRa_Func+0xf0>
		tmp_LORA->f_count = 0;
    41d4:	2200      	movs	r2, #0
    41d6:	238f      	movs	r3, #143	; 0x8f
    41d8:	009b      	lsls	r3, r3, #2
    41da:	50e2      	str	r2, [r4, r3]
}
    41dc:	e788      	b.n	40f0 <Reset_LoRa_Func+0x14>
    41de:	46c0      	nop			; (mov r8, r8)
    41e0:	200018bc 	.word	0x200018bc
    41e4:	20000c90 	.word	0x20000c90
    41e8:	00001809 	.word	0x00001809
    41ec:	0000543d 	.word	0x0000543d
    41f0:	0000021d 	.word	0x0000021d
    41f4:	0000022a 	.word	0x0000022a
    41f8:	00000223 	.word	0x00000223
    41fc:	00001825 	.word	0x00001825

00004200 <change_and_check>:
	while(*tmp_LORA != tmp_status)
    4200:	7803      	ldrb	r3, [r0, #0]
    4202:	b2db      	uxtb	r3, r3
    4204:	4299      	cmp	r1, r3
    4206:	d004      	beq.n	4212 <change_and_check+0x12>
		*tmp_LORA = tmp_status;
    4208:	7001      	strb	r1, [r0, #0]
	while(*tmp_LORA != tmp_status)
    420a:	7803      	ldrb	r3, [r0, #0]
    420c:	b2db      	uxtb	r3, r3
    420e:	428b      	cmp	r3, r1
    4210:	d1fa      	bne.n	4208 <change_and_check+0x8>
	}
}
    4212:	4770      	bx	lr

00004214 <Setting_Lora_To_Tx_Mode_Func>:

void Setting_Lora_To_Tx_Mode_Func(volatile LORA_DEFINE_t *tmp_LORA)
{	
	tmp_LORA->NowStatus = Write_LoRa_Setting_Index;
    4214:	2204      	movs	r2, #4
    4216:	4b04      	ldr	r3, [pc, #16]	; (4228 <Setting_Lora_To_Tx_Mode_Func+0x14>)
    4218:	54c2      	strb	r2, [r0, r3]
	tmp_LORA->LoRa_TxRx_Mode_Flag = SetTx;
    421a:	3a02      	subs	r2, #2
    421c:	4b03      	ldr	r3, [pc, #12]	; (422c <Setting_Lora_To_Tx_Mode_Func+0x18>)
    421e:	54c2      	strb	r2, [r0, r3]
	tmp_LORA->LoRa_Rx_Flag = LoraRxNoData;
    4220:	2200      	movs	r2, #0
    4222:	3b06      	subs	r3, #6
    4224:	54c2      	strb	r2, [r0, r3]
}
    4226:	4770      	bx	lr
    4228:	0000021d 	.word	0x0000021d
    422c:	0000022a 	.word	0x0000022a

00004230 <WaitRxData_Func>:

void WaitRxData_Func(volatile LORA_DEFINE_t *tmp_LORA)
{
    4230:	b5f8      	push	{r3, r4, r5, r6, r7, lr}
    4232:	0004      	movs	r4, r0
	
	usart_enable(tmp_LORA->DevUART);
    4234:	6986      	ldr	r6, [r0, #24]
	/* Sanity check arguments */
	Assert(module);
	Assert(module->hw);

	/* Get a pointer to the hardware module instance */
	SercomUsart *const usart_hw = &(module->hw->USART);
    4236:	6835      	ldr	r5, [r6, #0]

#if USART_CALLBACK_MODE == true
	/* Enable Global interrupt for module */
	system_interrupt_enable(_sercom_get_interrupt_vector(module->hw));
    4238:	0028      	movs	r0, r5
    423a:	4b31      	ldr	r3, [pc, #196]	; (4300 <WaitRxData_Func+0xd0>)
    423c:	4798      	blx	r3
 * \param[in] vector Interrupt vector to enable
 */
static inline void system_interrupt_enable(
		const enum system_interrupt_vector vector)
{
	NVIC->ISER[0] = (uint32_t)(1 << ((uint32_t)vector & 0x0000001f));
    423e:	231f      	movs	r3, #31
    4240:	4018      	ands	r0, r3
    4242:	3b1e      	subs	r3, #30
    4244:	4083      	lsls	r3, r0
    4246:	4a2f      	ldr	r2, [pc, #188]	; (4304 <WaitRxData_Func+0xd4>)
    4248:	6013      	str	r3, [r2, #0]
	SercomUsart *const usart_hw = &(module->hw->USART);
    424a:	6832      	ldr	r2, [r6, #0]
	return (usart_hw->STATUS.reg & SERCOM_USART_STATUS_SYNCBUSY);
    424c:	8a13      	ldrh	r3, [r2, #16]
	while (usart_is_syncing(module)) {
    424e:	b21b      	sxth	r3, r3
    4250:	2b00      	cmp	r3, #0
    4252:	dbfb      	blt.n	424c <WaitRxData_Func+0x1c>

	/* Wait until synchronization is complete */
	_usart_wait_for_sync(module);

	/* Enable USART module */
	usart_hw->CTRLA.reg |= SERCOM_USART_CTRLA_ENABLE;
    4254:	682b      	ldr	r3, [r5, #0]
    4256:	2202      	movs	r2, #2
    4258:	4313      	orrs	r3, r2
    425a:	602b      	str	r3, [r5, #0]
	tmp_LORA->f_count =  0;
    425c:	2300      	movs	r3, #0
    425e:	228f      	movs	r2, #143	; 0x8f
    4260:	0092      	lsls	r2, r2, #2
    4262:	50a3      	str	r3, [r4, r2]
	tmp_LORA->MyBufferCount = 0;
    4264:	77a3      	strb	r3, [r4, #30]
	while(1)
	{
		usart_read_buffer_job(tmp_LORA->DevUART, (uint8_t *)tmp_LORA->rx_buffer, MAX_RX_BUFFER_LENGTH);
    4266:	0025      	movs	r5, r4
    4268:	351c      	adds	r5, #28
    426a:	4f27      	ldr	r7, [pc, #156]	; (4308 <WaitRxData_Func+0xd8>)
		if(tmp_LORA->f_count < Lora_CMD_Timeout) //尚未Time Out
    426c:	0016      	movs	r6, r2
		usart_read_buffer_job(tmp_LORA->DevUART, (uint8_t *)tmp_LORA->rx_buffer, MAX_RX_BUFFER_LENGTH);
    426e:	69a0      	ldr	r0, [r4, #24]
    4270:	2201      	movs	r2, #1
    4272:	0029      	movs	r1, r5
    4274:	47b8      	blx	r7
		if(tmp_LORA->f_count < Lora_CMD_Timeout) //尚未Time Out
    4276:	59a2      	ldr	r2, [r4, r6]
    4278:	4b24      	ldr	r3, [pc, #144]	; (430c <WaitRxData_Func+0xdc>)
    427a:	429a      	cmp	r2, r3
    427c:	d80f      	bhi.n	429e <WaitRxData_Func+0x6e>
		{
			if(tmp_LORA->MyBufferCount == tmp_LORA->UserRxCountMax) //若資料長度如預期長度
    427e:	7fa3      	ldrb	r3, [r4, #30]
    4280:	7f62      	ldrb	r2, [r4, #29]
    4282:	b2db      	uxtb	r3, r3
    4284:	4293      	cmp	r3, r2
    4286:	d1f2      	bne.n	426e <WaitRxData_Func+0x3e>
			{
				tmp_LORA->Lora_TimeOut_Count = 0;						//清除TimeOutCount
    4288:	2300      	movs	r3, #0
    428a:	228d      	movs	r2, #141	; 0x8d
    428c:	0092      	lsls	r2, r2, #2
    428e:	50a3      	str	r3, [r4, r2]
				tmp_LORA->f_count = 0;
    4290:	3208      	adds	r2, #8
    4292:	50a3      	str	r3, [r4, r2]
				tmp_LORA->NowStatus = CheckRxCRC;						//進入CRC檢查
    4294:	3ad5      	subs	r2, #213	; 0xd5
    4296:	3aff      	subs	r2, #255	; 0xff
    4298:	4b1d      	ldr	r3, [pc, #116]	; (4310 <WaitRxData_Func+0xe0>)
    429a:	54e2      	strb	r2, [r4, r3]
				break;
    429c:	e016      	b.n	42cc <WaitRxData_Func+0x9c>
			}
		}
		else  //Time Out
		{
			tmp_LORA->Lora_TimeOut_Count = ++tmp_LORA->Lora_TimeOut_Count;
    429e:	238d      	movs	r3, #141	; 0x8d
    42a0:	009b      	lsls	r3, r3, #2
    42a2:	58e2      	ldr	r2, [r4, r3]
    42a4:	3201      	adds	r2, #1
    42a6:	50e2      	str	r2, [r4, r3]
    42a8:	50e2      	str	r2, [r4, r3]
			if(tmp_LORA->Lora_TimeOut_Count < 3)	//若Time Out 3次以下
    42aa:	58e3      	ldr	r3, [r4, r3]
    42ac:	2b02      	cmp	r3, #2
    42ae:	d823      	bhi.n	42f8 <WaitRxData_Func+0xc8>
			{
				tmp_LORA->NowStatus = tmp_LORA->LastStatus;
    42b0:	4b18      	ldr	r3, [pc, #96]	; (4314 <WaitRxData_Func+0xe4>)
    42b2:	5ce3      	ldrb	r3, [r4, r3]
    42b4:	b2db      	uxtb	r3, r3
    42b6:	4a16      	ldr	r2, [pc, #88]	; (4310 <WaitRxData_Func+0xe0>)
    42b8:	54a3      	strb	r3, [r4, r2]
				uart_str("(T)\0");
    42ba:	4817      	ldr	r0, [pc, #92]	; (4318 <WaitRxData_Func+0xe8>)
    42bc:	4b17      	ldr	r3, [pc, #92]	; (431c <WaitRxData_Func+0xec>)
    42be:	4798      	blx	r3
			}
			else //Time Out超過3次，重新開啟LoRa
			{
				Reset_LoRa_Func(tmp_LORA);
			}
			Print_Who_Lora(tmp_LORA);
    42c0:	0020      	movs	r0, r4
    42c2:	4b17      	ldr	r3, [pc, #92]	; (4320 <WaitRxData_Func+0xf0>)
    42c4:	4798      	blx	r3
			Print_Time_Out_Msg(tmp_LORA);
    42c6:	0020      	movs	r0, r4
    42c8:	4b16      	ldr	r3, [pc, #88]	; (4324 <WaitRxData_Func+0xf4>)
    42ca:	4798      	blx	r3
			break;
		}
	}
	usart_disable(tmp_LORA->DevUART);
    42cc:	69a5      	ldr	r5, [r4, #24]
	/* Sanity check arguments */
	Assert(module);
	Assert(module->hw);

	/* Get a pointer to the hardware module instance */
	SercomUsart *const usart_hw = &(module->hw->USART);
    42ce:	682c      	ldr	r4, [r5, #0]

#if USART_CALLBACK_MODE == true
	/* Disable Global interrupt for module */
	system_interrupt_disable(_sercom_get_interrupt_vector(module->hw));
    42d0:	0020      	movs	r0, r4
    42d2:	4b0b      	ldr	r3, [pc, #44]	; (4300 <WaitRxData_Func+0xd0>)
    42d4:	4798      	blx	r3
 * \param[in] vector  Interrupt vector to disable
 */
static inline void system_interrupt_disable(
		const enum system_interrupt_vector vector)
{
	NVIC->ICER[0] = (uint32_t)(1 << ((uint32_t)vector & 0x0000001f));
    42d6:	231f      	movs	r3, #31
    42d8:	4018      	ands	r0, r3
    42da:	3b1e      	subs	r3, #30
    42dc:	4083      	lsls	r3, r0
    42de:	2280      	movs	r2, #128	; 0x80
    42e0:	4908      	ldr	r1, [pc, #32]	; (4304 <WaitRxData_Func+0xd4>)
    42e2:	508b      	str	r3, [r1, r2]
	SercomUsart *const usart_hw = &(module->hw->USART);
    42e4:	682a      	ldr	r2, [r5, #0]
	return (usart_hw->STATUS.reg & SERCOM_USART_STATUS_SYNCBUSY);
    42e6:	8a13      	ldrh	r3, [r2, #16]
	while (usart_is_syncing(module)) {
    42e8:	b21b      	sxth	r3, r3
    42ea:	2b00      	cmp	r3, #0
    42ec:	dbfb      	blt.n	42e6 <WaitRxData_Func+0xb6>

	/* Wait until synchronization is complete */
	_usart_wait_for_sync(module);

	/* Disable USART module */
	usart_hw->CTRLA.reg &= ~SERCOM_USART_CTRLA_ENABLE;
    42ee:	6823      	ldr	r3, [r4, #0]
    42f0:	2202      	movs	r2, #2
    42f2:	4393      	bics	r3, r2
    42f4:	6023      	str	r3, [r4, #0]
}
    42f6:	bdf8      	pop	{r3, r4, r5, r6, r7, pc}
				Reset_LoRa_Func(tmp_LORA);
    42f8:	0020      	movs	r0, r4
    42fa:	4b0b      	ldr	r3, [pc, #44]	; (4328 <WaitRxData_Func+0xf8>)
    42fc:	4798      	blx	r3
    42fe:	e7df      	b.n	42c0 <WaitRxData_Func+0x90>
    4300:	0000584d 	.word	0x0000584d
    4304:	e000e100 	.word	0xe000e100
    4308:	00005b89 	.word	0x00005b89
    430c:	000007cf 	.word	0x000007cf
    4310:	0000021d 	.word	0x0000021d
    4314:	0000021e 	.word	0x0000021e
    4318:	00007148 	.word	0x00007148
    431c:	00002ffd 	.word	0x00002ffd
    4320:	00004b3d 	.word	0x00004b3d
    4324:	00004be1 	.word	0x00004be1
    4328:	000040dd 	.word	0x000040dd

0000432c <UartToLora>:
{
	return (tmpA ^ tmpB);
}

void UartToLora(volatile LORA_DEFINE_t *tmp_LORA, unsigned char Myindex)
{
    432c:	b5f0      	push	{r4, r5, r6, r7, lr}
    432e:	46ce      	mov	lr, r9
    4330:	4647      	mov	r7, r8
    4332:	b580      	push	{r7, lr}
    4334:	b083      	sub	sp, #12
    4336:	0005      	movs	r5, r0
    4338:	4689      	mov	r9, r1
	volatile unsigned char XORtmp;
	unsigned char i;
	volatile unsigned char j;
	//計算要傳給Lora模組的CRC
	XORtmp = 0x00;
    433a:	2200      	movs	r2, #0
    433c:	466b      	mov	r3, sp
    433e:	71da      	strb	r2, [r3, #7]
	for(i = 0; i < tmp_LORA->MyLoRaTmpCount[Myindex]; i++)
    4340:	000e      	movs	r6, r1
    4342:	1843      	adds	r3, r0, r1
    4344:	335d      	adds	r3, #93	; 0x5d
    4346:	781b      	ldrb	r3, [r3, #0]
    4348:	2b00      	cmp	r3, #0
    434a:	d015      	beq.n	4378 <UartToLora+0x4c>
    434c:	2300      	movs	r3, #0
	{
		XORtmp = XORtmp ^ tmp_LORA->MyLoRaTmp[Myindex][i];
    434e:	0048      	lsls	r0, r1, #1
    4350:	1840      	adds	r0, r0, r1
    4352:	00c2      	lsls	r2, r0, #3
    4354:	1880      	adds	r0, r0, r2
    4356:	1828      	adds	r0, r5, r0
    4358:	466a      	mov	r2, sp
    435a:	1dd1      	adds	r1, r2, #7
	for(i = 0; i < tmp_LORA->MyLoRaTmpCount[Myindex]; i++)
    435c:	19ac      	adds	r4, r5, r6
    435e:	345d      	adds	r4, #93	; 0x5d
		XORtmp = XORtmp ^ tmp_LORA->MyLoRaTmp[Myindex][i];
    4360:	18c2      	adds	r2, r0, r3
    4362:	326d      	adds	r2, #109	; 0x6d
    4364:	7817      	ldrb	r7, [r2, #0]
    4366:	780a      	ldrb	r2, [r1, #0]
    4368:	407a      	eors	r2, r7
    436a:	700a      	strb	r2, [r1, #0]
	for(i = 0; i < tmp_LORA->MyLoRaTmpCount[Myindex]; i++)
    436c:	3301      	adds	r3, #1
    436e:	b2db      	uxtb	r3, r3
    4370:	7822      	ldrb	r2, [r4, #0]
    4372:	b2d2      	uxtb	r2, r2
    4374:	429a      	cmp	r2, r3
    4376:	d8f3      	bhi.n	4360 <UartToLora+0x34>
	}
	
	//開始將資料傳給Lora模組
	usart_enable(tmp_LORA->DevUART);
    4378:	69af      	ldr	r7, [r5, #24]
	SercomUsart *const usart_hw = &(module->hw->USART);
    437a:	683c      	ldr	r4, [r7, #0]
	system_interrupt_enable(_sercom_get_interrupt_vector(module->hw));
    437c:	0020      	movs	r0, r4
    437e:	4b40      	ldr	r3, [pc, #256]	; (4480 <UartToLora+0x154>)
    4380:	4798      	blx	r3
	NVIC->ISER[0] = (uint32_t)(1 << ((uint32_t)vector & 0x0000001f));
    4382:	231f      	movs	r3, #31
    4384:	4018      	ands	r0, r3
    4386:	3b1e      	subs	r3, #30
    4388:	4083      	lsls	r3, r0
    438a:	4a3e      	ldr	r2, [pc, #248]	; (4484 <UartToLora+0x158>)
    438c:	6013      	str	r3, [r2, #0]
	SercomUsart *const usart_hw = &(module->hw->USART);
    438e:	683a      	ldr	r2, [r7, #0]
	return (usart_hw->STATUS.reg & SERCOM_USART_STATUS_SYNCBUSY);
    4390:	8a13      	ldrh	r3, [r2, #16]
	while (usart_is_syncing(module)) {
    4392:	b21b      	sxth	r3, r3
    4394:	2b00      	cmp	r3, #0
    4396:	dbfb      	blt.n	4390 <UartToLora+0x64>
	usart_hw->CTRLA.reg |= SERCOM_USART_CTRLA_ENABLE;
    4398:	6823      	ldr	r3, [r4, #0]
    439a:	2202      	movs	r2, #2
    439c:	4313      	orrs	r3, r2
    439e:	6023      	str	r3, [r4, #0]
	for(i = 0; i < tmp_LORA->MyLoRaTmpCount[Myindex]; i++)
    43a0:	464b      	mov	r3, r9
    43a2:	18eb      	adds	r3, r5, r3
    43a4:	335d      	adds	r3, #93	; 0x5d
    43a6:	781b      	ldrb	r3, [r3, #0]
    43a8:	2b00      	cmp	r3, #0
    43aa:	d016      	beq.n	43da <UartToLora+0xae>
    43ac:	2400      	movs	r4, #0
	{
		uTXByte(tmp_LORA->DevUART, tmp_LORA->MyLoRaTmp[Myindex][i]);
    43ae:	0073      	lsls	r3, r6, #1
    43b0:	199b      	adds	r3, r3, r6
    43b2:	00da      	lsls	r2, r3, #3
    43b4:	189b      	adds	r3, r3, r2
    43b6:	4698      	mov	r8, r3
    43b8:	44a8      	add	r8, r5
    43ba:	4f33      	ldr	r7, [pc, #204]	; (4488 <UartToLora+0x15c>)
    43bc:	69a8      	ldr	r0, [r5, #24]
    43be:	4643      	mov	r3, r8
    43c0:	191b      	adds	r3, r3, r4
    43c2:	336d      	adds	r3, #109	; 0x6d
    43c4:	7819      	ldrb	r1, [r3, #0]
    43c6:	b2c9      	uxtb	r1, r1
    43c8:	47b8      	blx	r7
	for(i = 0; i < tmp_LORA->MyLoRaTmpCount[Myindex]; i++)
    43ca:	3401      	adds	r4, #1
    43cc:	b2e4      	uxtb	r4, r4
    43ce:	19ab      	adds	r3, r5, r6
    43d0:	335d      	adds	r3, #93	; 0x5d
    43d2:	781b      	ldrb	r3, [r3, #0]
    43d4:	b2db      	uxtb	r3, r3
    43d6:	42a3      	cmp	r3, r4
    43d8:	d8f0      	bhi.n	43bc <UartToLora+0x90>
	}
	//傳送資料的CRC
	uTXByte(tmp_LORA->DevUART, XORtmp);
    43da:	69a8      	ldr	r0, [r5, #24]
    43dc:	466b      	mov	r3, sp
    43de:	79d9      	ldrb	r1, [r3, #7]
    43e0:	b2c9      	uxtb	r1, r1
    43e2:	4b29      	ldr	r3, [pc, #164]	; (4488 <UartToLora+0x15c>)
    43e4:	4798      	blx	r3
	usart_disable(tmp_LORA->DevUART);
    43e6:	69ab      	ldr	r3, [r5, #24]
    43e8:	4698      	mov	r8, r3
	SercomUsart *const usart_hw = &(module->hw->USART);
    43ea:	681c      	ldr	r4, [r3, #0]
	system_interrupt_disable(_sercom_get_interrupt_vector(module->hw));
    43ec:	0020      	movs	r0, r4
    43ee:	4b24      	ldr	r3, [pc, #144]	; (4480 <UartToLora+0x154>)
    43f0:	4798      	blx	r3
	NVIC->ICER[0] = (uint32_t)(1 << ((uint32_t)vector & 0x0000001f));
    43f2:	231f      	movs	r3, #31
    43f4:	4018      	ands	r0, r3
    43f6:	3b1e      	subs	r3, #30
    43f8:	4083      	lsls	r3, r0
    43fa:	2280      	movs	r2, #128	; 0x80
    43fc:	4921      	ldr	r1, [pc, #132]	; (4484 <UartToLora+0x158>)
    43fe:	508b      	str	r3, [r1, r2]
	SercomUsart *const usart_hw = &(module->hw->USART);
    4400:	4643      	mov	r3, r8
    4402:	681a      	ldr	r2, [r3, #0]
	return (usart_hw->STATUS.reg & SERCOM_USART_STATUS_SYNCBUSY);
    4404:	8a13      	ldrh	r3, [r2, #16]
	while (usart_is_syncing(module)) {
    4406:	b21b      	sxth	r3, r3
    4408:	2b00      	cmp	r3, #0
    440a:	dbfb      	blt.n	4404 <UartToLora+0xd8>
	usart_hw->CTRLA.reg &= ~SERCOM_USART_CTRLA_ENABLE;
    440c:	6823      	ldr	r3, [r4, #0]
    440e:	2202      	movs	r2, #2
    4410:	4393      	bics	r3, r2
    4412:	6023      	str	r3, [r4, #0]
	
		
	//=============================
	//	Debug Mode
	//=============================
	if(tmp_LORA->Lora_Debug_Flag == 1)
    4414:	2388      	movs	r3, #136	; 0x88
    4416:	009b      	lsls	r3, r3, #2
    4418:	5ceb      	ldrb	r3, [r5, r3]
    441a:	2b01      	cmp	r3, #1
    441c:	d004      	beq.n	4428 <UartToLora+0xfc>
			uTXByte(Debug_COM, ' ');
		}
		uart_send_ascii_byte(Debug_COM, XORtmp);
		uTXByte(Debug_COM, 0x0d);
	}
}
    441e:	b003      	add	sp, #12
    4420:	bc0c      	pop	{r2, r3}
    4422:	4690      	mov	r8, r2
    4424:	4699      	mov	r9, r3
    4426:	bdf0      	pop	{r4, r5, r6, r7, pc}
		for(i = 0; i < tmp_LORA->MyLoRaTmpCount[Myindex]; i++)
    4428:	464b      	mov	r3, r9
    442a:	18ef      	adds	r7, r5, r3
    442c:	375d      	adds	r7, #93	; 0x5d
    442e:	783b      	ldrb	r3, [r7, #0]
    4430:	2b00      	cmp	r3, #0
    4432:	d018      	beq.n	4466 <UartToLora+0x13a>
    4434:	2400      	movs	r4, #0
			uart_send_ascii_byte(Debug_COM, tmp_LORA->MyLoRaTmp[Myindex][i]);
    4436:	0073      	lsls	r3, r6, #1
    4438:	199b      	adds	r3, r3, r6
    443a:	00da      	lsls	r2, r3, #3
    443c:	189b      	adds	r3, r3, r2
    443e:	18ef      	adds	r7, r5, r3
    4440:	193b      	adds	r3, r7, r4
    4442:	336d      	adds	r3, #109	; 0x6d
    4444:	7819      	ldrb	r1, [r3, #0]
    4446:	b2c9      	uxtb	r1, r1
    4448:	4810      	ldr	r0, [pc, #64]	; (448c <UartToLora+0x160>)
    444a:	4b11      	ldr	r3, [pc, #68]	; (4490 <UartToLora+0x164>)
    444c:	4798      	blx	r3
			uTXByte(Debug_COM, ' ');
    444e:	2120      	movs	r1, #32
    4450:	480e      	ldr	r0, [pc, #56]	; (448c <UartToLora+0x160>)
    4452:	4b0d      	ldr	r3, [pc, #52]	; (4488 <UartToLora+0x15c>)
    4454:	4798      	blx	r3
		for(i = 0; i < tmp_LORA->MyLoRaTmpCount[Myindex]; i++)
    4456:	3401      	adds	r4, #1
    4458:	b2e4      	uxtb	r4, r4
    445a:	19ab      	adds	r3, r5, r6
    445c:	335d      	adds	r3, #93	; 0x5d
    445e:	781b      	ldrb	r3, [r3, #0]
    4460:	b2db      	uxtb	r3, r3
    4462:	42a3      	cmp	r3, r4
    4464:	d8ec      	bhi.n	4440 <UartToLora+0x114>
		uart_send_ascii_byte(Debug_COM, XORtmp);
    4466:	466b      	mov	r3, sp
    4468:	79d9      	ldrb	r1, [r3, #7]
    446a:	b2c9      	uxtb	r1, r1
    446c:	4c07      	ldr	r4, [pc, #28]	; (448c <UartToLora+0x160>)
    446e:	0020      	movs	r0, r4
    4470:	4b07      	ldr	r3, [pc, #28]	; (4490 <UartToLora+0x164>)
    4472:	4798      	blx	r3
		uTXByte(Debug_COM, 0x0d);
    4474:	210d      	movs	r1, #13
    4476:	0020      	movs	r0, r4
    4478:	4b03      	ldr	r3, [pc, #12]	; (4488 <UartToLora+0x15c>)
    447a:	4798      	blx	r3
}
    447c:	e7cf      	b.n	441e <UartToLora+0xf2>
    447e:	46c0      	nop			; (mov r8, r8)
    4480:	0000584d 	.word	0x0000584d
    4484:	e000e100 	.word	0xe000e100
    4488:	00002725 	.word	0x00002725
    448c:	20000270 	.word	0x20000270
    4490:	00002745 	.word	0x00002745

00004494 <Write_LoRa_TxBuffer>:

//寫入資料
void Write_LoRa_TxBuffer(volatile LORA_DEFINE_t *tmp_LORA)
{
    4494:	b510      	push	{r4, lr}
    4496:	0004      	movs	r4, r0
	tmp_LORA->MyBufferCount = 0;
    4498:	2300      	movs	r3, #0
    449a:	7783      	strb	r3, [r0, #30]
	tmp_LORA->UserRxCountMax = 5;
    449c:	3305      	adds	r3, #5
    449e:	7743      	strb	r3, [r0, #29]
	UartToLora(tmp_LORA, Write_LoRa_TxBuffer_Index);
    44a0:	2105      	movs	r1, #5
    44a2:	4b03      	ldr	r3, [pc, #12]	; (44b0 <Write_LoRa_TxBuffer+0x1c>)
    44a4:	4798      	blx	r3
	WaitRxData_Func(tmp_LORA);
    44a6:	0020      	movs	r0, r4
    44a8:	4b02      	ldr	r3, [pc, #8]	; (44b4 <Write_LoRa_TxBuffer+0x20>)
    44aa:	4798      	blx	r3
}
    44ac:	bd10      	pop	{r4, pc}
    44ae:	46c0      	nop			; (mov r8, r8)
    44b0:	0000432d 	.word	0x0000432d
    44b4:	00004231 	.word	0x00004231

000044b8 <Read_LoRa_RxBuffer>:


//讀取資料
void Read_LoRa_RxBuffer(volatile LORA_DEFINE_t *tmp_LORA)
{
    44b8:	b510      	push	{r4, lr}
    44ba:	0004      	movs	r4, r0
	tmp_LORA->MyBufferCount = 0;
    44bc:	2300      	movs	r3, #0
    44be:	7783      	strb	r3, [r0, #30]
	tmp_LORA->UserRxCountMax = 30;
    44c0:	331e      	adds	r3, #30
    44c2:	7743      	strb	r3, [r0, #29]
	UartToLora(tmp_LORA, Read_LoRa_RxBuffer_Index);
    44c4:	2106      	movs	r1, #6
    44c6:	4b03      	ldr	r3, [pc, #12]	; (44d4 <Read_LoRa_RxBuffer+0x1c>)
    44c8:	4798      	blx	r3
	WaitRxData_Func(tmp_LORA);
    44ca:	0020      	movs	r0, r4
    44cc:	4b02      	ldr	r3, [pc, #8]	; (44d8 <Read_LoRa_RxBuffer+0x20>)
    44ce:	4798      	blx	r3
}
    44d0:	bd10      	pop	{r4, pc}
    44d2:	46c0      	nop			; (mov r8, r8)
    44d4:	0000432d 	.word	0x0000432d
    44d8:	00004231 	.word	0x00004231

000044dc <Write_LoRa_Mode_FQ>:
	WaitRxData_Func(tmp_LORA);
}

//設定模式與頻率
void Write_LoRa_Mode_FQ(volatile LORA_DEFINE_t *tmp_LORA, unsigned char tmpMode)
{
    44dc:	b510      	push	{r4, lr}
    44de:	0004      	movs	r4, r0
	tmp_LORA->MyBufferCount = 0;
    44e0:	2300      	movs	r3, #0
    44e2:	7783      	strb	r3, [r0, #30]
	tmp_LORA->UserRxCountMax = 5;
    44e4:	3305      	adds	r3, #5
    44e6:	7743      	strb	r3, [r0, #29]
	tmp_LORA->MyLoRaTmp[Write_LoRa_Mode_FQ_Index][3] = tmpMode;
    44e8:	33bc      	adds	r3, #188	; 0xbc
    44ea:	54c1      	strb	r1, [r0, r3]
	UartToLora(tmp_LORA, Write_LoRa_Mode_FQ_Index);
    44ec:	2103      	movs	r1, #3
    44ee:	4b03      	ldr	r3, [pc, #12]	; (44fc <Write_LoRa_Mode_FQ+0x20>)
    44f0:	4798      	blx	r3
	WaitRxData_Func(tmp_LORA);
    44f2:	0020      	movs	r0, r4
    44f4:	4b02      	ldr	r3, [pc, #8]	; (4500 <Write_LoRa_Mode_FQ+0x24>)
    44f6:	4798      	blx	r3
}
    44f8:	bd10      	pop	{r4, pc}
    44fa:	46c0      	nop			; (mov r8, r8)
    44fc:	0000432d 	.word	0x0000432d
    4500:	00004231 	.word	0x00004231

00004504 <Write_LoRa_Setting>:

//設定Lora參數
void Write_LoRa_Setting(volatile LORA_DEFINE_t *tmp_LORA)
{
    4504:	b510      	push	{r4, lr}
    4506:	0004      	movs	r4, r0
	tmp_LORA->MyBufferCount = 0;
    4508:	2300      	movs	r3, #0
    450a:	7783      	strb	r3, [r0, #30]
	tmp_LORA->UserRxCountMax = 5;
    450c:	3305      	adds	r3, #5
    450e:	7743      	strb	r3, [r0, #29]
	UartToLora(tmp_LORA, Write_LoRa_Setting_Index);
    4510:	2104      	movs	r1, #4
    4512:	4b03      	ldr	r3, [pc, #12]	; (4520 <Write_LoRa_Setting+0x1c>)
    4514:	4798      	blx	r3
	WaitRxData_Func(tmp_LORA);
    4516:	0020      	movs	r0, r4
    4518:	4b02      	ldr	r3, [pc, #8]	; (4524 <Write_LoRa_Setting+0x20>)
    451a:	4798      	blx	r3
}
    451c:	bd10      	pop	{r4, pc}
    451e:	46c0      	nop			; (mov r8, r8)
    4520:	0000432d 	.word	0x0000432d
    4524:	00004231 	.word	0x00004231

00004528 <Read_LoRa_ID>:
	WaitRxData_Func(tmp_LORA);
}

//讀取FW版本、Chip ID
void Read_LoRa_ID(volatile LORA_DEFINE_t *tmp_LORA)
{
    4528:	b510      	push	{r4, lr}
    452a:	0004      	movs	r4, r0
	tmp_LORA->MyBufferCount = 0;
    452c:	2300      	movs	r3, #0
    452e:	7783      	strb	r3, [r0, #30]
	tmp_LORA->UserRxCountMax = 10;
    4530:	330a      	adds	r3, #10
    4532:	7743      	strb	r3, [r0, #29]
	//tmp_LORA->UserRxCountMax = 9;
	UartToLora(tmp_LORA, Read_LoRa_ID_Index);
    4534:	2100      	movs	r1, #0
    4536:	4b03      	ldr	r3, [pc, #12]	; (4544 <Read_LoRa_ID+0x1c>)
    4538:	4798      	blx	r3
	WaitRxData_Func(tmp_LORA);
    453a:	0020      	movs	r0, r4
    453c:	4b02      	ldr	r3, [pc, #8]	; (4548 <Read_LoRa_ID+0x20>)
    453e:	4798      	blx	r3
}
    4540:	bd10      	pop	{r4, pc}
    4542:	46c0      	nop			; (mov r8, r8)
    4544:	0000432d 	.word	0x0000432d
    4548:	00004231 	.word	0x00004231

0000454c <Reset_LoRa>:



//重置、初始化
void Reset_LoRa(volatile LORA_DEFINE_t *tmp_LORA)
{
    454c:	b510      	push	{r4, lr}
    454e:	0004      	movs	r4, r0
	tmp_LORA->MyBufferCount = 0;
    4550:	2300      	movs	r3, #0
    4552:	7783      	strb	r3, [r0, #30]
	tmp_LORA->UserRxCountMax = 5;
    4554:	3305      	adds	r3, #5
    4556:	7743      	strb	r3, [r0, #29]
	UartToLora(tmp_LORA, Reset_LoRa_Index);
    4558:	2101      	movs	r1, #1
    455a:	4b03      	ldr	r3, [pc, #12]	; (4568 <Reset_LoRa+0x1c>)
    455c:	4798      	blx	r3
	WaitRxData_Func(tmp_LORA);
    455e:	0020      	movs	r0, r4
    4560:	4b02      	ldr	r3, [pc, #8]	; (456c <Reset_LoRa+0x20>)
    4562:	4798      	blx	r3
}
    4564:	bd10      	pop	{r4, pc}
    4566:	46c0      	nop			; (mov r8, r8)
    4568:	0000432d 	.word	0x0000432d
    456c:	00004231 	.word	0x00004231

00004570 <Catch_LoRa_ID>:




void Catch_LoRa_ID(volatile LORA_DEFINE_t *tmp_LORA)
{
    4570:	b530      	push	{r4, r5, lr}
	tmp_LORA->MyLoRaFW = tmp_LORA->MyBuffer[4];
    4572:	2323      	movs	r3, #35	; 0x23
    4574:	5cc3      	ldrb	r3, [r0, r3]
    4576:	b2db      	uxtb	r3, r3
    4578:	7003      	strb	r3, [r0, #0]
	
	tmp_LORA->MyLoRaID[0] = tmp_LORA->MyBuffer[5];
    457a:	2524      	movs	r5, #36	; 0x24
    457c:	5d43      	ldrb	r3, [r0, r5]
    457e:	b2db      	uxtb	r3, r3
    4580:	7043      	strb	r3, [r0, #1]
	tmp_LORA->MyLoRaID[1] = tmp_LORA->MyBuffer[6];
    4582:	2425      	movs	r4, #37	; 0x25
    4584:	5d03      	ldrb	r3, [r0, r4]
    4586:	b2db      	uxtb	r3, r3
    4588:	7083      	strb	r3, [r0, #2]
	tmp_LORA->MyLoRaID[2] = tmp_LORA->MyBuffer[7];
    458a:	2126      	movs	r1, #38	; 0x26
    458c:	5c43      	ldrb	r3, [r0, r1]
    458e:	b2db      	uxtb	r3, r3
    4590:	70c3      	strb	r3, [r0, #3]
	tmp_LORA->MyLoRaID[3] = tmp_LORA->MyBuffer[8];
    4592:	2227      	movs	r2, #39	; 0x27
    4594:	5c83      	ldrb	r3, [r0, r2]
    4596:	b2db      	uxtb	r3, r3
    4598:	7103      	strb	r3, [r0, #4]

	tmp_LORA->LoRaID[0] = tmp_LORA->MyBuffer[5];
    459a:	5d43      	ldrb	r3, [r0, r5]
    459c:	b2db      	uxtb	r3, r3
    459e:	7243      	strb	r3, [r0, #9]
	tmp_LORA->LoRaID[1] = tmp_LORA->MyBuffer[6];
    45a0:	5d03      	ldrb	r3, [r0, r4]
    45a2:	b2db      	uxtb	r3, r3
    45a4:	7283      	strb	r3, [r0, #10]
	tmp_LORA->LoRaID[2] = tmp_LORA->MyBuffer[7];
    45a6:	5c43      	ldrb	r3, [r0, r1]
    45a8:	b2db      	uxtb	r3, r3
    45aa:	72c3      	strb	r3, [r0, #11]
	tmp_LORA->LoRaID[3] = tmp_LORA->MyBuffer[8];
    45ac:	5c83      	ldrb	r3, [r0, r2]
    45ae:	b2db      	uxtb	r3, r3
    45b0:	7303      	strb	r3, [r0, #12]
	
	if(	tmp_LORA->UserLoRaID[0] == 0xFF &&
    45b2:	7943      	ldrb	r3, [r0, #5]
    45b4:	b2db      	uxtb	r3, r3
    45b6:	2bff      	cmp	r3, #255	; 0xff
    45b8:	d011      	beq.n	45de <Catch_LoRa_ID+0x6e>
		tmp_LORA->UserLoRaID[3] == 0xFF)
	{
		return;
	}
	
	if(	tmp_LORA->UserLoRaID[0] != tmp_LORA->MyLoRaID[0] || 
    45ba:	7943      	ldrb	r3, [r0, #5]
    45bc:	7842      	ldrb	r2, [r0, #1]
    45be:	b2db      	uxtb	r3, r3
    45c0:	4293      	cmp	r3, r2
    45c2:	d019      	beq.n	45f8 <Catch_LoRa_ID+0x88>
		tmp_LORA->UserLoRaID[1] != tmp_LORA->MyLoRaID[1] ||
		tmp_LORA->UserLoRaID[2] != tmp_LORA->MyLoRaID[2] ||
		tmp_LORA->UserLoRaID[3] != tmp_LORA->MyLoRaID[3])
	{
		tmp_LORA->MyLoRaID[0] = tmp_LORA->UserLoRaID[0];
    45c4:	7943      	ldrb	r3, [r0, #5]
    45c6:	b2db      	uxtb	r3, r3
    45c8:	7043      	strb	r3, [r0, #1]
		tmp_LORA->MyLoRaID[1] = tmp_LORA->UserLoRaID[1];
    45ca:	7983      	ldrb	r3, [r0, #6]
    45cc:	b2db      	uxtb	r3, r3
    45ce:	7083      	strb	r3, [r0, #2]
		tmp_LORA->MyLoRaID[2] = tmp_LORA->UserLoRaID[2];
    45d0:	79c3      	ldrb	r3, [r0, #7]
    45d2:	b2db      	uxtb	r3, r3
    45d4:	70c3      	strb	r3, [r0, #3]
		tmp_LORA->MyLoRaID[3] = tmp_LORA->UserLoRaID[3];
    45d6:	7a03      	ldrb	r3, [r0, #8]
    45d8:	b2db      	uxtb	r3, r3
    45da:	7103      	strb	r3, [r0, #4]
	}


}
    45dc:	bd30      	pop	{r4, r5, pc}
		tmp_LORA->UserLoRaID[1] == 0xFF &&
    45de:	7983      	ldrb	r3, [r0, #6]
    45e0:	b2db      	uxtb	r3, r3
	if(	tmp_LORA->UserLoRaID[0] == 0xFF &&
    45e2:	2bff      	cmp	r3, #255	; 0xff
    45e4:	d1e9      	bne.n	45ba <Catch_LoRa_ID+0x4a>
		tmp_LORA->UserLoRaID[2] == 0xFF &&
    45e6:	79c3      	ldrb	r3, [r0, #7]
    45e8:	b2db      	uxtb	r3, r3
		tmp_LORA->UserLoRaID[1] == 0xFF &&
    45ea:	2bff      	cmp	r3, #255	; 0xff
    45ec:	d1e5      	bne.n	45ba <Catch_LoRa_ID+0x4a>
		tmp_LORA->UserLoRaID[3] == 0xFF)
    45ee:	7a03      	ldrb	r3, [r0, #8]
    45f0:	b2db      	uxtb	r3, r3
		tmp_LORA->UserLoRaID[2] == 0xFF &&
    45f2:	2bff      	cmp	r3, #255	; 0xff
    45f4:	d1e1      	bne.n	45ba <Catch_LoRa_ID+0x4a>
    45f6:	e7f1      	b.n	45dc <Catch_LoRa_ID+0x6c>
		tmp_LORA->UserLoRaID[1] != tmp_LORA->MyLoRaID[1] ||
    45f8:	7983      	ldrb	r3, [r0, #6]
    45fa:	7882      	ldrb	r2, [r0, #2]
    45fc:	b2db      	uxtb	r3, r3
	if(	tmp_LORA->UserLoRaID[0] != tmp_LORA->MyLoRaID[0] || 
    45fe:	4293      	cmp	r3, r2
    4600:	d1e0      	bne.n	45c4 <Catch_LoRa_ID+0x54>
		tmp_LORA->UserLoRaID[2] != tmp_LORA->MyLoRaID[2] ||
    4602:	79c3      	ldrb	r3, [r0, #7]
    4604:	78c2      	ldrb	r2, [r0, #3]
    4606:	b2db      	uxtb	r3, r3
		tmp_LORA->UserLoRaID[1] != tmp_LORA->MyLoRaID[1] ||
    4608:	4293      	cmp	r3, r2
    460a:	d1db      	bne.n	45c4 <Catch_LoRa_ID+0x54>
		tmp_LORA->UserLoRaID[3] != tmp_LORA->MyLoRaID[3])
    460c:	7a03      	ldrb	r3, [r0, #8]
    460e:	7902      	ldrb	r2, [r0, #4]
    4610:	b2db      	uxtb	r3, r3
		tmp_LORA->UserLoRaID[2] != tmp_LORA->MyLoRaID[2] ||
    4612:	4293      	cmp	r3, r2
    4614:	d1d6      	bne.n	45c4 <Catch_LoRa_ID+0x54>
    4616:	e7e1      	b.n	45dc <Catch_LoRa_ID+0x6c>

00004618 <Lora_CMD_Func>:
{
    4618:	b5f0      	push	{r4, r5, r6, r7, lr}
    461a:	46c6      	mov	lr, r8
    461c:	b500      	push	{lr}
    461e:	b082      	sub	sp, #8
    4620:	0004      	movs	r4, r0
	switch(tmp_LORA->NowStatus)
    4622:	4bd2      	ldr	r3, [pc, #840]	; (496c <Lora_CMD_Func+0x354>)
    4624:	5cc3      	ldrb	r3, [r0, r3]
    4626:	b2db      	uxtb	r3, r3
    4628:	2b7f      	cmp	r3, #127	; 0x7f
    462a:	d80b      	bhi.n	4644 <Lora_CMD_Func+0x2c>
    462c:	009b      	lsls	r3, r3, #2
    462e:	4ad0      	ldr	r2, [pc, #832]	; (4970 <Lora_CMD_Func+0x358>)
    4630:	58d3      	ldr	r3, [r2, r3]
    4632:	469f      	mov	pc, r3
			Print_Who_Lora(tmp_LORA);
    4634:	4bcf      	ldr	r3, [pc, #828]	; (4974 <Lora_CMD_Func+0x35c>)
    4636:	4798      	blx	r3
			Print_Delay_LoRa_CMD_Msg(tmp_LORA);
    4638:	0020      	movs	r0, r4
    463a:	4bcf      	ldr	r3, [pc, #828]	; (4978 <Lora_CMD_Func+0x360>)
    463c:	4798      	blx	r3
			tmp_LORA->NowStatus = Lora_CMD_Delay_Index;
    463e:	226b      	movs	r2, #107	; 0x6b
    4640:	4bca      	ldr	r3, [pc, #808]	; (496c <Lora_CMD_Func+0x354>)
    4642:	54e2      	strb	r2, [r4, r3]
}
    4644:	b002      	add	sp, #8
    4646:	bc04      	pop	{r2}
    4648:	4690      	mov	r8, r2
    464a:	bdf0      	pop	{r4, r5, r6, r7, pc}
			if(tmp_LORA->f_count > Lora_CMD_Delay_Count_Max)
    464c:	238f      	movs	r3, #143	; 0x8f
    464e:	009b      	lsls	r3, r3, #2
    4650:	58c3      	ldr	r3, [r0, r3]
    4652:	2b32      	cmp	r3, #50	; 0x32
    4654:	d9f6      	bls.n	4644 <Lora_CMD_Func+0x2c>
				if(tmp_LORA->Lora_CRC_Flag == CRCisOK)
    4656:	4bc9      	ldr	r3, [pc, #804]	; (497c <Lora_CMD_Func+0x364>)
    4658:	5cc3      	ldrb	r3, [r0, r3]
    465a:	2b00      	cmp	r3, #0
    465c:	d013      	beq.n	4686 <Lora_CMD_Func+0x6e>
					tmp_LORA->LoRa_CRC_Count = ++tmp_LORA->LoRa_CRC_Count;
    465e:	4ac8      	ldr	r2, [pc, #800]	; (4980 <Lora_CMD_Func+0x368>)
    4660:	5c83      	ldrb	r3, [r0, r2]
    4662:	3301      	adds	r3, #1
    4664:	b2db      	uxtb	r3, r3
    4666:	5483      	strb	r3, [r0, r2]
    4668:	5483      	strb	r3, [r0, r2]
					if(tmp_LORA->LoRa_CRC_Count < 3)
    466a:	5c83      	ldrb	r3, [r0, r2]
    466c:	b2db      	uxtb	r3, r3
    466e:	2b02      	cmp	r3, #2
    4670:	d812      	bhi.n	4698 <Lora_CMD_Func+0x80>
						tmp_LORA->NowStatus = tmp_LORA->LastStatus;
    4672:	4bc4      	ldr	r3, [pc, #784]	; (4984 <Lora_CMD_Func+0x36c>)
    4674:	5cc3      	ldrb	r3, [r0, r3]
    4676:	b2db      	uxtb	r3, r3
    4678:	4abc      	ldr	r2, [pc, #752]	; (496c <Lora_CMD_Func+0x354>)
    467a:	5483      	strb	r3, [r0, r2]
						uart_str("(C)\0");
    467c:	48c2      	ldr	r0, [pc, #776]	; (4988 <Lora_CMD_Func+0x370>)
    467e:	3008      	adds	r0, #8
    4680:	4bc2      	ldr	r3, [pc, #776]	; (498c <Lora_CMD_Func+0x374>)
    4682:	4798      	blx	r3
    4684:	e7de      	b.n	4644 <Lora_CMD_Func+0x2c>
					tmp_LORA->NowStatus = tmp_LORA->NextStatus;
    4686:	4bc2      	ldr	r3, [pc, #776]	; (4990 <Lora_CMD_Func+0x378>)
    4688:	5cc3      	ldrb	r3, [r0, r3]
    468a:	b2db      	uxtb	r3, r3
    468c:	4ab7      	ldr	r2, [pc, #732]	; (496c <Lora_CMD_Func+0x354>)
    468e:	5483      	strb	r3, [r0, r2]
					tmp_LORA->LoRa_CRC_Count = 0;
    4690:	2200      	movs	r2, #0
    4692:	4bbb      	ldr	r3, [pc, #748]	; (4980 <Lora_CMD_Func+0x368>)
    4694:	54c2      	strb	r2, [r0, r3]
    4696:	e7d5      	b.n	4644 <Lora_CMD_Func+0x2c>
						Reset_LoRa_Func(tmp_LORA);
    4698:	4bbe      	ldr	r3, [pc, #760]	; (4994 <Lora_CMD_Func+0x37c>)
    469a:	4798      	blx	r3
    469c:	e7d2      	b.n	4644 <Lora_CMD_Func+0x2c>
			Print_Who_Lora(tmp_LORA);
    469e:	4bb5      	ldr	r3, [pc, #724]	; (4974 <Lora_CMD_Func+0x35c>)
    46a0:	4798      	blx	r3
			if(tmp_LORA->Lora_Debug_Flag == 1)
    46a2:	2388      	movs	r3, #136	; 0x88
    46a4:	009b      	lsls	r3, r3, #2
    46a6:	5ce3      	ldrb	r3, [r4, r3]
    46a8:	2b01      	cmp	r3, #1
    46aa:	d009      	beq.n	46c0 <Lora_CMD_Func+0xa8>
			XORtmp = 0x00;
    46ac:	2200      	movs	r2, #0
    46ae:	466b      	mov	r3, sp
    46b0:	71da      	strb	r2, [r3, #7]
			for(i = 0; i < (tmp_LORA->MyBufferCount - 1); i++)
    46b2:	7fa3      	ldrb	r3, [r4, #30]
    46b4:	3b01      	subs	r3, #1
    46b6:	2b00      	cmp	r3, #0
    46b8:	dd25      	ble.n	4706 <Lora_CMD_Func+0xee>
    46ba:	2600      	movs	r6, #0
    46bc:	2500      	movs	r5, #0
    46be:	e012      	b.n	46e6 <Lora_CMD_Func+0xce>
				uTXByte(Debug_COM, 0x09);
    46c0:	2109      	movs	r1, #9
    46c2:	48b5      	ldr	r0, [pc, #724]	; (4998 <Lora_CMD_Func+0x380>)
    46c4:	4bb5      	ldr	r3, [pc, #724]	; (499c <Lora_CMD_Func+0x384>)
    46c6:	4798      	blx	r3
    46c8:	e7f0      	b.n	46ac <Lora_CMD_Func+0x94>
				XORtmp = XORtmp ^ tmp_LORA->MyBuffer[i];
    46ca:	19a6      	adds	r6, r4, r6
    46cc:	7ff1      	ldrb	r1, [r6, #31]
    46ce:	466b      	mov	r3, sp
    46d0:	1dda      	adds	r2, r3, #7
    46d2:	79db      	ldrb	r3, [r3, #7]
    46d4:	404b      	eors	r3, r1
    46d6:	7013      	strb	r3, [r2, #0]
			for(i = 0; i < (tmp_LORA->MyBufferCount - 1); i++)
    46d8:	3501      	adds	r5, #1
    46da:	b2ed      	uxtb	r5, r5
    46dc:	002e      	movs	r6, r5
    46de:	7fa3      	ldrb	r3, [r4, #30]
    46e0:	3b01      	subs	r3, #1
    46e2:	429d      	cmp	r5, r3
    46e4:	da0f      	bge.n	4706 <Lora_CMD_Func+0xee>
				if(tmp_LORA->Lora_Debug_Flag == 1)
    46e6:	2388      	movs	r3, #136	; 0x88
    46e8:	009b      	lsls	r3, r3, #2
    46ea:	5ce3      	ldrb	r3, [r4, r3]
    46ec:	2b01      	cmp	r3, #1
    46ee:	d1ec      	bne.n	46ca <Lora_CMD_Func+0xb2>
					uart_send_ascii_byte(Debug_COM, tmp_LORA->MyBuffer[i]);
    46f0:	19a3      	adds	r3, r4, r6
    46f2:	7fd9      	ldrb	r1, [r3, #31]
    46f4:	b2c9      	uxtb	r1, r1
    46f6:	48a8      	ldr	r0, [pc, #672]	; (4998 <Lora_CMD_Func+0x380>)
    46f8:	4ba9      	ldr	r3, [pc, #676]	; (49a0 <Lora_CMD_Func+0x388>)
    46fa:	4798      	blx	r3
					uTXByte(Debug_COM, ' ');
    46fc:	2120      	movs	r1, #32
    46fe:	48a6      	ldr	r0, [pc, #664]	; (4998 <Lora_CMD_Func+0x380>)
    4700:	4ba6      	ldr	r3, [pc, #664]	; (499c <Lora_CMD_Func+0x384>)
    4702:	4798      	blx	r3
    4704:	e7e1      	b.n	46ca <Lora_CMD_Func+0xb2>
			if(tmp_LORA->Lora_Debug_Flag == 1)
    4706:	2388      	movs	r3, #136	; 0x88
    4708:	009b      	lsls	r3, r3, #2
    470a:	5ce3      	ldrb	r3, [r4, r3]
    470c:	2b01      	cmp	r3, #1
    470e:	d017      	beq.n	4740 <Lora_CMD_Func+0x128>
			if(tmp_LORA->MyBuffer[(tmp_LORA->MyBufferCount - 1)] != XORtmp) //如果CRC錯誤
    4710:	7fa3      	ldrb	r3, [r4, #30]
    4712:	3b01      	subs	r3, #1
    4714:	18e3      	adds	r3, r4, r3
    4716:	7fdb      	ldrb	r3, [r3, #31]
    4718:	466a      	mov	r2, sp
    471a:	3207      	adds	r2, #7
    471c:	7812      	ldrb	r2, [r2, #0]
    471e:	b2db      	uxtb	r3, r3
    4720:	4293      	cmp	r3, r2
    4722:	d030      	beq.n	4786 <Lora_CMD_Func+0x16e>
				Print_CRC_ERROR(tmp_LORA);	
    4724:	0020      	movs	r0, r4
    4726:	4b9f      	ldr	r3, [pc, #636]	; (49a4 <Lora_CMD_Func+0x38c>)
    4728:	4798      	blx	r3
				tmp_LORA->Lora_CRC_Flag = CRCisErr;
    472a:	2201      	movs	r2, #1
    472c:	4b93      	ldr	r3, [pc, #588]	; (497c <Lora_CMD_Func+0x364>)
    472e:	54e2      	strb	r2, [r4, r3]
			tmp_LORA->f_count = 0;
    4730:	2200      	movs	r2, #0
    4732:	238f      	movs	r3, #143	; 0x8f
    4734:	009b      	lsls	r3, r3, #2
    4736:	50e2      	str	r2, [r4, r3]
			tmp_LORA->NowStatus = Print_Lora_CMD_Delay_Index;	//進入DelayTime，再進行資料傳輸
    4738:	3271      	adds	r2, #113	; 0x71
    473a:	4b8c      	ldr	r3, [pc, #560]	; (496c <Lora_CMD_Func+0x354>)
    473c:	54e2      	strb	r2, [r4, r3]
			break;
    473e:	e781      	b.n	4644 <Lora_CMD_Func+0x2c>
				uTXByte(Debug_COM, '-');
    4740:	4d95      	ldr	r5, [pc, #596]	; (4998 <Lora_CMD_Func+0x380>)
    4742:	212d      	movs	r1, #45	; 0x2d
    4744:	0028      	movs	r0, r5
    4746:	4e95      	ldr	r6, [pc, #596]	; (499c <Lora_CMD_Func+0x384>)
    4748:	47b0      	blx	r6
				uTXByte(Debug_COM, ' ');
    474a:	2120      	movs	r1, #32
    474c:	0028      	movs	r0, r5
    474e:	47b0      	blx	r6
				uart_send_ascii_byte(Debug_COM, tmp_LORA->MyBuffer[(tmp_LORA->MyBufferCount-1)]);
    4750:	7fa3      	ldrb	r3, [r4, #30]
    4752:	3b01      	subs	r3, #1
    4754:	18e3      	adds	r3, r4, r3
    4756:	7fd9      	ldrb	r1, [r3, #31]
    4758:	b2c9      	uxtb	r1, r1
    475a:	0028      	movs	r0, r5
    475c:	4f90      	ldr	r7, [pc, #576]	; (49a0 <Lora_CMD_Func+0x388>)
    475e:	47b8      	blx	r7
				uTXByte(Debug_COM, ' ');
    4760:	2120      	movs	r1, #32
    4762:	0028      	movs	r0, r5
    4764:	47b0      	blx	r6
				uart_send_ascii_byte(Debug_COM, tmp_LORA->MyBufferCount);
    4766:	7fa1      	ldrb	r1, [r4, #30]
    4768:	b2c9      	uxtb	r1, r1
    476a:	0028      	movs	r0, r5
    476c:	47b8      	blx	r7
				uTXByte(Debug_COM, ' ');
    476e:	2120      	movs	r1, #32
    4770:	0028      	movs	r0, r5
    4772:	47b0      	blx	r6
				uart_send_ascii_byte(Debug_COM, XORtmp);
    4774:	466b      	mov	r3, sp
    4776:	79d9      	ldrb	r1, [r3, #7]
    4778:	b2c9      	uxtb	r1, r1
    477a:	0028      	movs	r0, r5
    477c:	47b8      	blx	r7
				uTXByte(Debug_COM, ' ');
    477e:	2120      	movs	r1, #32
    4780:	0028      	movs	r0, r5
    4782:	47b0      	blx	r6
    4784:	e7c4      	b.n	4710 <Lora_CMD_Func+0xf8>
				Print_CRC_OK(tmp_LORA);
    4786:	0020      	movs	r0, r4
    4788:	4b87      	ldr	r3, [pc, #540]	; (49a8 <Lora_CMD_Func+0x390>)
    478a:	4798      	blx	r3
				tmp_LORA->Lora_CRC_Flag = CRCisOK;
    478c:	2200      	movs	r2, #0
    478e:	4b7b      	ldr	r3, [pc, #492]	; (497c <Lora_CMD_Func+0x364>)
    4790:	54e2      	strb	r2, [r4, r3]
    4792:	e7cd      	b.n	4730 <Lora_CMD_Func+0x118>
			tmp_LORA->f_count = 0;
    4794:	2300      	movs	r3, #0
    4796:	228f      	movs	r2, #143	; 0x8f
    4798:	0092      	lsls	r2, r2, #2
    479a:	5083      	str	r3, [r0, r2]
			tmp_LORA->Lora_initial_Flag = 0;
    479c:	4a83      	ldr	r2, [pc, #524]	; (49ac <Lora_CMD_Func+0x394>)
    479e:	5483      	strb	r3, [r0, r2]
			tmp_LORA->LastStatus = Read_LoRa_ID_Index;
    47a0:	4a78      	ldr	r2, [pc, #480]	; (4984 <Lora_CMD_Func+0x36c>)
    47a2:	5483      	strb	r3, [r0, r2]
			tmp_LORA->NextStatus = Catch_LoRa_ID_Index;
    47a4:	3ab6      	subs	r2, #182	; 0xb6
    47a6:	3aff      	subs	r2, #255	; 0xff
    47a8:	4b79      	ldr	r3, [pc, #484]	; (4990 <Lora_CMD_Func+0x378>)
    47aa:	54c2      	strb	r2, [r0, r3]
				Print_Who_Lora(tmp_LORA);
    47ac:	4b71      	ldr	r3, [pc, #452]	; (4974 <Lora_CMD_Func+0x35c>)
    47ae:	4798      	blx	r3
				Print_Read_LoRa_ID_Msg(tmp_LORA);
    47b0:	0020      	movs	r0, r4
    47b2:	4b7f      	ldr	r3, [pc, #508]	; (49b0 <Lora_CMD_Func+0x398>)
    47b4:	4798      	blx	r3
			Read_LoRa_ID(tmp_LORA);			//送出Read_LoRa_ID後，再進入WaitRxData等待Uart回傳
    47b6:	0020      	movs	r0, r4
    47b8:	4b7e      	ldr	r3, [pc, #504]	; (49b4 <Lora_CMD_Func+0x39c>)
    47ba:	4798      	blx	r3
			break;						
    47bc:	e742      	b.n	4644 <Lora_CMD_Func+0x2c>
			tmp_LORA->Lora_initial_Flag = 0;
    47be:	2200      	movs	r2, #0
    47c0:	4b7a      	ldr	r3, [pc, #488]	; (49ac <Lora_CMD_Func+0x394>)
    47c2:	54c2      	strb	r2, [r0, r3]
			Catch_LoRa_ID(tmp_LORA);
    47c4:	4b7c      	ldr	r3, [pc, #496]	; (49b8 <Lora_CMD_Func+0x3a0>)
    47c6:	4798      	blx	r3
				Print_Who_Lora(tmp_LORA);
    47c8:	0020      	movs	r0, r4
    47ca:	4b6a      	ldr	r3, [pc, #424]	; (4974 <Lora_CMD_Func+0x35c>)
    47cc:	4798      	blx	r3
	while(*tmp_LORA != tmp_status)
    47ce:	4b67      	ldr	r3, [pc, #412]	; (496c <Lora_CMD_Func+0x354>)
    47d0:	5ce3      	ldrb	r3, [r4, r3]
    47d2:	2b01      	cmp	r3, #1
    47d4:	d100      	bne.n	47d8 <Lora_CMD_Func+0x1c0>
    47d6:	e735      	b.n	4644 <Lora_CMD_Func+0x2c>
		*tmp_LORA = tmp_status;
    47d8:	4b64      	ldr	r3, [pc, #400]	; (496c <Lora_CMD_Func+0x354>)
    47da:	2101      	movs	r1, #1
    47dc:	54e1      	strb	r1, [r4, r3]
	while(*tmp_LORA != tmp_status)
    47de:	5ce2      	ldrb	r2, [r4, r3]
    47e0:	2a01      	cmp	r2, #1
    47e2:	d1fb      	bne.n	47dc <Lora_CMD_Func+0x1c4>
    47e4:	e72e      	b.n	4644 <Lora_CMD_Func+0x2c>
			tmp_LORA->Lora_initial_Flag = 0;
    47e6:	2200      	movs	r2, #0
    47e8:	4b70      	ldr	r3, [pc, #448]	; (49ac <Lora_CMD_Func+0x394>)
    47ea:	54c2      	strb	r2, [r0, r3]
			tmp_LORA->LastStatus = Reset_LoRa_Index;
    47ec:	3201      	adds	r2, #1
    47ee:	4b65      	ldr	r3, [pc, #404]	; (4984 <Lora_CMD_Func+0x36c>)
    47f0:	54c2      	strb	r2, [r0, r3]
			tmp_LORA->NextStatus = Write_LoRa_Setting_Index;
    47f2:	3203      	adds	r2, #3
    47f4:	4b66      	ldr	r3, [pc, #408]	; (4990 <Lora_CMD_Func+0x378>)
    47f6:	54c2      	strb	r2, [r0, r3]
				Print_Who_Lora(tmp_LORA);
    47f8:	4b5e      	ldr	r3, [pc, #376]	; (4974 <Lora_CMD_Func+0x35c>)
    47fa:	4798      	blx	r3
				Print_Reset_LoRa_Msg(tmp_LORA);
    47fc:	0020      	movs	r0, r4
    47fe:	4b6f      	ldr	r3, [pc, #444]	; (49bc <Lora_CMD_Func+0x3a4>)
    4800:	4798      	blx	r3
			Reset_LoRa(tmp_LORA);
    4802:	0020      	movs	r0, r4
    4804:	4b6e      	ldr	r3, [pc, #440]	; (49c0 <Lora_CMD_Func+0x3a8>)
    4806:	4798      	blx	r3
			break;
    4808:	e71c      	b.n	4644 <Lora_CMD_Func+0x2c>
			tmp_LORA->Lora_initial_Flag = 0;
    480a:	2200      	movs	r2, #0
    480c:	4b67      	ldr	r3, [pc, #412]	; (49ac <Lora_CMD_Func+0x394>)
    480e:	54c2      	strb	r2, [r0, r3]
			tmp_LORA->LastStatus = Write_LoRa_Setting_Index;
    4810:	3204      	adds	r2, #4
    4812:	4b5c      	ldr	r3, [pc, #368]	; (4984 <Lora_CMD_Func+0x36c>)
    4814:	54c2      	strb	r2, [r0, r3]
			tmp_LORA->NextStatus = Write_LoRa_Mode_FQ_Index;
    4816:	3a01      	subs	r2, #1
    4818:	4b5d      	ldr	r3, [pc, #372]	; (4990 <Lora_CMD_Func+0x378>)
    481a:	54c2      	strb	r2, [r0, r3]
				Print_Who_Lora(tmp_LORA);		
    481c:	4b55      	ldr	r3, [pc, #340]	; (4974 <Lora_CMD_Func+0x35c>)
    481e:	4798      	blx	r3
				Print_Write_LoRa_Setting_Msg(tmp_LORA);
    4820:	0020      	movs	r0, r4
    4822:	4b68      	ldr	r3, [pc, #416]	; (49c4 <Lora_CMD_Func+0x3ac>)
    4824:	4798      	blx	r3
			Write_LoRa_Setting(tmp_LORA);
    4826:	0020      	movs	r0, r4
    4828:	4b67      	ldr	r3, [pc, #412]	; (49c8 <Lora_CMD_Func+0x3b0>)
    482a:	4798      	blx	r3
			break;						
    482c:	e70a      	b.n	4644 <Lora_CMD_Func+0x2c>
			tmp_LORA->Lora_initial_Flag = 0;
    482e:	2200      	movs	r2, #0
    4830:	4b5e      	ldr	r3, [pc, #376]	; (49ac <Lora_CMD_Func+0x394>)
    4832:	54c2      	strb	r2, [r0, r3]
			tmp_LORA->LastStatus = Write_LoRa_Mode_FQ_Index;
    4834:	3203      	adds	r2, #3
    4836:	4b53      	ldr	r3, [pc, #332]	; (4984 <Lora_CMD_Func+0x36c>)
    4838:	54c2      	strb	r2, [r0, r3]
			tmp_LORA->NextStatus = Switch_LoRa_TX_or_RX_Mode_Index;
    483a:	326f      	adds	r2, #111	; 0x6f
    483c:	4b54      	ldr	r3, [pc, #336]	; (4990 <Lora_CMD_Func+0x378>)
    483e:	54c2      	strb	r2, [r0, r3]
				Print_Who_Lora(tmp_LORA);
    4840:	4b4c      	ldr	r3, [pc, #304]	; (4974 <Lora_CMD_Func+0x35c>)
    4842:	4798      	blx	r3
				Print_Write_LoRa_Mode_FQ_Msg(tmp_LORA);
    4844:	0020      	movs	r0, r4
    4846:	4b61      	ldr	r3, [pc, #388]	; (49cc <Lora_CMD_Func+0x3b4>)
    4848:	4798      	blx	r3
			switch(tmp_LORA->LoRa_TxRx_Mode_Flag)
    484a:	4b61      	ldr	r3, [pc, #388]	; (49d0 <Lora_CMD_Func+0x3b8>)
    484c:	5ce3      	ldrb	r3, [r4, r3]
    484e:	b2db      	uxtb	r3, r3
    4850:	2b02      	cmp	r3, #2
    4852:	d021      	beq.n	4898 <Lora_CMD_Func+0x280>
    4854:	d909      	bls.n	486a <Lora_CMD_Func+0x252>
    4856:	2b03      	cmp	r3, #3
    4858:	d019      	beq.n	488e <Lora_CMD_Func+0x276>
    485a:	2b04      	cmp	r3, #4
    485c:	d000      	beq.n	4860 <Lora_CMD_Func+0x248>
    485e:	e6f1      	b.n	4644 <Lora_CMD_Func+0x2c>
					Write_LoRa_Mode_FQ(tmp_LORA, SetRx);
    4860:	2103      	movs	r1, #3
    4862:	0020      	movs	r0, r4
    4864:	4b5b      	ldr	r3, [pc, #364]	; (49d4 <Lora_CMD_Func+0x3bc>)
    4866:	4798      	blx	r3
					break;
    4868:	e6ec      	b.n	4644 <Lora_CMD_Func+0x2c>
			switch(tmp_LORA->LoRa_TxRx_Mode_Flag)
    486a:	2b00      	cmp	r3, #0
    486c:	d000      	beq.n	4870 <Lora_CMD_Func+0x258>
    486e:	e6e9      	b.n	4644 <Lora_CMD_Func+0x2c>
					Write_LoRa_Mode_FQ(tmp_LORA, SetSleep);
    4870:	2100      	movs	r1, #0
    4872:	0020      	movs	r0, r4
    4874:	4b57      	ldr	r3, [pc, #348]	; (49d4 <Lora_CMD_Func+0x3bc>)
    4876:	4798      	blx	r3
					if(LORA01->Lora_Show_Flag == true)	uart_str("..z Z\r");
    4878:	4b57      	ldr	r3, [pc, #348]	; (49d8 <Lora_CMD_Func+0x3c0>)
    487a:	681a      	ldr	r2, [r3, #0]
    487c:	4b57      	ldr	r3, [pc, #348]	; (49dc <Lora_CMD_Func+0x3c4>)
    487e:	5cd3      	ldrb	r3, [r2, r3]
    4880:	2b01      	cmp	r3, #1
    4882:	d000      	beq.n	4886 <Lora_CMD_Func+0x26e>
    4884:	e6de      	b.n	4644 <Lora_CMD_Func+0x2c>
    4886:	4856      	ldr	r0, [pc, #344]	; (49e0 <Lora_CMD_Func+0x3c8>)
    4888:	4b40      	ldr	r3, [pc, #256]	; (498c <Lora_CMD_Func+0x374>)
    488a:	4798      	blx	r3
    488c:	e6da      	b.n	4644 <Lora_CMD_Func+0x2c>
					Write_LoRa_Mode_FQ(tmp_LORA, SetRx);
    488e:	2103      	movs	r1, #3
    4890:	0020      	movs	r0, r4
    4892:	4b50      	ldr	r3, [pc, #320]	; (49d4 <Lora_CMD_Func+0x3bc>)
    4894:	4798      	blx	r3
					break;
    4896:	e6d5      	b.n	4644 <Lora_CMD_Func+0x2c>
					Write_LoRa_Mode_FQ(tmp_LORA, SetTx);
    4898:	2102      	movs	r1, #2
    489a:	0020      	movs	r0, r4
    489c:	4b4d      	ldr	r3, [pc, #308]	; (49d4 <Lora_CMD_Func+0x3bc>)
    489e:	4798      	blx	r3
					break;
    48a0:	e6d0      	b.n	4644 <Lora_CMD_Func+0x2c>
			tmp_LORA->Lora_initial_Flag = 1;
    48a2:	2201      	movs	r2, #1
    48a4:	4b41      	ldr	r3, [pc, #260]	; (49ac <Lora_CMD_Func+0x394>)
    48a6:	54c2      	strb	r2, [r0, r3]
			tmp_LORA->f_count = 0;
    48a8:	2200      	movs	r2, #0
    48aa:	331b      	adds	r3, #27
    48ac:	50c2      	str	r2, [r0, r3]
			switch(tmp_LORA->LoRa_TxRx_Mode_Flag)
    48ae:	4b48      	ldr	r3, [pc, #288]	; (49d0 <Lora_CMD_Func+0x3b8>)
    48b0:	5cc3      	ldrb	r3, [r0, r3]
    48b2:	b2db      	uxtb	r3, r3
    48b4:	2b02      	cmp	r3, #2
    48b6:	d01a      	beq.n	48ee <Lora_CMD_Func+0x2d6>
    48b8:	d908      	bls.n	48cc <Lora_CMD_Func+0x2b4>
    48ba:	2b03      	cmp	r3, #3
    48bc:	d010      	beq.n	48e0 <Lora_CMD_Func+0x2c8>
    48be:	2b04      	cmp	r3, #4
    48c0:	d000      	beq.n	48c4 <Lora_CMD_Func+0x2ac>
    48c2:	e6bf      	b.n	4644 <Lora_CMD_Func+0x2c>
					tmp_LORA->NowStatus = NOP_Index;
    48c4:	2266      	movs	r2, #102	; 0x66
    48c6:	4b29      	ldr	r3, [pc, #164]	; (496c <Lora_CMD_Func+0x354>)
    48c8:	54c2      	strb	r2, [r0, r3]
					break;
    48ca:	e6bb      	b.n	4644 <Lora_CMD_Func+0x2c>
			switch(tmp_LORA->LoRa_TxRx_Mode_Flag)
    48cc:	2b00      	cmp	r3, #0
    48ce:	d000      	beq.n	48d2 <Lora_CMD_Func+0x2ba>
    48d0:	e6b8      	b.n	4644 <Lora_CMD_Func+0x2c>
					tmp_LORA->NowStatus = Sleep_Index;
    48d2:	227f      	movs	r2, #127	; 0x7f
    48d4:	4b25      	ldr	r3, [pc, #148]	; (496c <Lora_CMD_Func+0x354>)
    48d6:	54c2      	strb	r2, [r0, r3]
					sleep_count = 0;
    48d8:	2200      	movs	r2, #0
    48da:	4b42      	ldr	r3, [pc, #264]	; (49e4 <Lora_CMD_Func+0x3cc>)
    48dc:	601a      	str	r2, [r3, #0]
					break;
    48de:	e6b1      	b.n	4644 <Lora_CMD_Func+0x2c>
					tmp_LORA->NowStatus = Wait_RX_IRQ_Index;
    48e0:	2273      	movs	r2, #115	; 0x73
    48e2:	4b22      	ldr	r3, [pc, #136]	; (496c <Lora_CMD_Func+0x354>)
    48e4:	54c2      	strb	r2, [r0, r3]
					sleep_count = 0;
    48e6:	2200      	movs	r2, #0
    48e8:	4b3e      	ldr	r3, [pc, #248]	; (49e4 <Lora_CMD_Func+0x3cc>)
    48ea:	601a      	str	r2, [r3, #0]
					break;
    48ec:	e6aa      	b.n	4644 <Lora_CMD_Func+0x2c>
					tmp_LORA->NowStatus = Write_LoRa_TxBuffer_Index;
    48ee:	2205      	movs	r2, #5
    48f0:	4b1e      	ldr	r3, [pc, #120]	; (496c <Lora_CMD_Func+0x354>)
    48f2:	54c2      	strb	r2, [r0, r3]
					break;
    48f4:	e6a6      	b.n	4644 <Lora_CMD_Func+0x2c>
			if(sleep_count == 500)
    48f6:	4b3b      	ldr	r3, [pc, #236]	; (49e4 <Lora_CMD_Func+0x3cc>)
    48f8:	681b      	ldr	r3, [r3, #0]
    48fa:	22fa      	movs	r2, #250	; 0xfa
    48fc:	0052      	lsls	r2, r2, #1
    48fe:	4293      	cmp	r3, r2
    4900:	d003      	beq.n	490a <Lora_CMD_Func+0x2f2>
				sleep_count++;
    4902:	3301      	adds	r3, #1
    4904:	4a37      	ldr	r2, [pc, #220]	; (49e4 <Lora_CMD_Func+0x3cc>)
    4906:	6013      	str	r3, [r2, #0]
    4908:	e69c      	b.n	4644 <Lora_CMD_Func+0x2c>
				extint_chan_disable_callback(PIN_PA11, EXTINT_CALLBACK_TYPE_DETECT);
    490a:	2100      	movs	r1, #0
    490c:	200b      	movs	r0, #11
    490e:	4b36      	ldr	r3, [pc, #216]	; (49e8 <Lora_CMD_Func+0x3d0>)
    4910:	4798      	blx	r3
				LoRA_INT_IO_SETTING(false);
    4912:	2000      	movs	r0, #0
    4914:	4d35      	ldr	r5, [pc, #212]	; (49ec <Lora_CMD_Func+0x3d4>)
    4916:	47a8      	blx	r5
		port_base->OUTSET.reg = pin_mask;
    4918:	4f35      	ldr	r7, [pc, #212]	; (49f0 <Lora_CMD_Func+0x3d8>)
    491a:	2380      	movs	r3, #128	; 0x80
    491c:	011b      	lsls	r3, r3, #4
    491e:	4698      	mov	r8, r3
    4920:	61bb      	str	r3, [r7, #24]
				delay_ms(3);
    4922:	2003      	movs	r0, #3
    4924:	4e33      	ldr	r6, [pc, #204]	; (49f4 <Lora_CMD_Func+0x3dc>)
    4926:	47b0      	blx	r6
		port_base->OUTCLR.reg = pin_mask;
    4928:	4643      	mov	r3, r8
    492a:	617b      	str	r3, [r7, #20]
				delay_ms(3);
    492c:	2003      	movs	r0, #3
    492e:	47b0      	blx	r6
				LoRA_INT_IO_SETTING(true);
    4930:	2001      	movs	r0, #1
    4932:	47a8      	blx	r5
				extint_chan_enable_callback(PIN_PA11, EXTINT_CALLBACK_TYPE_DETECT);
    4934:	2100      	movs	r1, #0
    4936:	200b      	movs	r0, #11
    4938:	4b2f      	ldr	r3, [pc, #188]	; (49f8 <Lora_CMD_Func+0x3e0>)
    493a:	4798      	blx	r3
				tmp_LORA->LoRa_TxRx_Mode_Flag = SetRx;
    493c:	2203      	movs	r2, #3
    493e:	4b24      	ldr	r3, [pc, #144]	; (49d0 <Lora_CMD_Func+0x3b8>)
    4940:	54e2      	strb	r2, [r4, r3]
				tmp_LORA->NowStatus = Reset_LoRa_Index;
    4942:	3a02      	subs	r2, #2
    4944:	4b09      	ldr	r3, [pc, #36]	; (496c <Lora_CMD_Func+0x354>)
    4946:	54e2      	strb	r2, [r4, r3]
				tmp_LORA->LoRa_IRQ_Flag = 0;
    4948:	2200      	movs	r2, #0
    494a:	4b2c      	ldr	r3, [pc, #176]	; (49fc <Lora_CMD_Func+0x3e4>)
    494c:	54e2      	strb	r2, [r4, r3]
				if(LORA01->Lora_Show_Flag == true)	uart_str("Wake Up..\r");
    494e:	4b22      	ldr	r3, [pc, #136]	; (49d8 <Lora_CMD_Func+0x3c0>)
    4950:	681a      	ldr	r2, [r3, #0]
    4952:	4b22      	ldr	r3, [pc, #136]	; (49dc <Lora_CMD_Func+0x3c4>)
    4954:	5cd3      	ldrb	r3, [r2, r3]
    4956:	2b01      	cmp	r3, #1
    4958:	d000      	beq.n	495c <Lora_CMD_Func+0x344>
    495a:	e673      	b.n	4644 <Lora_CMD_Func+0x2c>
    495c:	4828      	ldr	r0, [pc, #160]	; (4a00 <Lora_CMD_Func+0x3e8>)
    495e:	4b0b      	ldr	r3, [pc, #44]	; (498c <Lora_CMD_Func+0x374>)
    4960:	4798      	blx	r3
    4962:	e66f      	b.n	4644 <Lora_CMD_Func+0x2c>
				Wait_RX_IRQ_Index_Func(tmp_LORA);	
    4964:	4b27      	ldr	r3, [pc, #156]	; (4a04 <Lora_CMD_Func+0x3ec>)
    4966:	4798      	blx	r3
			break;
    4968:	e66c      	b.n	4644 <Lora_CMD_Func+0x2c>
    496a:	46c0      	nop			; (mov r8, r8)
    496c:	0000021d 	.word	0x0000021d
    4970:	00006f48 	.word	0x00006f48
    4974:	00004b3d 	.word	0x00004b3d
    4978:	00004bc1 	.word	0x00004bc1
    497c:	00000222 	.word	0x00000222
    4980:	00000229 	.word	0x00000229
    4984:	0000021e 	.word	0x0000021e
    4988:	00007148 	.word	0x00007148
    498c:	00002ffd 	.word	0x00002ffd
    4990:	0000021f 	.word	0x0000021f
    4994:	000040dd 	.word	0x000040dd
    4998:	20000270 	.word	0x20000270
    499c:	00002725 	.word	0x00002725
    49a0:	00002745 	.word	0x00002745
    49a4:	00004f09 	.word	0x00004f09
    49a8:	00004f29 	.word	0x00004f29
    49ac:	00000221 	.word	0x00000221
    49b0:	00004ba1 	.word	0x00004ba1
    49b4:	00004529 	.word	0x00004529
    49b8:	00004571 	.word	0x00004571
    49bc:	00004e29 	.word	0x00004e29
    49c0:	0000454d 	.word	0x0000454d
    49c4:	00004e69 	.word	0x00004e69
    49c8:	00004505 	.word	0x00004505
    49cc:	00004e49 	.word	0x00004e49
    49d0:	0000022a 	.word	0x0000022a
    49d4:	000044dd 	.word	0x000044dd
    49d8:	200018bc 	.word	0x200018bc
    49dc:	00000226 	.word	0x00000226
    49e0:	00007158 	.word	0x00007158
    49e4:	20003518 	.word	0x20003518
    49e8:	00003949 	.word	0x00003949
    49ec:	00004081 	.word	0x00004081
    49f0:	41004400 	.word	0x41004400
    49f4:	0000543d 	.word	0x0000543d
    49f8:	00003929 	.word	0x00003929
    49fc:	00000223 	.word	0x00000223
    4a00:	00007160 	.word	0x00007160
    4a04:	000019d9 	.word	0x000019d9
			tmp_LORA->LastStatus = Read_LoRa_RxBuffer_Index;
    4a08:	2206      	movs	r2, #6
    4a0a:	4b2d      	ldr	r3, [pc, #180]	; (4ac0 <Lora_CMD_Func+0x4a8>)
    4a0c:	54c2      	strb	r2, [r0, r3]
			tmp_LORA->NextStatus = Reset_IRQ_Flag_Index;
    4a0e:	325e      	adds	r2, #94	; 0x5e
    4a10:	4b2c      	ldr	r3, [pc, #176]	; (4ac4 <Lora_CMD_Func+0x4ac>)
    4a12:	54c2      	strb	r2, [r0, r3]
				Print_Who_Lora(tmp_LORA);
    4a14:	4b2c      	ldr	r3, [pc, #176]	; (4ac8 <Lora_CMD_Func+0x4b0>)
    4a16:	4798      	blx	r3
				Print_Read_LoRa_RxBuffer_Msg(tmp_LORA);
    4a18:	0020      	movs	r0, r4
    4a1a:	4b2c      	ldr	r3, [pc, #176]	; (4acc <Lora_CMD_Func+0x4b4>)
    4a1c:	4798      	blx	r3
			Read_LoRa_RxBuffer(tmp_LORA);
    4a1e:	0020      	movs	r0, r4
    4a20:	4b2b      	ldr	r3, [pc, #172]	; (4ad0 <Lora_CMD_Func+0x4b8>)
    4a22:	4798      	blx	r3
			break;
    4a24:	e60e      	b.n	4644 <Lora_CMD_Func+0x2c>
			tmp_LORA->LoRa_IRQ_Flag = 0;
    4a26:	2500      	movs	r5, #0
    4a28:	4b2a      	ldr	r3, [pc, #168]	; (4ad4 <Lora_CMD_Func+0x4bc>)
    4a2a:	54c5      	strb	r5, [r0, r3]
				Print_Who_Lora(tmp_LORA);
    4a2c:	4b26      	ldr	r3, [pc, #152]	; (4ac8 <Lora_CMD_Func+0x4b0>)
    4a2e:	4798      	blx	r3
				Print_Reset_IRQ_Flag_Msg(tmp_LORA);
    4a30:	0020      	movs	r0, r4
    4a32:	4b29      	ldr	r3, [pc, #164]	; (4ad8 <Lora_CMD_Func+0x4c0>)
    4a34:	4798      	blx	r3
			tmp_LORA->NowStatus = Lora_Rx_Data_Ready_Index;
    4a36:	2274      	movs	r2, #116	; 0x74
    4a38:	4b28      	ldr	r3, [pc, #160]	; (4adc <Lora_CMD_Func+0x4c4>)
    4a3a:	54e2      	strb	r2, [r4, r3]
			tmp_LORA->f_count = 0;
    4a3c:	331f      	adds	r3, #31
    4a3e:	50e5      	str	r5, [r4, r3]
		port_base->OUTSET.reg = pin_mask;
    4a40:	2280      	movs	r2, #128	; 0x80
    4a42:	0552      	lsls	r2, r2, #21
    4a44:	4b26      	ldr	r3, [pc, #152]	; (4ae0 <Lora_CMD_Func+0x4c8>)
    4a46:	619a      	str	r2, [r3, #24]
    4a48:	e5fc      	b.n	4644 <Lora_CMD_Func+0x2c>
		port_base->OUTCLR.reg = pin_mask;
    4a4a:	2280      	movs	r2, #128	; 0x80
    4a4c:	0512      	lsls	r2, r2, #20
    4a4e:	4b24      	ldr	r3, [pc, #144]	; (4ae0 <Lora_CMD_Func+0x4c8>)
    4a50:	615a      	str	r2, [r3, #20]
			tmp_LORA->LastStatus = Write_LoRa_TxBuffer_Index;
    4a52:	2205      	movs	r2, #5
    4a54:	4b1a      	ldr	r3, [pc, #104]	; (4ac0 <Lora_CMD_Func+0x4a8>)
    4a56:	54c2      	strb	r2, [r0, r3]
			tmp_LORA->NextStatus = Wait_TX_Finish_Index;
    4a58:	3267      	adds	r2, #103	; 0x67
    4a5a:	4b1a      	ldr	r3, [pc, #104]	; (4ac4 <Lora_CMD_Func+0x4ac>)
    4a5c:	54c2      	strb	r2, [r0, r3]
				Print_Who_Lora(tmp_LORA);
    4a5e:	4b1a      	ldr	r3, [pc, #104]	; (4ac8 <Lora_CMD_Func+0x4b0>)
    4a60:	4798      	blx	r3
				Print_Write_LoRa_TxBuffer_Msg(tmp_LORA);
    4a62:	0020      	movs	r0, r4
    4a64:	4b1f      	ldr	r3, [pc, #124]	; (4ae4 <Lora_CMD_Func+0x4cc>)
    4a66:	4798      	blx	r3
			Write_LoRa_TxBuffer(tmp_LORA);
    4a68:	0020      	movs	r0, r4
    4a6a:	4b1f      	ldr	r3, [pc, #124]	; (4ae8 <Lora_CMD_Func+0x4d0>)
    4a6c:	4798      	blx	r3
			break;
    4a6e:	e5e9      	b.n	4644 <Lora_CMD_Func+0x2c>
			if(tmp_LORA->LoRa_IRQ_Flag == 1)
    4a70:	4b18      	ldr	r3, [pc, #96]	; (4ad4 <Lora_CMD_Func+0x4bc>)
    4a72:	5cc3      	ldrb	r3, [r0, r3]
    4a74:	2b01      	cmp	r3, #1
    4a76:	d000      	beq.n	4a7a <Lora_CMD_Func+0x462>
    4a78:	e5e4      	b.n	4644 <Lora_CMD_Func+0x2c>
				wdt_reset_count();
    4a7a:	4b1c      	ldr	r3, [pc, #112]	; (4aec <Lora_CMD_Func+0x4d4>)
    4a7c:	4798      	blx	r3
					Print_Who_Lora(tmp_LORA);
    4a7e:	0020      	movs	r0, r4
    4a80:	4b11      	ldr	r3, [pc, #68]	; (4ac8 <Lora_CMD_Func+0x4b0>)
    4a82:	4798      	blx	r3
					Print_Wait_TX_Finish_Msg(tmp_LORA);
    4a84:	0020      	movs	r0, r4
    4a86:	4b1a      	ldr	r3, [pc, #104]	; (4af0 <Lora_CMD_Func+0x4d8>)
    4a88:	4798      	blx	r3
				tmp_LORA->LoRa_IRQ_Flag = 0;
    4a8a:	2300      	movs	r3, #0
    4a8c:	4a11      	ldr	r2, [pc, #68]	; (4ad4 <Lora_CMD_Func+0x4bc>)
    4a8e:	54a3      	strb	r3, [r4, r2]
				tmp_LORA->NowStatus = Leave_LoRa_Tx_Mode_Index;
    4a90:	2165      	movs	r1, #101	; 0x65
    4a92:	4a12      	ldr	r2, [pc, #72]	; (4adc <Lora_CMD_Func+0x4c4>)
    4a94:	54a1      	strb	r1, [r4, r2]
				tmp_LORA->f_count = 0;
    4a96:	321f      	adds	r2, #31
    4a98:	50a3      	str	r3, [r4, r2]
    4a9a:	e5d3      	b.n	4644 <Lora_CMD_Func+0x2c>
		port_base->OUTSET.reg = pin_mask;
    4a9c:	2280      	movs	r2, #128	; 0x80
    4a9e:	0512      	lsls	r2, r2, #20
    4aa0:	4b0f      	ldr	r3, [pc, #60]	; (4ae0 <Lora_CMD_Func+0x4c8>)
    4aa2:	619a      	str	r2, [r3, #24]
				Print_Who_Lora(tmp_LORA);
    4aa4:	4b08      	ldr	r3, [pc, #32]	; (4ac8 <Lora_CMD_Func+0x4b0>)
    4aa6:	4798      	blx	r3
				Print_Leave_LoRa_Tx_Mode_Msg(tmp_LORA);
    4aa8:	0020      	movs	r0, r4
    4aaa:	4b12      	ldr	r3, [pc, #72]	; (4af4 <Lora_CMD_Func+0x4dc>)
    4aac:	4798      	blx	r3
			tmp_LORA->LoRa_TxRx_Mode_Flag = SetSleep;
    4aae:	4b12      	ldr	r3, [pc, #72]	; (4af8 <Lora_CMD_Func+0x4e0>)
    4ab0:	2200      	movs	r2, #0
    4ab2:	54e2      	strb	r2, [r4, r3]
				tmp_LORA->LoRa_TxRx_Mode_Flag = SetRx;
    4ab4:	3203      	adds	r2, #3
    4ab6:	54e2      	strb	r2, [r4, r3]
			tmp_LORA->NowStatus = Write_LoRa_Setting_Index;
    4ab8:	3201      	adds	r2, #1
    4aba:	4b08      	ldr	r3, [pc, #32]	; (4adc <Lora_CMD_Func+0x4c4>)
    4abc:	54e2      	strb	r2, [r4, r3]
}
    4abe:	e5c1      	b.n	4644 <Lora_CMD_Func+0x2c>
    4ac0:	0000021e 	.word	0x0000021e
    4ac4:	0000021f 	.word	0x0000021f
    4ac8:	00004b3d 	.word	0x00004b3d
    4acc:	00004e89 	.word	0x00004e89
    4ad0:	000044b9 	.word	0x000044b9
    4ad4:	00000223 	.word	0x00000223
    4ad8:	00004ea9 	.word	0x00004ea9
    4adc:	0000021d 	.word	0x0000021d
    4ae0:	41004400 	.word	0x41004400
    4ae4:	00004ec9 	.word	0x00004ec9
    4ae8:	00004495 	.word	0x00004495
    4aec:	00003f4d 	.word	0x00003f4d
    4af0:	00004f99 	.word	0x00004f99
    4af4:	00004ee9 	.word	0x00004ee9
    4af8:	0000022a 	.word	0x0000022a

00004afc <Print_LoRA_Time_Out_Msg>:
	if(tmp_LORA->Lora_Show_Flag == false) return;
	uart_str(&Msg_RS485TimeOut[0]);
}

void Print_LoRA_Time_Out_Msg(volatile LORA_DEFINE_t *tmp_LORA)
{
    4afc:	b510      	push	{r4, lr}
	if(tmp_LORA == LORA01)
    4afe:	4b06      	ldr	r3, [pc, #24]	; (4b18 <Print_LoRA_Time_Out_Msg+0x1c>)
    4b00:	681b      	ldr	r3, [r3, #0]
    4b02:	4283      	cmp	r3, r0
    4b04:	d003      	beq.n	4b0e <Print_LoRA_Time_Out_Msg+0x12>
		uart_str(&Msg_LoRA1_Time_Out[0]);
	else
		uart_str(&Msg_LoRA2_Time_Out[0]);
    4b06:	4805      	ldr	r0, [pc, #20]	; (4b1c <Print_LoRA_Time_Out_Msg+0x20>)
    4b08:	4b05      	ldr	r3, [pc, #20]	; (4b20 <Print_LoRA_Time_Out_Msg+0x24>)
    4b0a:	4798      	blx	r3
}
    4b0c:	bd10      	pop	{r4, pc}
		uart_str(&Msg_LoRA1_Time_Out[0]);
    4b0e:	4805      	ldr	r0, [pc, #20]	; (4b24 <Print_LoRA_Time_Out_Msg+0x28>)
    4b10:	4b03      	ldr	r3, [pc, #12]	; (4b20 <Print_LoRA_Time_Out_Msg+0x24>)
    4b12:	4798      	blx	r3
    4b14:	e7fa      	b.n	4b0c <Print_LoRA_Time_Out_Msg+0x10>
    4b16:	46c0      	nop			; (mov r8, r8)
    4b18:	200018bc 	.word	0x200018bc
    4b1c:	00007238 	.word	0x00007238
    4b20:	00002ffd 	.word	0x00002ffd
    4b24:	00007224 	.word	0x00007224

00004b28 <Print_LowPower_Msg>:

void Print_LowPower_Msg(volatile LORA_DEFINE_t *tmp_LORA)
{
    4b28:	b510      	push	{r4, lr}
	uart_str(&Msg_LowPower[0]);
    4b2a:	4802      	ldr	r0, [pc, #8]	; (4b34 <Print_LowPower_Msg+0xc>)
    4b2c:	4b02      	ldr	r3, [pc, #8]	; (4b38 <Print_LowPower_Msg+0x10>)
    4b2e:	4798      	blx	r3
}
    4b30:	bd10      	pop	{r4, pc}
    4b32:	46c0      	nop			; (mov r8, r8)
    4b34:	00007258 	.word	0x00007258
    4b38:	00002ffd 	.word	0x00002ffd

00004b3c <Print_Who_Lora>:


void Print_Who_Lora(volatile LORA_DEFINE_t *tmp_LORA)
{
    4b3c:	b510      	push	{r4, lr}
	if(tmp_LORA == LORA01)
    4b3e:	4b11      	ldr	r3, [pc, #68]	; (4b84 <Print_Who_Lora+0x48>)
    4b40:	681b      	ldr	r3, [r3, #0]
    4b42:	4283      	cmp	r3, r0
    4b44:	d004      	beq.n	4b50 <Print_Who_Lora+0x14>
		if(LORA01->Lora_Debug_Flag == NoDebug) return;
		uTXByte(Debug_COM, '#');
		uart_str(&Msg_LoRA01[0]);
	}
	else
	if(tmp_LORA == LORA02)
    4b46:	4b10      	ldr	r3, [pc, #64]	; (4b88 <Print_Who_Lora+0x4c>)
    4b48:	681b      	ldr	r3, [r3, #0]
    4b4a:	4298      	cmp	r0, r3
    4b4c:	d00d      	beq.n	4b6a <Print_Who_Lora+0x2e>
	{
		if(LORA02->Lora_Debug_Flag == NoDebug) return;
		uTXByte(Debug_COM, '#');
		uart_str(&Msg_LoRA02[0]);
	}
}
    4b4e:	bd10      	pop	{r4, pc}
		if(LORA01->Lora_Debug_Flag == NoDebug) return;
    4b50:	2288      	movs	r2, #136	; 0x88
    4b52:	0092      	lsls	r2, r2, #2
    4b54:	5c9b      	ldrb	r3, [r3, r2]
    4b56:	2b00      	cmp	r3, #0
    4b58:	d0f9      	beq.n	4b4e <Print_Who_Lora+0x12>
		uTXByte(Debug_COM, '#');
    4b5a:	2123      	movs	r1, #35	; 0x23
    4b5c:	480b      	ldr	r0, [pc, #44]	; (4b8c <Print_Who_Lora+0x50>)
    4b5e:	4b0c      	ldr	r3, [pc, #48]	; (4b90 <Print_Who_Lora+0x54>)
    4b60:	4798      	blx	r3
		uart_str(&Msg_LoRA01[0]);
    4b62:	480c      	ldr	r0, [pc, #48]	; (4b94 <Print_Who_Lora+0x58>)
    4b64:	4b0c      	ldr	r3, [pc, #48]	; (4b98 <Print_Who_Lora+0x5c>)
    4b66:	4798      	blx	r3
    4b68:	e7f1      	b.n	4b4e <Print_Who_Lora+0x12>
		if(LORA02->Lora_Debug_Flag == NoDebug) return;
    4b6a:	2388      	movs	r3, #136	; 0x88
    4b6c:	009b      	lsls	r3, r3, #2
    4b6e:	5cc3      	ldrb	r3, [r0, r3]
    4b70:	2b00      	cmp	r3, #0
    4b72:	d0ec      	beq.n	4b4e <Print_Who_Lora+0x12>
		uTXByte(Debug_COM, '#');
    4b74:	2123      	movs	r1, #35	; 0x23
    4b76:	4805      	ldr	r0, [pc, #20]	; (4b8c <Print_Who_Lora+0x50>)
    4b78:	4b05      	ldr	r3, [pc, #20]	; (4b90 <Print_Who_Lora+0x54>)
    4b7a:	4798      	blx	r3
		uart_str(&Msg_LoRA02[0]);
    4b7c:	4807      	ldr	r0, [pc, #28]	; (4b9c <Print_Who_Lora+0x60>)
    4b7e:	4b06      	ldr	r3, [pc, #24]	; (4b98 <Print_Who_Lora+0x5c>)
    4b80:	4798      	blx	r3
    4b82:	e7e4      	b.n	4b4e <Print_Who_Lora+0x12>
    4b84:	200018bc 	.word	0x200018bc
    4b88:	20000c90 	.word	0x20000c90
    4b8c:	20000270 	.word	0x20000270
    4b90:	00002725 	.word	0x00002725
    4b94:	00006dcc 	.word	0x00006dcc
    4b98:	00002ffd 	.word	0x00002ffd
    4b9c:	00006dd4 	.word	0x00006dd4

00004ba0 <Print_Read_LoRa_ID_Msg>:

void Print_Read_LoRa_ID_Msg(volatile LORA_DEFINE_t *tmp_LORA)
{
    4ba0:	b510      	push	{r4, lr}
	if(tmp_LORA->Lora_Debug_Flag == NoDebug) return;
    4ba2:	2388      	movs	r3, #136	; 0x88
    4ba4:	009b      	lsls	r3, r3, #2
    4ba6:	5cc3      	ldrb	r3, [r0, r3]
    4ba8:	2b00      	cmp	r3, #0
    4baa:	d100      	bne.n	4bae <Print_Read_LoRa_ID_Msg+0xe>
	uart_str(&Msg_RdID[0]);
}
    4bac:	bd10      	pop	{r4, pc}
	uart_str(&Msg_RdID[0]);
    4bae:	4802      	ldr	r0, [pc, #8]	; (4bb8 <Print_Read_LoRa_ID_Msg+0x18>)
    4bb0:	4b02      	ldr	r3, [pc, #8]	; (4bbc <Print_Read_LoRa_ID_Msg+0x1c>)
    4bb2:	4798      	blx	r3
    4bb4:	e7fa      	b.n	4bac <Print_Read_LoRa_ID_Msg+0xc>
    4bb6:	46c0      	nop			; (mov r8, r8)
    4bb8:	00007294 	.word	0x00007294
    4bbc:	00002ffd 	.word	0x00002ffd

00004bc0 <Print_Delay_LoRa_CMD_Msg>:

void Print_Delay_LoRa_CMD_Msg(volatile LORA_DEFINE_t *tmp_LORA)
{
    4bc0:	b510      	push	{r4, lr}
	if(tmp_LORA->Lora_Debug_Flag == 0) return;
    4bc2:	2388      	movs	r3, #136	; 0x88
    4bc4:	009b      	lsls	r3, r3, #2
    4bc6:	5cc3      	ldrb	r3, [r0, r3]
    4bc8:	2b00      	cmp	r3, #0
    4bca:	d100      	bne.n	4bce <Print_Delay_LoRa_CMD_Msg+0xe>
	uart_str(&Msg_CMDDelay[0]);
}
    4bcc:	bd10      	pop	{r4, pc}
	uart_str(&Msg_CMDDelay[0]);
    4bce:	4802      	ldr	r0, [pc, #8]	; (4bd8 <Print_Delay_LoRa_CMD_Msg+0x18>)
    4bd0:	4b02      	ldr	r3, [pc, #8]	; (4bdc <Print_Delay_LoRa_CMD_Msg+0x1c>)
    4bd2:	4798      	blx	r3
    4bd4:	e7fa      	b.n	4bcc <Print_Delay_LoRa_CMD_Msg+0xc>
    4bd6:	46c0      	nop			; (mov r8, r8)
    4bd8:	000071b0 	.word	0x000071b0
    4bdc:	00002ffd 	.word	0x00002ffd

00004be0 <Print_Time_Out_Msg>:

void Print_Time_Out_Msg(volatile LORA_DEFINE_t *tmp_LORA)
{
    4be0:	b510      	push	{r4, lr}
	if(tmp_LORA->Lora_Debug_Flag == NoDebug) return;
    4be2:	2388      	movs	r3, #136	; 0x88
    4be4:	009b      	lsls	r3, r3, #2
    4be6:	5cc3      	ldrb	r3, [r0, r3]
    4be8:	2b00      	cmp	r3, #0
    4bea:	d100      	bne.n	4bee <Print_Time_Out_Msg+0xe>
	uart_str(&Msg_TimeOut[0]);
}
    4bec:	bd10      	pop	{r4, pc}
	uart_str(&Msg_TimeOut[0]);
    4bee:	4802      	ldr	r0, [pc, #8]	; (4bf8 <Print_Time_Out_Msg+0x18>)
    4bf0:	4b02      	ldr	r3, [pc, #8]	; (4bfc <Print_Time_Out_Msg+0x1c>)
    4bf2:	4798      	blx	r3
    4bf4:	e7fa      	b.n	4bec <Print_Time_Out_Msg+0xc>
    4bf6:	46c0      	nop			; (mov r8, r8)
    4bf8:	000072a8 	.word	0x000072a8
    4bfc:	00002ffd 	.word	0x00002ffd

00004c00 <Print_Catch_LoRa_ID_Msg>:

void Print_Catch_LoRa_ID_Msg(volatile LORA_DEFINE_t *tmp_LORA)
{
    4c00:	b5f0      	push	{r4, r5, r6, r7, lr}
    4c02:	46c6      	mov	lr, r8
    4c04:	b500      	push	{lr}
    4c06:	0006      	movs	r6, r0
	uart_str(&Msg_FW[0]);
    4c08:	482a      	ldr	r0, [pc, #168]	; (4cb4 <Print_Catch_LoRa_ID_Msg+0xb4>)
    4c0a:	4b2b      	ldr	r3, [pc, #172]	; (4cb8 <Print_Catch_LoRa_ID_Msg+0xb8>)
    4c0c:	4698      	mov	r8, r3
    4c0e:	4798      	blx	r3
	uart_send_ascii_byte(Debug_COM, tmp_LORA->MyLoRaFW);
    4c10:	7831      	ldrb	r1, [r6, #0]
    4c12:	b2c9      	uxtb	r1, r1
    4c14:	4c29      	ldr	r4, [pc, #164]	; (4cbc <Print_Catch_LoRa_ID_Msg+0xbc>)
    4c16:	0020      	movs	r0, r4
    4c18:	4d29      	ldr	r5, [pc, #164]	; (4cc0 <Print_Catch_LoRa_ID_Msg+0xc0>)
    4c1a:	47a8      	blx	r5
	uTXByte(Debug_COM, 0x09);
    4c1c:	2109      	movs	r1, #9
    4c1e:	0020      	movs	r0, r4
    4c20:	4f28      	ldr	r7, [pc, #160]	; (4cc4 <Print_Catch_LoRa_ID_Msg+0xc4>)
    4c22:	47b8      	blx	r7
	
	Print_FW_ID();
    4c24:	4b28      	ldr	r3, [pc, #160]	; (4cc8 <Print_Catch_LoRa_ID_Msg+0xc8>)
    4c26:	4798      	blx	r3
	uTXByte(Debug_COM, 0x0d);
    4c28:	210d      	movs	r1, #13
    4c2a:	0020      	movs	r0, r4
    4c2c:	47b8      	blx	r7

	uart_str(&Msg_ID[0]);
    4c2e:	4827      	ldr	r0, [pc, #156]	; (4ccc <Print_Catch_LoRa_ID_Msg+0xcc>)
    4c30:	47c0      	blx	r8
	uart_send_ascii_byte(Debug_COM, tmp_LORA->MyLoRaID[0]);
    4c32:	7871      	ldrb	r1, [r6, #1]
    4c34:	b2c9      	uxtb	r1, r1
    4c36:	0020      	movs	r0, r4
    4c38:	47a8      	blx	r5
	uart_send_ascii_byte(Debug_COM, tmp_LORA->MyLoRaID[1]);
    4c3a:	78b1      	ldrb	r1, [r6, #2]
    4c3c:	b2c9      	uxtb	r1, r1
    4c3e:	0020      	movs	r0, r4
    4c40:	47a8      	blx	r5
	uart_send_ascii_byte(Debug_COM, tmp_LORA->MyLoRaID[2]);
    4c42:	78f1      	ldrb	r1, [r6, #3]
    4c44:	b2c9      	uxtb	r1, r1
    4c46:	0020      	movs	r0, r4
    4c48:	47a8      	blx	r5
	uart_send_ascii_byte(Debug_COM, tmp_LORA->MyLoRaID[3]);
    4c4a:	7931      	ldrb	r1, [r6, #4]
    4c4c:	b2c9      	uxtb	r1, r1
    4c4e:	0020      	movs	r0, r4
    4c50:	47a8      	blx	r5
	uTXByte(Debug_COM, 0x09);
    4c52:	2109      	movs	r1, #9
    4c54:	0020      	movs	r0, r4
    4c56:	47b8      	blx	r7
	
	uart_str(&Msg_UserID[0]);
    4c58:	481d      	ldr	r0, [pc, #116]	; (4cd0 <Print_Catch_LoRa_ID_Msg+0xd0>)
    4c5a:	47c0      	blx	r8
	uart_send_ascii_byte(Debug_COM, tmp_LORA->UserLoRaID[0]);
    4c5c:	7971      	ldrb	r1, [r6, #5]
    4c5e:	b2c9      	uxtb	r1, r1
    4c60:	0020      	movs	r0, r4
    4c62:	47a8      	blx	r5
	uart_send_ascii_byte(Debug_COM, tmp_LORA->UserLoRaID[1]);
    4c64:	79b1      	ldrb	r1, [r6, #6]
    4c66:	b2c9      	uxtb	r1, r1
    4c68:	0020      	movs	r0, r4
    4c6a:	47a8      	blx	r5
	uart_send_ascii_byte(Debug_COM, tmp_LORA->UserLoRaID[2]);
    4c6c:	79f1      	ldrb	r1, [r6, #7]
    4c6e:	b2c9      	uxtb	r1, r1
    4c70:	0020      	movs	r0, r4
    4c72:	47a8      	blx	r5
	uart_send_ascii_byte(Debug_COM, tmp_LORA->UserLoRaID[3]);
    4c74:	7a31      	ldrb	r1, [r6, #8]
    4c76:	b2c9      	uxtb	r1, r1
    4c78:	0020      	movs	r0, r4
    4c7a:	47a8      	blx	r5
	uTXByte(Debug_COM, 0x09);
    4c7c:	2109      	movs	r1, #9
    4c7e:	0020      	movs	r0, r4
    4c80:	47b8      	blx	r7
	
	uart_str(&Msg_LoRAID[0]);
    4c82:	4814      	ldr	r0, [pc, #80]	; (4cd4 <Print_Catch_LoRa_ID_Msg+0xd4>)
    4c84:	47c0      	blx	r8
	uart_send_ascii_byte(Debug_COM, tmp_LORA->LoRaID[0]);
    4c86:	7a71      	ldrb	r1, [r6, #9]
    4c88:	b2c9      	uxtb	r1, r1
    4c8a:	0020      	movs	r0, r4
    4c8c:	47a8      	blx	r5
	uart_send_ascii_byte(Debug_COM, tmp_LORA->LoRaID[1]);
    4c8e:	7ab1      	ldrb	r1, [r6, #10]
    4c90:	b2c9      	uxtb	r1, r1
    4c92:	0020      	movs	r0, r4
    4c94:	47a8      	blx	r5
	uart_send_ascii_byte(Debug_COM, tmp_LORA->LoRaID[2]);
    4c96:	7af1      	ldrb	r1, [r6, #11]
    4c98:	b2c9      	uxtb	r1, r1
    4c9a:	0020      	movs	r0, r4
    4c9c:	47a8      	blx	r5
	uart_send_ascii_byte(Debug_COM, tmp_LORA->LoRaID[3]);
    4c9e:	7b31      	ldrb	r1, [r6, #12]
    4ca0:	b2c9      	uxtb	r1, r1
    4ca2:	0020      	movs	r0, r4
    4ca4:	47a8      	blx	r5
	uTXByte(Debug_COM, 0x0d);
    4ca6:	210d      	movs	r1, #13
    4ca8:	0020      	movs	r0, r4
    4caa:	47b8      	blx	r7
}
    4cac:	bc04      	pop	{r2}
    4cae:	4690      	mov	r8, r2
    4cb0:	bdf0      	pop	{r4, r5, r6, r7, pc}
    4cb2:	46c0      	nop			; (mov r8, r8)
    4cb4:	000071f4 	.word	0x000071f4
    4cb8:	00002ffd 	.word	0x00002ffd
    4cbc:	20000270 	.word	0x20000270
    4cc0:	00002745 	.word	0x00002745
    4cc4:	00002725 	.word	0x00002725
    4cc8:	000019ad 	.word	0x000019ad
    4ccc:	00007200 	.word	0x00007200
    4cd0:	000072b4 	.word	0x000072b4
    4cd4:	0000724c 	.word	0x0000724c

00004cd8 <Print_Catch_LoRa_Setting_Msg>:

void Print_Catch_LoRa_Setting_Msg(volatile LORA_DEFINE_t *tmp_LORA)
{
    4cd8:	b5f0      	push	{r4, r5, r6, r7, lr}
    4cda:	46d6      	mov	lr, sl
    4cdc:	464f      	mov	r7, r9
    4cde:	4646      	mov	r6, r8
    4ce0:	b5c0      	push	{r6, r7, lr}
    4ce2:	b082      	sub	sp, #8
    4ce4:	0005      	movs	r5, r0
	UINT32u_t tmp_FQ;


	uart_str("   PLC Addr: \0");
    4ce6:	4843      	ldr	r0, [pc, #268]	; (4df4 <Print_Catch_LoRa_Setting_Msg+0x11c>)
    4ce8:	4b43      	ldr	r3, [pc, #268]	; (4df8 <Print_Catch_LoRa_Setting_Msg+0x120>)
    4cea:	4798      	blx	r3
	uart_send_ascii_byte(Debug_COM, tmp_LORA->PLC_Addr);
    4cec:	7c69      	ldrb	r1, [r5, #17]
    4cee:	b2c9      	uxtb	r1, r1
    4cf0:	4842      	ldr	r0, [pc, #264]	; (4dfc <Print_Catch_LoRa_Setting_Msg+0x124>)
    4cf2:	4b43      	ldr	r3, [pc, #268]	; (4e00 <Print_Catch_LoRa_Setting_Msg+0x128>)
    4cf4:	4798      	blx	r3
	if(tmp_LORA->PLC_Flag == NeedPLC)
    4cf6:	7c2b      	ldrb	r3, [r5, #16]
    4cf8:	2b01      	cmp	r3, #1
    4cfa:	d06c      	beq.n	4dd6 <Print_Catch_LoRa_Setting_Msg+0xfe>
		uart_str("\t[ON]\0");
	else
		uart_str("\t[OFF]\0");
    4cfc:	483d      	ldr	r0, [pc, #244]	; (4df4 <Print_Catch_LoRa_Setting_Msg+0x11c>)
    4cfe:	3018      	adds	r0, #24
    4d00:	4b3d      	ldr	r3, [pc, #244]	; (4df8 <Print_Catch_LoRa_Setting_Msg+0x120>)
    4d02:	4798      	blx	r3
	uTXByte(Debug_COM, 0x0d);
    4d04:	210d      	movs	r1, #13
    4d06:	483d      	ldr	r0, [pc, #244]	; (4dfc <Print_Catch_LoRa_Setting_Msg+0x124>)
    4d08:	4b3e      	ldr	r3, [pc, #248]	; (4e04 <Print_Catch_LoRa_Setting_Msg+0x12c>)
    4d0a:	4798      	blx	r3
	
	uart_str(&Msg_DebugMode[0]);
    4d0c:	483e      	ldr	r0, [pc, #248]	; (4e08 <Print_Catch_LoRa_Setting_Msg+0x130>)
    4d0e:	4b3a      	ldr	r3, [pc, #232]	; (4df8 <Print_Catch_LoRa_Setting_Msg+0x120>)
    4d10:	4798      	blx	r3
	if(tmp_LORA->Lora_Debug_Flag == NeedDebug)
    4d12:	2388      	movs	r3, #136	; 0x88
    4d14:	009b      	lsls	r3, r3, #2
    4d16:	5ceb      	ldrb	r3, [r5, r3]
    4d18:	2b01      	cmp	r3, #1
    4d1a:	d061      	beq.n	4de0 <Print_Catch_LoRa_Setting_Msg+0x108>
		uart_str("ON\0");
	else
		uart_str("OFF\0");
    4d1c:	4835      	ldr	r0, [pc, #212]	; (4df4 <Print_Catch_LoRa_Setting_Msg+0x11c>)
    4d1e:	3024      	adds	r0, #36	; 0x24
    4d20:	4b35      	ldr	r3, [pc, #212]	; (4df8 <Print_Catch_LoRa_Setting_Msg+0x120>)
    4d22:	4798      	blx	r3
	uTXByte(Debug_COM, 0x0d);
    4d24:	210d      	movs	r1, #13
    4d26:	4835      	ldr	r0, [pc, #212]	; (4dfc <Print_Catch_LoRa_Setting_Msg+0x124>)
    4d28:	4b36      	ldr	r3, [pc, #216]	; (4e04 <Print_Catch_LoRa_Setting_Msg+0x12c>)
    4d2a:	4798      	blx	r3
	
	uart_str(&Msg_Mode[0]);
    4d2c:	4837      	ldr	r0, [pc, #220]	; (4e0c <Print_Catch_LoRa_Setting_Msg+0x134>)
    4d2e:	4b32      	ldr	r3, [pc, #200]	; (4df8 <Print_Catch_LoRa_Setting_Msg+0x120>)
    4d30:	4798      	blx	r3
	if(tmp_LORA->MyLoRaMode == SetTx)
    4d32:	7b6b      	ldrb	r3, [r5, #13]
    4d34:	2b02      	cmp	r3, #2
    4d36:	d058      	beq.n	4dea <Print_Catch_LoRa_Setting_Msg+0x112>
		uart_str("Tx\0");
	else
		uart_str("Rx\0");
    4d38:	482e      	ldr	r0, [pc, #184]	; (4df4 <Print_Catch_LoRa_Setting_Msg+0x11c>)
    4d3a:	3030      	adds	r0, #48	; 0x30
    4d3c:	4b2e      	ldr	r3, [pc, #184]	; (4df8 <Print_Catch_LoRa_Setting_Msg+0x120>)
    4d3e:	4798      	blx	r3
	uTXByte(Debug_COM, 0x0d);
    4d40:	4c2e      	ldr	r4, [pc, #184]	; (4dfc <Print_Catch_LoRa_Setting_Msg+0x124>)
    4d42:	210d      	movs	r1, #13
    4d44:	0020      	movs	r0, r4
    4d46:	4e2f      	ldr	r6, [pc, #188]	; (4e04 <Print_Catch_LoRa_Setting_Msg+0x12c>)
    4d48:	47b0      	blx	r6
	
	uart_str(&Msg_FQ[0]);
    4d4a:	4831      	ldr	r0, [pc, #196]	; (4e10 <Print_Catch_LoRa_Setting_Msg+0x138>)
    4d4c:	4f2a      	ldr	r7, [pc, #168]	; (4df8 <Print_Catch_LoRa_Setting_Msg+0x120>)
    4d4e:	47b8      	blx	r7
	tmp_FQ.dword = long_to_bcd(tmp_LORA->MyLoRaFQ.dword);
    4d50:	6968      	ldr	r0, [r5, #20]
    4d52:	4b30      	ldr	r3, [pc, #192]	; (4e14 <Print_Catch_LoRa_Setting_Msg+0x13c>)
    4d54:	4798      	blx	r3
    4d56:	4680      	mov	r8, r0
	uart_send_ascii_byte(Debug_COM, tmp_FQ.byte[2]);
    4d58:	0201      	lsls	r1, r0, #8
    4d5a:	0e09      	lsrs	r1, r1, #24
    4d5c:	0020      	movs	r0, r4
    4d5e:	4b28      	ldr	r3, [pc, #160]	; (4e00 <Print_Catch_LoRa_Setting_Msg+0x128>)
    4d60:	4699      	mov	r9, r3
    4d62:	4798      	blx	r3
	uart_send_ascii_byte(Debug_COM, tmp_FQ.byte[1]);
    4d64:	4643      	mov	r3, r8
    4d66:	0419      	lsls	r1, r3, #16
    4d68:	0e09      	lsrs	r1, r1, #24
    4d6a:	0020      	movs	r0, r4
    4d6c:	47c8      	blx	r9
	uTXByte(Debug_COM, '.');
    4d6e:	212e      	movs	r1, #46	; 0x2e
    4d70:	0020      	movs	r0, r4
    4d72:	47b0      	blx	r6
	uart_send_ascii_byte(Debug_COM, tmp_FQ.byte[0]);
    4d74:	4643      	mov	r3, r8
    4d76:	466a      	mov	r2, sp
    4d78:	71d3      	strb	r3, [r2, #7]
    4d7a:	79d1      	ldrb	r1, [r2, #7]
    4d7c:	0020      	movs	r0, r4
    4d7e:	47c8      	blx	r9
	uart_str(" MHz\0");
    4d80:	4b1c      	ldr	r3, [pc, #112]	; (4df4 <Print_Catch_LoRa_Setting_Msg+0x11c>)
    4d82:	4698      	mov	r8, r3
    4d84:	0018      	movs	r0, r3
    4d86:	3034      	adds	r0, #52	; 0x34
    4d88:	47b8      	blx	r7
	uTXByte(Debug_COM, 0x0d);
    4d8a:	210d      	movs	r1, #13
    4d8c:	0020      	movs	r0, r4
    4d8e:	47b0      	blx	r6
	
	uart_str(&Msg_Power[0]);
    4d90:	4821      	ldr	r0, [pc, #132]	; (4e18 <Print_Catch_LoRa_Setting_Msg+0x140>)
    4d92:	47b8      	blx	r7
	uart_send_word(Debug_COM, hex_to_bcd(tmp_LORA->MyLoRaPower + 2));
    4d94:	7ba8      	ldrb	r0, [r5, #14]
    4d96:	3002      	adds	r0, #2
    4d98:	4b20      	ldr	r3, [pc, #128]	; (4e1c <Print_Catch_LoRa_Setting_Msg+0x144>)
    4d9a:	469a      	mov	sl, r3
    4d9c:	4798      	blx	r3
    4d9e:	0001      	movs	r1, r0
    4da0:	0020      	movs	r0, r4
    4da2:	4b1f      	ldr	r3, [pc, #124]	; (4e20 <Print_Catch_LoRa_Setting_Msg+0x148>)
    4da4:	4699      	mov	r9, r3
    4da6:	4798      	blx	r3
	uart_str(" dbm\0");
    4da8:	4640      	mov	r0, r8
    4daa:	303c      	adds	r0, #60	; 0x3c
    4dac:	47b8      	blx	r7
	uTXByte(Debug_COM, 0x0d);
    4dae:	210d      	movs	r1, #13
    4db0:	0020      	movs	r0, r4
    4db2:	47b0      	blx	r6
	
	uart_str(&Msg_SF[0]);
    4db4:	481b      	ldr	r0, [pc, #108]	; (4e24 <Print_Catch_LoRa_Setting_Msg+0x14c>)
    4db6:	47b8      	blx	r7
	uart_send_word(Debug_COM, hex_to_bcd(tmp_LORA->MyLoRaSF + 5));
    4db8:	7be8      	ldrb	r0, [r5, #15]
    4dba:	3005      	adds	r0, #5
    4dbc:	47d0      	blx	sl
    4dbe:	0001      	movs	r1, r0
    4dc0:	0020      	movs	r0, r4
    4dc2:	47c8      	blx	r9
	uTXByte(Debug_COM, 0x0d);
    4dc4:	210d      	movs	r1, #13
    4dc6:	0020      	movs	r0, r4
    4dc8:	47b0      	blx	r6
}
    4dca:	b002      	add	sp, #8
    4dcc:	bc1c      	pop	{r2, r3, r4}
    4dce:	4690      	mov	r8, r2
    4dd0:	4699      	mov	r9, r3
    4dd2:	46a2      	mov	sl, r4
    4dd4:	bdf0      	pop	{r4, r5, r6, r7, pc}
		uart_str("\t[ON]\0");
    4dd6:	4807      	ldr	r0, [pc, #28]	; (4df4 <Print_Catch_LoRa_Setting_Msg+0x11c>)
    4dd8:	3010      	adds	r0, #16
    4dda:	4b07      	ldr	r3, [pc, #28]	; (4df8 <Print_Catch_LoRa_Setting_Msg+0x120>)
    4ddc:	4798      	blx	r3
    4dde:	e791      	b.n	4d04 <Print_Catch_LoRa_Setting_Msg+0x2c>
		uart_str("ON\0");
    4de0:	4804      	ldr	r0, [pc, #16]	; (4df4 <Print_Catch_LoRa_Setting_Msg+0x11c>)
    4de2:	3020      	adds	r0, #32
    4de4:	4b04      	ldr	r3, [pc, #16]	; (4df8 <Print_Catch_LoRa_Setting_Msg+0x120>)
    4de6:	4798      	blx	r3
    4de8:	e79c      	b.n	4d24 <Print_Catch_LoRa_Setting_Msg+0x4c>
		uart_str("Tx\0");
    4dea:	4802      	ldr	r0, [pc, #8]	; (4df4 <Print_Catch_LoRa_Setting_Msg+0x11c>)
    4dec:	302c      	adds	r0, #44	; 0x2c
    4dee:	4b02      	ldr	r3, [pc, #8]	; (4df8 <Print_Catch_LoRa_Setting_Msg+0x120>)
    4df0:	4798      	blx	r3
    4df2:	e7a5      	b.n	4d40 <Print_Catch_LoRa_Setting_Msg+0x68>
    4df4:	0000716c 	.word	0x0000716c
    4df8:	00002ffd 	.word	0x00002ffd
    4dfc:	20000270 	.word	0x20000270
    4e00:	00002745 	.word	0x00002745
    4e04:	00002725 	.word	0x00002725
    4e08:	000071d4 	.word	0x000071d4
    4e0c:	00007264 	.word	0x00007264
    4e10:	000071e8 	.word	0x000071e8
    4e14:	00002a55 	.word	0x00002a55
    4e18:	00007270 	.word	0x00007270
    4e1c:	000029e5 	.word	0x000029e5
    4e20:	000027b9 	.word	0x000027b9
    4e24:	0000729c 	.word	0x0000729c

00004e28 <Print_Reset_LoRa_Msg>:

void Print_Reset_LoRa_Msg(volatile LORA_DEFINE_t *tmp_LORA)
{
    4e28:	b510      	push	{r4, lr}
	if(tmp_LORA->Lora_Debug_Flag == NoDebug) return;
    4e2a:	2388      	movs	r3, #136	; 0x88
    4e2c:	009b      	lsls	r3, r3, #2
    4e2e:	5cc3      	ldrb	r3, [r0, r3]
    4e30:	2b00      	cmp	r3, #0
    4e32:	d100      	bne.n	4e36 <Print_Reset_LoRa_Msg+0xe>
	uart_str(&Msg_LRRST[0]);
}
    4e34:	bd10      	pop	{r4, pc}
	uart_str(&Msg_LRRST[0]);
    4e36:	4802      	ldr	r0, [pc, #8]	; (4e40 <Print_Reset_LoRa_Msg+0x18>)
    4e38:	4b02      	ldr	r3, [pc, #8]	; (4e44 <Print_Reset_LoRa_Msg+0x1c>)
    4e3a:	4798      	blx	r3
    4e3c:	e7fa      	b.n	4e34 <Print_Reset_LoRa_Msg+0xc>
    4e3e:	46c0      	nop			; (mov r8, r8)
    4e40:	0000720c 	.word	0x0000720c
    4e44:	00002ffd 	.word	0x00002ffd

00004e48 <Print_Write_LoRa_Mode_FQ_Msg>:
	if(tmp_LORA->Lora_Debug_Flag == NoDebug) return;
	uart_str(&Msg_RdSt[0]);
}

void Print_Write_LoRa_Mode_FQ_Msg(volatile LORA_DEFINE_t *tmp_LORA)
{
    4e48:	b510      	push	{r4, lr}
	if(tmp_LORA->Lora_Debug_Flag == NoDebug) return;
    4e4a:	2388      	movs	r3, #136	; 0x88
    4e4c:	009b      	lsls	r3, r3, #2
    4e4e:	5cc3      	ldrb	r3, [r0, r3]
    4e50:	2b00      	cmp	r3, #0
    4e52:	d100      	bne.n	4e56 <Print_Write_LoRa_Mode_FQ_Msg+0xe>
	uart_str(&Msg_WrFQ[0]);
}
    4e54:	bd10      	pop	{r4, pc}
	uart_str(&Msg_WrFQ[0]);
    4e56:	4802      	ldr	r0, [pc, #8]	; (4e60 <Print_Write_LoRa_Mode_FQ_Msg+0x18>)
    4e58:	4b02      	ldr	r3, [pc, #8]	; (4e64 <Print_Write_LoRa_Mode_FQ_Msg+0x1c>)
    4e5a:	4798      	blx	r3
    4e5c:	e7fa      	b.n	4e54 <Print_Write_LoRa_Mode_FQ_Msg+0xc>
    4e5e:	46c0      	nop			; (mov r8, r8)
    4e60:	000072d8 	.word	0x000072d8
    4e64:	00002ffd 	.word	0x00002ffd

00004e68 <Print_Write_LoRa_Setting_Msg>:
void Print_Write_LoRa_Setting_Msg(volatile LORA_DEFINE_t *tmp_LORA)
{
    4e68:	b510      	push	{r4, lr}
	if(tmp_LORA->Lora_Debug_Flag == NoDebug) return;
    4e6a:	2388      	movs	r3, #136	; 0x88
    4e6c:	009b      	lsls	r3, r3, #2
    4e6e:	5cc3      	ldrb	r3, [r0, r3]
    4e70:	2b00      	cmp	r3, #0
    4e72:	d100      	bne.n	4e76 <Print_Write_LoRa_Setting_Msg+0xe>
	uart_str(&Msg_WrSt[0]);
}
    4e74:	bd10      	pop	{r4, pc}
	uart_str(&Msg_WrSt[0]);
    4e76:	4802      	ldr	r0, [pc, #8]	; (4e80 <Print_Write_LoRa_Setting_Msg+0x18>)
    4e78:	4b02      	ldr	r3, [pc, #8]	; (4e84 <Print_Write_LoRa_Setting_Msg+0x1c>)
    4e7a:	4798      	blx	r3
    4e7c:	e7fa      	b.n	4e74 <Print_Write_LoRa_Setting_Msg+0xc>
    4e7e:	46c0      	nop			; (mov r8, r8)
    4e80:	000072e0 	.word	0x000072e0
    4e84:	00002ffd 	.word	0x00002ffd

00004e88 <Print_Read_LoRa_RxBuffer_Msg>:


void Print_Read_LoRa_RxBuffer_Msg(volatile LORA_DEFINE_t *tmp_LORA)
{
    4e88:	b510      	push	{r4, lr}
	if(tmp_LORA->Lora_Debug_Flag == NoDebug) return;
    4e8a:	2388      	movs	r3, #136	; 0x88
    4e8c:	009b      	lsls	r3, r3, #2
    4e8e:	5cc3      	ldrb	r3, [r0, r3]
    4e90:	2b00      	cmp	r3, #0
    4e92:	d100      	bne.n	4e96 <Print_Read_LoRa_RxBuffer_Msg+0xe>
	uart_str(&Msg_RdBF[0]);
}
    4e94:	bd10      	pop	{r4, pc}
	uart_str(&Msg_RdBF[0]);
    4e96:	4802      	ldr	r0, [pc, #8]	; (4ea0 <Print_Read_LoRa_RxBuffer_Msg+0x18>)
    4e98:	4b02      	ldr	r3, [pc, #8]	; (4ea4 <Print_Read_LoRa_RxBuffer_Msg+0x1c>)
    4e9a:	4798      	blx	r3
    4e9c:	e7fa      	b.n	4e94 <Print_Read_LoRa_RxBuffer_Msg+0xc>
    4e9e:	46c0      	nop			; (mov r8, r8)
    4ea0:	0000728c 	.word	0x0000728c
    4ea4:	00002ffd 	.word	0x00002ffd

00004ea8 <Print_Reset_IRQ_Flag_Msg>:

void Print_Reset_IRQ_Flag_Msg(volatile LORA_DEFINE_t *tmp_LORA)
{
    4ea8:	b510      	push	{r4, lr}
	if(tmp_LORA->Lora_Debug_Flag == NoDebug) return;
    4eaa:	2388      	movs	r3, #136	; 0x88
    4eac:	009b      	lsls	r3, r3, #2
    4eae:	5cc3      	ldrb	r3, [r0, r3]
    4eb0:	2b00      	cmp	r3, #0
    4eb2:	d100      	bne.n	4eb6 <Print_Reset_IRQ_Flag_Msg+0xe>
	uart_str(&Msg_RSTIRQ[0]);
}
    4eb4:	bd10      	pop	{r4, pc}
	uart_str(&Msg_RSTIRQ[0]);
    4eb6:	4802      	ldr	r0, [pc, #8]	; (4ec0 <Print_Reset_IRQ_Flag_Msg+0x18>)
    4eb8:	4b02      	ldr	r3, [pc, #8]	; (4ec4 <Print_Reset_IRQ_Flag_Msg+0x1c>)
    4eba:	4798      	blx	r3
    4ebc:	e7fa      	b.n	4eb4 <Print_Reset_IRQ_Flag_Msg+0xc>
    4ebe:	46c0      	nop			; (mov r8, r8)
    4ec0:	00007280 	.word	0x00007280
    4ec4:	00002ffd 	.word	0x00002ffd

00004ec8 <Print_Write_LoRa_TxBuffer_Msg>:
void Print_Write_LoRa_TxBuffer_Msg(volatile LORA_DEFINE_t *tmp_LORA)
{
    4ec8:	b510      	push	{r4, lr}
	if(tmp_LORA->Lora_Debug_Flag == NoDebug) return;
    4eca:	2388      	movs	r3, #136	; 0x88
    4ecc:	009b      	lsls	r3, r3, #2
    4ece:	5cc3      	ldrb	r3, [r0, r3]
    4ed0:	2b00      	cmp	r3, #0
    4ed2:	d100      	bne.n	4ed6 <Print_Write_LoRa_TxBuffer_Msg+0xe>
	uart_str(&Msg_WrBF[0]);
}
    4ed4:	bd10      	pop	{r4, pc}
	uart_str(&Msg_WrBF[0]);
    4ed6:	4802      	ldr	r0, [pc, #8]	; (4ee0 <Print_Write_LoRa_TxBuffer_Msg+0x18>)
    4ed8:	4b02      	ldr	r3, [pc, #8]	; (4ee4 <Print_Write_LoRa_TxBuffer_Msg+0x1c>)
    4eda:	4798      	blx	r3
    4edc:	e7fa      	b.n	4ed4 <Print_Write_LoRa_TxBuffer_Msg+0xc>
    4ede:	46c0      	nop			; (mov r8, r8)
    4ee0:	000072d0 	.word	0x000072d0
    4ee4:	00002ffd 	.word	0x00002ffd

00004ee8 <Print_Leave_LoRa_Tx_Mode_Msg>:

void Print_Leave_LoRa_Tx_Mode_Msg(volatile LORA_DEFINE_t *tmp_LORA)
{
    4ee8:	b510      	push	{r4, lr}
	if(tmp_LORA->Lora_Debug_Flag == NoDebug) return;
    4eea:	2388      	movs	r3, #136	; 0x88
    4eec:	009b      	lsls	r3, r3, #2
    4eee:	5cc3      	ldrb	r3, [r0, r3]
    4ef0:	2b00      	cmp	r3, #0
    4ef2:	d100      	bne.n	4ef6 <Print_Leave_LoRa_Tx_Mode_Msg+0xe>
	uart_str(&Msg_LeaveTx[0]);
}
    4ef4:	bd10      	pop	{r4, pc}
	uart_str(&Msg_LeaveTx[0]);
    4ef6:	4802      	ldr	r0, [pc, #8]	; (4f00 <Print_Leave_LoRa_Tx_Mode_Msg+0x18>)
    4ef8:	4b02      	ldr	r3, [pc, #8]	; (4f04 <Print_Leave_LoRa_Tx_Mode_Msg+0x1c>)
    4efa:	4798      	blx	r3
    4efc:	e7fa      	b.n	4ef4 <Print_Leave_LoRa_Tx_Mode_Msg+0xc>
    4efe:	46c0      	nop			; (mov r8, r8)
    4f00:	00007218 	.word	0x00007218
    4f04:	00002ffd 	.word	0x00002ffd

00004f08 <Print_CRC_ERROR>:
					
void Print_CRC_ERROR(volatile LORA_DEFINE_t *tmp_LORA)				
{
    4f08:	b510      	push	{r4, lr}
	if(tmp_LORA->Lora_Debug_Flag == NoDebug) return;
    4f0a:	2388      	movs	r3, #136	; 0x88
    4f0c:	009b      	lsls	r3, r3, #2
    4f0e:	5cc3      	ldrb	r3, [r0, r3]
    4f10:	2b00      	cmp	r3, #0
    4f12:	d100      	bne.n	4f16 <Print_CRC_ERROR+0xe>
	uart_str(&Msg_CRCErr[0]);
}
    4f14:	bd10      	pop	{r4, pc}
	uart_str(&Msg_CRCErr[0]);
    4f16:	4802      	ldr	r0, [pc, #8]	; (4f20 <Print_CRC_ERROR+0x18>)
    4f18:	4b02      	ldr	r3, [pc, #8]	; (4f24 <Print_CRC_ERROR+0x1c>)
    4f1a:	4798      	blx	r3
    4f1c:	e7fa      	b.n	4f14 <Print_CRC_ERROR+0xc>
    4f1e:	46c0      	nop			; (mov r8, r8)
    4f20:	000071bc 	.word	0x000071bc
    4f24:	00002ffd 	.word	0x00002ffd

00004f28 <Print_CRC_OK>:


void Print_CRC_OK(volatile LORA_DEFINE_t *tmp_LORA)
{
    4f28:	b510      	push	{r4, lr}
	if(tmp_LORA->Lora_Debug_Flag == NoDebug) return;
    4f2a:	2388      	movs	r3, #136	; 0x88
    4f2c:	009b      	lsls	r3, r3, #2
    4f2e:	5cc3      	ldrb	r3, [r0, r3]
    4f30:	2b00      	cmp	r3, #0
    4f32:	d100      	bne.n	4f36 <Print_CRC_OK+0xe>
	uart_str(&Msg_CRCOK[0]);
}
    4f34:	bd10      	pop	{r4, pc}
	uart_str(&Msg_CRCOK[0]);
    4f36:	4802      	ldr	r0, [pc, #8]	; (4f40 <Print_CRC_OK+0x18>)
    4f38:	4b02      	ldr	r3, [pc, #8]	; (4f44 <Print_CRC_OK+0x1c>)
    4f3a:	4798      	blx	r3
    4f3c:	e7fa      	b.n	4f34 <Print_CRC_OK+0xc>
    4f3e:	46c0      	nop			; (mov r8, r8)
    4f40:	000071c8 	.word	0x000071c8
    4f44:	00002ffd 	.word	0x00002ffd

00004f48 <Print_One_RSSI_Msg>:




void Print_One_RSSI_Msg(volatile unsigned tmp_rssi)
{
    4f48:	b530      	push	{r4, r5, lr}
    4f4a:	b083      	sub	sp, #12
    4f4c:	9001      	str	r0, [sp, #4]
	uTXByte(Debug_COM, ' ');
    4f4e:	4c0e      	ldr	r4, [pc, #56]	; (4f88 <Print_One_RSSI_Msg+0x40>)
    4f50:	2120      	movs	r1, #32
    4f52:	0020      	movs	r0, r4
    4f54:	4d0d      	ldr	r5, [pc, #52]	; (4f8c <Print_One_RSSI_Msg+0x44>)
    4f56:	47a8      	blx	r5
	uTXByte(Debug_COM, '-');
    4f58:	212d      	movs	r1, #45	; 0x2d
    4f5a:	0020      	movs	r0, r4
    4f5c:	47a8      	blx	r5
	uart_send_word(Debug_COM, hex_to_bcd(tmp_rssi));
    4f5e:	9801      	ldr	r0, [sp, #4]
    4f60:	4b0b      	ldr	r3, [pc, #44]	; (4f90 <Print_One_RSSI_Msg+0x48>)
    4f62:	4798      	blx	r3
    4f64:	0001      	movs	r1, r0
    4f66:	0020      	movs	r0, r4
    4f68:	4b0a      	ldr	r3, [pc, #40]	; (4f94 <Print_One_RSSI_Msg+0x4c>)
    4f6a:	4798      	blx	r3
	uTXByte(Debug_COM, ' ');
    4f6c:	2120      	movs	r1, #32
    4f6e:	0020      	movs	r0, r4
    4f70:	47a8      	blx	r5
	uTXByte(Debug_COM, 'd');
    4f72:	2164      	movs	r1, #100	; 0x64
    4f74:	0020      	movs	r0, r4
    4f76:	47a8      	blx	r5
	uTXByte(Debug_COM, 'B');
    4f78:	2142      	movs	r1, #66	; 0x42
    4f7a:	0020      	movs	r0, r4
    4f7c:	47a8      	blx	r5
	uTXByte(Debug_COM, 'm');
    4f7e:	216d      	movs	r1, #109	; 0x6d
    4f80:	0020      	movs	r0, r4
    4f82:	47a8      	blx	r5
}
    4f84:	b003      	add	sp, #12
    4f86:	bd30      	pop	{r4, r5, pc}
    4f88:	20000270 	.word	0x20000270
    4f8c:	00002725 	.word	0x00002725
    4f90:	000029e5 	.word	0x000029e5
    4f94:	000027b9 	.word	0x000027b9

00004f98 <Print_Wait_TX_Finish_Msg>:




void Print_Wait_TX_Finish_Msg(volatile LORA_DEFINE_t *tmp_LORA)
{
    4f98:	b510      	push	{r4, lr}
	if(tmp_LORA->Lora_Debug_Flag == 0) return;
    4f9a:	2388      	movs	r3, #136	; 0x88
    4f9c:	009b      	lsls	r3, r3, #2
    4f9e:	5cc3      	ldrb	r3, [r0, r3]
    4fa0:	2b00      	cmp	r3, #0
    4fa2:	d100      	bne.n	4fa6 <Print_Wait_TX_Finish_Msg+0xe>
	uart_str(&Msg_WaitTXIRQ[0]);
}
    4fa4:	bd10      	pop	{r4, pc}
	uart_str(&Msg_WaitTXIRQ[0]);
    4fa6:	4802      	ldr	r0, [pc, #8]	; (4fb0 <Print_Wait_TX_Finish_Msg+0x18>)
    4fa8:	4b02      	ldr	r3, [pc, #8]	; (4fb4 <Print_Wait_TX_Finish_Msg+0x1c>)
    4faa:	4798      	blx	r3
    4fac:	e7fa      	b.n	4fa4 <Print_Wait_TX_Finish_Msg+0xc>
    4fae:	46c0      	nop			; (mov r8, r8)
    4fb0:	000072c0 	.word	0x000072c0
    4fb4:	00002ffd 	.word	0x00002ffd

00004fb8 <tc_callback_to_to_period_51200us>:

void tc_callback_to_to_period_51200us(struct tc_module *const module_inst)
{
	
	//計數Dev List設定Polling的時間
	if(LORA01->Lora_Dev_Count_IRQ_Flag == 0)
    4fb8:	4b13      	ldr	r3, [pc, #76]	; (5008 <tc_callback_to_to_period_51200us+0x50>)
    4fba:	681b      	ldr	r3, [r3, #0]
    4fbc:	4a13      	ldr	r2, [pc, #76]	; (500c <tc_callback_to_to_period_51200us+0x54>)
    4fbe:	5c9a      	ldrb	r2, [r3, r2]
    4fc0:	2a00      	cmp	r2, #0
    4fc2:	d107      	bne.n	4fd4 <tc_callback_to_to_period_51200us+0x1c>
	{
		if(LORA01->t2_tmp_count > 10)	//51.2ms * 10 = 512ms
    4fc4:	2290      	movs	r2, #144	; 0x90
    4fc6:	0092      	lsls	r2, r2, #2
    4fc8:	589a      	ldr	r2, [r3, r2]
    4fca:	2a0a      	cmp	r2, #10
    4fcc:	d911      	bls.n	4ff2 <tc_callback_to_to_period_51200us+0x3a>
			LORA01->Lora_Dev_Count_IRQ_Flag = 1;
    4fce:	2101      	movs	r1, #1
    4fd0:	4a0e      	ldr	r2, [pc, #56]	; (500c <tc_callback_to_to_period_51200us+0x54>)
    4fd2:	5499      	strb	r1, [r3, r2]
		else
			LORA01->t2_tmp_count++;
	}
	
	if(LORA01->Sensor_Count < 9)	LORA01->Sensor_Count++;
    4fd4:	2291      	movs	r2, #145	; 0x91
    4fd6:	0092      	lsls	r2, r2, #2
    4fd8:	589a      	ldr	r2, [r3, r2]
    4fda:	2a08      	cmp	r2, #8
    4fdc:	d804      	bhi.n	4fe8 <tc_callback_to_to_period_51200us+0x30>
    4fde:	2191      	movs	r1, #145	; 0x91
    4fe0:	0089      	lsls	r1, r1, #2
    4fe2:	585a      	ldr	r2, [r3, r1]
    4fe4:	3201      	adds	r2, #1
    4fe6:	505a      	str	r2, [r3, r1]
	
	if(debug_cycle_time < debug_cycle_time_Max) debug_cycle_time++;
    4fe8:	4b09      	ldr	r3, [pc, #36]	; (5010 <tc_callback_to_to_period_51200us+0x58>)
    4fea:	681b      	ldr	r3, [r3, #0]
    4fec:	2b01      	cmp	r3, #1
    4fee:	d906      	bls.n	4ffe <tc_callback_to_to_period_51200us+0x46>
		if(Sensor_Module_Time_Count > 0)			Sensor_Module_Time_Count--;
	#elif defined(Dev_Feed_Weigher)
		if(OverCount > 0)	OverCount--;
	#endif
	
}
    4ff0:	4770      	bx	lr
			LORA01->t2_tmp_count++;
    4ff2:	2190      	movs	r1, #144	; 0x90
    4ff4:	0089      	lsls	r1, r1, #2
    4ff6:	585a      	ldr	r2, [r3, r1]
    4ff8:	3201      	adds	r2, #1
    4ffa:	505a      	str	r2, [r3, r1]
    4ffc:	e7ea      	b.n	4fd4 <tc_callback_to_to_period_51200us+0x1c>
	if(debug_cycle_time < debug_cycle_time_Max) debug_cycle_time++;
    4ffe:	3301      	adds	r3, #1
    5000:	4a03      	ldr	r2, [pc, #12]	; (5010 <tc_callback_to_to_period_51200us+0x58>)
    5002:	6013      	str	r3, [r2, #0]
}
    5004:	e7f4      	b.n	4ff0 <tc_callback_to_to_period_51200us+0x38>
    5006:	46c0      	nop			; (mov r8, r8)
    5008:	200018bc 	.word	0x200018bc
    500c:	00000227 	.word	0x00000227
    5010:	200018d0 	.word	0x200018d0

00005014 <tc_callback_to_to_period_200us>:
	
}

unsigned long mcu_reset;
void tc_callback_to_to_period_200us(struct tc_module *const module_inst)
{
    5014:	b510      	push	{r4, lr}

	if(LORA01->f_count < Timer_Timeout)	LORA01->f_count++;
    5016:	4b10      	ldr	r3, [pc, #64]	; (5058 <tc_callback_to_to_period_200us+0x44>)
    5018:	681b      	ldr	r3, [r3, #0]
    501a:	228f      	movs	r2, #143	; 0x8f
    501c:	0092      	lsls	r2, r2, #2
    501e:	5899      	ldr	r1, [r3, r2]
    5020:	4a0e      	ldr	r2, [pc, #56]	; (505c <tc_callback_to_to_period_200us+0x48>)
    5022:	4291      	cmp	r1, r2
    5024:	d804      	bhi.n	5030 <tc_callback_to_to_period_200us+0x1c>
    5026:	218f      	movs	r1, #143	; 0x8f
    5028:	0089      	lsls	r1, r1, #2
    502a:	585a      	ldr	r2, [r3, r1]
    502c:	3201      	adds	r2, #1
    502e:	505a      	str	r2, [r3, r1]
	if(LORA02->f_count < Timer_Timeout)	LORA02->f_count++;
    5030:	4b0b      	ldr	r3, [pc, #44]	; (5060 <tc_callback_to_to_period_200us+0x4c>)
    5032:	681b      	ldr	r3, [r3, #0]
    5034:	228f      	movs	r2, #143	; 0x8f
    5036:	0092      	lsls	r2, r2, #2
    5038:	5899      	ldr	r1, [r3, r2]
    503a:	4a08      	ldr	r2, [pc, #32]	; (505c <tc_callback_to_to_period_200us+0x48>)
    503c:	4291      	cmp	r1, r2
    503e:	d804      	bhi.n	504a <tc_callback_to_to_period_200us+0x36>
    5040:	218f      	movs	r1, #143	; 0x8f
    5042:	0089      	lsls	r1, r1, #2
    5044:	585a      	ldr	r2, [r3, r1]
    5046:	3201      	adds	r2, #1
    5048:	505a      	str	r2, [r3, r1]
	usart_read_buffer_job(Debug_COM, (uint8_t *)user_rx_buffer, MAX_RX_BUFFER_LENGTH);
    504a:	2201      	movs	r2, #1
    504c:	4905      	ldr	r1, [pc, #20]	; (5064 <tc_callback_to_to_period_200us+0x50>)
    504e:	4806      	ldr	r0, [pc, #24]	; (5068 <tc_callback_to_to_period_200us+0x54>)
    5050:	4b06      	ldr	r3, [pc, #24]	; (506c <tc_callback_to_to_period_200us+0x58>)
    5052:	4798      	blx	r3
		mcu_reset++;
	}
	*/
	
	
}
    5054:	bd10      	pop	{r4, pc}
    5056:	46c0      	nop			; (mov r8, r8)
    5058:	200018bc 	.word	0x200018bc
    505c:	00004e1f 	.word	0x00004e1f
    5060:	20000c90 	.word	0x20000c90
    5064:	20000268 	.word	0x20000268
    5068:	20000270 	.word	0x20000270
    506c:	00005b89 	.word	0x00005b89

00005070 <configure_tc>:
	
}

//! [setup]
void configure_tc(void)
{
    5070:	b510      	push	{r4, lr}
    5072:	b08e      	sub	sp, #56	; 0x38
	/* Sanity check arguments */
	Assert(config);

	/* Write default config to config struct */
	config->clock_source               = GCLK_GENERATOR_0;
	config->counter_size               = TC_COUNTER_SIZE_16BIT;
    5074:	aa01      	add	r2, sp, #4
    5076:	2300      	movs	r3, #0
    5078:	2100      	movs	r1, #0
    507a:	7093      	strb	r3, [r2, #2]
	config->clock_prescaler            = TC_CLOCK_PRESCALER_DIV1;
	config->wave_generation            = TC_WAVE_GENERATION_NORMAL_FREQ;
	config->reload_action              = TC_RELOAD_ACTION_GCLK;
    507c:	8113      	strh	r3, [r2, #8]
	config->run_in_standby             = false;
    507e:	2000      	movs	r0, #0
    5080:	7050      	strb	r0, [r2, #1]
#if (SAML21) || (SAML22) || (SAMC20) || (SAMC21) || (SAMR30)
	config->on_demand                  = false;
#endif
	config->waveform_invert_output     = TC_WAVEFORM_INVERT_OUTPUT_NONE;
    5082:	7291      	strb	r1, [r2, #10]
	config->enable_capture_on_channel[TC_COMPARE_CAPTURE_CHANNEL_0] = false;
    5084:	72d1      	strb	r1, [r2, #11]
	config->enable_capture_on_channel[TC_COMPARE_CAPTURE_CHANNEL_1] = false;
    5086:	7311      	strb	r1, [r2, #12]
#ifdef 	FEATURE_TC_IO_CAPTURE
	config->enable_capture_on_IO[TC_COMPARE_CAPTURE_CHANNEL_0] = false;
	config->enable_capture_on_IO[TC_COMPARE_CAPTURE_CHANNEL_1] = false;
#endif

	config->count_direction            = TC_COUNT_DIRECTION_UP;
    5088:	7391      	strb	r1, [r2, #14]
	config->oneshot                    = false;
    508a:	7351      	strb	r1, [r2, #13]

	config->pwm_channel[TC_COMPARE_CAPTURE_CHANNEL_0].enabled = false;
    508c:	7411      	strb	r1, [r2, #16]
	config->pwm_channel[TC_COMPARE_CAPTURE_CHANNEL_0].pin_out = 0;
    508e:	6153      	str	r3, [r2, #20]
	config->pwm_channel[TC_COMPARE_CAPTURE_CHANNEL_0].pin_mux = 0;
    5090:	6193      	str	r3, [r2, #24]

	config->pwm_channel[TC_COMPARE_CAPTURE_CHANNEL_1].enabled = false;
    5092:	7711      	strb	r1, [r2, #28]
	config->pwm_channel[TC_COMPARE_CAPTURE_CHANNEL_1].pin_out = 0;
    5094:	6213      	str	r3, [r2, #32]
	config->pwm_channel[TC_COMPARE_CAPTURE_CHANNEL_1].pin_mux = 0;
    5096:	6253      	str	r3, [r2, #36]	; 0x24

	config->counter_16_bit.value                   = 0x0000;
    5098:	8513      	strh	r3, [r2, #40]	; 0x28
	//! [setup_config_defaults]
	tc_get_config_defaults(&config_tc);
	//! [setup_config_defaults]

	//! [setup_change_config]
	config_tc.clock_source    = GCLK_GENERATOR_1;
    509a:	3301      	adds	r3, #1
    509c:	7013      	strb	r3, [r2, #0]
	config_tc.counter_size    = TC_COUNTER_SIZE_16BIT;
	config_tc.clock_prescaler  =TC_CLOCK_PRESCALER_DIV16;
    509e:	2380      	movs	r3, #128	; 0x80
    50a0:	00db      	lsls	r3, r3, #3
    50a2:	8093      	strh	r3, [r2, #4]
	config_tc.wave_generation = TC_WAVE_GENERATION_MATCH_FREQ;
    50a4:	2320      	movs	r3, #32
    50a6:	7193      	strb	r3, [r2, #6]
	config_tc.counter_16_bit.compare_capture_channel[0] = 50;
    50a8:	3312      	adds	r3, #18
    50aa:	8553      	strh	r3, [r2, #42]	; 0x2a
	config_tc.counter_16_bit.compare_capture_channel[1] = 50;
    50ac:	8593      	strh	r3, [r2, #44]	; 0x2c
	
	tc_init(&MyTimer02, TC2, &config_tc);
    50ae:	4c13      	ldr	r4, [pc, #76]	; (50fc <configure_tc+0x8c>)
    50b0:	4913      	ldr	r1, [pc, #76]	; (5100 <configure_tc+0x90>)
    50b2:	0020      	movs	r0, r4
    50b4:	4b13      	ldr	r3, [pc, #76]	; (5104 <configure_tc+0x94>)
    50b6:	4798      	blx	r3
	/* Sanity check arguments */
	Assert(module_inst);
	Assert(module_inst->hw);

	/* Get a pointer to the module's hardware instance */
	TcCount8 *const tc_module = &(module_inst->hw->COUNT8);
    50b8:	6822      	ldr	r2, [r4, #0]
	return (tc_module->STATUS.reg & TC_STATUS_SYNCBUSY);
    50ba:	7bd3      	ldrb	r3, [r2, #15]

	while (tc_is_syncing(module_inst)) {
    50bc:	b25b      	sxtb	r3, r3
    50be:	2b00      	cmp	r3, #0
    50c0:	dbfb      	blt.n	50ba <configure_tc+0x4a>
		/* Wait for sync */
	}

	/* Enable TC module */
	tc_module->CTRLA.reg |= TC_CTRLA_ENABLE;
    50c2:	8813      	ldrh	r3, [r2, #0]
    50c4:	2102      	movs	r1, #2
    50c6:	430b      	orrs	r3, r1
    50c8:	8013      	strh	r3, [r2, #0]
	tc_enable(&MyTimer02);

	config_tc.clock_prescaler  =TC_CLOCK_PRESCALER_DIV1024;
    50ca:	aa01      	add	r2, sp, #4
    50cc:	23e0      	movs	r3, #224	; 0xe0
    50ce:	00db      	lsls	r3, r3, #3
    50d0:	8093      	strh	r3, [r2, #4]
	config_tc.wave_generation = TC_WAVE_GENERATION_MATCH_FREQ;
    50d2:	2320      	movs	r3, #32
    50d4:	7193      	strb	r3, [r2, #6]
	config_tc.counter_16_bit.compare_capture_channel[0] = 50;
    50d6:	3312      	adds	r3, #18
    50d8:	8553      	strh	r3, [r2, #42]	; 0x2a
	config_tc.counter_16_bit.compare_capture_channel[1] = 50;
    50da:	8593      	strh	r3, [r2, #44]	; 0x2c
	tc_init(&MyTimer01, TC1, &config_tc);
    50dc:	4c0a      	ldr	r4, [pc, #40]	; (5108 <configure_tc+0x98>)
    50de:	490b      	ldr	r1, [pc, #44]	; (510c <configure_tc+0x9c>)
    50e0:	0020      	movs	r0, r4
    50e2:	4b08      	ldr	r3, [pc, #32]	; (5104 <configure_tc+0x94>)
    50e4:	4798      	blx	r3
	TcCount8 *const tc_module = &(module_inst->hw->COUNT8);
    50e6:	6822      	ldr	r2, [r4, #0]
	return (tc_module->STATUS.reg & TC_STATUS_SYNCBUSY);
    50e8:	7bd3      	ldrb	r3, [r2, #15]
	while (tc_is_syncing(module_inst)) {
    50ea:	b25b      	sxtb	r3, r3
    50ec:	2b00      	cmp	r3, #0
    50ee:	dbfb      	blt.n	50e8 <configure_tc+0x78>
	tc_module->CTRLA.reg |= TC_CTRLA_ENABLE;
    50f0:	8813      	ldrh	r3, [r2, #0]
    50f2:	2102      	movs	r1, #2
    50f4:	430b      	orrs	r3, r1
    50f6:	8013      	strh	r3, [r2, #0]
	//tc_init(&MyTimer04, TC4, &config_tc);
	//tc_enable(&MyTimer04);
	
	//! [setup_enable]
	
}
    50f8:	b00e      	add	sp, #56	; 0x38
    50fa:	bd10      	pop	{r4, pc}
    50fc:	20000294 	.word	0x20000294
    5100:	42002800 	.word	0x42002800
    5104:	00003bfd 	.word	0x00003bfd
    5108:	20001640 	.word	0x20001640
    510c:	42002400 	.word	0x42002400

00005110 <configure_tc_callbacks>:
//! [setup]
void configure_tc_callbacks(void)
{
    5110:	b5f0      	push	{r4, r5, r6, r7, lr}
    5112:	46d6      	mov	lr, sl
    5114:	464f      	mov	r7, r9
    5116:	4646      	mov	r6, r8
    5118:	b5c0      	push	{r6, r7, lr}
	
	
	tc_register_callback(&MyTimer01, tc_callback_to_to_period_51200us, TC_CALLBACK_CC_CHANNEL0);
    511a:	4c1a      	ldr	r4, [pc, #104]	; (5184 <configure_tc_callbacks+0x74>)
    511c:	2202      	movs	r2, #2
    511e:	491a      	ldr	r1, [pc, #104]	; (5188 <configure_tc_callbacks+0x78>)
    5120:	0020      	movs	r0, r4
    5122:	4b1a      	ldr	r3, [pc, #104]	; (518c <configure_tc_callbacks+0x7c>)
    5124:	469a      	mov	sl, r3
    5126:	4798      	blx	r3
	/* Sanity check arguments */
	Assert(module);


	/* Enable interrupts for this TC module */
	system_interrupt_enable(_tc_interrupt_get_interrupt_vector(_tc_get_inst_index(module->hw)));
    5128:	6820      	ldr	r0, [r4, #0]
    512a:	4b19      	ldr	r3, [pc, #100]	; (5190 <configure_tc_callbacks+0x80>)
    512c:	4699      	mov	r9, r3
    512e:	4798      	blx	r3
	return (enum system_interrupt_vector)tc_interrupt_vectors[inst_num];
    5130:	4b18      	ldr	r3, [pc, #96]	; (5194 <configure_tc_callbacks+0x84>)
    5132:	4698      	mov	r8, r3
	NVIC->ISER[0] = (uint32_t)(1 << ((uint32_t)vector & 0x0000001f));
    5134:	5c1b      	ldrb	r3, [r3, r0]
    5136:	261f      	movs	r6, #31
    5138:	4033      	ands	r3, r6
    513a:	2501      	movs	r5, #1
    513c:	002a      	movs	r2, r5
    513e:	409a      	lsls	r2, r3
    5140:	4f15      	ldr	r7, [pc, #84]	; (5198 <configure_tc_callbacks+0x88>)
    5142:	603a      	str	r2, [r7, #0]

	/* Enable callback */
	if (callback_type == TC_CALLBACK_CC_CHANNEL0) {
		module->enable_callback_mask |= TC_INTFLAG_MC(1);
    5144:	7e63      	ldrb	r3, [r4, #25]
    5146:	2210      	movs	r2, #16
    5148:	4313      	orrs	r3, r2
    514a:	7663      	strb	r3, [r4, #25]
		module->hw->COUNT8.INTENSET.reg = TC_INTFLAG_MC(1);
    514c:	6823      	ldr	r3, [r4, #0]
    514e:	2210      	movs	r2, #16
    5150:	735a      	strb	r2, [r3, #13]
	tc_enable_callback(&MyTimer01, TC_CALLBACK_CC_CHANNEL0);
	
	tc_register_callback(&MyTimer02, tc_callback_to_to_period_200us, TC_CALLBACK_CC_CHANNEL1);
    5152:	4c12      	ldr	r4, [pc, #72]	; (519c <configure_tc_callbacks+0x8c>)
    5154:	3a0d      	subs	r2, #13
    5156:	4912      	ldr	r1, [pc, #72]	; (51a0 <configure_tc_callbacks+0x90>)
    5158:	0020      	movs	r0, r4
    515a:	47d0      	blx	sl
	system_interrupt_enable(_tc_interrupt_get_interrupt_vector(_tc_get_inst_index(module->hw)));
    515c:	6820      	ldr	r0, [r4, #0]
    515e:	47c8      	blx	r9
    5160:	4643      	mov	r3, r8
    5162:	5c1b      	ldrb	r3, [r3, r0]
    5164:	401e      	ands	r6, r3
    5166:	40b5      	lsls	r5, r6
    5168:	603d      	str	r5, [r7, #0]
	}
	else if (callback_type == TC_CALLBACK_CC_CHANNEL1) {
		module->enable_callback_mask |= TC_INTFLAG_MC(2);
    516a:	7e63      	ldrb	r3, [r4, #25]
    516c:	2220      	movs	r2, #32
    516e:	4313      	orrs	r3, r2
    5170:	7663      	strb	r3, [r4, #25]
		module->hw->COUNT8.INTENSET.reg = TC_INTFLAG_MC(2);
    5172:	6823      	ldr	r3, [r4, #0]
    5174:	2220      	movs	r2, #32
    5176:	735a      	strb	r2, [r3, #13]
	//tc_register_callback(&MyTimer03, tc_callback_to_to_period_10us, TC_CALLBACK_CC_CHANNEL0);
	//tc_enable_callback(&MyTimer03, TC_CALLBACK_CC_CHANNEL0);
	
	//tc_register_callback(&MyTimer04, tc_user_keyin, TC_CALLBACK_CC_CHANNEL1);
	//tc_enable_callback(&MyTimer04, TC_CALLBACK_CC_CHANNEL1);
}
    5178:	bc1c      	pop	{r2, r3, r4}
    517a:	4690      	mov	r8, r2
    517c:	4699      	mov	r9, r3
    517e:	46a2      	mov	sl, r4
    5180:	bdf0      	pop	{r4, r5, r6, r7, pc}
    5182:	46c0      	nop			; (mov r8, r8)
    5184:	20001640 	.word	0x20001640
    5188:	00004fb9 	.word	0x00004fb9
    518c:	00003acd 	.word	0x00003acd
    5190:	00003bc5 	.word	0x00003bc5
    5194:	000072e8 	.word	0x000072e8
    5198:	e000e100 	.word	0xe000e100
    519c:	20000294 	.word	0x20000294
    51a0:	00005015 	.word	0x00005015

000051a4 <timer_configure>:

void timer_configure(void)
{
    51a4:	b510      	push	{r4, lr}
	configure_tc();
    51a6:	4b02      	ldr	r3, [pc, #8]	; (51b0 <timer_configure+0xc>)
    51a8:	4798      	blx	r3
	configure_tc_callbacks();
    51aa:	4b02      	ldr	r3, [pc, #8]	; (51b4 <timer_configure+0x10>)
    51ac:	4798      	blx	r3
    51ae:	bd10      	pop	{r4, pc}
    51b0:	00005071 	.word	0x00005071
    51b4:	00005111 	.word	0x00005111

000051b8 <Uart_Form_LORA01_callback>:



void Uart_Form_LORA01_callback(struct usart_module *const usart_module)
{
	if(LORA01->MyBufferCount <= LORA01->UserRxCountMax)
    51b8:	4b08      	ldr	r3, [pc, #32]	; (51dc <Uart_Form_LORA01_callback+0x24>)
    51ba:	681b      	ldr	r3, [r3, #0]
    51bc:	7f9a      	ldrb	r2, [r3, #30]
    51be:	7f59      	ldrb	r1, [r3, #29]
    51c0:	b2d2      	uxtb	r2, r2
    51c2:	428a      	cmp	r2, r1
    51c4:	d809      	bhi.n	51da <Uart_Form_LORA01_callback+0x22>
	{	
		LORA01->MyBuffer[LORA01->MyBufferCount] =  LORA01->rx_buffer[0];
    51c6:	7f9a      	ldrb	r2, [r3, #30]
    51c8:	7f19      	ldrb	r1, [r3, #28]
    51ca:	b2c9      	uxtb	r1, r1
    51cc:	189a      	adds	r2, r3, r2
    51ce:	77d1      	strb	r1, [r2, #31]
		LORA01->MyBufferCount = ++LORA01->MyBufferCount;	
    51d0:	7f9a      	ldrb	r2, [r3, #30]
    51d2:	3201      	adds	r2, #1
    51d4:	b2d2      	uxtb	r2, r2
    51d6:	779a      	strb	r2, [r3, #30]
    51d8:	779a      	strb	r2, [r3, #30]
	}

}
    51da:	4770      	bx	lr
    51dc:	200018bc 	.word	0x200018bc

000051e0 <usart_read_callback>:
}


void usart_read_callback(struct usart_module *const usart_module)
{
	if(UserKeyInStauts == NOP)
    51e0:	4b17      	ldr	r3, [pc, #92]	; (5240 <usart_read_callback+0x60>)
    51e2:	781b      	ldrb	r3, [r3, #0]
    51e4:	2b00      	cmp	r3, #0
    51e6:	d110      	bne.n	520a <usart_read_callback+0x2a>
	{
		//uTXByte(Debug_COM, user_rx_buffer[0]);
		UserKeyInBuf[UserKeyInBufCount] = user_rx_buffer[0];
    51e8:	4b16      	ldr	r3, [pc, #88]	; (5244 <usart_read_callback+0x64>)
    51ea:	781b      	ldrb	r3, [r3, #0]
    51ec:	4a16      	ldr	r2, [pc, #88]	; (5248 <usart_read_callback+0x68>)
    51ee:	7812      	ldrb	r2, [r2, #0]
    51f0:	4916      	ldr	r1, [pc, #88]	; (524c <usart_read_callback+0x6c>)
    51f2:	54ca      	strb	r2, [r1, r3]
		if(UserKeyInBufCount < UserKeyInBufMax)
    51f4:	2b21      	cmp	r3, #33	; 0x21
    51f6:	d802      	bhi.n	51fe <usart_read_callback+0x1e>
		{
			UserKeyInBufCount++;
    51f8:	3301      	adds	r3, #1
    51fa:	4912      	ldr	r1, [pc, #72]	; (5244 <usart_read_callback+0x64>)
    51fc:	700b      	strb	r3, [r1, #0]
		}
		
		//if(user_rx_buffer[0] == 0x0d || user_rx_buffer[0] == 'z'  || user_rx_buffer[0] == 'Z' )
		if(user_rx_buffer[0] == 0x0d)
    51fe:	2a0d      	cmp	r2, #13
    5200:	d004      	beq.n	520c <usart_read_callback+0x2c>
			{
				UserKeyInBufCount = 0;
			}
		}
		else
		if(user_rx_buffer[0] == 0x08)
    5202:	2a08      	cmp	r2, #8
    5204:	d00e      	beq.n	5224 <usart_read_callback+0x44>
				UserKeyInBufCount--;
				UserKeyInBufCount--;
			}
		}
		else
		if(user_rx_buffer[0] == 0x0A)
    5206:	2a0a      	cmp	r2, #10
    5208:	d014      	beq.n	5234 <usart_read_callback+0x54>
		{
			UserKeyInBufCount--;
		}
	}
}
    520a:	4770      	bx	lr
			if(UserKeyInBufCount > 1)
    520c:	4b0d      	ldr	r3, [pc, #52]	; (5244 <usart_read_callback+0x64>)
    520e:	781b      	ldrb	r3, [r3, #0]
    5210:	2b01      	cmp	r3, #1
    5212:	d903      	bls.n	521c <usart_read_callback+0x3c>
				UserKeyInStauts = UserKeyInEnterIndex;	
    5214:	3a0c      	subs	r2, #12
    5216:	4b0a      	ldr	r3, [pc, #40]	; (5240 <usart_read_callback+0x60>)
    5218:	701a      	strb	r2, [r3, #0]
    521a:	e7f6      	b.n	520a <usart_read_callback+0x2a>
				UserKeyInBufCount = 0;
    521c:	2200      	movs	r2, #0
    521e:	4b09      	ldr	r3, [pc, #36]	; (5244 <usart_read_callback+0x64>)
    5220:	701a      	strb	r2, [r3, #0]
    5222:	e7f2      	b.n	520a <usart_read_callback+0x2a>
			if(UserKeyInBufCount > 2)
    5224:	4b07      	ldr	r3, [pc, #28]	; (5244 <usart_read_callback+0x64>)
    5226:	781b      	ldrb	r3, [r3, #0]
    5228:	2b02      	cmp	r3, #2
    522a:	d9ee      	bls.n	520a <usart_read_callback+0x2a>
				UserKeyInBufCount--;
    522c:	3b02      	subs	r3, #2
    522e:	4a05      	ldr	r2, [pc, #20]	; (5244 <usart_read_callback+0x64>)
    5230:	7013      	strb	r3, [r2, #0]
    5232:	e7ea      	b.n	520a <usart_read_callback+0x2a>
			UserKeyInBufCount--;
    5234:	4a03      	ldr	r2, [pc, #12]	; (5244 <usart_read_callback+0x64>)
    5236:	7813      	ldrb	r3, [r2, #0]
    5238:	3b01      	subs	r3, #1
    523a:	7013      	strb	r3, [r2, #0]
}
    523c:	e7e5      	b.n	520a <usart_read_callback+0x2a>
    523e:	46c0      	nop			; (mov r8, r8)
    5240:	20000c94 	.word	0x20000c94
    5244:	20000322 	.word	0x20000322
    5248:	20000268 	.word	0x20000268
    524c:	200002d4 	.word	0x200002d4

00005250 <configure_usart>:


void configure_usart(void)
{
    5250:	b530      	push	{r4, r5, lr}
    5252:	b08d      	sub	sp, #52	; 0x34
	config->data_order       = USART_DATAORDER_LSB;
    5254:	2380      	movs	r3, #128	; 0x80
    5256:	05db      	lsls	r3, r3, #23
    5258:	9300      	str	r3, [sp, #0]
	config->transfer_mode    = USART_TRANSFER_ASYNCHRONOUSLY;
    525a:	2300      	movs	r3, #0
    525c:	9301      	str	r3, [sp, #4]
	config->parity           = USART_PARITY_NONE;
    525e:	22ff      	movs	r2, #255	; 0xff
    5260:	4669      	mov	r1, sp
    5262:	810a      	strh	r2, [r1, #8]
	config->stopbits         = USART_STOPBITS_1;
    5264:	728b      	strb	r3, [r1, #10]
	config->character_size   = USART_CHARACTER_SIZE_8BIT;
    5266:	72cb      	strb	r3, [r1, #11]
	config->receiver_enable  = true;
    5268:	2201      	movs	r2, #1
    526a:	750a      	strb	r2, [r1, #20]
	config->transmitter_enable = true;
    526c:	754a      	strb	r2, [r1, #21]
	config->clock_polarity_inverted = false;
    526e:	758b      	strb	r3, [r1, #22]
	config->use_external_clock = false;
    5270:	75cb      	strb	r3, [r1, #23]
	config->ext_clock_freq   = 0;
    5272:	9306      	str	r3, [sp, #24]
	config->run_in_standby   = false;
    5274:	770b      	strb	r3, [r1, #28]
	config->generator_source = GCLK_GENERATOR_0;
    5276:	774b      	strb	r3, [r1, #29]
	struct usart_config config_usart;
	usart_get_config_defaults(&config_usart);
	
	config_usart.baudrate    = 115200;
    5278:	23e1      	movs	r3, #225	; 0xe1
    527a:	025b      	lsls	r3, r3, #9
    527c:	9304      	str	r3, [sp, #16]
	config_usart.mux_setting = USART_RX_3_TX_2_XCK_3;
    527e:	23c4      	movs	r3, #196	; 0xc4
    5280:	039b      	lsls	r3, r3, #14
    5282:	9303      	str	r3, [sp, #12]
	config_usart.pinmux_pad0 = PINMUX_UNUSED;
    5284:	2301      	movs	r3, #1
    5286:	425b      	negs	r3, r3
    5288:	9308      	str	r3, [sp, #32]
	config_usart.pinmux_pad1 = PINMUX_UNUSED;
    528a:	9309      	str	r3, [sp, #36]	; 0x24
	//! [setup_change_config]
	config_usart.baudrate    = 115200;
	config_usart.mux_setting = USART_RX_3_TX_2_XCK_3;
	config_usart.pinmux_pad0 = PINMUX_UNUSED;
	config_usart.pinmux_pad1 = PINMUX_UNUSED;
	config_usart.pinmux_pad2 = PINMUX_PA18C_SERCOM1_PAD2;
    528c:	4b39      	ldr	r3, [pc, #228]	; (5374 <configure_usart+0x124>)
    528e:	930a      	str	r3, [sp, #40]	; 0x28
	config_usart.pinmux_pad3 = PINMUX_PA19C_SERCOM1_PAD3;
    5290:	4b39      	ldr	r3, [pc, #228]	; (5378 <configure_usart+0x128>)
    5292:	930b      	str	r3, [sp, #44]	; 0x2c
	config_usart.parity		 = USART_PARITY_NONE;
	while (usart_init(&MyUart02,SERCOM1, &config_usart) != STATUS_OK);
    5294:	4d39      	ldr	r5, [pc, #228]	; (537c <configure_usart+0x12c>)
    5296:	4c3a      	ldr	r4, [pc, #232]	; (5380 <configure_usart+0x130>)
    5298:	466a      	mov	r2, sp
    529a:	493a      	ldr	r1, [pc, #232]	; (5384 <configure_usart+0x134>)
    529c:	0028      	movs	r0, r5
    529e:	47a0      	blx	r4
    52a0:	2800      	cmp	r0, #0
    52a2:	d1f9      	bne.n	5298 <configure_usart+0x48>
	SercomUsart *const usart_hw = &(module->hw->USART);
    52a4:	4d35      	ldr	r5, [pc, #212]	; (537c <configure_usart+0x12c>)
    52a6:	682c      	ldr	r4, [r5, #0]
	system_interrupt_enable(_sercom_get_interrupt_vector(module->hw));
    52a8:	0020      	movs	r0, r4
    52aa:	4b37      	ldr	r3, [pc, #220]	; (5388 <configure_usart+0x138>)
    52ac:	4798      	blx	r3
    52ae:	231f      	movs	r3, #31
    52b0:	4018      	ands	r0, r3
    52b2:	3b1e      	subs	r3, #30
    52b4:	4083      	lsls	r3, r0
    52b6:	4a35      	ldr	r2, [pc, #212]	; (538c <configure_usart+0x13c>)
    52b8:	6013      	str	r3, [r2, #0]
	SercomUsart *const usart_hw = &(module->hw->USART);
    52ba:	682a      	ldr	r2, [r5, #0]
	return (usart_hw->STATUS.reg & SERCOM_USART_STATUS_SYNCBUSY);
    52bc:	8a13      	ldrh	r3, [r2, #16]
	while (usart_is_syncing(module)) {
    52be:	b21b      	sxth	r3, r3
    52c0:	2b00      	cmp	r3, #0
    52c2:	dbfb      	blt.n	52bc <configure_usart+0x6c>
	usart_hw->CTRLA.reg |= SERCOM_USART_CTRLA_ENABLE;
    52c4:	6823      	ldr	r3, [r4, #0]
    52c6:	2202      	movs	r2, #2
    52c8:	4313      	orrs	r3, r2
    52ca:	6023      	str	r3, [r4, #0]
	
	
	
	
	//! [setup_change_config]
	config_usart.baudrate    = 115200;
    52cc:	23e1      	movs	r3, #225	; 0xe1
    52ce:	025b      	lsls	r3, r3, #9
    52d0:	9304      	str	r3, [sp, #16]
	config_usart.mux_setting = USART_RX_3_TX_2_XCK_3;
    52d2:	23c4      	movs	r3, #196	; 0xc4
    52d4:	039b      	lsls	r3, r3, #14
    52d6:	9303      	str	r3, [sp, #12]
	config_usart.pinmux_pad0 = PINMUX_UNUSED;
    52d8:	2301      	movs	r3, #1
    52da:	425b      	negs	r3, r3
    52dc:	9308      	str	r3, [sp, #32]
	config_usart.pinmux_pad1 = PINMUX_UNUSED;
    52de:	9309      	str	r3, [sp, #36]	; 0x24
	config_usart.pinmux_pad2 = PINMUX_PA14C_SERCOM2_PAD2;
    52e0:	4b2b      	ldr	r3, [pc, #172]	; (5390 <configure_usart+0x140>)
    52e2:	930a      	str	r3, [sp, #40]	; 0x28
	config_usart.pinmux_pad3 = PINMUX_PA15C_SERCOM2_PAD3;
    52e4:	4b2b      	ldr	r3, [pc, #172]	; (5394 <configure_usart+0x144>)
    52e6:	930b      	str	r3, [sp, #44]	; 0x2c
	while (usart_init(&MyUart03,SERCOM2, &config_usart) != STATUS_OK);
    52e8:	4d2b      	ldr	r5, [pc, #172]	; (5398 <configure_usart+0x148>)
    52ea:	4c25      	ldr	r4, [pc, #148]	; (5380 <configure_usart+0x130>)
    52ec:	466a      	mov	r2, sp
    52ee:	492b      	ldr	r1, [pc, #172]	; (539c <configure_usart+0x14c>)
    52f0:	0028      	movs	r0, r5
    52f2:	47a0      	blx	r4
    52f4:	2800      	cmp	r0, #0
    52f6:	d1f9      	bne.n	52ec <configure_usart+0x9c>
	SercomUsart *const usart_hw = &(module->hw->USART);
    52f8:	4d27      	ldr	r5, [pc, #156]	; (5398 <configure_usart+0x148>)
    52fa:	682c      	ldr	r4, [r5, #0]
	system_interrupt_enable(_sercom_get_interrupt_vector(module->hw));
    52fc:	0020      	movs	r0, r4
    52fe:	4b22      	ldr	r3, [pc, #136]	; (5388 <configure_usart+0x138>)
    5300:	4798      	blx	r3
    5302:	231f      	movs	r3, #31
    5304:	4018      	ands	r0, r3
    5306:	3b1e      	subs	r3, #30
    5308:	4083      	lsls	r3, r0
    530a:	4a20      	ldr	r2, [pc, #128]	; (538c <configure_usart+0x13c>)
    530c:	6013      	str	r3, [r2, #0]
	SercomUsart *const usart_hw = &(module->hw->USART);
    530e:	682a      	ldr	r2, [r5, #0]
	return (usart_hw->STATUS.reg & SERCOM_USART_STATUS_SYNCBUSY);
    5310:	8a13      	ldrh	r3, [r2, #16]
	while (usart_is_syncing(module)) {
    5312:	b21b      	sxth	r3, r3
    5314:	2b00      	cmp	r3, #0
    5316:	dbfb      	blt.n	5310 <configure_usart+0xc0>
	usart_hw->CTRLA.reg |= SERCOM_USART_CTRLA_ENABLE;
    5318:	6823      	ldr	r3, [r4, #0]
    531a:	2202      	movs	r2, #2
    531c:	4313      	orrs	r3, r2
    531e:	6023      	str	r3, [r4, #0]
	#elif defined(Dev_Feed_Weigher)
		config_usart.baudrate    = 9600;
	#elif defined(Dev_Repeater)
		config_usart.baudrate    = 115200;
	#endif
	config_usart.mux_setting = USART_RX_1_TX_0_XCK_1 ;
    5320:	2380      	movs	r3, #128	; 0x80
    5322:	035b      	lsls	r3, r3, #13
    5324:	9303      	str	r3, [sp, #12]
	config_usart.pinmux_pad0 = PINMUX_PA08C_SERCOM0_PAD0;
    5326:	4b1e      	ldr	r3, [pc, #120]	; (53a0 <configure_usart+0x150>)
    5328:	9308      	str	r3, [sp, #32]
	config_usart.pinmux_pad1 = PINMUX_PA09C_SERCOM0_PAD1;
    532a:	4b1e      	ldr	r3, [pc, #120]	; (53a4 <configure_usart+0x154>)
    532c:	9309      	str	r3, [sp, #36]	; 0x24
	config_usart.pinmux_pad2 = PINMUX_UNUSED;
    532e:	2301      	movs	r3, #1
    5330:	425b      	negs	r3, r3
    5332:	930a      	str	r3, [sp, #40]	; 0x28
	config_usart.pinmux_pad3 = PINMUX_UNUSED;
    5334:	930b      	str	r3, [sp, #44]	; 0x2c
	while (usart_init(&MyUart04,SERCOM0, &config_usart) != STATUS_OK);
    5336:	4d1c      	ldr	r5, [pc, #112]	; (53a8 <configure_usart+0x158>)
    5338:	4c11      	ldr	r4, [pc, #68]	; (5380 <configure_usart+0x130>)
    533a:	466a      	mov	r2, sp
    533c:	491b      	ldr	r1, [pc, #108]	; (53ac <configure_usart+0x15c>)
    533e:	0028      	movs	r0, r5
    5340:	47a0      	blx	r4
    5342:	2800      	cmp	r0, #0
    5344:	d1f9      	bne.n	533a <configure_usart+0xea>
	SercomUsart *const usart_hw = &(module->hw->USART);
    5346:	4d18      	ldr	r5, [pc, #96]	; (53a8 <configure_usart+0x158>)
    5348:	682c      	ldr	r4, [r5, #0]
	system_interrupt_enable(_sercom_get_interrupt_vector(module->hw));
    534a:	0020      	movs	r0, r4
    534c:	4b0e      	ldr	r3, [pc, #56]	; (5388 <configure_usart+0x138>)
    534e:	4798      	blx	r3
    5350:	231f      	movs	r3, #31
    5352:	4018      	ands	r0, r3
    5354:	3b1e      	subs	r3, #30
    5356:	4083      	lsls	r3, r0
    5358:	4a0c      	ldr	r2, [pc, #48]	; (538c <configure_usart+0x13c>)
    535a:	6013      	str	r3, [r2, #0]
	SercomUsart *const usart_hw = &(module->hw->USART);
    535c:	682a      	ldr	r2, [r5, #0]
	return (usart_hw->STATUS.reg & SERCOM_USART_STATUS_SYNCBUSY);
    535e:	8a13      	ldrh	r3, [r2, #16]
	while (usart_is_syncing(module)) {
    5360:	b21b      	sxth	r3, r3
    5362:	2b00      	cmp	r3, #0
    5364:	dbfb      	blt.n	535e <configure_usart+0x10e>
	usart_hw->CTRLA.reg |= SERCOM_USART_CTRLA_ENABLE;
    5366:	6823      	ldr	r3, [r4, #0]
    5368:	2202      	movs	r2, #2
    536a:	4313      	orrs	r3, r2
    536c:	6023      	str	r3, [r4, #0]
	usart_enable(&MyUart04);
	
}
    536e:	b00d      	add	sp, #52	; 0x34
    5370:	bd30      	pop	{r4, r5, pc}
    5372:	46c0      	nop			; (mov r8, r8)
    5374:	00120002 	.word	0x00120002
    5378:	00130002 	.word	0x00130002
    537c:	20000270 	.word	0x20000270
    5380:	000058b1 	.word	0x000058b1
    5384:	42000c00 	.word	0x42000c00
    5388:	0000584d 	.word	0x0000584d
    538c:	e000e100 	.word	0xe000e100
    5390:	000e0002 	.word	0x000e0002
    5394:	000f0002 	.word	0x000f0002
    5398:	200018f0 	.word	0x200018f0
    539c:	42001000 	.word	0x42001000
    53a0:	00080002 	.word	0x00080002
    53a4:	00090002 	.word	0x00090002
    53a8:	200027d8 	.word	0x200027d8
    53ac:	42000800 	.word	0x42000800

000053b0 <configure_usart_callbacks>:

void configure_usart_callbacks(void)
{
    53b0:	b570      	push	{r4, r5, r6, lr}
		usart_register_callback(&MyUart01,	Uart_Form_RS485_callback, USART_CALLBACK_BUFFER_RECEIVED);
	#elif defined(Dev_Repeater)
		usart_register_callback(&MyUart01,	Uart_Form_RS485_callback, USART_CALLBACK_BUFFER_RECEIVED);
	#endif
		
	usart_register_callback(&MyUart02,	usart_read_callback, USART_CALLBACK_BUFFER_RECEIVED);
    53b2:	4d0c      	ldr	r5, [pc, #48]	; (53e4 <configure_usart_callbacks+0x34>)
    53b4:	2201      	movs	r2, #1
    53b6:	490c      	ldr	r1, [pc, #48]	; (53e8 <configure_usart_callbacks+0x38>)
    53b8:	0028      	movs	r0, r5
    53ba:	4e0c      	ldr	r6, [pc, #48]	; (53ec <configure_usart_callbacks+0x3c>)
    53bc:	47b0      	blx	r6
		
	usart_register_callback(&MyUart03,	Uart_Form_LORA01_callback, USART_CALLBACK_BUFFER_RECEIVED);
    53be:	4c0c      	ldr	r4, [pc, #48]	; (53f0 <configure_usart_callbacks+0x40>)
    53c0:	2201      	movs	r2, #1
    53c2:	490c      	ldr	r1, [pc, #48]	; (53f4 <configure_usart_callbacks+0x44>)
    53c4:	0020      	movs	r0, r4
    53c6:	47b0      	blx	r6
{
	/* Sanity check arguments */
	Assert(module);

	/* Enable callback */
	module->callback_enable_mask |= (1 << callback_type);
    53c8:	2321      	movs	r3, #33	; 0x21
    53ca:	2102      	movs	r1, #2
    53cc:	5cea      	ldrb	r2, [r5, r3]
    53ce:	430a      	orrs	r2, r1
    53d0:	54ea      	strb	r2, [r5, r3]
    53d2:	5ce2      	ldrb	r2, [r4, r3]
    53d4:	430a      	orrs	r2, r1
    53d6:	54e2      	strb	r2, [r4, r3]
    53d8:	4807      	ldr	r0, [pc, #28]	; (53f8 <configure_usart_callbacks+0x48>)
    53da:	5cc2      	ldrb	r2, [r0, r3]
    53dc:	430a      	orrs	r2, r1
    53de:	54c2      	strb	r2, [r0, r3]
	
	usart_enable_callback(&MyUart02, USART_CALLBACK_BUFFER_RECEIVED);
	usart_enable_callback(&MyUart03, USART_CALLBACK_BUFFER_RECEIVED);
	usart_enable_callback(&MyUart04, USART_CALLBACK_BUFFER_RECEIVED);
	
}
    53e0:	bd70      	pop	{r4, r5, r6, pc}
    53e2:	46c0      	nop			; (mov r8, r8)
    53e4:	20000270 	.word	0x20000270
    53e8:	000051e1 	.word	0x000051e1
    53ec:	00005b71 	.word	0x00005b71
    53f0:	200018f0 	.word	0x200018f0
    53f4:	000051b9 	.word	0x000051b9
    53f8:	200027d8 	.word	0x200027d8

000053fc <delay_init>:
 *
 * This must be called during start up to initialize the delay routine with
 * the current used main clock. It must run any time the main CPU clock is changed.
 */
void delay_init(void)
{
    53fc:	b570      	push	{r4, r5, r6, lr}
	cycles_per_ms = system_gclk_gen_get_hz(0);
    53fe:	2000      	movs	r0, #0
    5400:	4b08      	ldr	r3, [pc, #32]	; (5424 <delay_init+0x28>)
    5402:	4798      	blx	r3
    5404:	0005      	movs	r5, r0
	cycles_per_ms /= 1000;
    5406:	4c08      	ldr	r4, [pc, #32]	; (5428 <delay_init+0x2c>)
    5408:	21fa      	movs	r1, #250	; 0xfa
    540a:	0089      	lsls	r1, r1, #2
    540c:	47a0      	blx	r4
    540e:	4b07      	ldr	r3, [pc, #28]	; (542c <delay_init+0x30>)
    5410:	6018      	str	r0, [r3, #0]
	cycles_per_us = cycles_per_ms / 1000;
    5412:	4907      	ldr	r1, [pc, #28]	; (5430 <delay_init+0x34>)
    5414:	0028      	movs	r0, r5
    5416:	47a0      	blx	r4
    5418:	4b06      	ldr	r3, [pc, #24]	; (5434 <delay_init+0x38>)
    541a:	6018      	str	r0, [r3, #0]

	SysTick->CTRL = SysTick_CTRL_CLKSOURCE_Msk | SysTick_CTRL_ENABLE_Msk;
    541c:	2205      	movs	r2, #5
    541e:	4b06      	ldr	r3, [pc, #24]	; (5438 <delay_init+0x3c>)
    5420:	601a      	str	r2, [r3, #0]
}
    5422:	bd70      	pop	{r4, r5, r6, pc}
    5424:	00006009 	.word	0x00006009
    5428:	00006795 	.word	0x00006795
    542c:	200001c0 	.word	0x200001c0
    5430:	000f4240 	.word	0x000f4240
    5434:	200001c4 	.word	0x200001c4
    5438:	e000e010 	.word	0xe000e010

0000543c <delay_cycles_ms>:
 *
 * \param n  Number of milliseconds to wait
 */
void delay_cycles_ms(
		uint32_t n)
{
    543c:	b530      	push	{r4, r5, lr}
	while (n--) {
		/* Devide up to blocks of 1ms */
		delay_cycles(cycles_per_ms);
    543e:	4b08      	ldr	r3, [pc, #32]	; (5460 <delay_cycles_ms+0x24>)
    5440:	681c      	ldr	r4, [r3, #0]
 */
static inline void delay_cycles(
		const uint32_t n)
{
	if (n > 0) {
		SysTick->LOAD = n;
    5442:	4a08      	ldr	r2, [pc, #32]	; (5464 <delay_cycles_ms+0x28>)
		SysTick->VAL = 0;
    5444:	2500      	movs	r5, #0

		while (!(SysTick->CTRL & SysTick_CTRL_COUNTFLAG_Msk)) {
    5446:	2180      	movs	r1, #128	; 0x80
    5448:	0249      	lsls	r1, r1, #9
	while (n--) {
    544a:	3801      	subs	r0, #1
    544c:	d307      	bcc.n	545e <delay_cycles_ms+0x22>
	if (n > 0) {
    544e:	2c00      	cmp	r4, #0
    5450:	d0fb      	beq.n	544a <delay_cycles_ms+0xe>
		SysTick->LOAD = n;
    5452:	6054      	str	r4, [r2, #4]
		SysTick->VAL = 0;
    5454:	6095      	str	r5, [r2, #8]
		while (!(SysTick->CTRL & SysTick_CTRL_COUNTFLAG_Msk)) {
    5456:	6813      	ldr	r3, [r2, #0]
    5458:	420b      	tst	r3, r1
    545a:	d0fc      	beq.n	5456 <delay_cycles_ms+0x1a>
    545c:	e7f5      	b.n	544a <delay_cycles_ms+0xe>
	}
}
    545e:	bd30      	pop	{r4, r5, pc}
    5460:	200001c0 	.word	0x200001c0
    5464:	e000e010 	.word	0xe000e010

00005468 <cpu_irq_enter_critical>:
volatile bool g_interrupt_enabled = true;
#endif

void cpu_irq_enter_critical(void)
{
	if (cpu_irq_critical_section_counter == 0) {
    5468:	4b0c      	ldr	r3, [pc, #48]	; (549c <cpu_irq_enter_critical+0x34>)
    546a:	681b      	ldr	r3, [r3, #0]
    546c:	2b00      	cmp	r3, #0
    546e:	d106      	bne.n	547e <cpu_irq_enter_critical+0x16>
 */
__attribute__( ( always_inline ) ) __STATIC_INLINE uint32_t __get_PRIMASK(void)
{
  uint32_t result;

  __ASM volatile ("MRS %0, primask" : "=r" (result) );
    5470:	f3ef 8310 	mrs	r3, PRIMASK
		if (cpu_irq_is_enabled()) {
    5474:	2b00      	cmp	r3, #0
    5476:	d007      	beq.n	5488 <cpu_irq_enter_critical+0x20>
			cpu_irq_disable();
			cpu_irq_prev_interrupt_state = true;
		} else {
			/* Make sure the to save the prev state as false */
			cpu_irq_prev_interrupt_state = false;
    5478:	2200      	movs	r2, #0
    547a:	4b09      	ldr	r3, [pc, #36]	; (54a0 <cpu_irq_enter_critical+0x38>)
    547c:	701a      	strb	r2, [r3, #0]
		}

	}

	cpu_irq_critical_section_counter++;
    547e:	4a07      	ldr	r2, [pc, #28]	; (549c <cpu_irq_enter_critical+0x34>)
    5480:	6813      	ldr	r3, [r2, #0]
    5482:	3301      	adds	r3, #1
    5484:	6013      	str	r3, [r2, #0]
}
    5486:	4770      	bx	lr
  __ASM volatile ("cpsid i" : : : "memory");
    5488:	b672      	cpsid	i
    This function ensures the apparent order of the explicit memory operations before
    and after the instruction, without ensuring their completion.
 */
__attribute__( ( always_inline ) ) __STATIC_INLINE void __DMB(void)
{
  __ASM volatile ("dmb");
    548a:	f3bf 8f5f 	dmb	sy
			cpu_irq_disable();
    548e:	2200      	movs	r2, #0
    5490:	4b04      	ldr	r3, [pc, #16]	; (54a4 <cpu_irq_enter_critical+0x3c>)
    5492:	701a      	strb	r2, [r3, #0]
			cpu_irq_prev_interrupt_state = true;
    5494:	3201      	adds	r2, #1
    5496:	4b02      	ldr	r3, [pc, #8]	; (54a0 <cpu_irq_enter_critical+0x38>)
    5498:	701a      	strb	r2, [r3, #0]
    549a:	e7f0      	b.n	547e <cpu_irq_enter_critical+0x16>
    549c:	200001f0 	.word	0x200001f0
    54a0:	200001f4 	.word	0x200001f4
    54a4:	200001c8 	.word	0x200001c8

000054a8 <cpu_irq_leave_critical>:
void cpu_irq_leave_critical(void)
{
	/* Check if the user is trying to leave a critical section when not in a critical section */
	Assert(cpu_irq_critical_section_counter > 0);

	cpu_irq_critical_section_counter--;
    54a8:	4b08      	ldr	r3, [pc, #32]	; (54cc <cpu_irq_leave_critical+0x24>)
    54aa:	681a      	ldr	r2, [r3, #0]
    54ac:	3a01      	subs	r2, #1
    54ae:	601a      	str	r2, [r3, #0]

	/* Only enable global interrupts when the counter reaches 0 and the state of the global interrupt flag
	   was enabled when entering critical state */
	if ((cpu_irq_critical_section_counter == 0) && (cpu_irq_prev_interrupt_state)) {
    54b0:	681b      	ldr	r3, [r3, #0]
    54b2:	2b00      	cmp	r3, #0
    54b4:	d109      	bne.n	54ca <cpu_irq_leave_critical+0x22>
    54b6:	4b06      	ldr	r3, [pc, #24]	; (54d0 <cpu_irq_leave_critical+0x28>)
    54b8:	781b      	ldrb	r3, [r3, #0]
    54ba:	2b00      	cmp	r3, #0
    54bc:	d005      	beq.n	54ca <cpu_irq_leave_critical+0x22>
		cpu_irq_enable();
    54be:	2201      	movs	r2, #1
    54c0:	4b04      	ldr	r3, [pc, #16]	; (54d4 <cpu_irq_leave_critical+0x2c>)
    54c2:	701a      	strb	r2, [r3, #0]
    54c4:	f3bf 8f5f 	dmb	sy
  __ASM volatile ("cpsie i" : : : "memory");
    54c8:	b662      	cpsie	i
	}
}
    54ca:	4770      	bx	lr
    54cc:	200001f0 	.word	0x200001f0
    54d0:	200001f4 	.word	0x200001f4
    54d4:	200001c8 	.word	0x200001c8

000054d8 <system_board_init>:

void system_board_init(void)
{


}
    54d8:	4770      	bx	lr
	...

000054dc <port_pin_set_config>:
 *  \param[in] config    Configuration settings for the pin
 */
void port_pin_set_config(
		const uint8_t gpio_pin,
		const struct port_config *const config)
{
    54dc:	b500      	push	{lr}
    54de:	b083      	sub	sp, #12
	config->mux_position = SYSTEM_PINMUX_GPIO;
    54e0:	ab01      	add	r3, sp, #4
    54e2:	2280      	movs	r2, #128	; 0x80
    54e4:	701a      	strb	r2, [r3, #0]

	struct system_pinmux_config pinmux_config;
	system_pinmux_get_config_defaults(&pinmux_config);

	pinmux_config.mux_position = SYSTEM_PINMUX_GPIO;
	pinmux_config.direction    = (enum system_pinmux_pin_dir)config->direction;
    54e6:	780a      	ldrb	r2, [r1, #0]
    54e8:	705a      	strb	r2, [r3, #1]
	pinmux_config.input_pull   = (enum system_pinmux_pin_pull)config->input_pull;
    54ea:	784a      	ldrb	r2, [r1, #1]
    54ec:	709a      	strb	r2, [r3, #2]
	pinmux_config.powersave    = config->powersave;
    54ee:	788a      	ldrb	r2, [r1, #2]
    54f0:	70da      	strb	r2, [r3, #3]

	system_pinmux_pin_set_config(gpio_pin, &pinmux_config);
    54f2:	0019      	movs	r1, r3
    54f4:	4b01      	ldr	r3, [pc, #4]	; (54fc <port_pin_set_config+0x20>)
    54f6:	4798      	blx	r3
}
    54f8:	b003      	add	sp, #12
    54fa:	bd00      	pop	{pc}
    54fc:	00006249 	.word	0x00006249

00005500 <long_division>:
/**
 * \internal Calculate 64 bit division, ref can be found in
 * http://en.wikipedia.org/wiki/Division_algorithm#Long_division
 */
static uint64_t long_division(uint64_t n, uint64_t d)
{
    5500:	b5f0      	push	{r4, r5, r6, r7, lr}
    5502:	46de      	mov	lr, fp
    5504:	4657      	mov	r7, sl
    5506:	464e      	mov	r6, r9
    5508:	4645      	mov	r5, r8
    550a:	b5e0      	push	{r5, r6, r7, lr}
    550c:	b087      	sub	sp, #28
    550e:	4680      	mov	r8, r0
    5510:	9104      	str	r1, [sp, #16]
    5512:	0016      	movs	r6, r2
    5514:	001f      	movs	r7, r3
	int32_t i;
	uint64_t q = 0, r = 0, bit_shift;
    5516:	2200      	movs	r2, #0
    5518:	2300      	movs	r3, #0
    551a:	2100      	movs	r1, #0
    551c:	468b      	mov	fp, r1
	for (i = 63; i >= 0; i--) {
    551e:	243f      	movs	r4, #63	; 0x3f
		bit_shift = (uint64_t)1 << i;
    5520:	2001      	movs	r0, #1
    5522:	0021      	movs	r1, r4
    5524:	9600      	str	r6, [sp, #0]
    5526:	9701      	str	r7, [sp, #4]
    5528:	465c      	mov	r4, fp
    552a:	9403      	str	r4, [sp, #12]
    552c:	4644      	mov	r4, r8
    552e:	9405      	str	r4, [sp, #20]
    5530:	e013      	b.n	555a <long_division+0x5a>
    5532:	2420      	movs	r4, #32
    5534:	1a64      	subs	r4, r4, r1
    5536:	0005      	movs	r5, r0
    5538:	40e5      	lsrs	r5, r4
    553a:	46a8      	mov	r8, r5
    553c:	e014      	b.n	5568 <long_division+0x68>
		if (n & bit_shift) {
			r |= 0x01;
		}

		if (r >= d) {
			r = r - d;
    553e:	9c00      	ldr	r4, [sp, #0]
    5540:	9d01      	ldr	r5, [sp, #4]
    5542:	1b12      	subs	r2, r2, r4
    5544:	41ab      	sbcs	r3, r5
			q |= bit_shift;
    5546:	465c      	mov	r4, fp
    5548:	464d      	mov	r5, r9
    554a:	432c      	orrs	r4, r5
    554c:	46a3      	mov	fp, r4
    554e:	9c03      	ldr	r4, [sp, #12]
    5550:	4645      	mov	r5, r8
    5552:	432c      	orrs	r4, r5
    5554:	9403      	str	r4, [sp, #12]
	for (i = 63; i >= 0; i--) {
    5556:	3901      	subs	r1, #1
    5558:	d325      	bcc.n	55a6 <long_division+0xa6>
		bit_shift = (uint64_t)1 << i;
    555a:	2420      	movs	r4, #32
    555c:	4264      	negs	r4, r4
    555e:	190c      	adds	r4, r1, r4
    5560:	d4e7      	bmi.n	5532 <long_division+0x32>
    5562:	0005      	movs	r5, r0
    5564:	40a5      	lsls	r5, r4
    5566:	46a8      	mov	r8, r5
    5568:	0004      	movs	r4, r0
    556a:	408c      	lsls	r4, r1
    556c:	46a1      	mov	r9, r4
		r = r << 1;
    556e:	1892      	adds	r2, r2, r2
    5570:	415b      	adcs	r3, r3
    5572:	0014      	movs	r4, r2
    5574:	001d      	movs	r5, r3
		if (n & bit_shift) {
    5576:	9e05      	ldr	r6, [sp, #20]
    5578:	464f      	mov	r7, r9
    557a:	403e      	ands	r6, r7
    557c:	46b4      	mov	ip, r6
    557e:	9e04      	ldr	r6, [sp, #16]
    5580:	4647      	mov	r7, r8
    5582:	403e      	ands	r6, r7
    5584:	46b2      	mov	sl, r6
    5586:	4666      	mov	r6, ip
    5588:	4657      	mov	r7, sl
    558a:	433e      	orrs	r6, r7
    558c:	d003      	beq.n	5596 <long_division+0x96>
			r |= 0x01;
    558e:	0006      	movs	r6, r0
    5590:	4326      	orrs	r6, r4
    5592:	0032      	movs	r2, r6
    5594:	002b      	movs	r3, r5
		if (r >= d) {
    5596:	9c00      	ldr	r4, [sp, #0]
    5598:	9d01      	ldr	r5, [sp, #4]
    559a:	429d      	cmp	r5, r3
    559c:	d8db      	bhi.n	5556 <long_division+0x56>
    559e:	d1ce      	bne.n	553e <long_division+0x3e>
    55a0:	4294      	cmp	r4, r2
    55a2:	d8d8      	bhi.n	5556 <long_division+0x56>
    55a4:	e7cb      	b.n	553e <long_division+0x3e>
    55a6:	9b03      	ldr	r3, [sp, #12]
		}
	}

	return q;
}
    55a8:	4658      	mov	r0, fp
    55aa:	0019      	movs	r1, r3
    55ac:	b007      	add	sp, #28
    55ae:	bc3c      	pop	{r2, r3, r4, r5}
    55b0:	4690      	mov	r8, r2
    55b2:	4699      	mov	r9, r3
    55b4:	46a2      	mov	sl, r4
    55b6:	46ab      	mov	fp, r5
    55b8:	bdf0      	pop	{r4, r5, r6, r7, pc}

000055ba <_sercom_get_sync_baud_val>:
 */
enum status_code _sercom_get_sync_baud_val(
		const uint32_t baudrate,
		const uint32_t external_clock,
		uint16_t *const baudvalue)
{
    55ba:	b510      	push	{r4, lr}
	uint16_t baud_calculated = 0;
	uint32_t clock_value = external_clock;


	/* Check if baudrate is outside of valid range */
	if (baudrate > (external_clock / 2)) {
    55bc:	0849      	lsrs	r1, r1, #1
		/* Return with error code */
		return STATUS_ERR_BAUDRATE_UNAVAILABLE;
    55be:	2340      	movs	r3, #64	; 0x40
    55c0:	2400      	movs	r4, #0
	if (baudrate > (external_clock / 2)) {
    55c2:	4281      	cmp	r1, r0
    55c4:	d202      	bcs.n	55cc <_sercom_get_sync_baud_val+0x12>
		return STATUS_ERR_BAUDRATE_UNAVAILABLE;
	} else {
		*baudvalue = baud_calculated;
		return STATUS_OK;
	}
}
    55c6:	0018      	movs	r0, r3
    55c8:	bd10      	pop	{r4, pc}
		baud_calculated++;
    55ca:	001c      	movs	r4, r3
		clock_value = clock_value - baudrate;
    55cc:	1a09      	subs	r1, r1, r0
		baud_calculated++;
    55ce:	1c63      	adds	r3, r4, #1
    55d0:	b29b      	uxth	r3, r3
	while (clock_value >= baudrate) {
    55d2:	4288      	cmp	r0, r1
    55d4:	d9f9      	bls.n	55ca <_sercom_get_sync_baud_val+0x10>
		return STATUS_ERR_BAUDRATE_UNAVAILABLE;
    55d6:	2340      	movs	r3, #64	; 0x40
	if (baud_calculated > 0xFF) {
    55d8:	2cff      	cmp	r4, #255	; 0xff
    55da:	d8f4      	bhi.n	55c6 <_sercom_get_sync_baud_val+0xc>
		*baudvalue = baud_calculated;
    55dc:	8014      	strh	r4, [r2, #0]
		return STATUS_OK;
    55de:	2300      	movs	r3, #0
    55e0:	e7f1      	b.n	55c6 <_sercom_get_sync_baud_val+0xc>
	...

000055e4 <_sercom_get_async_baud_val>:
		const uint32_t baudrate,
		const uint32_t peripheral_clock,
		uint16_t *const baudval,
		enum sercom_asynchronous_operation_mode mode,
		enum sercom_asynchronous_sample_num sample_num)
{
    55e4:	b5f0      	push	{r4, r5, r6, r7, lr}
    55e6:	b083      	sub	sp, #12
    55e8:	000f      	movs	r7, r1
    55ea:	0016      	movs	r6, r2
    55ec:	aa08      	add	r2, sp, #32
    55ee:	7811      	ldrb	r1, [r2, #0]
	uint8_t baud_fp;
	uint32_t baud_int = 0;
	uint64_t temp1;

	/* Check if the baudrate is outside of valid range */
	if ((baudrate * sample_num) > peripheral_clock) {
    55f0:	0004      	movs	r4, r0
    55f2:	434c      	muls	r4, r1
		/* Return with error code */
		return STATUS_ERR_BAUDRATE_UNAVAILABLE;
    55f4:	2240      	movs	r2, #64	; 0x40
	if ((baudrate * sample_num) > peripheral_clock) {
    55f6:	42bc      	cmp	r4, r7
    55f8:	d902      	bls.n	5600 <_sercom_get_async_baud_val+0x1c>
		baud_calculated = baud_int | (baud_fp << 13);
	}

	*baudval = baud_calculated;
	return STATUS_OK;
}
    55fa:	0010      	movs	r0, r2
    55fc:	b003      	add	sp, #12
    55fe:	bdf0      	pop	{r4, r5, r6, r7, pc}
	if(mode == SERCOM_ASYNC_OPERATION_MODE_ARITHMETIC) {
    5600:	2b00      	cmp	r3, #0
    5602:	d114      	bne.n	562e <_sercom_get_async_baud_val+0x4a>
		temp1 = ((sample_num * (uint64_t)baudrate) << SHIFT);
    5604:	0002      	movs	r2, r0
    5606:	0008      	movs	r0, r1
    5608:	2100      	movs	r1, #0
    560a:	4c19      	ldr	r4, [pc, #100]	; (5670 <_sercom_get_async_baud_val+0x8c>)
    560c:	47a0      	blx	r4
    560e:	0001      	movs	r1, r0
		ratio = long_division(temp1, peripheral_clock);
    5610:	003a      	movs	r2, r7
    5612:	2300      	movs	r3, #0
    5614:	2000      	movs	r0, #0
    5616:	4c17      	ldr	r4, [pc, #92]	; (5674 <_sercom_get_async_baud_val+0x90>)
    5618:	47a0      	blx	r4
		scale = ((uint64_t)1 << SHIFT) - ratio;
    561a:	2200      	movs	r2, #0
    561c:	2301      	movs	r3, #1
    561e:	1a12      	subs	r2, r2, r0
    5620:	418b      	sbcs	r3, r1
		baud_calculated = (65536 * scale) >> SHIFT;
    5622:	0c12      	lsrs	r2, r2, #16
    5624:	041b      	lsls	r3, r3, #16
    5626:	431a      	orrs	r2, r3
	*baudval = baud_calculated;
    5628:	8032      	strh	r2, [r6, #0]
	return STATUS_OK;
    562a:	2200      	movs	r2, #0
    562c:	e7e5      	b.n	55fa <_sercom_get_async_baud_val+0x16>
	uint64_t baud_calculated = 0;
    562e:	2200      	movs	r2, #0
	} else if(mode == SERCOM_ASYNC_OPERATION_MODE_FRACTIONAL) {
    5630:	2b01      	cmp	r3, #1
    5632:	d1f9      	bne.n	5628 <_sercom_get_async_baud_val+0x44>
		temp1 = ((uint64_t)baudrate * sample_num);
    5634:	000a      	movs	r2, r1
    5636:	2300      	movs	r3, #0
    5638:	2100      	movs	r1, #0
    563a:	4c0d      	ldr	r4, [pc, #52]	; (5670 <_sercom_get_async_baud_val+0x8c>)
    563c:	47a0      	blx	r4
    563e:	0002      	movs	r2, r0
    5640:	000b      	movs	r3, r1
    5642:	9200      	str	r2, [sp, #0]
    5644:	9301      	str	r3, [sp, #4]
		baud_int = long_division( peripheral_clock, temp1);
    5646:	0038      	movs	r0, r7
    5648:	2100      	movs	r1, #0
    564a:	4c0a      	ldr	r4, [pc, #40]	; (5674 <_sercom_get_async_baud_val+0x90>)
    564c:	47a0      	blx	r4
    564e:	0005      	movs	r5, r0
		if(baud_int > BAUD_INT_MAX) {
    5650:	2380      	movs	r3, #128	; 0x80
    5652:	019b      	lsls	r3, r3, #6
				return STATUS_ERR_BAUDRATE_UNAVAILABLE;
    5654:	2240      	movs	r2, #64	; 0x40
		if(baud_int > BAUD_INT_MAX) {
    5656:	4298      	cmp	r0, r3
    5658:	d8cf      	bhi.n	55fa <_sercom_get_async_baud_val+0x16>
		temp1 = long_division( 8 * (uint64_t)peripheral_clock, temp1);
    565a:	0f79      	lsrs	r1, r7, #29
    565c:	00f8      	lsls	r0, r7, #3
    565e:	9a00      	ldr	r2, [sp, #0]
    5660:	9b01      	ldr	r3, [sp, #4]
    5662:	47a0      	blx	r4
		baud_fp = temp1 - 8 * baud_int;
    5664:	00ea      	lsls	r2, r5, #3
    5666:	1a82      	subs	r2, r0, r2
		baud_calculated = baud_int | (baud_fp << 13);
    5668:	b2d2      	uxtb	r2, r2
    566a:	0352      	lsls	r2, r2, #13
    566c:	432a      	orrs	r2, r5
    566e:	e7db      	b.n	5628 <_sercom_get_async_baud_val+0x44>
    5670:	00006a81 	.word	0x00006a81
    5674:	00005501 	.word	0x00005501

00005678 <sercom_set_gclk_generator>:
 *                                         forced.
 */
enum status_code sercom_set_gclk_generator(
		const enum gclk_generator generator_source,
		const bool force_change)
{
    5678:	b510      	push	{r4, lr}
    567a:	b082      	sub	sp, #8
    567c:	0004      	movs	r4, r0
	/* Check if valid option */
	if (!_sercom_config.generator_is_set || force_change) {
    567e:	4b0e      	ldr	r3, [pc, #56]	; (56b8 <sercom_set_gclk_generator+0x40>)
    5680:	781b      	ldrb	r3, [r3, #0]
    5682:	2b00      	cmp	r3, #0
    5684:	d007      	beq.n	5696 <sercom_set_gclk_generator+0x1e>
    5686:	2900      	cmp	r1, #0
    5688:	d105      	bne.n	5696 <sercom_set_gclk_generator+0x1e>
		/* Save config */
		_sercom_config.generator_source = generator_source;
		_sercom_config.generator_is_set = true;

		return STATUS_OK;
	} else if (generator_source == _sercom_config.generator_source) {
    568a:	4b0b      	ldr	r3, [pc, #44]	; (56b8 <sercom_set_gclk_generator+0x40>)
    568c:	785b      	ldrb	r3, [r3, #1]
    568e:	4283      	cmp	r3, r0
    5690:	d010      	beq.n	56b4 <sercom_set_gclk_generator+0x3c>
		/* Return status OK if same config */
		return STATUS_OK;
	}

	/* Return invalid config to already initialized GCLK */
	return STATUS_ERR_ALREADY_INITIALIZED;
    5692:	201d      	movs	r0, #29
    5694:	e00c      	b.n	56b0 <sercom_set_gclk_generator+0x38>
		gclk_chan_conf.source_generator = generator_source;
    5696:	a901      	add	r1, sp, #4
    5698:	700c      	strb	r4, [r1, #0]
		system_gclk_chan_set_config(SERCOM_GCLK_ID, &gclk_chan_conf);
    569a:	200c      	movs	r0, #12
    569c:	4b07      	ldr	r3, [pc, #28]	; (56bc <sercom_set_gclk_generator+0x44>)
    569e:	4798      	blx	r3
		system_gclk_chan_enable(SERCOM_GCLK_ID);
    56a0:	200c      	movs	r0, #12
    56a2:	4b07      	ldr	r3, [pc, #28]	; (56c0 <sercom_set_gclk_generator+0x48>)
    56a4:	4798      	blx	r3
		_sercom_config.generator_source = generator_source;
    56a6:	4b04      	ldr	r3, [pc, #16]	; (56b8 <sercom_set_gclk_generator+0x40>)
    56a8:	705c      	strb	r4, [r3, #1]
		_sercom_config.generator_is_set = true;
    56aa:	2201      	movs	r2, #1
    56ac:	701a      	strb	r2, [r3, #0]
		return STATUS_OK;
    56ae:	2000      	movs	r0, #0
}
    56b0:	b002      	add	sp, #8
    56b2:	bd10      	pop	{r4, pc}
		return STATUS_OK;
    56b4:	2000      	movs	r0, #0
    56b6:	e7fb      	b.n	56b0 <sercom_set_gclk_generator+0x38>
    56b8:	200001f8 	.word	0x200001f8
    56bc:	00006121 	.word	0x00006121
    56c0:	00006095 	.word	0x00006095

000056c4 <_sercom_get_default_pad>:
 */
uint32_t _sercom_get_default_pad(
		Sercom *const sercom_module,
		const uint8_t pad)
{
	switch ((uintptr_t)sercom_module) {
    56c4:	4b2b      	ldr	r3, [pc, #172]	; (5774 <_sercom_get_default_pad+0xb0>)
    56c6:	4298      	cmp	r0, r3
    56c8:	d023      	beq.n	5712 <_sercom_get_default_pad+0x4e>
    56ca:	d90f      	bls.n	56ec <_sercom_get_default_pad+0x28>
    56cc:	4b2a      	ldr	r3, [pc, #168]	; (5778 <_sercom_get_default_pad+0xb4>)
    56ce:	4298      	cmp	r0, r3
    56d0:	d02f      	beq.n	5732 <_sercom_get_default_pad+0x6e>
    56d2:	4b2a      	ldr	r3, [pc, #168]	; (577c <_sercom_get_default_pad+0xb8>)
    56d4:	4298      	cmp	r0, r3
    56d6:	d142      	bne.n	575e <_sercom_get_default_pad+0x9a>
		/* Auto-generate a lookup table for the default SERCOM pad defaults */
		MREPEAT(SERCOM_INST_NUM, _SERCOM_PAD_DEFAULTS_CASE, pad)
    56d8:	2901      	cmp	r1, #1
    56da:	d03a      	beq.n	5752 <_sercom_get_default_pad+0x8e>
    56dc:	2900      	cmp	r1, #0
    56de:	d046      	beq.n	576e <_sercom_get_default_pad+0xaa>
    56e0:	2902      	cmp	r1, #2
    56e2:	d038      	beq.n	5756 <_sercom_get_default_pad+0x92>
    56e4:	2903      	cmp	r1, #3
    56e6:	d038      	beq.n	575a <_sercom_get_default_pad+0x96>
	}

	Assert(false);
	return 0;
    56e8:	2000      	movs	r0, #0
    56ea:	e039      	b.n	5760 <_sercom_get_default_pad+0x9c>
	switch ((uintptr_t)sercom_module) {
    56ec:	4b24      	ldr	r3, [pc, #144]	; (5780 <_sercom_get_default_pad+0xbc>)
    56ee:	4298      	cmp	r0, r3
    56f0:	d135      	bne.n	575e <_sercom_get_default_pad+0x9a>
		MREPEAT(SERCOM_INST_NUM, _SERCOM_PAD_DEFAULTS_CASE, pad)
    56f2:	2901      	cmp	r1, #1
    56f4:	d007      	beq.n	5706 <_sercom_get_default_pad+0x42>
    56f6:	2900      	cmp	r1, #0
    56f8:	d033      	beq.n	5762 <_sercom_get_default_pad+0x9e>
    56fa:	2902      	cmp	r1, #2
    56fc:	d005      	beq.n	570a <_sercom_get_default_pad+0x46>
    56fe:	2903      	cmp	r1, #3
    5700:	d005      	beq.n	570e <_sercom_get_default_pad+0x4a>
	return 0;
    5702:	2000      	movs	r0, #0
    5704:	e02c      	b.n	5760 <_sercom_get_default_pad+0x9c>
		MREPEAT(SERCOM_INST_NUM, _SERCOM_PAD_DEFAULTS_CASE, pad)
    5706:	481f      	ldr	r0, [pc, #124]	; (5784 <_sercom_get_default_pad+0xc0>)
    5708:	e02a      	b.n	5760 <_sercom_get_default_pad+0x9c>
    570a:	481f      	ldr	r0, [pc, #124]	; (5788 <_sercom_get_default_pad+0xc4>)
    570c:	e028      	b.n	5760 <_sercom_get_default_pad+0x9c>
    570e:	481f      	ldr	r0, [pc, #124]	; (578c <_sercom_get_default_pad+0xc8>)
    5710:	e026      	b.n	5760 <_sercom_get_default_pad+0x9c>
    5712:	2901      	cmp	r1, #1
    5714:	d007      	beq.n	5726 <_sercom_get_default_pad+0x62>
    5716:	2900      	cmp	r1, #0
    5718:	d025      	beq.n	5766 <_sercom_get_default_pad+0xa2>
    571a:	2902      	cmp	r1, #2
    571c:	d005      	beq.n	572a <_sercom_get_default_pad+0x66>
    571e:	2903      	cmp	r1, #3
    5720:	d005      	beq.n	572e <_sercom_get_default_pad+0x6a>
	return 0;
    5722:	2000      	movs	r0, #0
    5724:	e01c      	b.n	5760 <_sercom_get_default_pad+0x9c>
		MREPEAT(SERCOM_INST_NUM, _SERCOM_PAD_DEFAULTS_CASE, pad)
    5726:	481a      	ldr	r0, [pc, #104]	; (5790 <_sercom_get_default_pad+0xcc>)
    5728:	e01a      	b.n	5760 <_sercom_get_default_pad+0x9c>
    572a:	481a      	ldr	r0, [pc, #104]	; (5794 <_sercom_get_default_pad+0xd0>)
    572c:	e018      	b.n	5760 <_sercom_get_default_pad+0x9c>
    572e:	481a      	ldr	r0, [pc, #104]	; (5798 <_sercom_get_default_pad+0xd4>)
    5730:	e016      	b.n	5760 <_sercom_get_default_pad+0x9c>
    5732:	2901      	cmp	r1, #1
    5734:	d007      	beq.n	5746 <_sercom_get_default_pad+0x82>
    5736:	2900      	cmp	r1, #0
    5738:	d017      	beq.n	576a <_sercom_get_default_pad+0xa6>
    573a:	2902      	cmp	r1, #2
    573c:	d005      	beq.n	574a <_sercom_get_default_pad+0x86>
    573e:	2903      	cmp	r1, #3
    5740:	d005      	beq.n	574e <_sercom_get_default_pad+0x8a>
	return 0;
    5742:	2000      	movs	r0, #0
    5744:	e00c      	b.n	5760 <_sercom_get_default_pad+0x9c>
		MREPEAT(SERCOM_INST_NUM, _SERCOM_PAD_DEFAULTS_CASE, pad)
    5746:	4815      	ldr	r0, [pc, #84]	; (579c <_sercom_get_default_pad+0xd8>)
    5748:	e00a      	b.n	5760 <_sercom_get_default_pad+0x9c>
    574a:	4815      	ldr	r0, [pc, #84]	; (57a0 <_sercom_get_default_pad+0xdc>)
    574c:	e008      	b.n	5760 <_sercom_get_default_pad+0x9c>
    574e:	4815      	ldr	r0, [pc, #84]	; (57a4 <_sercom_get_default_pad+0xe0>)
    5750:	e006      	b.n	5760 <_sercom_get_default_pad+0x9c>
    5752:	4815      	ldr	r0, [pc, #84]	; (57a8 <_sercom_get_default_pad+0xe4>)
    5754:	e004      	b.n	5760 <_sercom_get_default_pad+0x9c>
    5756:	4815      	ldr	r0, [pc, #84]	; (57ac <_sercom_get_default_pad+0xe8>)
    5758:	e002      	b.n	5760 <_sercom_get_default_pad+0x9c>
    575a:	4815      	ldr	r0, [pc, #84]	; (57b0 <_sercom_get_default_pad+0xec>)
    575c:	e000      	b.n	5760 <_sercom_get_default_pad+0x9c>
	return 0;
    575e:	2000      	movs	r0, #0
}
    5760:	4770      	bx	lr
		MREPEAT(SERCOM_INST_NUM, _SERCOM_PAD_DEFAULTS_CASE, pad)
    5762:	4814      	ldr	r0, [pc, #80]	; (57b4 <_sercom_get_default_pad+0xf0>)
    5764:	e7fc      	b.n	5760 <_sercom_get_default_pad+0x9c>
    5766:	2003      	movs	r0, #3
    5768:	e7fa      	b.n	5760 <_sercom_get_default_pad+0x9c>
    576a:	4813      	ldr	r0, [pc, #76]	; (57b8 <_sercom_get_default_pad+0xf4>)
    576c:	e7f8      	b.n	5760 <_sercom_get_default_pad+0x9c>
    576e:	4813      	ldr	r0, [pc, #76]	; (57bc <_sercom_get_default_pad+0xf8>)
    5770:	e7f6      	b.n	5760 <_sercom_get_default_pad+0x9c>
    5772:	46c0      	nop			; (mov r8, r8)
    5774:	42000c00 	.word	0x42000c00
    5778:	42001000 	.word	0x42001000
    577c:	42001400 	.word	0x42001400
    5780:	42000800 	.word	0x42000800
    5784:	00050003 	.word	0x00050003
    5788:	00060003 	.word	0x00060003
    578c:	00070003 	.word	0x00070003
    5790:	00010003 	.word	0x00010003
    5794:	001e0003 	.word	0x001e0003
    5798:	001f0003 	.word	0x001f0003
    579c:	00090003 	.word	0x00090003
    57a0:	000a0003 	.word	0x000a0003
    57a4:	000b0003 	.word	0x000b0003
    57a8:	00110003 	.word	0x00110003
    57ac:	00120003 	.word	0x00120003
    57b0:	00130003 	.word	0x00130003
    57b4:	00040003 	.word	0x00040003
    57b8:	00080003 	.word	0x00080003
    57bc:	00100003 	.word	0x00100003

000057c0 <_sercom_get_sercom_inst_index>:
 *
 * \return Index of given instance.
 */
uint8_t _sercom_get_sercom_inst_index(
		Sercom *const sercom_instance)
{
    57c0:	b530      	push	{r4, r5, lr}
    57c2:	b085      	sub	sp, #20
	/* Save all available SERCOM instances for compare */
	Sercom *sercom_instances[SERCOM_INST_NUM] = SERCOM_INSTS;
    57c4:	466a      	mov	r2, sp
    57c6:	4b0f      	ldr	r3, [pc, #60]	; (5804 <_sercom_get_sercom_inst_index+0x44>)
    57c8:	cb32      	ldmia	r3!, {r1, r4, r5}
    57ca:	c232      	stmia	r2!, {r1, r4, r5}
    57cc:	681b      	ldr	r3, [r3, #0]
    57ce:	6013      	str	r3, [r2, #0]

	/* Find index for sercom instance */
	for (uint32_t i = 0; i < SERCOM_INST_NUM; i++) {
		if ((uintptr_t)sercom_instance == (uintptr_t)sercom_instances[i]) {
    57d0:	0003      	movs	r3, r0
    57d2:	9a00      	ldr	r2, [sp, #0]
    57d4:	4282      	cmp	r2, r0
    57d6:	d011      	beq.n	57fc <_sercom_get_sercom_inst_index+0x3c>
    57d8:	9a01      	ldr	r2, [sp, #4]
    57da:	4282      	cmp	r2, r0
    57dc:	d00a      	beq.n	57f4 <_sercom_get_sercom_inst_index+0x34>
    57de:	9a02      	ldr	r2, [sp, #8]
    57e0:	4282      	cmp	r2, r0
    57e2:	d009      	beq.n	57f8 <_sercom_get_sercom_inst_index+0x38>
		}
	}

	/* Invalid data given */
	Assert(false);
	return 0;
    57e4:	2000      	movs	r0, #0
		if ((uintptr_t)sercom_instance == (uintptr_t)sercom_instances[i]) {
    57e6:	9a03      	ldr	r2, [sp, #12]
    57e8:	429a      	cmp	r2, r3
    57ea:	d001      	beq.n	57f0 <_sercom_get_sercom_inst_index+0x30>
}
    57ec:	b005      	add	sp, #20
    57ee:	bd30      	pop	{r4, r5, pc}
	for (uint32_t i = 0; i < SERCOM_INST_NUM; i++) {
    57f0:	3003      	adds	r0, #3
    57f2:	e004      	b.n	57fe <_sercom_get_sercom_inst_index+0x3e>
    57f4:	2001      	movs	r0, #1
    57f6:	e002      	b.n	57fe <_sercom_get_sercom_inst_index+0x3e>
    57f8:	2002      	movs	r0, #2
    57fa:	e000      	b.n	57fe <_sercom_get_sercom_inst_index+0x3e>
    57fc:	2000      	movs	r0, #0
			return i;
    57fe:	b2c0      	uxtb	r0, r0
    5800:	e7f4      	b.n	57ec <_sercom_get_sercom_inst_index+0x2c>
    5802:	46c0      	nop			; (mov r8, r8)
    5804:	000072f0 	.word	0x000072f0

00005808 <_sercom_default_handler>:
 */
static void _sercom_default_handler(
		const uint8_t instance)
{
	Assert(false);
}
    5808:	4770      	bx	lr
	...

0000580c <_sercom_set_handler>:
 * \param[in]  interrupt_handler  Pointer to instance callback handler.
 */
void _sercom_set_handler(
		const uint8_t instance,
		const sercom_handler_t interrupt_handler)
{
    580c:	b530      	push	{r4, r5, lr}
	/* Initialize handlers with default handler and device instances with 0 */
	if (_handler_table_initialized == false) {
    580e:	4b0b      	ldr	r3, [pc, #44]	; (583c <_sercom_set_handler+0x30>)
    5810:	781b      	ldrb	r3, [r3, #0]
    5812:	2b00      	cmp	r3, #0
    5814:	d10e      	bne.n	5834 <_sercom_set_handler+0x28>
		for (uint32_t i = 0; i < SERCOM_INST_NUM; i++) {
			_sercom_interrupt_handlers[i] = &_sercom_default_handler;
    5816:	4c0a      	ldr	r4, [pc, #40]	; (5840 <_sercom_set_handler+0x34>)
    5818:	4d0a      	ldr	r5, [pc, #40]	; (5844 <_sercom_set_handler+0x38>)
    581a:	6025      	str	r5, [r4, #0]
			_sercom_instances[i] = NULL;
    581c:	4b0a      	ldr	r3, [pc, #40]	; (5848 <_sercom_set_handler+0x3c>)
    581e:	2200      	movs	r2, #0
    5820:	601a      	str	r2, [r3, #0]
			_sercom_interrupt_handlers[i] = &_sercom_default_handler;
    5822:	6065      	str	r5, [r4, #4]
			_sercom_instances[i] = NULL;
    5824:	605a      	str	r2, [r3, #4]
			_sercom_interrupt_handlers[i] = &_sercom_default_handler;
    5826:	60a5      	str	r5, [r4, #8]
			_sercom_instances[i] = NULL;
    5828:	609a      	str	r2, [r3, #8]
			_sercom_interrupt_handlers[i] = &_sercom_default_handler;
    582a:	60e5      	str	r5, [r4, #12]
			_sercom_instances[i] = NULL;
    582c:	60da      	str	r2, [r3, #12]
		}

		_handler_table_initialized = true;
    582e:	3201      	adds	r2, #1
    5830:	4b02      	ldr	r3, [pc, #8]	; (583c <_sercom_set_handler+0x30>)
    5832:	701a      	strb	r2, [r3, #0]
	}

	/* Save interrupt handler */
	_sercom_interrupt_handlers[instance] = interrupt_handler;
    5834:	0080      	lsls	r0, r0, #2
    5836:	4b02      	ldr	r3, [pc, #8]	; (5840 <_sercom_set_handler+0x34>)
    5838:	50c1      	str	r1, [r0, r3]
}
    583a:	bd30      	pop	{r4, r5, pc}
    583c:	200001fa 	.word	0x200001fa
    5840:	200001fc 	.word	0x200001fc
    5844:	00005809 	.word	0x00005809
    5848:	2000351c 	.word	0x2000351c

0000584c <_sercom_get_interrupt_vector>:
 * \retval SYSTEM_INTERRUPT_MODULE_SERCOM6
 * \retval SYSTEM_INTERRUPT_MODULE_SERCOM7
 */
enum system_interrupt_vector _sercom_get_interrupt_vector(
		Sercom *const sercom_instance)
{
    584c:	b510      	push	{r4, lr}
    584e:	b082      	sub	sp, #8
	const uint8_t sercom_int_vectors[SERCOM_INST_NUM] =
    5850:	ac01      	add	r4, sp, #4
    5852:	2307      	movs	r3, #7
    5854:	7023      	strb	r3, [r4, #0]
    5856:	3301      	adds	r3, #1
    5858:	7063      	strb	r3, [r4, #1]
    585a:	3301      	adds	r3, #1
    585c:	70a3      	strb	r3, [r4, #2]
    585e:	3301      	adds	r3, #1
    5860:	70e3      	strb	r3, [r4, #3]
		{
			MREPEAT(SERCOM_INST_NUM, _SERCOM_INTERRUPT_VECT_NUM, ~)
		};

	/* Retrieve the index of the SERCOM being requested */
	uint8_t instance_index = _sercom_get_sercom_inst_index(sercom_instance);
    5862:	4b02      	ldr	r3, [pc, #8]	; (586c <_sercom_get_interrupt_vector+0x20>)
    5864:	4798      	blx	r3

	/* Get the vector number from the lookup table for the requested SERCOM */
	return (enum system_interrupt_vector)sercom_int_vectors[instance_index];
    5866:	5620      	ldrsb	r0, [r4, r0]
}
    5868:	b002      	add	sp, #8
    586a:	bd10      	pop	{r4, pc}
    586c:	000057c1 	.word	0x000057c1

00005870 <SERCOM0_Handler>:

/** Auto-generate a set of interrupt handlers for each SERCOM in the device */
MREPEAT(SERCOM_INST_NUM, _SERCOM_INTERRUPT_HANDLER, ~)
    5870:	b510      	push	{r4, lr}
    5872:	4b02      	ldr	r3, [pc, #8]	; (587c <SERCOM0_Handler+0xc>)
    5874:	681b      	ldr	r3, [r3, #0]
    5876:	2000      	movs	r0, #0
    5878:	4798      	blx	r3
    587a:	bd10      	pop	{r4, pc}
    587c:	200001fc 	.word	0x200001fc

00005880 <SERCOM1_Handler>:
    5880:	b510      	push	{r4, lr}
    5882:	4b02      	ldr	r3, [pc, #8]	; (588c <SERCOM1_Handler+0xc>)
    5884:	685b      	ldr	r3, [r3, #4]
    5886:	2001      	movs	r0, #1
    5888:	4798      	blx	r3
    588a:	bd10      	pop	{r4, pc}
    588c:	200001fc 	.word	0x200001fc

00005890 <SERCOM2_Handler>:
    5890:	b510      	push	{r4, lr}
    5892:	4b02      	ldr	r3, [pc, #8]	; (589c <SERCOM2_Handler+0xc>)
    5894:	689b      	ldr	r3, [r3, #8]
    5896:	2002      	movs	r0, #2
    5898:	4798      	blx	r3
    589a:	bd10      	pop	{r4, pc}
    589c:	200001fc 	.word	0x200001fc

000058a0 <SERCOM3_Handler>:
    58a0:	b510      	push	{r4, lr}
    58a2:	4b02      	ldr	r3, [pc, #8]	; (58ac <SERCOM3_Handler+0xc>)
    58a4:	68db      	ldr	r3, [r3, #12]
    58a6:	2003      	movs	r0, #3
    58a8:	4798      	blx	r3
    58aa:	bd10      	pop	{r4, pc}
    58ac:	200001fc 	.word	0x200001fc

000058b0 <usart_init>:
 */
enum status_code usart_init(
		struct usart_module *const module,
		Sercom *const hw,
		const struct usart_config *const config)
{
    58b0:	b5f0      	push	{r4, r5, r6, r7, lr}
    58b2:	46de      	mov	lr, fp
    58b4:	4657      	mov	r7, sl
    58b6:	464e      	mov	r6, r9
    58b8:	4645      	mov	r5, r8
    58ba:	b5e0      	push	{r5, r6, r7, lr}
    58bc:	b08d      	sub	sp, #52	; 0x34
    58be:	0005      	movs	r5, r0
    58c0:	000c      	movs	r4, r1
    58c2:	0016      	movs	r6, r2
	Assert(config);

	enum status_code status_code = STATUS_OK;

	/* Assign module pointer to software instance struct */
	module->hw = hw;
    58c4:	6029      	str	r1, [r5, #0]

	/* Get a pointer to the hardware module instance */
	SercomUsart *const usart_hw = &(module->hw->USART);

	uint32_t sercom_index = _sercom_get_sercom_inst_index(module->hw);
    58c6:	0008      	movs	r0, r1
    58c8:	4b80      	ldr	r3, [pc, #512]	; (5acc <usart_init+0x21c>)
    58ca:	4798      	blx	r3
    58cc:	0002      	movs	r2, r0
#else
	pm_index     = sercom_index + PM_APBCMASK_SERCOM0_Pos;
	gclk_index   = sercom_index + SERCOM0_GCLK_ID_CORE;
#endif

	if (usart_hw->CTRLA.reg & SERCOM_USART_CTRLA_SWRST) {
    58ce:	6823      	ldr	r3, [r4, #0]
		/* The module is busy resetting itself */
		return STATUS_BUSY;
    58d0:	2005      	movs	r0, #5
	if (usart_hw->CTRLA.reg & SERCOM_USART_CTRLA_SWRST) {
    58d2:	07db      	lsls	r3, r3, #31
    58d4:	d506      	bpl.n	58e4 <usart_init+0x34>
	_sercom_set_handler(instance_index, _usart_interrupt_handler);
	_sercom_instances[instance_index] = module;
#endif

	return status_code;
}
    58d6:	b00d      	add	sp, #52	; 0x34
    58d8:	bc3c      	pop	{r2, r3, r4, r5}
    58da:	4690      	mov	r8, r2
    58dc:	4699      	mov	r9, r3
    58de:	46a2      	mov	sl, r4
    58e0:	46ab      	mov	fp, r5
    58e2:	bdf0      	pop	{r4, r5, r6, r7, pc}
	if (usart_hw->CTRLA.reg & SERCOM_USART_CTRLA_ENABLE) {
    58e4:	6823      	ldr	r3, [r4, #0]
		return STATUS_ERR_DENIED;
    58e6:	3017      	adds	r0, #23
	if (usart_hw->CTRLA.reg & SERCOM_USART_CTRLA_ENABLE) {
    58e8:	079b      	lsls	r3, r3, #30
    58ea:	d4f4      	bmi.n	58d6 <usart_init+0x26>
			PM->APBCMASK.reg |= mask;
    58ec:	4978      	ldr	r1, [pc, #480]	; (5ad0 <usart_init+0x220>)
    58ee:	6a08      	ldr	r0, [r1, #32]
	pm_index     = sercom_index + PM_APBCMASK_SERCOM0_Pos;
    58f0:	1c97      	adds	r7, r2, #2
	system_apb_clock_set_mask(SYSTEM_CLOCK_APB_APBC, 1 << pm_index);
    58f2:	2301      	movs	r3, #1
    58f4:	40bb      	lsls	r3, r7
    58f6:	4303      	orrs	r3, r0
    58f8:	620b      	str	r3, [r1, #32]
	gclk_chan_conf.source_generator = config->generator_source;
    58fa:	a90b      	add	r1, sp, #44	; 0x2c
    58fc:	7f73      	ldrb	r3, [r6, #29]
    58fe:	700b      	strb	r3, [r1, #0]
	gclk_index   = sercom_index + SERCOM0_GCLK_ID_CORE;
    5900:	320d      	adds	r2, #13
	system_gclk_chan_set_config(gclk_index, &gclk_chan_conf);
    5902:	b2d7      	uxtb	r7, r2
    5904:	0038      	movs	r0, r7
    5906:	4b73      	ldr	r3, [pc, #460]	; (5ad4 <usart_init+0x224>)
    5908:	4798      	blx	r3
	system_gclk_chan_enable(gclk_index);
    590a:	0038      	movs	r0, r7
    590c:	4b72      	ldr	r3, [pc, #456]	; (5ad8 <usart_init+0x228>)
    590e:	4798      	blx	r3
	sercom_set_gclk_generator(config->generator_source, false);
    5910:	7f70      	ldrb	r0, [r6, #29]
    5912:	2100      	movs	r1, #0
    5914:	4b71      	ldr	r3, [pc, #452]	; (5adc <usart_init+0x22c>)
    5916:	4798      	blx	r3
	module->character_size = config->character_size;
    5918:	7af3      	ldrb	r3, [r6, #11]
    591a:	716b      	strb	r3, [r5, #5]
	module->receiver_enabled = config->receiver_enable;
    591c:	7d33      	ldrb	r3, [r6, #20]
    591e:	71ab      	strb	r3, [r5, #6]
	module->transmitter_enabled = config->transmitter_enable;
    5920:	7d73      	ldrb	r3, [r6, #21]
    5922:	71eb      	strb	r3, [r5, #7]
	SercomUsart *const usart_hw = &(module->hw->USART);
    5924:	682b      	ldr	r3, [r5, #0]
    5926:	4698      	mov	r8, r3
	uint32_t sercom_index = _sercom_get_sercom_inst_index(module->hw);
    5928:	0018      	movs	r0, r3
    592a:	4b68      	ldr	r3, [pc, #416]	; (5acc <usart_init+0x21c>)
    592c:	4798      	blx	r3
	uint32_t gclk_index   = sercom_index + SERCOM0_GCLK_ID_CORE;
    592e:	300d      	adds	r0, #13
	uint16_t baud  = 0;
    5930:	2200      	movs	r2, #0
    5932:	230e      	movs	r3, #14
    5934:	a902      	add	r1, sp, #8
    5936:	468c      	mov	ip, r1
    5938:	4463      	add	r3, ip
    593a:	801a      	strh	r2, [r3, #0]
	ctrla = (uint32_t)config->data_order |
    593c:	6833      	ldr	r3, [r6, #0]
    593e:	9303      	str	r3, [sp, #12]
		(uint32_t)config->mux_setting |
    5940:	68f3      	ldr	r3, [r6, #12]
    5942:	469a      	mov	sl, r3
		(config->clock_polarity_inverted << SERCOM_USART_CTRLA_CPOL_Pos);
    5944:	7db3      	ldrb	r3, [r6, #22]
    5946:	469b      	mov	fp, r3
	transfer_mode = (uint32_t)config->transfer_mode;
    5948:	6873      	ldr	r3, [r6, #4]
    594a:	4699      	mov	r9, r3
	switch (transfer_mode)
    594c:	2b00      	cmp	r3, #0
    594e:	d014      	beq.n	597a <usart_init+0xca>
    5950:	2380      	movs	r3, #128	; 0x80
    5952:	055b      	lsls	r3, r3, #21
    5954:	4599      	cmp	r9, r3
    5956:	d130      	bne.n	59ba <usart_init+0x10a>
			if (!config->use_external_clock) {
    5958:	7df3      	ldrb	r3, [r6, #23]
    595a:	2b00      	cmp	r3, #0
    595c:	d131      	bne.n	59c2 <usart_init+0x112>
				status_code = _sercom_get_sync_baud_val(config->baudrate,
    595e:	6933      	ldr	r3, [r6, #16]
    5960:	001f      	movs	r7, r3
    5962:	b2c0      	uxtb	r0, r0
    5964:	4b5e      	ldr	r3, [pc, #376]	; (5ae0 <usart_init+0x230>)
    5966:	4798      	blx	r3
    5968:	0001      	movs	r1, r0
    596a:	220e      	movs	r2, #14
    596c:	ab02      	add	r3, sp, #8
    596e:	469c      	mov	ip, r3
    5970:	4462      	add	r2, ip
    5972:	0038      	movs	r0, r7
    5974:	4b5b      	ldr	r3, [pc, #364]	; (5ae4 <usart_init+0x234>)
    5976:	4798      	blx	r3
    5978:	e020      	b.n	59bc <usart_init+0x10c>
			if (config->use_external_clock) {
    597a:	7df3      	ldrb	r3, [r6, #23]
    597c:	2b00      	cmp	r3, #0
    597e:	d00b      	beq.n	5998 <usart_init+0xe8>
				status_code =
    5980:	2310      	movs	r3, #16
    5982:	9300      	str	r3, [sp, #0]
    5984:	2300      	movs	r3, #0
    5986:	220e      	movs	r2, #14
    5988:	a902      	add	r1, sp, #8
    598a:	468c      	mov	ip, r1
    598c:	4462      	add	r2, ip
    598e:	69b1      	ldr	r1, [r6, #24]
    5990:	6930      	ldr	r0, [r6, #16]
    5992:	4f55      	ldr	r7, [pc, #340]	; (5ae8 <usart_init+0x238>)
    5994:	47b8      	blx	r7
    5996:	e011      	b.n	59bc <usart_init+0x10c>
						_sercom_get_async_baud_val(config->baudrate,
    5998:	6933      	ldr	r3, [r6, #16]
    599a:	001f      	movs	r7, r3
    599c:	b2c0      	uxtb	r0, r0
    599e:	4b50      	ldr	r3, [pc, #320]	; (5ae0 <usart_init+0x230>)
    59a0:	4798      	blx	r3
    59a2:	0001      	movs	r1, r0
				status_code =
    59a4:	2310      	movs	r3, #16
    59a6:	9300      	str	r3, [sp, #0]
    59a8:	2300      	movs	r3, #0
    59aa:	220e      	movs	r2, #14
    59ac:	a802      	add	r0, sp, #8
    59ae:	4684      	mov	ip, r0
    59b0:	4462      	add	r2, ip
    59b2:	0038      	movs	r0, r7
    59b4:	4f4c      	ldr	r7, [pc, #304]	; (5ae8 <usart_init+0x238>)
    59b6:	47b8      	blx	r7
    59b8:	e000      	b.n	59bc <usart_init+0x10c>
	enum status_code status_code = STATUS_OK;
    59ba:	2000      	movs	r0, #0
	if (status_code != STATUS_OK) {
    59bc:	2800      	cmp	r0, #0
    59be:	d000      	beq.n	59c2 <usart_init+0x112>
    59c0:	e789      	b.n	58d6 <usart_init+0x26>
{
	/* Sanity check arguments */
	Assert(module);
	Assert(module->hw);

	SercomUsart *const usart_hw = &(module->hw->USART);
    59c2:	682a      	ldr	r2, [r5, #0]
    59c4:	9f03      	ldr	r7, [sp, #12]

#ifdef FEATURE_USART_SYNC_SCHEME_V2
	return (usart_hw->SYNCBUSY.reg);
#else
	return (usart_hw->STATUS.reg & SERCOM_USART_STATUS_SYNCBUSY);
    59c6:	8a13      	ldrh	r3, [r2, #16]
		const struct usart_module *const module)
{
	/* Sanity check */
	Assert(module);

	while (usart_is_syncing(module)) {
    59c8:	b21b      	sxth	r3, r3
    59ca:	2b00      	cmp	r3, #0
    59cc:	dbfb      	blt.n	59c6 <usart_init+0x116>
	usart_hw->BAUD.reg = baud;
    59ce:	230e      	movs	r3, #14
    59d0:	aa02      	add	r2, sp, #8
    59d2:	4694      	mov	ip, r2
    59d4:	4463      	add	r3, ip
    59d6:	881b      	ldrh	r3, [r3, #0]
    59d8:	4642      	mov	r2, r8
    59da:	8153      	strh	r3, [r2, #10]
	ctrla |= transfer_mode;
    59dc:	4653      	mov	r3, sl
    59de:	431f      	orrs	r7, r3
    59e0:	464b      	mov	r3, r9
    59e2:	431f      	orrs	r7, r3
		(config->clock_polarity_inverted << SERCOM_USART_CTRLA_CPOL_Pos);
    59e4:	465b      	mov	r3, fp
    59e6:	075b      	lsls	r3, r3, #29
	ctrla |= transfer_mode;
    59e8:	431f      	orrs	r7, r3
	if (config->use_external_clock == false) {
    59ea:	7df3      	ldrb	r3, [r6, #23]
    59ec:	2b00      	cmp	r3, #0
    59ee:	d101      	bne.n	59f4 <usart_init+0x144>
		ctrla |= SERCOM_USART_CTRLA_MODE(0x1);
    59f0:	3304      	adds	r3, #4
    59f2:	431f      	orrs	r7, r3
			(config->receiver_enable << SERCOM_USART_CTRLB_RXEN_Pos) |
    59f4:	7d31      	ldrb	r1, [r6, #20]
    59f6:	0449      	lsls	r1, r1, #17
			(config->transmitter_enable << SERCOM_USART_CTRLB_TXEN_Pos);
    59f8:	7d73      	ldrb	r3, [r6, #21]
    59fa:	041b      	lsls	r3, r3, #16
			(config->receiver_enable << SERCOM_USART_CTRLB_RXEN_Pos) |
    59fc:	430b      	orrs	r3, r1
	ctrlb |= (uint32_t)config->character_size;
    59fe:	7ab1      	ldrb	r1, [r6, #10]
    5a00:	7af2      	ldrb	r2, [r6, #11]
    5a02:	4311      	orrs	r1, r2
    5a04:	4319      	orrs	r1, r3
	if (config->parity != USART_PARITY_NONE) {
    5a06:	8933      	ldrh	r3, [r6, #8]
    5a08:	2bff      	cmp	r3, #255	; 0xff
    5a0a:	d003      	beq.n	5a14 <usart_init+0x164>
		ctrla |= SERCOM_USART_CTRLA_FORM(1);
    5a0c:	2280      	movs	r2, #128	; 0x80
    5a0e:	0452      	lsls	r2, r2, #17
    5a10:	4317      	orrs	r7, r2
		ctrlb |= config->parity;
    5a12:	4319      	orrs	r1, r3
	if (config->run_in_standby || system_is_debugger_present()) {
    5a14:	7f33      	ldrb	r3, [r6, #28]
    5a16:	2b00      	cmp	r3, #0
    5a18:	d103      	bne.n	5a22 <usart_init+0x172>
 * \retval false Debugger is not connected to the system
 *
 */
static inline bool system_is_debugger_present(void)
{
	return DSU->STATUSB.reg & DSU_STATUSB_DBGPRES;
    5a1a:	4b34      	ldr	r3, [pc, #208]	; (5aec <usart_init+0x23c>)
    5a1c:	789b      	ldrb	r3, [r3, #2]
    5a1e:	079b      	lsls	r3, r3, #30
    5a20:	d501      	bpl.n	5a26 <usart_init+0x176>
		ctrla |= SERCOM_USART_CTRLA_RUNSTDBY;
    5a22:	2380      	movs	r3, #128	; 0x80
    5a24:	431f      	orrs	r7, r3
	SercomUsart *const usart_hw = &(module->hw->USART);
    5a26:	682a      	ldr	r2, [r5, #0]
	return (usart_hw->STATUS.reg & SERCOM_USART_STATUS_SYNCBUSY);
    5a28:	8a13      	ldrh	r3, [r2, #16]
	while (usart_is_syncing(module)) {
    5a2a:	b21b      	sxth	r3, r3
    5a2c:	2b00      	cmp	r3, #0
    5a2e:	dbfb      	blt.n	5a28 <usart_init+0x178>
	usart_hw->CTRLB.reg = ctrlb;
    5a30:	4643      	mov	r3, r8
    5a32:	6059      	str	r1, [r3, #4]
	SercomUsart *const usart_hw = &(module->hw->USART);
    5a34:	682a      	ldr	r2, [r5, #0]
	return (usart_hw->STATUS.reg & SERCOM_USART_STATUS_SYNCBUSY);
    5a36:	8a13      	ldrh	r3, [r2, #16]
	while (usart_is_syncing(module)) {
    5a38:	b21b      	sxth	r3, r3
    5a3a:	2b00      	cmp	r3, #0
    5a3c:	dbfb      	blt.n	5a36 <usart_init+0x186>
	usart_hw->CTRLA.reg = ctrla;
    5a3e:	4643      	mov	r3, r8
    5a40:	601f      	str	r7, [r3, #0]
    5a42:	ab0a      	add	r3, sp, #40	; 0x28
    5a44:	2280      	movs	r2, #128	; 0x80
    5a46:	701a      	strb	r2, [r3, #0]
	config->direction    = SYSTEM_PINMUX_PIN_DIR_INPUT;
    5a48:	2200      	movs	r2, #0
    5a4a:	705a      	strb	r2, [r3, #1]
	config->powersave    = false;
    5a4c:	70da      	strb	r2, [r3, #3]
	pin_conf.input_pull = SYSTEM_PINMUX_PIN_PULL_NONE;
    5a4e:	709a      	strb	r2, [r3, #2]
	uint32_t pad_pinmuxes[] = {
    5a50:	6a33      	ldr	r3, [r6, #32]
    5a52:	9306      	str	r3, [sp, #24]
    5a54:	6a73      	ldr	r3, [r6, #36]	; 0x24
    5a56:	9307      	str	r3, [sp, #28]
    5a58:	6ab3      	ldr	r3, [r6, #40]	; 0x28
    5a5a:	9308      	str	r3, [sp, #32]
    5a5c:	6af3      	ldr	r3, [r6, #44]	; 0x2c
    5a5e:	9303      	str	r3, [sp, #12]
    5a60:	9309      	str	r3, [sp, #36]	; 0x24
    5a62:	2700      	movs	r7, #0
		uint32_t current_pinmux = pad_pinmuxes[pad];
    5a64:	ae06      	add	r6, sp, #24
    5a66:	e006      	b.n	5a76 <usart_init+0x1c6>
			current_pinmux = _sercom_get_default_pad(hw, pad);
    5a68:	0020      	movs	r0, r4
    5a6a:	4b21      	ldr	r3, [pc, #132]	; (5af0 <usart_init+0x240>)
    5a6c:	4798      	blx	r3
    5a6e:	e007      	b.n	5a80 <usart_init+0x1d0>
    5a70:	3701      	adds	r7, #1
	for (uint8_t pad = 0; pad < 4; pad++) {
    5a72:	2f04      	cmp	r7, #4
    5a74:	d00d      	beq.n	5a92 <usart_init+0x1e2>
    5a76:	b2f9      	uxtb	r1, r7
		uint32_t current_pinmux = pad_pinmuxes[pad];
    5a78:	00bb      	lsls	r3, r7, #2
    5a7a:	5998      	ldr	r0, [r3, r6]
		if (current_pinmux == PINMUX_DEFAULT) {
    5a7c:	2800      	cmp	r0, #0
    5a7e:	d0f3      	beq.n	5a68 <usart_init+0x1b8>
		if (current_pinmux != PINMUX_UNUSED) {
    5a80:	1c43      	adds	r3, r0, #1
    5a82:	d0f5      	beq.n	5a70 <usart_init+0x1c0>
			pin_conf.mux_position = current_pinmux & 0xFFFF;
    5a84:	a90a      	add	r1, sp, #40	; 0x28
    5a86:	7008      	strb	r0, [r1, #0]
			system_pinmux_pin_set_config(current_pinmux >> 16, &pin_conf);
    5a88:	0c00      	lsrs	r0, r0, #16
    5a8a:	b2c0      	uxtb	r0, r0
    5a8c:	4b19      	ldr	r3, [pc, #100]	; (5af4 <usart_init+0x244>)
    5a8e:	4798      	blx	r3
    5a90:	e7ee      	b.n	5a70 <usart_init+0x1c0>
		module->callback[i]            = NULL;
    5a92:	2300      	movs	r3, #0
    5a94:	60ab      	str	r3, [r5, #8]
    5a96:	60eb      	str	r3, [r5, #12]
    5a98:	612b      	str	r3, [r5, #16]
	module->tx_buffer_ptr              = NULL;
    5a9a:	61ab      	str	r3, [r5, #24]
	module->rx_buffer_ptr              = NULL;
    5a9c:	616b      	str	r3, [r5, #20]
	module->remaining_tx_buffer_length = 0x0000;
    5a9e:	2200      	movs	r2, #0
    5aa0:	83eb      	strh	r3, [r5, #30]
	module->remaining_rx_buffer_length = 0x0000;
    5aa2:	83ab      	strh	r3, [r5, #28]
	module->callback_reg_mask          = 0x00;
    5aa4:	3320      	adds	r3, #32
    5aa6:	54ea      	strb	r2, [r5, r3]
	module->callback_enable_mask       = 0x00;
    5aa8:	3301      	adds	r3, #1
    5aaa:	54ea      	strb	r2, [r5, r3]
	module->rx_status                  = STATUS_OK;
    5aac:	3301      	adds	r3, #1
    5aae:	54ea      	strb	r2, [r5, r3]
	module->tx_status                  = STATUS_OK;
    5ab0:	3301      	adds	r3, #1
    5ab2:	54ea      	strb	r2, [r5, r3]
	uint8_t instance_index = _sercom_get_sercom_inst_index(module->hw);
    5ab4:	6828      	ldr	r0, [r5, #0]
    5ab6:	4b05      	ldr	r3, [pc, #20]	; (5acc <usart_init+0x21c>)
    5ab8:	4798      	blx	r3
    5aba:	0004      	movs	r4, r0
	_sercom_set_handler(instance_index, _usart_interrupt_handler);
    5abc:	490e      	ldr	r1, [pc, #56]	; (5af8 <usart_init+0x248>)
    5abe:	4b0f      	ldr	r3, [pc, #60]	; (5afc <usart_init+0x24c>)
    5ac0:	4798      	blx	r3
	_sercom_instances[instance_index] = module;
    5ac2:	00a4      	lsls	r4, r4, #2
    5ac4:	4b0e      	ldr	r3, [pc, #56]	; (5b00 <usart_init+0x250>)
    5ac6:	50e5      	str	r5, [r4, r3]
	return status_code;
    5ac8:	2000      	movs	r0, #0
    5aca:	e704      	b.n	58d6 <usart_init+0x26>
    5acc:	000057c1 	.word	0x000057c1
    5ad0:	40000400 	.word	0x40000400
    5ad4:	00006121 	.word	0x00006121
    5ad8:	00006095 	.word	0x00006095
    5adc:	00005679 	.word	0x00005679
    5ae0:	0000616d 	.word	0x0000616d
    5ae4:	000055bb 	.word	0x000055bb
    5ae8:	000055e5 	.word	0x000055e5
    5aec:	41002000 	.word	0x41002000
    5af0:	000056c5 	.word	0x000056c5
    5af4:	00006249 	.word	0x00006249
    5af8:	00005ba9 	.word	0x00005ba9
    5afc:	0000580d 	.word	0x0000580d
    5b00:	2000351c 	.word	0x2000351c

00005b04 <usart_write_wait>:

	/* Get a pointer to the hardware module instance */
	SercomUsart *const usart_hw = &(module->hw->USART);

	/* Check that the transmitter is enabled */
	if (!(module->transmitter_enabled)) {
    5b04:	79c2      	ldrb	r2, [r0, #7]
		return STATUS_ERR_DENIED;
    5b06:	231c      	movs	r3, #28
	if (!(module->transmitter_enabled)) {
    5b08:	2a00      	cmp	r2, #0
    5b0a:	d101      	bne.n	5b10 <usart_write_wait+0xc>
	while (!(usart_hw->INTFLAG.reg & SERCOM_USART_INTFLAG_TXC)) {
		/* Wait until data is sent */
	}

	return STATUS_OK;
}
    5b0c:	0018      	movs	r0, r3
    5b0e:	4770      	bx	lr
	if (module->remaining_tx_buffer_length > 0) {
    5b10:	8bc2      	ldrh	r2, [r0, #30]
    5b12:	b292      	uxth	r2, r2
		return STATUS_BUSY;
    5b14:	3b17      	subs	r3, #23
	if (module->remaining_tx_buffer_length > 0) {
    5b16:	2a00      	cmp	r2, #0
    5b18:	d1f8      	bne.n	5b0c <usart_write_wait+0x8>
	SercomUsart *const usart_hw = &(module->hw->USART);
    5b1a:	6802      	ldr	r2, [r0, #0]
	return (usart_hw->STATUS.reg & SERCOM_USART_STATUS_SYNCBUSY);
    5b1c:	8a13      	ldrh	r3, [r2, #16]
	while (usart_is_syncing(module)) {
    5b1e:	b21b      	sxth	r3, r3
    5b20:	2b00      	cmp	r3, #0
    5b22:	dbfb      	blt.n	5b1c <usart_write_wait+0x18>
	usart_hw->DATA.reg = tx_data;
    5b24:	8311      	strh	r1, [r2, #24]
	while (!(usart_hw->INTFLAG.reg & SERCOM_USART_INTFLAG_TXC)) {
    5b26:	2102      	movs	r1, #2
    5b28:	7b93      	ldrb	r3, [r2, #14]
    5b2a:	420b      	tst	r3, r1
    5b2c:	d0fc      	beq.n	5b28 <usart_write_wait+0x24>
	return STATUS_OK;
    5b2e:	2300      	movs	r3, #0
    5b30:	e7ec      	b.n	5b0c <usart_write_wait+0x8>
	...

00005b34 <_usart_read_buffer>:
 */
enum status_code _usart_read_buffer(
		struct usart_module *const module,
		uint8_t *rx_data,
		uint16_t length)
{
    5b34:	b5f8      	push	{r3, r4, r5, r6, r7, lr}
    5b36:	0006      	movs	r6, r0
    5b38:	000c      	movs	r4, r1
    5b3a:	0015      	movs	r5, r2
	Assert(module);
	Assert(module->hw);
	Assert(rx_data);

	/* Get a pointer to the hardware module instance */
	SercomUsart *const usart_hw = &(module->hw->USART);
    5b3c:	6807      	ldr	r7, [r0, #0]
	cpu_irq_enter_critical();
    5b3e:	4b0a      	ldr	r3, [pc, #40]	; (5b68 <_usart_read_buffer+0x34>)
    5b40:	4798      	blx	r3

	system_interrupt_enter_critical_section();

	/* Check if the USART receiver is busy */
	if (module->remaining_rx_buffer_length > 0) {
    5b42:	8bb3      	ldrh	r3, [r6, #28]
    5b44:	b29b      	uxth	r3, r3
    5b46:	2b00      	cmp	r3, #0
    5b48:	d003      	beq.n	5b52 <_usart_read_buffer+0x1e>
	cpu_irq_leave_critical();
    5b4a:	4b08      	ldr	r3, [pc, #32]	; (5b6c <_usart_read_buffer+0x38>)
    5b4c:	4798      	blx	r3
		system_interrupt_leave_critical_section();
		return STATUS_BUSY;
    5b4e:	2005      	movs	r0, #5
		usart_hw->INTENSET.reg = SERCOM_USART_INTFLAG_RXS;
	}
#endif

	return STATUS_OK;
}
    5b50:	bdf8      	pop	{r3, r4, r5, r6, r7, pc}
	module->remaining_rx_buffer_length = length;
    5b52:	83b5      	strh	r5, [r6, #28]
    5b54:	4b05      	ldr	r3, [pc, #20]	; (5b6c <_usart_read_buffer+0x38>)
    5b56:	4798      	blx	r3
	module->rx_buffer_ptr              = rx_data;
    5b58:	6174      	str	r4, [r6, #20]
	module->rx_status                  = STATUS_BUSY;
    5b5a:	2205      	movs	r2, #5
    5b5c:	2322      	movs	r3, #34	; 0x22
    5b5e:	54f2      	strb	r2, [r6, r3]
	usart_hw->INTENSET.reg = SERCOM_USART_INTFLAG_RXC;
    5b60:	3b1e      	subs	r3, #30
    5b62:	737b      	strb	r3, [r7, #13]
	return STATUS_OK;
    5b64:	2000      	movs	r0, #0
    5b66:	e7f3      	b.n	5b50 <_usart_read_buffer+0x1c>
    5b68:	00005469 	.word	0x00005469
    5b6c:	000054a9 	.word	0x000054a9

00005b70 <usart_register_callback>:
	/* Sanity check arguments */
	Assert(module);
	Assert(callback_func);

	/* Register callback function */
	module->callback[callback_type] = callback_func;
    5b70:	1c93      	adds	r3, r2, #2
    5b72:	009b      	lsls	r3, r3, #2
    5b74:	5019      	str	r1, [r3, r0]

	/* Set the bit corresponding to the callback_type */
	module->callback_reg_mask |= (1 << callback_type);
    5b76:	2120      	movs	r1, #32
    5b78:	2301      	movs	r3, #1
    5b7a:	4093      	lsls	r3, r2
    5b7c:	001a      	movs	r2, r3
    5b7e:	5c43      	ldrb	r3, [r0, r1]
    5b80:	4313      	orrs	r3, r2
    5b82:	5443      	strb	r3, [r0, r1]
}
    5b84:	4770      	bx	lr
	...

00005b88 <usart_read_buffer_job>:
 */
enum status_code usart_read_buffer_job(
		struct usart_module *const module,
		uint8_t *rx_data,
		uint16_t length)
{
    5b88:	b510      	push	{r4, lr}
	/* Sanity check arguments */
	Assert(module);
	Assert(rx_data);

	if (length == 0) {
		return STATUS_ERR_INVALID_ARG;
    5b8a:	2317      	movs	r3, #23
	if (length == 0) {
    5b8c:	2a00      	cmp	r2, #0
    5b8e:	d101      	bne.n	5b94 <usart_read_buffer_job+0xc>
		return STATUS_ERR_DENIED;
	}

	/* Issue internal asynchronous read */
	return _usart_read_buffer(module, rx_data, length);
}
    5b90:	0018      	movs	r0, r3
    5b92:	bd10      	pop	{r4, pc}
	if (!(module->receiver_enabled)) {
    5b94:	7984      	ldrb	r4, [r0, #6]
		return STATUS_ERR_DENIED;
    5b96:	3305      	adds	r3, #5
	if (!(module->receiver_enabled)) {
    5b98:	2c00      	cmp	r4, #0
    5b9a:	d0f9      	beq.n	5b90 <usart_read_buffer_job+0x8>
	return _usart_read_buffer(module, rx_data, length);
    5b9c:	4b01      	ldr	r3, [pc, #4]	; (5ba4 <usart_read_buffer_job+0x1c>)
    5b9e:	4798      	blx	r3
    5ba0:	0003      	movs	r3, r0
    5ba2:	e7f5      	b.n	5b90 <usart_read_buffer_job+0x8>
    5ba4:	00005b35 	.word	0x00005b35

00005ba8 <_usart_interrupt_handler>:
 * \param[in]  instance  ID of the SERCOM instance calling the interrupt
 *                       handler.
 */
void _usart_interrupt_handler(
		uint8_t instance)
{
    5ba8:	b5f8      	push	{r3, r4, r5, r6, r7, lr}
	uint16_t callback_status;
	uint8_t error_code;


	/* Get device instance from the look-up table */
	struct usart_module *module
    5baa:	0080      	lsls	r0, r0, #2
    5bac:	4b46      	ldr	r3, [pc, #280]	; (5cc8 <_usart_interrupt_handler+0x120>)
    5bae:	58c5      	ldr	r5, [r0, r3]
		= (struct usart_module *)_sercom_instances[instance];

	/* Pointer to the hardware module instance */
	SercomUsart *const usart_hw
		= &(module->hw->USART);
    5bb0:	682c      	ldr	r4, [r5, #0]
	return (usart_hw->STATUS.reg & SERCOM_USART_STATUS_SYNCBUSY);
    5bb2:	8a23      	ldrh	r3, [r4, #16]
	while (usart_is_syncing(module)) {
    5bb4:	b21b      	sxth	r3, r3
    5bb6:	2b00      	cmp	r3, #0
    5bb8:	dbfb      	blt.n	5bb2 <_usart_interrupt_handler+0xa>

	/* Wait for the synchronization to complete */
	_usart_wait_for_sync(module);

	/* Read and mask interrupt flag register */
	interrupt_status = usart_hw->INTFLAG.reg;
    5bba:	7ba3      	ldrb	r3, [r4, #14]
	interrupt_status &= usart_hw->INTENSET.reg;
    5bbc:	7b66      	ldrb	r6, [r4, #13]
    5bbe:	401e      	ands	r6, r3
	callback_status = module->callback_reg_mask &
    5bc0:	2320      	movs	r3, #32
    5bc2:	5ceb      	ldrb	r3, [r5, r3]
    5bc4:	2221      	movs	r2, #33	; 0x21
    5bc6:	5caf      	ldrb	r7, [r5, r2]
    5bc8:	401f      	ands	r7, r3
			module->callback_enable_mask;

	/* Check if a DATA READY interrupt has occurred,
	 * and if there is more to transfer */
	if (interrupt_status & SERCOM_USART_INTFLAG_DRE) {
    5bca:	07f3      	lsls	r3, r6, #31
    5bcc:	d522      	bpl.n	5c14 <_usart_interrupt_handler+0x6c>
		if (module->remaining_tx_buffer_length) {
    5bce:	8beb      	ldrh	r3, [r5, #30]
    5bd0:	b29b      	uxth	r3, r3
    5bd2:	2b00      	cmp	r3, #0
    5bd4:	d01c      	beq.n	5c10 <_usart_interrupt_handler+0x68>
			/* Write value will be at least 8-bits long */
			uint16_t data_to_send = *(module->tx_buffer_ptr);
    5bd6:	69aa      	ldr	r2, [r5, #24]
    5bd8:	7813      	ldrb	r3, [r2, #0]
    5bda:	b2db      	uxtb	r3, r3
			/* Increment 8-bit pointer */
			(module->tx_buffer_ptr)++;
    5bdc:	1c51      	adds	r1, r2, #1
    5bde:	61a9      	str	r1, [r5, #24]

			if (module->character_size == USART_CHARACTER_SIZE_9BIT) {
    5be0:	7969      	ldrb	r1, [r5, #5]
    5be2:	2901      	cmp	r1, #1
    5be4:	d00e      	beq.n	5c04 <_usart_interrupt_handler+0x5c>
			uint16_t data_to_send = *(module->tx_buffer_ptr);
    5be6:	b29b      	uxth	r3, r3
				data_to_send |= (*(module->tx_buffer_ptr) << 8);
				/* Increment 8-bit pointer */
				(module->tx_buffer_ptr)++;
			}
			/* Write the data to send */
			usart_hw->DATA.reg = (data_to_send & SERCOM_USART_DATA_MASK);
    5be8:	05db      	lsls	r3, r3, #23
    5bea:	0ddb      	lsrs	r3, r3, #23
    5bec:	8323      	strh	r3, [r4, #24]

			if (--(module->remaining_tx_buffer_length) == 0) {
    5bee:	8beb      	ldrh	r3, [r5, #30]
    5bf0:	3b01      	subs	r3, #1
    5bf2:	b29b      	uxth	r3, r3
    5bf4:	83eb      	strh	r3, [r5, #30]
    5bf6:	2b00      	cmp	r3, #0
    5bf8:	d10c      	bne.n	5c14 <_usart_interrupt_handler+0x6c>
				/* Disable the Data Register Empty Interrupt */
				usart_hw->INTENCLR.reg = SERCOM_USART_INTFLAG_DRE;
    5bfa:	3301      	adds	r3, #1
    5bfc:	7323      	strb	r3, [r4, #12]
				/* Enable Transmission Complete interrupt */
				usart_hw->INTENSET.reg = SERCOM_USART_INTFLAG_TXC;
    5bfe:	3301      	adds	r3, #1
    5c00:	7363      	strb	r3, [r4, #13]
    5c02:	e007      	b.n	5c14 <_usart_interrupt_handler+0x6c>
				data_to_send |= (*(module->tx_buffer_ptr) << 8);
    5c04:	7851      	ldrb	r1, [r2, #1]
    5c06:	0209      	lsls	r1, r1, #8
    5c08:	430b      	orrs	r3, r1
				(module->tx_buffer_ptr)++;
    5c0a:	3202      	adds	r2, #2
    5c0c:	61aa      	str	r2, [r5, #24]
    5c0e:	e7eb      	b.n	5be8 <_usart_interrupt_handler+0x40>

			}
		} else {
			usart_hw->INTENCLR.reg = SERCOM_USART_INTFLAG_DRE;
    5c10:	2301      	movs	r3, #1
    5c12:	7323      	strb	r3, [r4, #12]
		}
	}

	/* Check if the Transmission Complete interrupt has occurred and
	 * that the transmit buffer is empty */
	if (interrupt_status & SERCOM_USART_INTFLAG_TXC) {
    5c14:	07b3      	lsls	r3, r6, #30
    5c16:	d506      	bpl.n	5c26 <_usart_interrupt_handler+0x7e>

		/* Disable TX Complete Interrupt, and set STATUS_OK */
		usart_hw->INTENCLR.reg = SERCOM_USART_INTFLAG_TXC;
    5c18:	2302      	movs	r3, #2
    5c1a:	7323      	strb	r3, [r4, #12]
		module->tx_status = STATUS_OK;
    5c1c:	2200      	movs	r2, #0
    5c1e:	3321      	adds	r3, #33	; 0x21
    5c20:	54ea      	strb	r2, [r5, r3]

		/* Run callback if registered and enabled */
		if (callback_status & (1 << USART_CALLBACK_BUFFER_TRANSMITTED)) {
    5c22:	07fb      	lsls	r3, r7, #31
    5c24:	d416      	bmi.n	5c54 <_usart_interrupt_handler+0xac>
		}
	}

	/* Check if the Receive Complete interrupt has occurred, and that
	 * there's more data to receive */
	if (interrupt_status & SERCOM_USART_INTFLAG_RXC) {
    5c26:	0773      	lsls	r3, r6, #29
    5c28:	d54d      	bpl.n	5cc6 <_usart_interrupt_handler+0x11e>

		if (module->remaining_rx_buffer_length) {
    5c2a:	8bab      	ldrh	r3, [r5, #28]
    5c2c:	b29b      	uxth	r3, r3
    5c2e:	2b00      	cmp	r3, #0
    5c30:	d047      	beq.n	5cc2 <_usart_interrupt_handler+0x11a>
			/* Read out the status code and mask away all but the 4 LSBs*/
			error_code = (uint8_t)(usart_hw->STATUS.reg & SERCOM_USART_STATUS_MASK);
    5c32:	8a23      	ldrh	r3, [r4, #16]
    5c34:	b2db      	uxtb	r3, r3
			if(error_code & SERCOM_USART_STATUS_TXE) {
				error_code &= ~SERCOM_USART_STATUS_TXE;
			}
#endif
			/* Check if an error has occurred during the receiving */
			if (error_code) {
    5c36:	075a      	lsls	r2, r3, #29
    5c38:	d020      	beq.n	5c7c <_usart_interrupt_handler+0xd4>
				/* Check which error occurred */
				if (error_code & SERCOM_USART_STATUS_FERR) {
    5c3a:	079a      	lsls	r2, r3, #30
    5c3c:	d50e      	bpl.n	5c5c <_usart_interrupt_handler+0xb4>
					/* Store the error code and clear flag by writing 1 to it */
					module->rx_status = STATUS_ERR_BAD_FORMAT;
    5c3e:	221a      	movs	r2, #26
    5c40:	2322      	movs	r3, #34	; 0x22
    5c42:	54ea      	strb	r2, [r5, r3]
					usart_hw->STATUS.reg = SERCOM_USART_STATUS_FERR;
    5c44:	3b20      	subs	r3, #32
    5c46:	8223      	strh	r3, [r4, #16]
					usart_hw->STATUS.reg = SERCOM_USART_STATUS_COLL;
				}
#endif

				/* Run callback if registered and enabled */
				if (callback_status
    5c48:	077b      	lsls	r3, r7, #29
    5c4a:	d53c      	bpl.n	5cc6 <_usart_interrupt_handler+0x11e>
						& (1 << USART_CALLBACK_ERROR)) {
					(*(module->callback[USART_CALLBACK_ERROR]))(module);
    5c4c:	692b      	ldr	r3, [r5, #16]
    5c4e:	0028      	movs	r0, r5
    5c50:	4798      	blx	r3
    5c52:	e038      	b.n	5cc6 <_usart_interrupt_handler+0x11e>
			(*(module->callback[USART_CALLBACK_BUFFER_TRANSMITTED]))(module);
    5c54:	0028      	movs	r0, r5
    5c56:	68ab      	ldr	r3, [r5, #8]
    5c58:	4798      	blx	r3
    5c5a:	e7e4      	b.n	5c26 <_usart_interrupt_handler+0x7e>
				} else if (error_code & SERCOM_USART_STATUS_BUFOVF) {
    5c5c:	075a      	lsls	r2, r3, #29
    5c5e:	d505      	bpl.n	5c6c <_usart_interrupt_handler+0xc4>
					module->rx_status = STATUS_ERR_OVERFLOW;
    5c60:	221e      	movs	r2, #30
    5c62:	2322      	movs	r3, #34	; 0x22
    5c64:	54ea      	strb	r2, [r5, r3]
					usart_hw->STATUS.reg = SERCOM_USART_STATUS_BUFOVF;
    5c66:	3b1e      	subs	r3, #30
    5c68:	8223      	strh	r3, [r4, #16]
    5c6a:	e7ed      	b.n	5c48 <_usart_interrupt_handler+0xa0>
				} else if (error_code & SERCOM_USART_STATUS_PERR) {
    5c6c:	07db      	lsls	r3, r3, #31
    5c6e:	d5eb      	bpl.n	5c48 <_usart_interrupt_handler+0xa0>
					module->rx_status = STATUS_ERR_BAD_DATA;
    5c70:	2213      	movs	r2, #19
    5c72:	2322      	movs	r3, #34	; 0x22
    5c74:	54ea      	strb	r2, [r5, r3]
					usart_hw->STATUS.reg = SERCOM_USART_STATUS_PERR;
    5c76:	3b21      	subs	r3, #33	; 0x21
    5c78:	8223      	strh	r3, [r4, #16]
    5c7a:	e7e5      	b.n	5c48 <_usart_interrupt_handler+0xa0>

			} else {

				/* Read current packet from DATA register,
				 * increment buffer pointer and decrement buffer length */
				uint16_t received_data = (usart_hw->DATA.reg & SERCOM_USART_DATA_MASK);
    5c7c:	8b23      	ldrh	r3, [r4, #24]
    5c7e:	05db      	lsls	r3, r3, #23
    5c80:	0ddb      	lsrs	r3, r3, #23

				/* Read value will be at least 8-bits long */
				*(module->rx_buffer_ptr) = received_data;
    5c82:	b2da      	uxtb	r2, r3
    5c84:	6969      	ldr	r1, [r5, #20]
    5c86:	700a      	strb	r2, [r1, #0]
				/* Increment 8-bit pointer */
				module->rx_buffer_ptr += 1;
    5c88:	696a      	ldr	r2, [r5, #20]
    5c8a:	1c51      	adds	r1, r2, #1
    5c8c:	6169      	str	r1, [r5, #20]

				if (module->character_size == USART_CHARACTER_SIZE_9BIT) {
    5c8e:	7969      	ldrb	r1, [r5, #5]
    5c90:	2901      	cmp	r1, #1
    5c92:	d010      	beq.n	5cb6 <_usart_interrupt_handler+0x10e>
					/* Increment 8-bit pointer */
					module->rx_buffer_ptr += 1;
				}

				/* Check if the last character have been received */
				if(--(module->remaining_rx_buffer_length) == 0) {
    5c94:	8bab      	ldrh	r3, [r5, #28]
    5c96:	3b01      	subs	r3, #1
    5c98:	b29b      	uxth	r3, r3
    5c9a:	83ab      	strh	r3, [r5, #28]
    5c9c:	2b00      	cmp	r3, #0
    5c9e:	d112      	bne.n	5cc6 <_usart_interrupt_handler+0x11e>
					/* Disable RX Complete Interrupt,
					 * and set STATUS_OK */
					usart_hw->INTENCLR.reg = SERCOM_USART_INTFLAG_RXC;
    5ca0:	3304      	adds	r3, #4
    5ca2:	7323      	strb	r3, [r4, #12]
					module->rx_status = STATUS_OK;
    5ca4:	2200      	movs	r2, #0
    5ca6:	331e      	adds	r3, #30
    5ca8:	54ea      	strb	r2, [r5, r3]

					/* Run callback if registered and enabled */
					if (callback_status
    5caa:	07bb      	lsls	r3, r7, #30
    5cac:	d50b      	bpl.n	5cc6 <_usart_interrupt_handler+0x11e>
							& (1 << USART_CALLBACK_BUFFER_RECEIVED)) {
						(*(module->callback[USART_CALLBACK_BUFFER_RECEIVED]))(module);
    5cae:	68eb      	ldr	r3, [r5, #12]
    5cb0:	0028      	movs	r0, r5
    5cb2:	4798      	blx	r3
    5cb4:	e007      	b.n	5cc6 <_usart_interrupt_handler+0x11e>
					*(module->rx_buffer_ptr) = (received_data >> 8);
    5cb6:	0a1b      	lsrs	r3, r3, #8
    5cb8:	7053      	strb	r3, [r2, #1]
					module->rx_buffer_ptr += 1;
    5cba:	696b      	ldr	r3, [r5, #20]
    5cbc:	3301      	adds	r3, #1
    5cbe:	616b      	str	r3, [r5, #20]
    5cc0:	e7e8      	b.n	5c94 <_usart_interrupt_handler+0xec>
					}
				}
			}
		} else {
			/* This should not happen. Disable Receive Complete interrupt. */
			usart_hw->INTENCLR.reg = SERCOM_USART_INTFLAG_RXC;
    5cc2:	2304      	movs	r3, #4
    5cc4:	7323      	strb	r3, [r4, #12]
		if (callback_status & (1 << USART_CALLBACK_START_RECEIVED)) {
			(*(module->callback[USART_CALLBACK_START_RECEIVED]))(module);
		}
	}
#endif
}
    5cc6:	bdf8      	pop	{r3, r4, r5, r6, r7, pc}
    5cc8:	2000351c 	.word	0x2000351c

00005ccc <system_clock_source_get_hz>:
 *
 * \returns Frequency of the given clock source, in Hz.
 */
uint32_t system_clock_source_get_hz(
		const enum system_clock_source clock_source)
{
    5ccc:	b510      	push	{r4, lr}
	switch (clock_source) {
    5cce:	2807      	cmp	r0, #7
    5cd0:	d803      	bhi.n	5cda <system_clock_source_get_hz+0xe>
    5cd2:	0080      	lsls	r0, r0, #2
    5cd4:	4b16      	ldr	r3, [pc, #88]	; (5d30 <system_clock_source_get_hz+0x64>)
    5cd6:	581b      	ldr	r3, [r3, r0]
    5cd8:	469f      	mov	pc, r3
		}

		return 48000000UL;

	default:
		return 0;
    5cda:	2000      	movs	r0, #0
    5cdc:	e027      	b.n	5d2e <system_clock_source_get_hz+0x62>
		return _system_clock_inst.xosc.frequency;
    5cde:	4b15      	ldr	r3, [pc, #84]	; (5d34 <system_clock_source_get_hz+0x68>)
    5ce0:	68d8      	ldr	r0, [r3, #12]
    5ce2:	e024      	b.n	5d2e <system_clock_source_get_hz+0x62>
		return 8000000UL >> SYSCTRL->OSC8M.bit.PRESC;
    5ce4:	4b14      	ldr	r3, [pc, #80]	; (5d38 <system_clock_source_get_hz+0x6c>)
    5ce6:	6a1b      	ldr	r3, [r3, #32]
    5ce8:	059b      	lsls	r3, r3, #22
    5cea:	0f9b      	lsrs	r3, r3, #30
    5cec:	4813      	ldr	r0, [pc, #76]	; (5d3c <system_clock_source_get_hz+0x70>)
    5cee:	40d8      	lsrs	r0, r3
    5cf0:	e01d      	b.n	5d2e <system_clock_source_get_hz+0x62>
		return _system_clock_inst.xosc32k.frequency;
    5cf2:	4b10      	ldr	r3, [pc, #64]	; (5d34 <system_clock_source_get_hz+0x68>)
    5cf4:	6918      	ldr	r0, [r3, #16]
    5cf6:	e01a      	b.n	5d2e <system_clock_source_get_hz+0x62>
		if (!(_system_clock_inst.dfll.control & SYSCTRL_DFLLCTRL_ENABLE))
    5cf8:	4b0e      	ldr	r3, [pc, #56]	; (5d34 <system_clock_source_get_hz+0x68>)
    5cfa:	681b      	ldr	r3, [r3, #0]
			return 0;
    5cfc:	2000      	movs	r0, #0
		if (!(_system_clock_inst.dfll.control & SYSCTRL_DFLLCTRL_ENABLE))
    5cfe:	079b      	lsls	r3, r3, #30
    5d00:	d515      	bpl.n	5d2e <system_clock_source_get_hz+0x62>
	while (!(SYSCTRL->PCLKSR.reg & SYSCTRL_PCLKSR_DFLLRDY)) {
    5d02:	490d      	ldr	r1, [pc, #52]	; (5d38 <system_clock_source_get_hz+0x6c>)
    5d04:	2210      	movs	r2, #16
    5d06:	68cb      	ldr	r3, [r1, #12]
    5d08:	421a      	tst	r2, r3
    5d0a:	d0fc      	beq.n	5d06 <system_clock_source_get_hz+0x3a>
		if (_system_clock_inst.dfll.control & SYSCTRL_DFLLCTRL_MODE) {
    5d0c:	4b09      	ldr	r3, [pc, #36]	; (5d34 <system_clock_source_get_hz+0x68>)
    5d0e:	681b      	ldr	r3, [r3, #0]
    5d10:	075b      	lsls	r3, r3, #29
    5d12:	d401      	bmi.n	5d18 <system_clock_source_get_hz+0x4c>
		return 48000000UL;
    5d14:	480a      	ldr	r0, [pc, #40]	; (5d40 <system_clock_source_get_hz+0x74>)
    5d16:	e00a      	b.n	5d2e <system_clock_source_get_hz+0x62>
			return system_gclk_chan_get_hz(SYSCTRL_GCLK_ID_DFLL48) *
    5d18:	2000      	movs	r0, #0
    5d1a:	4b0a      	ldr	r3, [pc, #40]	; (5d44 <system_clock_source_get_hz+0x78>)
    5d1c:	4798      	blx	r3
					(_system_clock_inst.dfll.mul & 0xffff);
    5d1e:	4b05      	ldr	r3, [pc, #20]	; (5d34 <system_clock_source_get_hz+0x68>)
    5d20:	689b      	ldr	r3, [r3, #8]
    5d22:	041b      	lsls	r3, r3, #16
    5d24:	0c1b      	lsrs	r3, r3, #16
			return system_gclk_chan_get_hz(SYSCTRL_GCLK_ID_DFLL48) *
    5d26:	4358      	muls	r0, r3
    5d28:	e001      	b.n	5d2e <system_clock_source_get_hz+0x62>
		return 32768UL;
    5d2a:	2080      	movs	r0, #128	; 0x80
    5d2c:	0200      	lsls	r0, r0, #8
	}
}
    5d2e:	bd10      	pop	{r4, pc}
    5d30:	00007300 	.word	0x00007300
    5d34:	2000020c 	.word	0x2000020c
    5d38:	40000800 	.word	0x40000800
    5d3c:	007a1200 	.word	0x007a1200
    5d40:	02dc6c00 	.word	0x02dc6c00
    5d44:	0000616d 	.word	0x0000616d

00005d48 <system_clock_source_osc8m_set_config>:
 *
 * \param[in] config  OSC8M configuration structure containing the new config
 */
void system_clock_source_osc8m_set_config(
		struct system_clock_source_osc8m_config *const config)
{
    5d48:	b570      	push	{r4, r5, r6, lr}
	SYSCTRL_OSC8M_Type temp = SYSCTRL->OSC8M;
    5d4a:	490c      	ldr	r1, [pc, #48]	; (5d7c <system_clock_source_osc8m_set_config+0x34>)
    5d4c:	6a0b      	ldr	r3, [r1, #32]

	/* Use temporary struct to reduce register access */
	temp.bit.PRESC    = config->prescaler;
    5d4e:	7804      	ldrb	r4, [r0, #0]
	temp.bit.ONDEMAND = config->on_demand;
    5d50:	7885      	ldrb	r5, [r0, #2]
	temp.bit.RUNSTDBY = config->run_in_standby;

	SYSCTRL->OSC8M = temp;
    5d52:	7840      	ldrb	r0, [r0, #1]
    5d54:	2201      	movs	r2, #1
    5d56:	4010      	ands	r0, r2
    5d58:	0180      	lsls	r0, r0, #6
    5d5a:	2640      	movs	r6, #64	; 0x40
    5d5c:	43b3      	bics	r3, r6
    5d5e:	4303      	orrs	r3, r0
    5d60:	402a      	ands	r2, r5
    5d62:	01d2      	lsls	r2, r2, #7
    5d64:	2080      	movs	r0, #128	; 0x80
    5d66:	4383      	bics	r3, r0
    5d68:	4313      	orrs	r3, r2
    5d6a:	2203      	movs	r2, #3
    5d6c:	4022      	ands	r2, r4
    5d6e:	0212      	lsls	r2, r2, #8
    5d70:	4803      	ldr	r0, [pc, #12]	; (5d80 <system_clock_source_osc8m_set_config+0x38>)
    5d72:	4003      	ands	r3, r0
    5d74:	4313      	orrs	r3, r2
    5d76:	620b      	str	r3, [r1, #32]
}
    5d78:	bd70      	pop	{r4, r5, r6, pc}
    5d7a:	46c0      	nop			; (mov r8, r8)
    5d7c:	40000800 	.word	0x40000800
    5d80:	fffffcff 	.word	0xfffffcff

00005d84 <system_clock_source_enable>:
 *                                 device
 */
enum status_code system_clock_source_enable(
		const enum system_clock_source clock_source)
{
	switch (clock_source) {
    5d84:	2807      	cmp	r0, #7
    5d86:	d803      	bhi.n	5d90 <system_clock_source_enable+0xc>
    5d88:	0080      	lsls	r0, r0, #2
    5d8a:	4b1e      	ldr	r3, [pc, #120]	; (5e04 <system_clock_source_enable+0x80>)
    5d8c:	581b      	ldr	r3, [r3, r0]
    5d8e:	469f      	mov	pc, r3
		/* Always enabled */
		return STATUS_OK;

	default:
		Assert(false);
		return STATUS_ERR_INVALID_ARG;
    5d90:	2017      	movs	r0, #23
    5d92:	e036      	b.n	5e02 <system_clock_source_enable+0x7e>
		SYSCTRL->OSC8M.reg |= SYSCTRL_OSC8M_ENABLE;
    5d94:	4a1c      	ldr	r2, [pc, #112]	; (5e08 <system_clock_source_enable+0x84>)
    5d96:	6a13      	ldr	r3, [r2, #32]
    5d98:	2102      	movs	r1, #2
    5d9a:	430b      	orrs	r3, r1
    5d9c:	6213      	str	r3, [r2, #32]
		return STATUS_OK;
    5d9e:	2000      	movs	r0, #0
    5da0:	e02f      	b.n	5e02 <system_clock_source_enable+0x7e>
		SYSCTRL->OSC32K.reg |= SYSCTRL_OSC32K_ENABLE;
    5da2:	4a19      	ldr	r2, [pc, #100]	; (5e08 <system_clock_source_enable+0x84>)
    5da4:	6993      	ldr	r3, [r2, #24]
    5da6:	2102      	movs	r1, #2
    5da8:	430b      	orrs	r3, r1
    5daa:	6193      	str	r3, [r2, #24]
	}

	return STATUS_OK;
    5dac:	2000      	movs	r0, #0
		break;
    5dae:	e028      	b.n	5e02 <system_clock_source_enable+0x7e>
		SYSCTRL->XOSC.reg |= SYSCTRL_XOSC_ENABLE;
    5db0:	4a15      	ldr	r2, [pc, #84]	; (5e08 <system_clock_source_enable+0x84>)
    5db2:	8a13      	ldrh	r3, [r2, #16]
    5db4:	2102      	movs	r1, #2
    5db6:	430b      	orrs	r3, r1
    5db8:	8213      	strh	r3, [r2, #16]
	return STATUS_OK;
    5dba:	2000      	movs	r0, #0
		break;
    5dbc:	e021      	b.n	5e02 <system_clock_source_enable+0x7e>
		SYSCTRL->XOSC32K.reg |= SYSCTRL_XOSC32K_ENABLE;
    5dbe:	4a12      	ldr	r2, [pc, #72]	; (5e08 <system_clock_source_enable+0x84>)
    5dc0:	8a93      	ldrh	r3, [r2, #20]
    5dc2:	2102      	movs	r1, #2
    5dc4:	430b      	orrs	r3, r1
    5dc6:	8293      	strh	r3, [r2, #20]
	return STATUS_OK;
    5dc8:	2000      	movs	r0, #0
		break;
    5dca:	e01a      	b.n	5e02 <system_clock_source_enable+0x7e>
		_system_clock_inst.dfll.control |= SYSCTRL_DFLLCTRL_ENABLE;
    5dcc:	4b0f      	ldr	r3, [pc, #60]	; (5e0c <system_clock_source_enable+0x88>)
    5dce:	681a      	ldr	r2, [r3, #0]
    5dd0:	2102      	movs	r1, #2
    5dd2:	430a      	orrs	r2, r1
    5dd4:	601a      	str	r2, [r3, #0]
	SYSCTRL->DFLLCTRL.reg = _system_clock_inst.dfll.control & ~SYSCTRL_DFLLCTRL_ONDEMAND;
    5dd6:	681b      	ldr	r3, [r3, #0]
    5dd8:	4a0d      	ldr	r2, [pc, #52]	; (5e10 <system_clock_source_enable+0x8c>)
    5dda:	4013      	ands	r3, r2
    5ddc:	4a0a      	ldr	r2, [pc, #40]	; (5e08 <system_clock_source_enable+0x84>)
    5dde:	8493      	strh	r3, [r2, #36]	; 0x24
	while (!(SYSCTRL->PCLKSR.reg & SYSCTRL_PCLKSR_DFLLRDY)) {
    5de0:	0011      	movs	r1, r2
    5de2:	2210      	movs	r2, #16
    5de4:	68cb      	ldr	r3, [r1, #12]
    5de6:	421a      	tst	r2, r3
    5de8:	d0fc      	beq.n	5de4 <system_clock_source_enable+0x60>
	SYSCTRL->DFLLMUL.reg = _system_clock_inst.dfll.mul;
    5dea:	4a08      	ldr	r2, [pc, #32]	; (5e0c <system_clock_source_enable+0x88>)
    5dec:	6891      	ldr	r1, [r2, #8]
    5dee:	4b06      	ldr	r3, [pc, #24]	; (5e08 <system_clock_source_enable+0x84>)
    5df0:	62d9      	str	r1, [r3, #44]	; 0x2c
	SYSCTRL->DFLLVAL.reg = _system_clock_inst.dfll.val;
    5df2:	6851      	ldr	r1, [r2, #4]
    5df4:	6299      	str	r1, [r3, #40]	; 0x28
	SYSCTRL->DFLLCTRL.reg = _system_clock_inst.dfll.control;
    5df6:	6812      	ldr	r2, [r2, #0]
    5df8:	b292      	uxth	r2, r2
    5dfa:	849a      	strh	r2, [r3, #36]	; 0x24
	return STATUS_OK;
    5dfc:	2000      	movs	r0, #0
    5dfe:	e000      	b.n	5e02 <system_clock_source_enable+0x7e>
		return STATUS_OK;
    5e00:	2000      	movs	r0, #0
}
    5e02:	4770      	bx	lr
    5e04:	00007320 	.word	0x00007320
    5e08:	40000800 	.word	0x40000800
    5e0c:	2000020c 	.word	0x2000020c
    5e10:	0000ff7f 	.word	0x0000ff7f

00005e14 <system_clock_init>:
 * \note OSC8M is always enabled and if user selects other clocks for GCLK generators,
 * the OSC8M default enable can be disabled after system_clock_init. Make sure the
 * clock switch successfully before disabling OSC8M.
 */
void system_clock_init(void)
{
    5e14:	b5f0      	push	{r4, r5, r6, r7, lr}
    5e16:	46c6      	mov	lr, r8
    5e18:	b500      	push	{lr}
    5e1a:	b084      	sub	sp, #16
	/* Various bits in the INTFLAG register can be set to one at startup.
	   This will ensure that these bits are cleared */
	SYSCTRL->INTFLAG.reg = SYSCTRL_INTFLAG_BOD33RDY | SYSCTRL_INTFLAG_BOD33DET |
    5e1c:	22c2      	movs	r2, #194	; 0xc2
    5e1e:	00d2      	lsls	r2, r2, #3
    5e20:	4b28      	ldr	r3, [pc, #160]	; (5ec4 <system_clock_init+0xb0>)
    5e22:	609a      	str	r2, [r3, #8]
static inline void system_flash_set_waitstates(uint8_t wait_states)
{
	Assert(NVMCTRL_CTRLB_RWS((uint32_t)wait_states) ==
			((uint32_t)wait_states << NVMCTRL_CTRLB_RWS_Pos));

	NVMCTRL->CTRLB.bit.RWS = wait_states;
    5e24:	4a28      	ldr	r2, [pc, #160]	; (5ec8 <system_clock_init+0xb4>)
    5e26:	6853      	ldr	r3, [r2, #4]
    5e28:	211e      	movs	r1, #30
    5e2a:	438b      	bics	r3, r1
    5e2c:	6053      	str	r3, [r2, #4]
	gclk_conf.source_generator = GCLK_GENERATOR_2;
    5e2e:	2302      	movs	r3, #2
    5e30:	466a      	mov	r2, sp
    5e32:	7013      	strb	r3, [r2, #0]
	for (gclk_id = 0; gclk_id < GCLK_NUM; gclk_id++) {
    5e34:	2400      	movs	r4, #0
		system_gclk_chan_set_config(gclk_id, &gclk_conf);
    5e36:	4d25      	ldr	r5, [pc, #148]	; (5ecc <system_clock_init+0xb8>)
    5e38:	b2e0      	uxtb	r0, r4
    5e3a:	4669      	mov	r1, sp
    5e3c:	47a8      	blx	r5
	for (gclk_id = 0; gclk_id < GCLK_NUM; gclk_id++) {
    5e3e:	3401      	adds	r4, #1
    5e40:	2c1c      	cmp	r4, #28
    5e42:	d1f9      	bne.n	5e38 <system_clock_init+0x24>
	config->run_in_standby  = false;
    5e44:	a803      	add	r0, sp, #12
    5e46:	2400      	movs	r4, #0
    5e48:	7044      	strb	r4, [r0, #1]
	config->on_demand       = true;
    5e4a:	2301      	movs	r3, #1
    5e4c:	4698      	mov	r8, r3
    5e4e:	7083      	strb	r3, [r0, #2]

	/* OSC8M */
	struct system_clock_source_osc8m_config osc8m_conf;
	system_clock_source_osc8m_get_config_defaults(&osc8m_conf);

	osc8m_conf.prescaler       = CONF_CLOCK_OSC8M_PRESCALER;
    5e50:	7004      	strb	r4, [r0, #0]
	osc8m_conf.on_demand       = CONF_CLOCK_OSC8M_ON_DEMAND;
	osc8m_conf.run_in_standby  = CONF_CLOCK_OSC8M_RUN_IN_STANDBY;

	system_clock_source_osc8m_set_config(&osc8m_conf);
    5e52:	4b1f      	ldr	r3, [pc, #124]	; (5ed0 <system_clock_init+0xbc>)
    5e54:	4798      	blx	r3
	system_clock_source_enable(SYSTEM_CLOCK_SOURCE_OSC8M);
    5e56:	2006      	movs	r0, #6
    5e58:	4b1e      	ldr	r3, [pc, #120]	; (5ed4 <system_clock_init+0xc0>)
    5e5a:	4798      	blx	r3


	/* GCLK */
#if CONF_CLOCK_CONFIGURE_GCLK == true
	system_gclk_init();
    5e5c:	4b1e      	ldr	r3, [pc, #120]	; (5ed8 <system_clock_init+0xc4>)
    5e5e:	4798      	blx	r3
	/* Sanity check arguments */
	Assert(config);

	/* Default configuration values */
	config->division_factor    = 1;
	config->high_when_disabled = false;
    5e60:	466b      	mov	r3, sp
    5e62:	705c      	strb	r4, [r3, #1]
#if SAML21 || SAML22  || SAMR30
	config->source_clock       = GCLK_SOURCE_OSC16M;
#elif (SAMC20) || (SAMC21)
	config->source_clock       = GCLK_SOURCE_OSC48M;
#else
	config->source_clock       = GCLK_SOURCE_OSC8M;
    5e64:	2706      	movs	r7, #6
    5e66:	701f      	strb	r7, [r3, #0]
#endif
	config->run_in_standby     = false;
    5e68:	721c      	strb	r4, [r3, #8]
	config->output_enable      = false;
    5e6a:	725c      	strb	r4, [r3, #9]

	/* Configure all GCLK generators except for the main generator, which
	 * is configured later after all other clock systems are set up */
	MREPEAT(GCLK_GEN_NUM, _CONF_CLOCK_GCLK_CONFIG_NONMAIN, ~);
    5e6c:	2308      	movs	r3, #8
    5e6e:	9301      	str	r3, [sp, #4]
    5e70:	4669      	mov	r1, sp
    5e72:	2001      	movs	r0, #1
    5e74:	4e19      	ldr	r6, [pc, #100]	; (5edc <system_clock_init+0xc8>)
    5e76:	47b0      	blx	r6
    5e78:	2001      	movs	r0, #1
    5e7a:	4d19      	ldr	r5, [pc, #100]	; (5ee0 <system_clock_init+0xcc>)
    5e7c:	47a8      	blx	r5
	config->high_when_disabled = false;
    5e7e:	466b      	mov	r3, sp
    5e80:	705c      	strb	r4, [r3, #1]
	config->run_in_standby     = false;
    5e82:	721c      	strb	r4, [r3, #8]
	config->output_enable      = false;
    5e84:	725c      	strb	r4, [r3, #9]
    5e86:	2303      	movs	r3, #3
    5e88:	466a      	mov	r2, sp
    5e8a:	7013      	strb	r3, [r2, #0]
    5e8c:	333d      	adds	r3, #61	; 0x3d
    5e8e:	9301      	str	r3, [sp, #4]
    5e90:	4669      	mov	r1, sp
    5e92:	2004      	movs	r0, #4
    5e94:	47b0      	blx	r6
    5e96:	2004      	movs	r0, #4
    5e98:	47a8      	blx	r5
	PM->CPUSEL.reg = (uint32_t)divider;
    5e9a:	4b12      	ldr	r3, [pc, #72]	; (5ee4 <system_clock_init+0xd0>)
    5e9c:	721c      	strb	r4, [r3, #8]
			PM->APBASEL.reg = (uint32_t)divider;
    5e9e:	725c      	strb	r4, [r3, #9]
			PM->APBBSEL.reg = (uint32_t)divider;
    5ea0:	729c      	strb	r4, [r3, #10]
			PM->APBCSEL.reg = (uint32_t)divider;
    5ea2:	72dc      	strb	r4, [r3, #11]
	config->division_factor    = 1;
    5ea4:	4643      	mov	r3, r8
    5ea6:	9301      	str	r3, [sp, #4]
	config->high_when_disabled = false;
    5ea8:	466b      	mov	r3, sp
    5eaa:	705c      	strb	r4, [r3, #1]
	config->source_clock       = GCLK_SOURCE_OSC8M;
    5eac:	701f      	strb	r7, [r3, #0]
	config->run_in_standby     = false;
    5eae:	721c      	strb	r4, [r3, #8]
	config->output_enable      = false;
    5eb0:	725c      	strb	r4, [r3, #9]
	system_apb_clock_set_divider(SYSTEM_CLOCK_APB_APBC, CONF_CLOCK_APBC_DIVIDER);

	/* GCLK 0 */
#if CONF_CLOCK_CONFIGURE_GCLK == true
	/* Configure the main GCLK last as it might depend on other generators */
	_CONF_CLOCK_GCLK_CONFIG(0, ~);
    5eb2:	4669      	mov	r1, sp
    5eb4:	2000      	movs	r0, #0
    5eb6:	47b0      	blx	r6
    5eb8:	2000      	movs	r0, #0
    5eba:	47a8      	blx	r5
#endif
}
    5ebc:	b004      	add	sp, #16
    5ebe:	bc04      	pop	{r2}
    5ec0:	4690      	mov	r8, r2
    5ec2:	bdf0      	pop	{r4, r5, r6, r7, pc}
    5ec4:	40000800 	.word	0x40000800
    5ec8:	41004000 	.word	0x41004000
    5ecc:	00006121 	.word	0x00006121
    5ed0:	00005d49 	.word	0x00005d49
    5ed4:	00005d85 	.word	0x00005d85
    5ed8:	00005ee9 	.word	0x00005ee9
    5edc:	00005f0d 	.word	0x00005f0d
    5ee0:	00005fc5 	.word	0x00005fc5
    5ee4:	40000400 	.word	0x40000400

00005ee8 <system_gclk_init>:
			PM->APBAMASK.reg |= mask;
    5ee8:	4a06      	ldr	r2, [pc, #24]	; (5f04 <system_gclk_init+0x1c>)
    5eea:	6993      	ldr	r3, [r2, #24]
    5eec:	2108      	movs	r1, #8
    5eee:	430b      	orrs	r3, r1
    5ef0:	6193      	str	r3, [r2, #24]
{
	/* Turn on the digital interface clock */
	system_apb_clock_set_mask(SYSTEM_CLOCK_APB_APBA, PM_APBAMASK_GCLK);

	/* Software reset the module to ensure it is re-initialized correctly */
	GCLK->CTRL.reg = GCLK_CTRL_SWRST;
    5ef2:	2201      	movs	r2, #1
    5ef4:	4b04      	ldr	r3, [pc, #16]	; (5f08 <system_gclk_init+0x20>)
    5ef6:	701a      	strb	r2, [r3, #0]
	while (GCLK->CTRL.reg & GCLK_CTRL_SWRST) {
    5ef8:	0019      	movs	r1, r3
    5efa:	780b      	ldrb	r3, [r1, #0]
    5efc:	4213      	tst	r3, r2
    5efe:	d1fc      	bne.n	5efa <system_gclk_init+0x12>
		/* Wait for reset to complete */
	}
}
    5f00:	4770      	bx	lr
    5f02:	46c0      	nop			; (mov r8, r8)
    5f04:	40000400 	.word	0x40000400
    5f08:	40000c00 	.word	0x40000c00

00005f0c <system_gclk_gen_set_config>:
 * \param[in] config     Configuration settings for the generator
 */
void system_gclk_gen_set_config(
		const uint8_t generator,
		struct system_gclk_gen_config *const config)
{
    5f0c:	b570      	push	{r4, r5, r6, lr}
    5f0e:	0006      	movs	r6, r0
	/* Sanity check arguments */
	Assert(config);

	/* Cache new register configurations to minimize sync requirements. */
	uint32_t new_genctrl_config = (generator << GCLK_GENCTRL_ID_Pos);
    5f10:	0004      	movs	r4, r0
	uint32_t new_gendiv_config  = (generator << GCLK_GENDIV_ID_Pos);

	/* Select the requested source clock for the generator */
	new_genctrl_config |= config->source_clock << GCLK_GENCTRL_SRC_Pos;
    5f12:	780d      	ldrb	r5, [r1, #0]
    5f14:	022d      	lsls	r5, r5, #8
    5f16:	4305      	orrs	r5, r0

	/* Configure the clock to be either high or low when disabled */
	if (config->high_when_disabled) {
    5f18:	784b      	ldrb	r3, [r1, #1]
    5f1a:	2b00      	cmp	r3, #0
    5f1c:	d002      	beq.n	5f24 <system_gclk_gen_set_config+0x18>
		new_genctrl_config |= GCLK_GENCTRL_OOV;
    5f1e:	2380      	movs	r3, #128	; 0x80
    5f20:	02db      	lsls	r3, r3, #11
    5f22:	431d      	orrs	r5, r3
	}

	/* Configure if the clock output to I/O pin should be enabled. */
	if (config->output_enable) {
    5f24:	7a4b      	ldrb	r3, [r1, #9]
    5f26:	2b00      	cmp	r3, #0
    5f28:	d002      	beq.n	5f30 <system_gclk_gen_set_config+0x24>
		new_genctrl_config |= GCLK_GENCTRL_OE;
    5f2a:	2380      	movs	r3, #128	; 0x80
    5f2c:	031b      	lsls	r3, r3, #12
    5f2e:	431d      	orrs	r5, r3
	}

	/* Set division factor */
	if (config->division_factor > 1) {
    5f30:	6848      	ldr	r0, [r1, #4]
    5f32:	2801      	cmp	r0, #1
    5f34:	d910      	bls.n	5f58 <system_gclk_gen_set_config+0x4c>
		/* Check if division is a power of two */
		if (((config->division_factor & (config->division_factor - 1)) == 0)) {
    5f36:	1e43      	subs	r3, r0, #1
    5f38:	4218      	tst	r0, r3
    5f3a:	d134      	bne.n	5fa6 <system_gclk_gen_set_config+0x9a>
			 * register */

			uint32_t div2_count = 0;

			uint32_t mask;
			for (mask = (1UL << 1); mask < config->division_factor;
    5f3c:	2802      	cmp	r0, #2
    5f3e:	d930      	bls.n	5fa2 <system_gclk_gen_set_config+0x96>
    5f40:	2302      	movs	r3, #2
    5f42:	2200      	movs	r2, #0
						mask <<= 1) {
				div2_count++;
    5f44:	3201      	adds	r2, #1
						mask <<= 1) {
    5f46:	005b      	lsls	r3, r3, #1
			for (mask = (1UL << 1); mask < config->division_factor;
    5f48:	4298      	cmp	r0, r3
    5f4a:	d8fb      	bhi.n	5f44 <system_gclk_gen_set_config+0x38>
			}

			/* Set binary divider power of 2 division factor */
			new_gendiv_config  |= div2_count << GCLK_GENDIV_DIV_Pos;
    5f4c:	0212      	lsls	r2, r2, #8
    5f4e:	4332      	orrs	r2, r6
    5f50:	0014      	movs	r4, r2
			new_genctrl_config |= GCLK_GENCTRL_DIVSEL;
    5f52:	2380      	movs	r3, #128	; 0x80
    5f54:	035b      	lsls	r3, r3, #13
    5f56:	431d      	orrs	r5, r3
		}

	}

	/* Enable or disable the clock in standby mode */
	if (config->run_in_standby) {
    5f58:	7a0b      	ldrb	r3, [r1, #8]
    5f5a:	2b00      	cmp	r3, #0
    5f5c:	d002      	beq.n	5f64 <system_gclk_gen_set_config+0x58>
		new_genctrl_config |= GCLK_GENCTRL_RUNSTDBY;
    5f5e:	2380      	movs	r3, #128	; 0x80
    5f60:	039b      	lsls	r3, r3, #14
    5f62:	431d      	orrs	r5, r3
	if (GCLK->STATUS.reg & GCLK_STATUS_SYNCBUSY){
    5f64:	4a13      	ldr	r2, [pc, #76]	; (5fb4 <system_gclk_gen_set_config+0xa8>)
    5f66:	7853      	ldrb	r3, [r2, #1]
	}

	while (system_gclk_is_syncing()) {
    5f68:	b25b      	sxtb	r3, r3
    5f6a:	2b00      	cmp	r3, #0
    5f6c:	dbfb      	blt.n	5f66 <system_gclk_gen_set_config+0x5a>
	cpu_irq_enter_critical();
    5f6e:	4b12      	ldr	r3, [pc, #72]	; (5fb8 <system_gclk_gen_set_config+0xac>)
    5f70:	4798      	blx	r3
	};

	system_interrupt_enter_critical_section();

	/* Select the correct generator */
	*((uint8_t*)&GCLK->GENDIV.reg) = generator;
    5f72:	4b12      	ldr	r3, [pc, #72]	; (5fbc <system_gclk_gen_set_config+0xb0>)
    5f74:	701e      	strb	r6, [r3, #0]
	if (GCLK->STATUS.reg & GCLK_STATUS_SYNCBUSY){
    5f76:	4a0f      	ldr	r2, [pc, #60]	; (5fb4 <system_gclk_gen_set_config+0xa8>)
    5f78:	7853      	ldrb	r3, [r2, #1]

	/* Write the new generator configuration */
	while (system_gclk_is_syncing()) {
    5f7a:	b25b      	sxtb	r3, r3
    5f7c:	2b00      	cmp	r3, #0
    5f7e:	dbfb      	blt.n	5f78 <system_gclk_gen_set_config+0x6c>
		/* Wait for synchronization */
	};
	GCLK->GENDIV.reg  = new_gendiv_config;
    5f80:	4b0c      	ldr	r3, [pc, #48]	; (5fb4 <system_gclk_gen_set_config+0xa8>)
    5f82:	609c      	str	r4, [r3, #8]
	if (GCLK->STATUS.reg & GCLK_STATUS_SYNCBUSY){
    5f84:	001a      	movs	r2, r3
    5f86:	7853      	ldrb	r3, [r2, #1]

	while (system_gclk_is_syncing()) {
    5f88:	b25b      	sxtb	r3, r3
    5f8a:	2b00      	cmp	r3, #0
    5f8c:	dbfb      	blt.n	5f86 <system_gclk_gen_set_config+0x7a>
		/* Wait for synchronization */
	};
	GCLK->GENCTRL.reg = new_genctrl_config | (GCLK->GENCTRL.reg & GCLK_GENCTRL_GENEN);
    5f8e:	4a09      	ldr	r2, [pc, #36]	; (5fb4 <system_gclk_gen_set_config+0xa8>)
    5f90:	6853      	ldr	r3, [r2, #4]
    5f92:	2180      	movs	r1, #128	; 0x80
    5f94:	0249      	lsls	r1, r1, #9
    5f96:	400b      	ands	r3, r1
    5f98:	431d      	orrs	r5, r3
    5f9a:	6055      	str	r5, [r2, #4]
	cpu_irq_leave_critical();
    5f9c:	4b08      	ldr	r3, [pc, #32]	; (5fc0 <system_gclk_gen_set_config+0xb4>)
    5f9e:	4798      	blx	r3

	system_interrupt_leave_critical_section();
}
    5fa0:	bd70      	pop	{r4, r5, r6, pc}
			for (mask = (1UL << 1); mask < config->division_factor;
    5fa2:	2200      	movs	r2, #0
    5fa4:	e7d2      	b.n	5f4c <system_gclk_gen_set_config+0x40>
					(config->division_factor) << GCLK_GENDIV_DIV_Pos;
    5fa6:	0204      	lsls	r4, r0, #8
			new_gendiv_config  |=
    5fa8:	4334      	orrs	r4, r6
			new_genctrl_config |= GCLK_GENCTRL_IDC;
    5faa:	2380      	movs	r3, #128	; 0x80
    5fac:	029b      	lsls	r3, r3, #10
    5fae:	431d      	orrs	r5, r3
    5fb0:	e7d2      	b.n	5f58 <system_gclk_gen_set_config+0x4c>
    5fb2:	46c0      	nop			; (mov r8, r8)
    5fb4:	40000c00 	.word	0x40000c00
    5fb8:	00005469 	.word	0x00005469
    5fbc:	40000c08 	.word	0x40000c08
    5fc0:	000054a9 	.word	0x000054a9

00005fc4 <system_gclk_gen_enable>:
 *
 * \param[in] generator  Generic Clock Generator index to enable
 */
void system_gclk_gen_enable(
		const uint8_t generator)
{
    5fc4:	b510      	push	{r4, lr}
    5fc6:	0004      	movs	r4, r0
	if (GCLK->STATUS.reg & GCLK_STATUS_SYNCBUSY){
    5fc8:	4a0b      	ldr	r2, [pc, #44]	; (5ff8 <system_gclk_gen_enable+0x34>)
    5fca:	7853      	ldrb	r3, [r2, #1]
	while (system_gclk_is_syncing()) {
    5fcc:	b25b      	sxtb	r3, r3
    5fce:	2b00      	cmp	r3, #0
    5fd0:	dbfb      	blt.n	5fca <system_gclk_gen_enable+0x6>
	cpu_irq_enter_critical();
    5fd2:	4b0a      	ldr	r3, [pc, #40]	; (5ffc <system_gclk_gen_enable+0x38>)
    5fd4:	4798      	blx	r3
	};

	system_interrupt_enter_critical_section();

	/* Select the requested generator */
	*((uint8_t*)&GCLK->GENCTRL.reg) = generator;
    5fd6:	4b0a      	ldr	r3, [pc, #40]	; (6000 <system_gclk_gen_enable+0x3c>)
    5fd8:	701c      	strb	r4, [r3, #0]
	if (GCLK->STATUS.reg & GCLK_STATUS_SYNCBUSY){
    5fda:	4a07      	ldr	r2, [pc, #28]	; (5ff8 <system_gclk_gen_enable+0x34>)
    5fdc:	7853      	ldrb	r3, [r2, #1]
	while (system_gclk_is_syncing()) {
    5fde:	b25b      	sxtb	r3, r3
    5fe0:	2b00      	cmp	r3, #0
    5fe2:	dbfb      	blt.n	5fdc <system_gclk_gen_enable+0x18>
		/* Wait for synchronization */
	};

	/* Enable generator */
	GCLK->GENCTRL.reg |= GCLK_GENCTRL_GENEN;
    5fe4:	4a04      	ldr	r2, [pc, #16]	; (5ff8 <system_gclk_gen_enable+0x34>)
    5fe6:	6851      	ldr	r1, [r2, #4]
    5fe8:	2380      	movs	r3, #128	; 0x80
    5fea:	025b      	lsls	r3, r3, #9
    5fec:	430b      	orrs	r3, r1
    5fee:	6053      	str	r3, [r2, #4]
	cpu_irq_leave_critical();
    5ff0:	4b04      	ldr	r3, [pc, #16]	; (6004 <system_gclk_gen_enable+0x40>)
    5ff2:	4798      	blx	r3

	system_interrupt_leave_critical_section();
}
    5ff4:	bd10      	pop	{r4, pc}
    5ff6:	46c0      	nop			; (mov r8, r8)
    5ff8:	40000c00 	.word	0x40000c00
    5ffc:	00005469 	.word	0x00005469
    6000:	40000c04 	.word	0x40000c04
    6004:	000054a9 	.word	0x000054a9

00006008 <system_gclk_gen_get_hz>:
 *
 * \return The frequency of the generic clock generator, in Hz.
 */
uint32_t system_gclk_gen_get_hz(
		const uint8_t generator)
{
    6008:	b570      	push	{r4, r5, r6, lr}
    600a:	0004      	movs	r4, r0
	if (GCLK->STATUS.reg & GCLK_STATUS_SYNCBUSY){
    600c:	4a1a      	ldr	r2, [pc, #104]	; (6078 <system_gclk_gen_get_hz+0x70>)
    600e:	7853      	ldrb	r3, [r2, #1]
	while (system_gclk_is_syncing()) {
    6010:	b25b      	sxtb	r3, r3
    6012:	2b00      	cmp	r3, #0
    6014:	dbfb      	blt.n	600e <system_gclk_gen_get_hz+0x6>
	cpu_irq_enter_critical();
    6016:	4b19      	ldr	r3, [pc, #100]	; (607c <system_gclk_gen_get_hz+0x74>)
    6018:	4798      	blx	r3
	};

	system_interrupt_enter_critical_section();

	/* Select the appropriate generator */
	*((uint8_t*)&GCLK->GENCTRL.reg) = generator;
    601a:	4b19      	ldr	r3, [pc, #100]	; (6080 <system_gclk_gen_get_hz+0x78>)
    601c:	701c      	strb	r4, [r3, #0]
	if (GCLK->STATUS.reg & GCLK_STATUS_SYNCBUSY){
    601e:	4a16      	ldr	r2, [pc, #88]	; (6078 <system_gclk_gen_get_hz+0x70>)
    6020:	7853      	ldrb	r3, [r2, #1]
	while (system_gclk_is_syncing()) {
    6022:	b25b      	sxtb	r3, r3
    6024:	2b00      	cmp	r3, #0
    6026:	dbfb      	blt.n	6020 <system_gclk_gen_get_hz+0x18>
		/* Wait for synchronization */
	};

	/* Get the frequency of the source connected to the GCLK generator */
	uint32_t gen_input_hz = system_clock_source_get_hz(
			(enum system_clock_source)GCLK->GENCTRL.bit.SRC);
    6028:	4e13      	ldr	r6, [pc, #76]	; (6078 <system_gclk_gen_get_hz+0x70>)
    602a:	6870      	ldr	r0, [r6, #4]
    602c:	04c0      	lsls	r0, r0, #19
    602e:	0ec0      	lsrs	r0, r0, #27
	uint32_t gen_input_hz = system_clock_source_get_hz(
    6030:	4b14      	ldr	r3, [pc, #80]	; (6084 <system_gclk_gen_get_hz+0x7c>)
    6032:	4798      	blx	r3
    6034:	0005      	movs	r5, r0

	*((uint8_t*)&GCLK->GENCTRL.reg) = generator;
    6036:	4b12      	ldr	r3, [pc, #72]	; (6080 <system_gclk_gen_get_hz+0x78>)
    6038:	701c      	strb	r4, [r3, #0]

	uint8_t divsel = GCLK->GENCTRL.bit.DIVSEL;
    603a:	6876      	ldr	r6, [r6, #4]
    603c:	02f6      	lsls	r6, r6, #11
    603e:	0ff6      	lsrs	r6, r6, #31

	/* Select the appropriate generator division register */
	*((uint8_t*)&GCLK->GENDIV.reg) = generator;
    6040:	4b11      	ldr	r3, [pc, #68]	; (6088 <system_gclk_gen_get_hz+0x80>)
    6042:	701c      	strb	r4, [r3, #0]
	if (GCLK->STATUS.reg & GCLK_STATUS_SYNCBUSY){
    6044:	4a0c      	ldr	r2, [pc, #48]	; (6078 <system_gclk_gen_get_hz+0x70>)
    6046:	7853      	ldrb	r3, [r2, #1]
	while (system_gclk_is_syncing()) {
    6048:	b25b      	sxtb	r3, r3
    604a:	2b00      	cmp	r3, #0
    604c:	dbfb      	blt.n	6046 <system_gclk_gen_get_hz+0x3e>
		/* Wait for synchronization */
	};

	uint32_t divider = GCLK->GENDIV.bit.DIV;
    604e:	4b0a      	ldr	r3, [pc, #40]	; (6078 <system_gclk_gen_get_hz+0x70>)
    6050:	689c      	ldr	r4, [r3, #8]
    6052:	0224      	lsls	r4, r4, #8
    6054:	0c24      	lsrs	r4, r4, #16
	cpu_irq_leave_critical();
    6056:	4b0d      	ldr	r3, [pc, #52]	; (608c <system_gclk_gen_get_hz+0x84>)
    6058:	4798      	blx	r3

	system_interrupt_leave_critical_section();

	/* Check if the generator is using fractional or binary division */
	if (!divsel && divider > 1) {
    605a:	2e00      	cmp	r6, #0
    605c:	d107      	bne.n	606e <system_gclk_gen_get_hz+0x66>
    605e:	2c01      	cmp	r4, #1
    6060:	d907      	bls.n	6072 <system_gclk_gen_get_hz+0x6a>
		gen_input_hz /= divider;
    6062:	0021      	movs	r1, r4
    6064:	0028      	movs	r0, r5
    6066:	4b0a      	ldr	r3, [pc, #40]	; (6090 <system_gclk_gen_get_hz+0x88>)
    6068:	4798      	blx	r3
    606a:	0005      	movs	r5, r0
    606c:	e001      	b.n	6072 <system_gclk_gen_get_hz+0x6a>
	} else if (divsel) {
		gen_input_hz >>= (divider+1);
    606e:	3401      	adds	r4, #1
    6070:	40e5      	lsrs	r5, r4
	}

	return gen_input_hz;
}
    6072:	0028      	movs	r0, r5
    6074:	bd70      	pop	{r4, r5, r6, pc}
    6076:	46c0      	nop			; (mov r8, r8)
    6078:	40000c00 	.word	0x40000c00
    607c:	00005469 	.word	0x00005469
    6080:	40000c04 	.word	0x40000c04
    6084:	00005ccd 	.word	0x00005ccd
    6088:	40000c08 	.word	0x40000c08
    608c:	000054a9 	.word	0x000054a9
    6090:	00006795 	.word	0x00006795

00006094 <system_gclk_chan_enable>:
 *
 * \param[in] channel   Generic Clock channel to enable
 */
void system_gclk_chan_enable(
		const uint8_t channel)
{
    6094:	b510      	push	{r4, lr}
    6096:	0004      	movs	r4, r0
	cpu_irq_enter_critical();
    6098:	4b06      	ldr	r3, [pc, #24]	; (60b4 <system_gclk_chan_enable+0x20>)
    609a:	4798      	blx	r3
	system_interrupt_enter_critical_section();

	/* Select the requested generator channel */
	*((uint8_t*)&GCLK->CLKCTRL.reg) = channel;
    609c:	4b06      	ldr	r3, [pc, #24]	; (60b8 <system_gclk_chan_enable+0x24>)
    609e:	701c      	strb	r4, [r3, #0]

	/* Enable the generic clock */
	GCLK->CLKCTRL.reg |= GCLK_CLKCTRL_CLKEN;
    60a0:	4a06      	ldr	r2, [pc, #24]	; (60bc <system_gclk_chan_enable+0x28>)
    60a2:	8853      	ldrh	r3, [r2, #2]
    60a4:	2180      	movs	r1, #128	; 0x80
    60a6:	01c9      	lsls	r1, r1, #7
    60a8:	430b      	orrs	r3, r1
    60aa:	8053      	strh	r3, [r2, #2]
	cpu_irq_leave_critical();
    60ac:	4b04      	ldr	r3, [pc, #16]	; (60c0 <system_gclk_chan_enable+0x2c>)
    60ae:	4798      	blx	r3

	system_interrupt_leave_critical_section();
}
    60b0:	bd10      	pop	{r4, pc}
    60b2:	46c0      	nop			; (mov r8, r8)
    60b4:	00005469 	.word	0x00005469
    60b8:	40000c02 	.word	0x40000c02
    60bc:	40000c00 	.word	0x40000c00
    60c0:	000054a9 	.word	0x000054a9

000060c4 <system_gclk_chan_disable>:
 *
 * \param[in] channel  Generic Clock channel to disable
 */
void system_gclk_chan_disable(
		const uint8_t channel)
{
    60c4:	b510      	push	{r4, lr}
    60c6:	0004      	movs	r4, r0
	cpu_irq_enter_critical();
    60c8:	4b0f      	ldr	r3, [pc, #60]	; (6108 <system_gclk_chan_disable+0x44>)
    60ca:	4798      	blx	r3
	system_interrupt_enter_critical_section();

	/* Select the requested generator channel */
	*((uint8_t*)&GCLK->CLKCTRL.reg) = channel;
    60cc:	4b0f      	ldr	r3, [pc, #60]	; (610c <system_gclk_chan_disable+0x48>)
    60ce:	701c      	strb	r4, [r3, #0]

	/* Sanity check WRTLOCK */
	Assert(!GCLK->CLKCTRL.bit.WRTLOCK);

	/* Switch to known-working source so that the channel can be disabled */
	uint32_t prev_gen_id = GCLK->CLKCTRL.bit.GEN;
    60d0:	4a0f      	ldr	r2, [pc, #60]	; (6110 <system_gclk_chan_disable+0x4c>)
    60d2:	8853      	ldrh	r3, [r2, #2]
    60d4:	051b      	lsls	r3, r3, #20
    60d6:	0f18      	lsrs	r0, r3, #28
	GCLK->CLKCTRL.bit.GEN = 0;
    60d8:	8853      	ldrh	r3, [r2, #2]
    60da:	490e      	ldr	r1, [pc, #56]	; (6114 <system_gclk_chan_disable+0x50>)
    60dc:	400b      	ands	r3, r1
    60de:	8053      	strh	r3, [r2, #2]

	/* Disable the generic clock */
	GCLK->CLKCTRL.reg &= ~GCLK_CLKCTRL_CLKEN;
    60e0:	8853      	ldrh	r3, [r2, #2]
    60e2:	490d      	ldr	r1, [pc, #52]	; (6118 <system_gclk_chan_disable+0x54>)
    60e4:	400b      	ands	r3, r1
    60e6:	8053      	strh	r3, [r2, #2]
	while (GCLK->CLKCTRL.reg & GCLK_CLKCTRL_CLKEN) {
    60e8:	0011      	movs	r1, r2
    60ea:	2280      	movs	r2, #128	; 0x80
    60ec:	01d2      	lsls	r2, r2, #7
    60ee:	884b      	ldrh	r3, [r1, #2]
    60f0:	4213      	tst	r3, r2
    60f2:	d1fc      	bne.n	60ee <system_gclk_chan_disable+0x2a>
		/* Wait for clock to become disabled */
	}

	/* Restore previous configured clock generator */
	GCLK->CLKCTRL.bit.GEN = prev_gen_id;
    60f4:	4906      	ldr	r1, [pc, #24]	; (6110 <system_gclk_chan_disable+0x4c>)
    60f6:	884a      	ldrh	r2, [r1, #2]
    60f8:	0203      	lsls	r3, r0, #8
    60fa:	4806      	ldr	r0, [pc, #24]	; (6114 <system_gclk_chan_disable+0x50>)
    60fc:	4002      	ands	r2, r0
    60fe:	4313      	orrs	r3, r2
    6100:	804b      	strh	r3, [r1, #2]
	cpu_irq_leave_critical();
    6102:	4b06      	ldr	r3, [pc, #24]	; (611c <system_gclk_chan_disable+0x58>)
    6104:	4798      	blx	r3

	system_interrupt_leave_critical_section();
}
    6106:	bd10      	pop	{r4, pc}
    6108:	00005469 	.word	0x00005469
    610c:	40000c02 	.word	0x40000c02
    6110:	40000c00 	.word	0x40000c00
    6114:	fffff0ff 	.word	0xfffff0ff
    6118:	ffffbfff 	.word	0xffffbfff
    611c:	000054a9 	.word	0x000054a9

00006120 <system_gclk_chan_set_config>:
{
    6120:	b510      	push	{r4, lr}
	new_clkctrl_config |= config->source_generator << GCLK_CLKCTRL_GEN_Pos;
    6122:	780c      	ldrb	r4, [r1, #0]
    6124:	0224      	lsls	r4, r4, #8
    6126:	4304      	orrs	r4, r0
	system_gclk_chan_disable(channel);
    6128:	4b02      	ldr	r3, [pc, #8]	; (6134 <system_gclk_chan_set_config+0x14>)
    612a:	4798      	blx	r3
	GCLK->CLKCTRL.reg = new_clkctrl_config;
    612c:	b2a4      	uxth	r4, r4
    612e:	4b02      	ldr	r3, [pc, #8]	; (6138 <system_gclk_chan_set_config+0x18>)
    6130:	805c      	strh	r4, [r3, #2]
}
    6132:	bd10      	pop	{r4, pc}
    6134:	000060c5 	.word	0x000060c5
    6138:	40000c00 	.word	0x40000c00

0000613c <system_gclk_chan_lock>:
 *
 * \param[in] channel   Generic Clock channel to enable
 */
void system_gclk_chan_lock(
		const uint8_t channel)
{
    613c:	b510      	push	{r4, lr}
    613e:	0004      	movs	r4, r0
	cpu_irq_enter_critical();
    6140:	4b06      	ldr	r3, [pc, #24]	; (615c <system_gclk_chan_lock+0x20>)
    6142:	4798      	blx	r3
	system_interrupt_enter_critical_section();

	/* Select the requested generator channel */
	*((uint8_t*)&GCLK->CLKCTRL.reg) = channel;
    6144:	4b06      	ldr	r3, [pc, #24]	; (6160 <system_gclk_chan_lock+0x24>)
    6146:	701c      	strb	r4, [r3, #0]

	/* Lock the generic clock */
	GCLK->CLKCTRL.reg |= GCLK_CLKCTRL_WRTLOCK | GCLK_CLKCTRL_CLKEN;
    6148:	4a06      	ldr	r2, [pc, #24]	; (6164 <system_gclk_chan_lock+0x28>)
    614a:	8853      	ldrh	r3, [r2, #2]
    614c:	21c0      	movs	r1, #192	; 0xc0
    614e:	0209      	lsls	r1, r1, #8
    6150:	430b      	orrs	r3, r1
    6152:	8053      	strh	r3, [r2, #2]
	cpu_irq_leave_critical();
    6154:	4b04      	ldr	r3, [pc, #16]	; (6168 <system_gclk_chan_lock+0x2c>)
    6156:	4798      	blx	r3

	system_interrupt_leave_critical_section();
}
    6158:	bd10      	pop	{r4, pc}
    615a:	46c0      	nop			; (mov r8, r8)
    615c:	00005469 	.word	0x00005469
    6160:	40000c02 	.word	0x40000c02
    6164:	40000c00 	.word	0x40000c00
    6168:	000054a9 	.word	0x000054a9

0000616c <system_gclk_chan_get_hz>:
 *
 * \return The frequency of the generic clock channel, in Hz.
 */
uint32_t system_gclk_chan_get_hz(
		const uint8_t channel)
{
    616c:	b510      	push	{r4, lr}
    616e:	0004      	movs	r4, r0
	cpu_irq_enter_critical();
    6170:	4b06      	ldr	r3, [pc, #24]	; (618c <system_gclk_chan_get_hz+0x20>)
    6172:	4798      	blx	r3
	uint8_t gen_id;

	system_interrupt_enter_critical_section();

	/* Select the requested generic clock channel */
	*((uint8_t*)&GCLK->CLKCTRL.reg) = channel;
    6174:	4b06      	ldr	r3, [pc, #24]	; (6190 <system_gclk_chan_get_hz+0x24>)
    6176:	701c      	strb	r4, [r3, #0]
	gen_id = GCLK->CLKCTRL.bit.GEN;
    6178:	4b06      	ldr	r3, [pc, #24]	; (6194 <system_gclk_chan_get_hz+0x28>)
    617a:	885c      	ldrh	r4, [r3, #2]
    617c:	0524      	lsls	r4, r4, #20
    617e:	0f24      	lsrs	r4, r4, #28
	cpu_irq_leave_critical();
    6180:	4b05      	ldr	r3, [pc, #20]	; (6198 <system_gclk_chan_get_hz+0x2c>)
    6182:	4798      	blx	r3

	system_interrupt_leave_critical_section();

	/* Return the clock speed of the associated GCLK generator */
	return system_gclk_gen_get_hz(gen_id);
    6184:	0020      	movs	r0, r4
    6186:	4b05      	ldr	r3, [pc, #20]	; (619c <system_gclk_chan_get_hz+0x30>)
    6188:	4798      	blx	r3
}
    618a:	bd10      	pop	{r4, pc}
    618c:	00005469 	.word	0x00005469
    6190:	40000c02 	.word	0x40000c02
    6194:	40000c00 	.word	0x40000c00
    6198:	000054a9 	.word	0x000054a9
    619c:	00006009 	.word	0x00006009

000061a0 <_system_pinmux_config>:
 */
static void _system_pinmux_config(
		PortGroup *const port,
		const uint32_t pin_mask,
		const struct system_pinmux_config *const config)
{
    61a0:	b530      	push	{r4, r5, lr}

	/* Track the configuration bits into a temporary variable before writing */
	uint32_t pin_cfg = 0;

	/* Enabled powersave mode, don't create configuration */
	if (!config->powersave) {
    61a2:	78d3      	ldrb	r3, [r2, #3]
    61a4:	2b00      	cmp	r3, #0
    61a6:	d135      	bne.n	6214 <_system_pinmux_config+0x74>
		/* Enable the pin peripheral MUX flag if non-GPIO selected (pinmux will
		 * be written later) and store the new MUX mask */
		if (config->mux_position != SYSTEM_PINMUX_GPIO) {
    61a8:	7813      	ldrb	r3, [r2, #0]
    61aa:	2b80      	cmp	r3, #128	; 0x80
    61ac:	d029      	beq.n	6202 <_system_pinmux_config+0x62>
			pin_cfg |= PORT_WRCONFIG_PMUXEN;
			pin_cfg |= (config->mux_position << PORT_WRCONFIG_PMUX_Pos);
    61ae:	061b      	lsls	r3, r3, #24
    61b0:	2480      	movs	r4, #128	; 0x80
    61b2:	0264      	lsls	r4, r4, #9
    61b4:	4323      	orrs	r3, r4
		}

		/* Check if the user has requested that the input buffer be enabled */
		if ((config->direction == SYSTEM_PINMUX_PIN_DIR_INPUT) ||
    61b6:	7854      	ldrb	r4, [r2, #1]
    61b8:	2502      	movs	r5, #2
    61ba:	43ac      	bics	r4, r5
    61bc:	d106      	bne.n	61cc <_system_pinmux_config+0x2c>
				(config->direction == SYSTEM_PINMUX_PIN_DIR_OUTPUT_WITH_READBACK)) {
			/* Enable input buffer flag */
			pin_cfg |= PORT_WRCONFIG_INEN;

			/* Enable pull-up/pull-down control flag if requested */
			if (config->input_pull != SYSTEM_PINMUX_PIN_PULL_NONE) {
    61be:	7894      	ldrb	r4, [r2, #2]
    61c0:	2c00      	cmp	r4, #0
    61c2:	d120      	bne.n	6206 <_system_pinmux_config+0x66>
			pin_cfg |= PORT_WRCONFIG_INEN;
    61c4:	2480      	movs	r4, #128	; 0x80
    61c6:	02a4      	lsls	r4, r4, #10
    61c8:	4323      	orrs	r3, r4
				pin_cfg |= PORT_WRCONFIG_PULLEN;
			}

			/* Clear the port DIR bits to disable the output buffer */
			port->DIRCLR.reg = pin_mask;
    61ca:	6041      	str	r1, [r0, #4]
		}

		/* Check if the user has requested that the output buffer be enabled */
		if ((config->direction == SYSTEM_PINMUX_PIN_DIR_OUTPUT) ||
    61cc:	7854      	ldrb	r4, [r2, #1]
    61ce:	3c01      	subs	r4, #1
    61d0:	2c01      	cmp	r4, #1
    61d2:	d91c      	bls.n	620e <_system_pinmux_config+0x6e>
		port->DIRCLR.reg = pin_mask;
	}

	/* The Write Configuration register (WRCONFIG) requires the
	 * pins to to grouped into two 16-bit half-words - split them out here */
	uint32_t lower_pin_mask = (pin_mask & 0xFFFF);
    61d4:	040d      	lsls	r5, r1, #16
    61d6:	0c2d      	lsrs	r5, r5, #16

	/* Configure the lower 16-bits of the port to the desired configuration,
	 * including the pin peripheral multiplexer just in case it is enabled */
	port->WRCONFIG.reg
		= (lower_pin_mask << PORT_WRCONFIG_PINMASK_Pos) |
			pin_cfg | PORT_WRCONFIG_WRPMUX | PORT_WRCONFIG_WRPINCFG;
    61d8:	24a0      	movs	r4, #160	; 0xa0
    61da:	05e4      	lsls	r4, r4, #23
    61dc:	432c      	orrs	r4, r5
    61de:	431c      	orrs	r4, r3
		= (lower_pin_mask << PORT_WRCONFIG_PINMASK_Pos) |
    61e0:	6284      	str	r4, [r0, #40]	; 0x28
	uint32_t upper_pin_mask = (pin_mask >> 16);
    61e2:	0c0d      	lsrs	r5, r1, #16

	/* Configure the upper 16-bits of the port to the desired configuration,
	 * including the pin peripheral multiplexer just in case it is enabled */
	port->WRCONFIG.reg
		= (upper_pin_mask << PORT_WRCONFIG_PINMASK_Pos) |
			pin_cfg | PORT_WRCONFIG_WRPMUX | PORT_WRCONFIG_WRPINCFG |
    61e4:	24d0      	movs	r4, #208	; 0xd0
    61e6:	0624      	lsls	r4, r4, #24
    61e8:	432c      	orrs	r4, r5
    61ea:	431c      	orrs	r4, r3
		= (upper_pin_mask << PORT_WRCONFIG_PINMASK_Pos) |
    61ec:	6284      	str	r4, [r0, #40]	; 0x28
			PORT_WRCONFIG_HWSEL;

	if(!config->powersave) {
    61ee:	78d4      	ldrb	r4, [r2, #3]
    61f0:	2c00      	cmp	r4, #0
    61f2:	d122      	bne.n	623a <_system_pinmux_config+0x9a>
		/* Set the pull-up state once the port pins are configured if one was
		 * requested and it does not violate the valid set of port
		 * configurations */
		if (pin_cfg & PORT_WRCONFIG_PULLEN) {
    61f4:	035b      	lsls	r3, r3, #13
    61f6:	d51c      	bpl.n	6232 <_system_pinmux_config+0x92>
			/* Set the OUT register bits to enable the pull-up if requested,
			 * clear to enable pull-down */
			if (config->input_pull == SYSTEM_PINMUX_PIN_PULL_UP) {
    61f8:	7893      	ldrb	r3, [r2, #2]
    61fa:	2b01      	cmp	r3, #1
    61fc:	d01e      	beq.n	623c <_system_pinmux_config+0x9c>
				port->OUTSET.reg = pin_mask;
			} else {
				port->OUTCLR.reg = pin_mask;
    61fe:	6141      	str	r1, [r0, #20]
    6200:	e017      	b.n	6232 <_system_pinmux_config+0x92>
	uint32_t pin_cfg = 0;
    6202:	2300      	movs	r3, #0
    6204:	e7d7      	b.n	61b6 <_system_pinmux_config+0x16>
				pin_cfg |= PORT_WRCONFIG_PULLEN;
    6206:	24c0      	movs	r4, #192	; 0xc0
    6208:	02e4      	lsls	r4, r4, #11
    620a:	4323      	orrs	r3, r4
    620c:	e7dd      	b.n	61ca <_system_pinmux_config+0x2a>
			pin_cfg &= ~PORT_WRCONFIG_PULLEN;
    620e:	4c0d      	ldr	r4, [pc, #52]	; (6244 <_system_pinmux_config+0xa4>)
    6210:	4023      	ands	r3, r4
    6212:	e7df      	b.n	61d4 <_system_pinmux_config+0x34>
		port->DIRCLR.reg = pin_mask;
    6214:	6041      	str	r1, [r0, #4]
	uint32_t lower_pin_mask = (pin_mask & 0xFFFF);
    6216:	040c      	lsls	r4, r1, #16
    6218:	0c24      	lsrs	r4, r4, #16
			pin_cfg | PORT_WRCONFIG_WRPMUX | PORT_WRCONFIG_WRPINCFG;
    621a:	23a0      	movs	r3, #160	; 0xa0
    621c:	05db      	lsls	r3, r3, #23
    621e:	4323      	orrs	r3, r4
		= (lower_pin_mask << PORT_WRCONFIG_PINMASK_Pos) |
    6220:	6283      	str	r3, [r0, #40]	; 0x28
	uint32_t upper_pin_mask = (pin_mask >> 16);
    6222:	0c0c      	lsrs	r4, r1, #16
			pin_cfg | PORT_WRCONFIG_WRPMUX | PORT_WRCONFIG_WRPINCFG |
    6224:	23d0      	movs	r3, #208	; 0xd0
    6226:	061b      	lsls	r3, r3, #24
    6228:	4323      	orrs	r3, r4
		= (upper_pin_mask << PORT_WRCONFIG_PINMASK_Pos) |
    622a:	6283      	str	r3, [r0, #40]	; 0x28
	if(!config->powersave) {
    622c:	78d3      	ldrb	r3, [r2, #3]
    622e:	2b00      	cmp	r3, #0
    6230:	d103      	bne.n	623a <_system_pinmux_config+0x9a>
			}
		}

		/* Check if the user has requested that the output buffer be enabled */
		if ((config->direction == SYSTEM_PINMUX_PIN_DIR_OUTPUT) ||
    6232:	7853      	ldrb	r3, [r2, #1]
    6234:	3b01      	subs	r3, #1
    6236:	2b01      	cmp	r3, #1
    6238:	d902      	bls.n	6240 <_system_pinmux_config+0xa0>
				(config->direction == SYSTEM_PINMUX_PIN_DIR_OUTPUT_WITH_READBACK)) {
			/* Set the port DIR bits to enable the output buffer */
			port->DIRSET.reg = pin_mask;
		}
	}
}
    623a:	bd30      	pop	{r4, r5, pc}
				port->OUTSET.reg = pin_mask;
    623c:	6181      	str	r1, [r0, #24]
    623e:	e7f8      	b.n	6232 <_system_pinmux_config+0x92>
			port->DIRSET.reg = pin_mask;
    6240:	6081      	str	r1, [r0, #8]
}
    6242:	e7fa      	b.n	623a <_system_pinmux_config+0x9a>
    6244:	fffbffff 	.word	0xfffbffff

00006248 <system_pinmux_pin_set_config>:
 * \param[in] config    Configuration settings for the pin
 */
void system_pinmux_pin_set_config(
		const uint8_t gpio_pin,
		const struct system_pinmux_config *const config)
{
    6248:	b510      	push	{r4, lr}
    624a:	000a      	movs	r2, r1
	uint8_t group_index = (gpio_pin / 32);

	/* Array of available ports */
	Port *const ports[PORT_INST_NUM] = PORT_INSTS;

	if (port_index < PORT_INST_NUM) {
    624c:	09c1      	lsrs	r1, r0, #7
		return &(ports[port_index]->Group[group_index]);
	} else {
		Assert(false);
		return NULL;
    624e:	2300      	movs	r3, #0
	if (port_index < PORT_INST_NUM) {
    6250:	2900      	cmp	r1, #0
    6252:	d104      	bne.n	625e <system_pinmux_pin_set_config+0x16>
		return &(ports[port_index]->Group[group_index]);
    6254:	0943      	lsrs	r3, r0, #5
    6256:	01db      	lsls	r3, r3, #7
    6258:	4905      	ldr	r1, [pc, #20]	; (6270 <system_pinmux_pin_set_config+0x28>)
    625a:	468c      	mov	ip, r1
    625c:	4463      	add	r3, ip
	PortGroup *const port = system_pinmux_get_group_from_gpio_pin(gpio_pin);
	uint32_t pin_mask = (1UL << (gpio_pin % 32));
    625e:	241f      	movs	r4, #31
    6260:	4020      	ands	r0, r4
    6262:	2101      	movs	r1, #1
    6264:	4081      	lsls	r1, r0

	_system_pinmux_config(port, pin_mask, config);
    6266:	0018      	movs	r0, r3
    6268:	4b02      	ldr	r3, [pc, #8]	; (6274 <system_pinmux_pin_set_config+0x2c>)
    626a:	4798      	blx	r3
}
    626c:	bd10      	pop	{r4, pc}
    626e:	46c0      	nop			; (mov r8, r8)
    6270:	41004400 	.word	0x41004400
    6274:	000061a1 	.word	0x000061a1

00006278 <_system_dummy_init>:
 */
void _system_dummy_init(void);
void _system_dummy_init(void)
{
	return;
}
    6278:	4770      	bx	lr
	...

0000627c <system_init>:
 *  - Board hardware initialization (via the Board module)
 *  - Event system driver initialization (via the EVSYS module)
 *  - External Interrupt driver initialization (via the EXTINT module)
 */
void system_init(void)
{
    627c:	b510      	push	{r4, lr}
	/* Configure GCLK and clock sources according to conf_clocks.h */
	system_clock_init();
    627e:	4b05      	ldr	r3, [pc, #20]	; (6294 <system_init+0x18>)
    6280:	4798      	blx	r3

	/* Initialize board hardware */
	system_board_init();
    6282:	4b05      	ldr	r3, [pc, #20]	; (6298 <system_init+0x1c>)
    6284:	4798      	blx	r3

	/* Initialize EVSYS hardware */
	_system_events_init();
    6286:	4b05      	ldr	r3, [pc, #20]	; (629c <system_init+0x20>)
    6288:	4798      	blx	r3

	/* Initialize External hardware */
	_system_extint_init();
    628a:	4b05      	ldr	r3, [pc, #20]	; (62a0 <system_init+0x24>)
    628c:	4798      	blx	r3
	
	/* Initialize DIVAS hardware */
	_system_divas_init();
    628e:	4b05      	ldr	r3, [pc, #20]	; (62a4 <system_init+0x28>)
    6290:	4798      	blx	r3
}
    6292:	bd10      	pop	{r4, pc}
    6294:	00005e15 	.word	0x00005e15
    6298:	000054d9 	.word	0x000054d9
    629c:	00006279 	.word	0x00006279
    62a0:	000039d5 	.word	0x000039d5
    62a4:	00006279 	.word	0x00006279

000062a8 <Dummy_Handler>:

/**
 * \brief Default interrupt handler for unused IRQs.
 */
void Dummy_Handler(void)
{
    62a8:	e7fe      	b.n	62a8 <Dummy_Handler>
	...

000062ac <Reset_Handler>:
{
    62ac:	b510      	push	{r4, lr}
        if (pSrc != pDest) {
    62ae:	4a1a      	ldr	r2, [pc, #104]	; (6318 <Reset_Handler+0x6c>)
    62b0:	4b1a      	ldr	r3, [pc, #104]	; (631c <Reset_Handler+0x70>)
    62b2:	429a      	cmp	r2, r3
    62b4:	d011      	beq.n	62da <Reset_Handler+0x2e>
                for (; pDest < &_erelocate;) {
    62b6:	001a      	movs	r2, r3
    62b8:	4b19      	ldr	r3, [pc, #100]	; (6320 <Reset_Handler+0x74>)
    62ba:	429a      	cmp	r2, r3
    62bc:	d20d      	bcs.n	62da <Reset_Handler+0x2e>
    62be:	4a19      	ldr	r2, [pc, #100]	; (6324 <Reset_Handler+0x78>)
    62c0:	3303      	adds	r3, #3
    62c2:	1a9b      	subs	r3, r3, r2
    62c4:	089b      	lsrs	r3, r3, #2
    62c6:	3301      	adds	r3, #1
    62c8:	009b      	lsls	r3, r3, #2
    62ca:	2200      	movs	r2, #0
                        *pDest++ = *pSrc++;
    62cc:	4813      	ldr	r0, [pc, #76]	; (631c <Reset_Handler+0x70>)
    62ce:	4912      	ldr	r1, [pc, #72]	; (6318 <Reset_Handler+0x6c>)
    62d0:	588c      	ldr	r4, [r1, r2]
    62d2:	5084      	str	r4, [r0, r2]
    62d4:	3204      	adds	r2, #4
                for (; pDest < &_erelocate;) {
    62d6:	429a      	cmp	r2, r3
    62d8:	d1fa      	bne.n	62d0 <Reset_Handler+0x24>
        for (pDest = &_szero; pDest < &_ezero;) {
    62da:	4a13      	ldr	r2, [pc, #76]	; (6328 <Reset_Handler+0x7c>)
    62dc:	4b13      	ldr	r3, [pc, #76]	; (632c <Reset_Handler+0x80>)
    62de:	429a      	cmp	r2, r3
    62e0:	d20a      	bcs.n	62f8 <Reset_Handler+0x4c>
    62e2:	43d3      	mvns	r3, r2
    62e4:	4911      	ldr	r1, [pc, #68]	; (632c <Reset_Handler+0x80>)
    62e6:	185b      	adds	r3, r3, r1
    62e8:	2103      	movs	r1, #3
    62ea:	438b      	bics	r3, r1
    62ec:	3304      	adds	r3, #4
    62ee:	189b      	adds	r3, r3, r2
                *pDest++ = 0;
    62f0:	2100      	movs	r1, #0
    62f2:	c202      	stmia	r2!, {r1}
        for (pDest = &_szero; pDest < &_ezero;) {
    62f4:	4293      	cmp	r3, r2
    62f6:	d1fc      	bne.n	62f2 <Reset_Handler+0x46>
        SCB->VTOR = ((uint32_t) pSrc & SCB_VTOR_TBLOFF_Msk);
    62f8:	4a0d      	ldr	r2, [pc, #52]	; (6330 <Reset_Handler+0x84>)
    62fa:	21ff      	movs	r1, #255	; 0xff
    62fc:	4b0d      	ldr	r3, [pc, #52]	; (6334 <Reset_Handler+0x88>)
    62fe:	438b      	bics	r3, r1
    6300:	6093      	str	r3, [r2, #8]
        NVMCTRL->CTRLB.bit.MANW = 1;
    6302:	4a0d      	ldr	r2, [pc, #52]	; (6338 <Reset_Handler+0x8c>)
    6304:	6853      	ldr	r3, [r2, #4]
    6306:	397f      	subs	r1, #127	; 0x7f
    6308:	430b      	orrs	r3, r1
    630a:	6053      	str	r3, [r2, #4]
        __libc_init_array();
    630c:	4b0b      	ldr	r3, [pc, #44]	; (633c <Reset_Handler+0x90>)
    630e:	4798      	blx	r3
        main();
    6310:	4b0b      	ldr	r3, [pc, #44]	; (6340 <Reset_Handler+0x94>)
    6312:	4798      	blx	r3
    6314:	e7fe      	b.n	6314 <Reset_Handler+0x68>
    6316:	46c0      	nop			; (mov r8, r8)
    6318:	00007360 	.word	0x00007360
    631c:	20000000 	.word	0x20000000
    6320:	200001cc 	.word	0x200001cc
    6324:	20000004 	.word	0x20000004
    6328:	200001cc 	.word	0x200001cc
    632c:	2000352c 	.word	0x2000352c
    6330:	e000ed00 	.word	0xe000ed00
    6334:	00000000 	.word	0x00000000
    6338:	41004000 	.word	0x41004000
    633c:	00006ad5 	.word	0x00006ad5
    6340:	00006415 	.word	0x00006415

00006344 <Run_LoRA_Function>:
	
}


void Run_LoRA_Function(volatile LORA_Dev_List_t *tmp_LORA_Dev_List_Index, volatile Write_PLC_List_t *tmp_Write_PLC_List_Index)
{
    6344:	b510      	push	{r4, lr}
		Lora_CMD_Func(LORA01);
		Response_LORA01(LORA01);
		Lora_CMD_Func(LORA02);
		Response_LORA02(LORA02, tmp_LORA_Dev_List_Index);
	#elif defined(Dev_Master_RS232)
		Lora_CMD_Func(LORA01);
    6346:	4c04      	ldr	r4, [pc, #16]	; (6358 <Run_LoRA_Function+0x14>)
    6348:	6820      	ldr	r0, [r4, #0]
    634a:	4b04      	ldr	r3, [pc, #16]	; (635c <Run_LoRA_Function+0x18>)
    634c:	4798      	blx	r3
		Response_LORA01(LORA01);
    634e:	6820      	ldr	r0, [r4, #0]
    6350:	4b03      	ldr	r3, [pc, #12]	; (6360 <Run_LoRA_Function+0x1c>)
    6352:	4798      	blx	r3
	#else
		Lora_CMD_Func(LORA01);
		LORA01_MAIN_FUNCTION(LORA01, tmp_LORA_Dev_List_Index);
	#endif
}
    6354:	bd10      	pop	{r4, pc}
    6356:	46c0      	nop			; (mov r8, r8)
    6358:	200018bc 	.word	0x200018bc
    635c:	00004619 	.word	0x00004619
    6360:	00001a71 	.word	0x00001a71

00006364 <Running_Function>:


void Running_Function(void)
{
    6364:	b570      	push	{r4, r5, r6, lr}
	volatile Write_PLC_List_t *Write_PLC_List_Index = Write_PLC_List_In_RAM;
	volatile LORA_Dev_List_t *LORA_Dev_List_Index = LORA_Dev_List_In_RAM;
	
	Run_LoRA_Function(LORA_Dev_List_Index, Write_PLC_List_Index);
    6366:	4e09      	ldr	r6, [pc, #36]	; (638c <Running_Function+0x28>)
    6368:	4d09      	ldr	r5, [pc, #36]	; (6390 <Running_Function+0x2c>)
    636a:	0031      	movs	r1, r6
    636c:	0028      	movs	r0, r5
    636e:	4c09      	ldr	r4, [pc, #36]	; (6394 <Running_Function+0x30>)
    6370:	47a0      	blx	r4
	Run_LoRA_Function(LORA_Dev_List_Index, Write_PLC_List_Index);
    6372:	0031      	movs	r1, r6
    6374:	0028      	movs	r0, r5
    6376:	47a0      	blx	r4
	Run_LoRA_Function(LORA_Dev_List_Index, Write_PLC_List_Index);
    6378:	0031      	movs	r1, r6
    637a:	0028      	movs	r0, r5
    637c:	47a0      	blx	r4
	Run_LoRA_Function(LORA_Dev_List_Index, Write_PLC_List_Index);
    637e:	0031      	movs	r1, r6
    6380:	0028      	movs	r0, r5
    6382:	47a0      	blx	r4
	Run_LoRA_Function(LORA_Dev_List_Index, Write_PLC_List_Index);
    6384:	0031      	movs	r1, r6
    6386:	0028      	movs	r0, r5
    6388:	47a0      	blx	r4
	#ifdef Dev_Repeater
		Polling_RS485();
	#endif
	
	
}
    638a:	bd70      	pop	{r4, r5, r6, pc}
    638c:	20000328 	.word	0x20000328
    6390:	20000f00 	.word	0x20000f00
    6394:	00006345 	.word	0x00006345

00006398 <LoRA_Timeout_Func>:

void LoRA_Timeout_Func(volatile LORA_DEFINE_t *tmp_LORA)
{
    6398:	b570      	push	{r4, r5, r6, lr}
    639a:	0004      	movs	r4, r0
	if(tmp_LORA->f_count == Timer_Timeout)
    639c:	238f      	movs	r3, #143	; 0x8f
    639e:	009b      	lsls	r3, r3, #2
    63a0:	58c2      	ldr	r2, [r0, r3]
    63a2:	4b13      	ldr	r3, [pc, #76]	; (63f0 <LoRA_Timeout_Func+0x58>)
    63a4:	429a      	cmp	r2, r3
    63a6:	d000      	beq.n	63aa <LoRA_Timeout_Func+0x12>
		uTXByte(Debug_COM, ' ');
		uart_send_word(Debug_COM, tmp_LORA->f_count);
		Reset_LoRa_Func(tmp_LORA);
		uTXByte(Debug_COM, ' ');
	}
}
    63a8:	bd70      	pop	{r4, r5, r6, pc}
		wdt_reset_count();
    63aa:	4b12      	ldr	r3, [pc, #72]	; (63f4 <LoRA_Timeout_Func+0x5c>)
    63ac:	4798      	blx	r3
		Print_LoRA_Time_Out_Msg(tmp_LORA);
    63ae:	0020      	movs	r0, r4
    63b0:	4b11      	ldr	r3, [pc, #68]	; (63f8 <LoRA_Timeout_Func+0x60>)
    63b2:	4798      	blx	r3
		uTXByte(Debug_COM, '(');
    63b4:	4d11      	ldr	r5, [pc, #68]	; (63fc <LoRA_Timeout_Func+0x64>)
    63b6:	2128      	movs	r1, #40	; 0x28
    63b8:	0028      	movs	r0, r5
    63ba:	4e11      	ldr	r6, [pc, #68]	; (6400 <LoRA_Timeout_Func+0x68>)
    63bc:	47b0      	blx	r6
		uart_send_ascii_byte(Debug_COM, tmp_LORA->NowStatus);
    63be:	4b11      	ldr	r3, [pc, #68]	; (6404 <LoRA_Timeout_Func+0x6c>)
    63c0:	5ce1      	ldrb	r1, [r4, r3]
    63c2:	b2c9      	uxtb	r1, r1
    63c4:	0028      	movs	r0, r5
    63c6:	4b10      	ldr	r3, [pc, #64]	; (6408 <LoRA_Timeout_Func+0x70>)
    63c8:	4798      	blx	r3
		uTXByte(Debug_COM, ')');
    63ca:	2129      	movs	r1, #41	; 0x29
    63cc:	0028      	movs	r0, r5
    63ce:	47b0      	blx	r6
		uTXByte(Debug_COM, ' ');
    63d0:	2120      	movs	r1, #32
    63d2:	0028      	movs	r0, r5
    63d4:	47b0      	blx	r6
		uart_send_word(Debug_COM, tmp_LORA->f_count);
    63d6:	238f      	movs	r3, #143	; 0x8f
    63d8:	009b      	lsls	r3, r3, #2
    63da:	58e1      	ldr	r1, [r4, r3]
    63dc:	0028      	movs	r0, r5
    63de:	4b0b      	ldr	r3, [pc, #44]	; (640c <LoRA_Timeout_Func+0x74>)
    63e0:	4798      	blx	r3
		Reset_LoRa_Func(tmp_LORA);
    63e2:	0020      	movs	r0, r4
    63e4:	4b0a      	ldr	r3, [pc, #40]	; (6410 <LoRA_Timeout_Func+0x78>)
    63e6:	4798      	blx	r3
		uTXByte(Debug_COM, ' ');
    63e8:	2120      	movs	r1, #32
    63ea:	0028      	movs	r0, r5
    63ec:	47b0      	blx	r6
}
    63ee:	e7db      	b.n	63a8 <LoRA_Timeout_Func+0x10>
    63f0:	00004e20 	.word	0x00004e20
    63f4:	00003f4d 	.word	0x00003f4d
    63f8:	00004afd 	.word	0x00004afd
    63fc:	20000270 	.word	0x20000270
    6400:	00002725 	.word	0x00002725
    6404:	0000021d 	.word	0x0000021d
    6408:	00002745 	.word	0x00002745
    640c:	000027b9 	.word	0x000027b9
    6410:	000040dd 	.word	0x000040dd

00006414 <main>:



int main(void)
{
    6414:	b5f8      	push	{r3, r4, r5, r6, r7, lr}
    6416:	46de      	mov	lr, fp
    6418:	4657      	mov	r7, sl
    641a:	464e      	mov	r6, r9
    641c:	4645      	mov	r5, r8
    641e:	b5e0      	push	{r5, r6, r7, lr}
	UINT16u_t tmp16;
	volatile Write_PLC_List_t *Write_PLC_List_Index = Write_PLC_List_In_RAM;
	volatile LORA_Dev_List_t *LORA_Dev_List_Index = LORA_Dev_List_In_RAM;

	system_init();
    6420:	4b98      	ldr	r3, [pc, #608]	; (6684 <main+0x270>)
    6422:	4798      	blx	r3
	delay_init();
    6424:	4b98      	ldr	r3, [pc, #608]	; (6688 <main+0x274>)
    6426:	4798      	blx	r3
	IO_init();
    6428:	4b98      	ldr	r3, [pc, #608]	; (668c <main+0x278>)
    642a:	4798      	blx	r3
		port_base->OUTCLR.reg = pin_mask;
    642c:	4c98      	ldr	r4, [pc, #608]	; (6690 <main+0x27c>)
    642e:	2380      	movs	r3, #128	; 0x80
    6430:	051b      	lsls	r3, r3, #20
    6432:	469b      	mov	fp, r3
    6434:	6163      	str	r3, [r4, #20]
    6436:	2380      	movs	r3, #128	; 0x80
    6438:	055b      	lsls	r3, r3, #21
    643a:	469a      	mov	sl, r3
    643c:	6163      	str	r3, [r4, #20]
    643e:	2380      	movs	r3, #128	; 0x80
    6440:	041b      	lsls	r3, r3, #16
    6442:	6163      	str	r3, [r4, #20]
	
	LED_G_ON
	LED_R_ON
	LED_B_ON
	configure_usart();
    6444:	4b93      	ldr	r3, [pc, #588]	; (6694 <main+0x280>)
    6446:	4798      	blx	r3
	configure_usart_callbacks();
    6448:	4b93      	ldr	r3, [pc, #588]	; (6698 <main+0x284>)
    644a:	4798      	blx	r3
	
	configure_adc();
    644c:	4b93      	ldr	r3, [pc, #588]	; (669c <main+0x288>)
    644e:	4798      	blx	r3
	
	timer_configure();
    6450:	4b93      	ldr	r3, [pc, #588]	; (66a0 <main+0x28c>)
    6452:	4798      	blx	r3
	configure_extint_channel();
    6454:	4b93      	ldr	r3, [pc, #588]	; (66a4 <main+0x290>)
    6456:	4798      	blx	r3
	configure_extint_callbacks();
    6458:	4b93      	ldr	r3, [pc, #588]	; (66a8 <main+0x294>)
    645a:	4798      	blx	r3
	
	configure_wdt();
    645c:	4b93      	ldr	r3, [pc, #588]	; (66ac <main+0x298>)
    645e:	4798      	blx	r3
	configure_wdt_callbacks();
    6460:	4b93      	ldr	r3, [pc, #588]	; (66b0 <main+0x29c>)
    6462:	4798      	blx	r3
	
	configure_nvm();
    6464:	4b93      	ldr	r3, [pc, #588]	; (66b4 <main+0x2a0>)
    6466:	4798      	blx	r3
	cpu_irq_enable();
    6468:	2201      	movs	r2, #1
    646a:	4b93      	ldr	r3, [pc, #588]	; (66b8 <main+0x2a4>)
    646c:	701a      	strb	r2, [r3, #0]
    This function ensures the apparent order of the explicit memory operations before
    and after the instruction, without ensuring their completion.
 */
__attribute__( ( always_inline ) ) __STATIC_INLINE void __DMB(void)
{
  __ASM volatile ("dmb");
    646e:	f3bf 8f5f 	dmb	sy
  This function enables IRQ interrupts by clearing the I-bit in the CPSR.
  Can only be executed in Privileged modes.
 */
__attribute__( ( always_inline ) ) __STATIC_INLINE void __enable_irq(void)
{
  __ASM volatile ("cpsie i" : : : "memory");
    6472:	b662      	cpsie	i
	
	system_interrupt_enable_global();
	wdt_reset_count();
    6474:	4e91      	ldr	r6, [pc, #580]	; (66bc <main+0x2a8>)
    6476:	47b0      	blx	r6

	// LORA OFF
	LORA01_Reset_Func(false);
    6478:	2000      	movs	r0, #0
    647a:	4f91      	ldr	r7, [pc, #580]	; (66c0 <main+0x2ac>)
    647c:	47b8      	blx	r7
	LORA02_Reset_Func(false);
    647e:	2000      	movs	r0, #0
    6480:	4b90      	ldr	r3, [pc, #576]	; (66c4 <main+0x2b0>)
    6482:	4698      	mov	r8, r3
    6484:	4798      	blx	r3
	delay_ms(500);
    6486:	20fa      	movs	r0, #250	; 0xfa
    6488:	0040      	lsls	r0, r0, #1
    648a:	4d8f      	ldr	r5, [pc, #572]	; (66c8 <main+0x2b4>)
    648c:	47a8      	blx	r5
	
	// LORA ON
	LORA01_Reset_Func(true);
    648e:	2001      	movs	r0, #1
    6490:	47b8      	blx	r7
	LORA02_Reset_Func(true);
    6492:	2001      	movs	r0, #1
    6494:	47c0      	blx	r8
	delay_ms(500);
    6496:	20fa      	movs	r0, #250	; 0xfa
    6498:	0040      	lsls	r0, r0, #1
    649a:	47a8      	blx	r5
	wdt_reset_count();
    649c:	47b0      	blx	r6

	LORA01_inital();
    649e:	4b8b      	ldr	r3, [pc, #556]	; (66cc <main+0x2b8>)
    64a0:	4798      	blx	r3
	LORA02_inital();
    64a2:	4b8b      	ldr	r3, [pc, #556]	; (66d0 <main+0x2bc>)
    64a4:	4798      	blx	r3
	
	Define_Profile_COPY_TO_RAM();
    64a6:	4b8b      	ldr	r3, [pc, #556]	; (66d4 <main+0x2c0>)
    64a8:	4798      	blx	r3
		
	Define_Dev_List_Func(LORA_Dev_List_Index);
    64aa:	4d8b      	ldr	r5, [pc, #556]	; (66d8 <main+0x2c4>)
    64ac:	0028      	movs	r0, r5
    64ae:	4b8b      	ldr	r3, [pc, #556]	; (66dc <main+0x2c8>)
    64b0:	4798      	blx	r3
	Define_Dev_Time_Func(LORA_Dev_List_Index);
    64b2:	0028      	movs	r0, r5
    64b4:	4b8a      	ldr	r3, [pc, #552]	; (66e0 <main+0x2cc>)
    64b6:	4798      	blx	r3
	
	Load_List_Form_NVM(LORA_Dev_List_Index);
    64b8:	0028      	movs	r0, r5
    64ba:	4b8a      	ldr	r3, [pc, #552]	; (66e4 <main+0x2d0>)
    64bc:	4798      	blx	r3
	Load_Dev_Time_Form_NVM(LORA_Dev_List_Index);
    64be:	0028      	movs	r0, r5
    64c0:	4b89      	ldr	r3, [pc, #548]	; (66e8 <main+0x2d4>)
    64c2:	4798      	blx	r3
	Load_Write_PLC_List_in_NVM(Write_PLC_List_Index);
    64c4:	4889      	ldr	r0, [pc, #548]	; (66ec <main+0x2d8>)
    64c6:	4b8a      	ldr	r3, [pc, #552]	; (66f0 <main+0x2dc>)
    64c8:	4798      	blx	r3
	
	wdt_reset_count();
    64ca:	47b0      	blx	r6
	
	Print_Start_Msg();
    64cc:	4b89      	ldr	r3, [pc, #548]	; (66f4 <main+0x2e0>)
    64ce:	4798      	blx	r3
	Find_Now_And_Next_Enable_Func(LORA01, LORA_Dev_List_Index);
    64d0:	4b89      	ldr	r3, [pc, #548]	; (66f8 <main+0x2e4>)
    64d2:	4699      	mov	r9, r3
    64d4:	0029      	movs	r1, r5
    64d6:	6818      	ldr	r0, [r3, #0]
    64d8:	4b88      	ldr	r3, [pc, #544]	; (66fc <main+0x2e8>)
    64da:	4798      	blx	r3
	Find_Now_And_Next_Wait_Upload_Func(LORA02);
    64dc:	4b88      	ldr	r3, [pc, #544]	; (6700 <main+0x2ec>)
    64de:	4698      	mov	r8, r3
    64e0:	6818      	ldr	r0, [r3, #0]
    64e2:	4b88      	ldr	r3, [pc, #544]	; (6704 <main+0x2f0>)
    64e4:	4798      	blx	r3
	Load_LoRa_Profile_in_NVM(LORA01);
    64e6:	464b      	mov	r3, r9
    64e8:	6818      	ldr	r0, [r3, #0]
    64ea:	4d87      	ldr	r5, [pc, #540]	; (6708 <main+0x2f4>)
    64ec:	47a8      	blx	r5
	Load_LoRa_Profile_in_NVM(LORA02);
    64ee:	4643      	mov	r3, r8
    64f0:	6818      	ldr	r0, [r3, #0]
    64f2:	47a8      	blx	r5
	
	UserKeyInStauts = NOP;
    64f4:	2500      	movs	r5, #0
    64f6:	4b85      	ldr	r3, [pc, #532]	; (670c <main+0x2f8>)
    64f8:	701d      	strb	r5, [r3, #0]
	CMD_Index = CMD_NOP_Index;	
    64fa:	4b85      	ldr	r3, [pc, #532]	; (6710 <main+0x2fc>)
    64fc:	701d      	strb	r5, [r3, #0]

	Dev_Value_inital();
    64fe:	4b85      	ldr	r3, [pc, #532]	; (6714 <main+0x300>)
    6500:	4798      	blx	r3

	wdt_reset_count();
    6502:	47b0      	blx	r6
	LORA01->f_count = 0;
    6504:	464b      	mov	r3, r9
    6506:	681a      	ldr	r2, [r3, #0]
    6508:	238f      	movs	r3, #143	; 0x8f
    650a:	009b      	lsls	r3, r3, #2
    650c:	50d5      	str	r5, [r2, r3]
	LORA02->f_count = 0;
    650e:	4642      	mov	r2, r8
    6510:	6812      	ldr	r2, [r2, #0]
    6512:	50d5      	str	r5, [r2, r3]
	//RS485_RD_Index = 0;
	UserKeyInBufCount = 0;
    6514:	4b80      	ldr	r3, [pc, #512]	; (6718 <main+0x304>)
    6516:	701d      	strb	r5, [r3, #0]
		port_base->OUTSET.reg = pin_mask;
    6518:	465b      	mov	r3, fp
    651a:	61a3      	str	r3, [r4, #24]
    651c:	4653      	mov	r3, sl
    651e:	61a3      	str	r3, [r4, #24]
    6520:	2380      	movs	r3, #128	; 0x80
    6522:	041b      	lsls	r3, r3, #16
    6524:	61a3      	str	r3, [r4, #24]
	*/
	LED_G_OFF
	LED_R_OFF
	LED_B_OFF
	
	LORA01_Reset_Func(false);
    6526:	2000      	movs	r0, #0
    6528:	47b8      	blx	r7
	while (true) 
	{		
		wdt_reset_count();
    652a:	4b64      	ldr	r3, [pc, #400]	; (66bc <main+0x2a8>)
    652c:	4699      	mov	r9, r3
		//usart_read_buffer_job(LORA01, (uint8_t *)LORA01->rx_buffer, MAX_RX_BUFFER_LENGTH);

		LoRA_Timeout_Func(LORA01);
    652e:	4e72      	ldr	r6, [pc, #456]	; (66f8 <main+0x2e4>)
		{
			case UserKeyInEnterIndex:
				Print_Line_Msg();
				for(unsigned char k = 0; k < UserKeyInBufCount; k++)
				{
					if(UserKeyInBuf[k] != 0x0d && ascii_to_hex(UserKeyInBuf[k]) != KEYZ) 
    6530:	4b7a      	ldr	r3, [pc, #488]	; (671c <main+0x308>)
    6532:	469b      	mov	fp, r3
						uTXByte(Debug_COM, UserKeyInBuf[k]);	
    6534:	4b7a      	ldr	r3, [pc, #488]	; (6720 <main+0x30c>)
    6536:	4698      	mov	r8, r3
    6538:	e016      	b.n	6568 <main+0x154>
			ADC_LVD_Temp = (ADC_LVD_Temp + ADC_LVD_Raw) / 2;
    653a:	18c0      	adds	r0, r0, r3
    653c:	0840      	lsrs	r0, r0, #1
    653e:	4b79      	ldr	r3, [pc, #484]	; (6724 <main+0x310>)
    6540:	6018      	str	r0, [r3, #0]
    6542:	e020      	b.n	6586 <main+0x172>
			Print_LowPower_Msg(LORA01);
    6544:	4b6c      	ldr	r3, [pc, #432]	; (66f8 <main+0x2e4>)
    6546:	6818      	ldr	r0, [r3, #0]
    6548:	4b77      	ldr	r3, [pc, #476]	; (6728 <main+0x314>)
    654a:	4798      	blx	r3
			delay_ms(100);
    654c:	2064      	movs	r0, #100	; 0x64
    654e:	4b5e      	ldr	r3, [pc, #376]	; (66c8 <main+0x2b4>)
    6550:	4798      	blx	r3
		Fill_Dev_Time_into_dev_value(LORA01, LORA_Dev_List_Index);		
    6552:	4b69      	ldr	r3, [pc, #420]	; (66f8 <main+0x2e4>)
    6554:	6818      	ldr	r0, [r3, #0]
    6556:	4960      	ldr	r1, [pc, #384]	; (66d8 <main+0x2c4>)
    6558:	4b74      	ldr	r3, [pc, #464]	; (672c <main+0x318>)
    655a:	4798      	blx	r3
		switch(UserKeyInStauts)
    655c:	4b6b      	ldr	r3, [pc, #428]	; (670c <main+0x2f8>)
    655e:	781b      	ldrb	r3, [r3, #0]
    6560:	2b01      	cmp	r3, #1
    6562:	d02c      	beq.n	65be <main+0x1aa>
				
			case NOP:

				break;
		}
		CMD_Func();
    6564:	4b72      	ldr	r3, [pc, #456]	; (6730 <main+0x31c>)
    6566:	4798      	blx	r3
		wdt_reset_count();
    6568:	47c8      	blx	r9
		LoRA_Timeout_Func(LORA01);
    656a:	6830      	ldr	r0, [r6, #0]
    656c:	4b71      	ldr	r3, [pc, #452]	; (6734 <main+0x320>)
    656e:	4798      	blx	r3
		ADC_LVD_Raw = adc_get_val(ADC_LVD);
    6570:	2012      	movs	r0, #18
    6572:	4b71      	ldr	r3, [pc, #452]	; (6738 <main+0x324>)
    6574:	4798      	blx	r3
    6576:	4b71      	ldr	r3, [pc, #452]	; (673c <main+0x328>)
    6578:	6018      	str	r0, [r3, #0]
		if(ADC_LVD_Temp == 0)
    657a:	4b6a      	ldr	r3, [pc, #424]	; (6724 <main+0x310>)
    657c:	681b      	ldr	r3, [r3, #0]
    657e:	2b00      	cmp	r3, #0
    6580:	d1db      	bne.n	653a <main+0x126>
			ADC_LVD_Temp = ADC_LVD_Raw;
    6582:	4b68      	ldr	r3, [pc, #416]	; (6724 <main+0x310>)
    6584:	6018      	str	r0, [r3, #0]
		if(ADC_LVD_Temp > 430) //C3.0VHUʧ@
    6586:	23d7      	movs	r3, #215	; 0xd7
    6588:	005b      	lsls	r3, r3, #1
    658a:	4a66      	ldr	r2, [pc, #408]	; (6724 <main+0x310>)
    658c:	6812      	ldr	r2, [r2, #0]
    658e:	429a      	cmp	r2, r3
    6590:	d9d8      	bls.n	6544 <main+0x130>
			Running_Function();
    6592:	4c6b      	ldr	r4, [pc, #428]	; (6740 <main+0x32c>)
    6594:	47a0      	blx	r4
			Running_Function();
    6596:	47a0      	blx	r4
			Running_Function();
    6598:	47a0      	blx	r4
			wdt_reset_count();
    659a:	4b48      	ldr	r3, [pc, #288]	; (66bc <main+0x2a8>)
    659c:	4798      	blx	r3
			Running_Function();
    659e:	47a0      	blx	r4
			Running_Function();
    65a0:	47a0      	blx	r4
			Running_Function();	
    65a2:	47a0      	blx	r4
			if(	LORA01->LoRa_TxRx_Mode_Flag != SetTx 
    65a4:	4b54      	ldr	r3, [pc, #336]	; (66f8 <main+0x2e4>)
    65a6:	681b      	ldr	r3, [r3, #0]
    65a8:	4a66      	ldr	r2, [pc, #408]	; (6744 <main+0x330>)
    65aa:	5c9a      	ldrb	r2, [r3, r2]
    65ac:	2a02      	cmp	r2, #2
    65ae:	d1d0      	bne.n	6552 <main+0x13e>
				|| LORA01->NowStatus != Write_LoRa_Mode_FQ_Index
    65b0:	4a65      	ldr	r2, [pc, #404]	; (6748 <main+0x334>)
    65b2:	5c9a      	ldrb	r2, [r3, r2]
    65b4:	2a03      	cmp	r2, #3
    65b6:	d1cc      	bne.n	6552 <main+0x13e>
				|| LORA01->NowStatus != Wait_RX_IRQ_Index)	
    65b8:	4a63      	ldr	r2, [pc, #396]	; (6748 <main+0x334>)
    65ba:	5c9b      	ldrb	r3, [r3, r2]
    65bc:	e7c9      	b.n	6552 <main+0x13e>
				Print_Line_Msg();
    65be:	4b63      	ldr	r3, [pc, #396]	; (674c <main+0x338>)
    65c0:	4798      	blx	r3
				for(unsigned char k = 0; k < UserKeyInBufCount; k++)
    65c2:	4b55      	ldr	r3, [pc, #340]	; (6718 <main+0x304>)
    65c4:	781b      	ldrb	r3, [r3, #0]
    65c6:	2b00      	cmp	r3, #0
    65c8:	d020      	beq.n	660c <main+0x1f8>
    65ca:	2400      	movs	r4, #0
					if(UserKeyInBuf[k] != 0x0d && ascii_to_hex(UserKeyInBuf[k]) != KEYZ) 
    65cc:	4f54      	ldr	r7, [pc, #336]	; (6720 <main+0x30c>)
    65ce:	e00b      	b.n	65e8 <main+0x1d4>
					if(ascii_to_hex(UserKeyInBuf[k]) == KEYZ)	
    65d0:	4b53      	ldr	r3, [pc, #332]	; (6720 <main+0x30c>)
    65d2:	5d58      	ldrb	r0, [r3, r5]
    65d4:	4b51      	ldr	r3, [pc, #324]	; (671c <main+0x308>)
    65d6:	4798      	blx	r3
    65d8:	2823      	cmp	r0, #35	; 0x23
    65da:	d012      	beq.n	6602 <main+0x1ee>
				for(unsigned char k = 0; k < UserKeyInBufCount; k++)
    65dc:	3401      	adds	r4, #1
    65de:	b2e4      	uxtb	r4, r4
    65e0:	4b4d      	ldr	r3, [pc, #308]	; (6718 <main+0x304>)
    65e2:	781b      	ldrb	r3, [r3, #0]
    65e4:	42a3      	cmp	r3, r4
    65e6:	d911      	bls.n	660c <main+0x1f8>
					if(UserKeyInBuf[k] != 0x0d && ascii_to_hex(UserKeyInBuf[k]) != KEYZ) 
    65e8:	0025      	movs	r5, r4
    65ea:	5d38      	ldrb	r0, [r7, r4]
    65ec:	280d      	cmp	r0, #13
    65ee:	d0ef      	beq.n	65d0 <main+0x1bc>
    65f0:	47d8      	blx	fp
    65f2:	2823      	cmp	r0, #35	; 0x23
    65f4:	d0ec      	beq.n	65d0 <main+0x1bc>
						uTXByte(Debug_COM, UserKeyInBuf[k]);	
    65f6:	4643      	mov	r3, r8
    65f8:	5d19      	ldrb	r1, [r3, r4]
    65fa:	4855      	ldr	r0, [pc, #340]	; (6750 <main+0x33c>)
    65fc:	4b55      	ldr	r3, [pc, #340]	; (6754 <main+0x340>)
    65fe:	4798      	blx	r3
    6600:	e7e6      	b.n	65d0 <main+0x1bc>
						uTXByte(Debug_COM, 'P');	//קKPC COM PORT~{
    6602:	2150      	movs	r1, #80	; 0x50
    6604:	4852      	ldr	r0, [pc, #328]	; (6750 <main+0x33c>)
    6606:	4b53      	ldr	r3, [pc, #332]	; (6754 <main+0x340>)
    6608:	4798      	blx	r3
    660a:	e7e7      	b.n	65dc <main+0x1c8>
				uTXByte(Debug_COM, 0x09);
    660c:	4d50      	ldr	r5, [pc, #320]	; (6750 <main+0x33c>)
    660e:	2109      	movs	r1, #9
    6610:	0028      	movs	r0, r5
    6612:	4c50      	ldr	r4, [pc, #320]	; (6754 <main+0x340>)
    6614:	47a0      	blx	r4
				uTXByte(Debug_COM, '-');
    6616:	212d      	movs	r1, #45	; 0x2d
    6618:	0028      	movs	r0, r5
    661a:	47a0      	blx	r4
				uart_send_word(Debug_COM, hex_to_bcd(UserKeyInBufCount));
    661c:	4b3e      	ldr	r3, [pc, #248]	; (6718 <main+0x304>)
    661e:	469a      	mov	sl, r3
    6620:	7818      	ldrb	r0, [r3, #0]
    6622:	4b4d      	ldr	r3, [pc, #308]	; (6758 <main+0x344>)
    6624:	4798      	blx	r3
    6626:	0001      	movs	r1, r0
    6628:	0028      	movs	r0, r5
    662a:	4b4c      	ldr	r3, [pc, #304]	; (675c <main+0x348>)
    662c:	4798      	blx	r3
				uTXByte(Debug_COM, 0x0d);
    662e:	210d      	movs	r1, #13
    6630:	0028      	movs	r0, r5
    6632:	47a0      	blx	r4
				Print_Line_Msg();
    6634:	4b45      	ldr	r3, [pc, #276]	; (674c <main+0x338>)
    6636:	4798      	blx	r3
				Judg_KEY_D();
    6638:	4b49      	ldr	r3, [pc, #292]	; (6760 <main+0x34c>)
    663a:	4798      	blx	r3
				Judg_KEY_S();
    663c:	4b49      	ldr	r3, [pc, #292]	; (6764 <main+0x350>)
    663e:	4798      	blx	r3
				Judg_KEY_L(LORA_Dev_List_Index);
    6640:	4c25      	ldr	r4, [pc, #148]	; (66d8 <main+0x2c4>)
    6642:	0020      	movs	r0, r4
    6644:	4b48      	ldr	r3, [pc, #288]	; (6768 <main+0x354>)
    6646:	4798      	blx	r3
				Judg_KEY_E(LORA_Dev_List_Index);
    6648:	0020      	movs	r0, r4
    664a:	4b48      	ldr	r3, [pc, #288]	; (676c <main+0x358>)
    664c:	4798      	blx	r3
				Judg_KEY_ADD(LORA_Dev_List_Index);
    664e:	0020      	movs	r0, r4
    6650:	4b47      	ldr	r3, [pc, #284]	; (6770 <main+0x35c>)
    6652:	4798      	blx	r3
				Judg_KEY_DL(LORA_Dev_List_Index);
    6654:	0020      	movs	r0, r4
    6656:	4b47      	ldr	r3, [pc, #284]	; (6774 <main+0x360>)
    6658:	4798      	blx	r3
				Judg_KEY_SHOW();
    665a:	4b47      	ldr	r3, [pc, #284]	; (6778 <main+0x364>)
    665c:	4798      	blx	r3
				Judg_KEY_PSHOW();
    665e:	4b47      	ldr	r3, [pc, #284]	; (677c <main+0x368>)
    6660:	4798      	blx	r3
				Judg_KEY_T(LORA_Dev_List_Index);
    6662:	0020      	movs	r0, r4
    6664:	4b46      	ldr	r3, [pc, #280]	; (6780 <main+0x36c>)
    6666:	4798      	blx	r3
				Judg_KEY_W();							// PC Write DATA TO PCB
    6668:	4b46      	ldr	r3, [pc, #280]	; (6784 <main+0x370>)
    666a:	4798      	blx	r3
				Judg_KEY_P();
    666c:	4b46      	ldr	r3, [pc, #280]	; (6788 <main+0x374>)
    666e:	4798      	blx	r3
				Judg_KEY_PDL();
    6670:	4b46      	ldr	r3, [pc, #280]	; (678c <main+0x378>)
    6672:	4798      	blx	r3
				Judg_KEY_CH();
    6674:	4b46      	ldr	r3, [pc, #280]	; (6790 <main+0x37c>)
    6676:	4798      	blx	r3
				UserKeyInStauts = NOP;
    6678:	2300      	movs	r3, #0
    667a:	4a24      	ldr	r2, [pc, #144]	; (670c <main+0x2f8>)
    667c:	7013      	strb	r3, [r2, #0]
				UserKeyInBufCount = 0;
    667e:	4652      	mov	r2, sl
    6680:	7013      	strb	r3, [r2, #0]
				break;
    6682:	e76f      	b.n	6564 <main+0x150>
    6684:	0000627d 	.word	0x0000627d
    6688:	000053fd 	.word	0x000053fd
    668c:	00001915 	.word	0x00001915
    6690:	41004400 	.word	0x41004400
    6694:	00005251 	.word	0x00005251
    6698:	000053b1 	.word	0x000053b1
    669c:	000033a1 	.word	0x000033a1
    66a0:	000051a5 	.word	0x000051a5
    66a4:	0000400d 	.word	0x0000400d
    66a8:	0000404d 	.word	0x0000404d
    66ac:	00003355 	.word	0x00003355
    66b0:	00003381 	.word	0x00003381
    66b4:	00002491 	.word	0x00002491
    66b8:	200001c8 	.word	0x200001c8
    66bc:	00003f4d 	.word	0x00003f4d
    66c0:	00001809 	.word	0x00001809
    66c4:	00001825 	.word	0x00001825
    66c8:	0000543d 	.word	0x0000543d
    66cc:	00001841 	.word	0x00001841
    66d0:	0000189d 	.word	0x0000189d
    66d4:	00002bbd 	.word	0x00002bbd
    66d8:	20000f00 	.word	0x20000f00
    66dc:	00002ef5 	.word	0x00002ef5
    66e0:	00002ebd 	.word	0x00002ebd
    66e4:	0000255d 	.word	0x0000255d
    66e8:	00001fd9 	.word	0x00001fd9
    66ec:	20000328 	.word	0x20000328
    66f0:	00002691 	.word	0x00002691
    66f4:	00003061 	.word	0x00003061
    66f8:	200018bc 	.word	0x200018bc
    66fc:	00002d69 	.word	0x00002d69
    6700:	20000c90 	.word	0x20000c90
    6704:	00002c59 	.word	0x00002c59
    6708:	0000204d 	.word	0x0000204d
    670c:	20000c94 	.word	0x20000c94
    6710:	200027ac 	.word	0x200027ac
    6714:	00001805 	.word	0x00001805
    6718:	20000322 	.word	0x20000322
    671c:	0000283d 	.word	0x0000283d
    6720:	200002d4 	.word	0x200002d4
    6724:	20001914 	.word	0x20001914
    6728:	00004b29 	.word	0x00004b29
    672c:	00002f65 	.word	0x00002f65
    6730:	00002b45 	.word	0x00002b45
    6734:	00006399 	.word	0x00006399
    6738:	000033f1 	.word	0x000033f1
    673c:	20000c8c 	.word	0x20000c8c
    6740:	00006365 	.word	0x00006365
    6744:	0000022a 	.word	0x0000022a
    6748:	0000021d 	.word	0x0000021d
    674c:	0000304d 	.word	0x0000304d
    6750:	20000270 	.word	0x20000270
    6754:	00002725 	.word	0x00002725
    6758:	000029e5 	.word	0x000029e5
    675c:	000027b9 	.word	0x000027b9
    6760:	00000791 	.word	0x00000791
    6764:	000014bd 	.word	0x000014bd
    6768:	00000c79 	.word	0x00000c79
    676c:	00000b79 	.word	0x00000b79
    6770:	0000039d 	.word	0x0000039d
    6774:	00000805 	.word	0x00000805
    6778:	00001671 	.word	0x00001671
    677c:	000011c9 	.word	0x000011c9
    6780:	000016f5 	.word	0x000016f5
    6784:	00002fc1 	.word	0x00002fc1
    6788:	00000e45 	.word	0x00000e45
    678c:	00001099 	.word	0x00001099
    6790:	000004c9 	.word	0x000004c9

00006794 <__udivsi3>:
    6794:	2200      	movs	r2, #0
    6796:	0843      	lsrs	r3, r0, #1
    6798:	428b      	cmp	r3, r1
    679a:	d374      	bcc.n	6886 <__udivsi3+0xf2>
    679c:	0903      	lsrs	r3, r0, #4
    679e:	428b      	cmp	r3, r1
    67a0:	d35f      	bcc.n	6862 <__udivsi3+0xce>
    67a2:	0a03      	lsrs	r3, r0, #8
    67a4:	428b      	cmp	r3, r1
    67a6:	d344      	bcc.n	6832 <__udivsi3+0x9e>
    67a8:	0b03      	lsrs	r3, r0, #12
    67aa:	428b      	cmp	r3, r1
    67ac:	d328      	bcc.n	6800 <__udivsi3+0x6c>
    67ae:	0c03      	lsrs	r3, r0, #16
    67b0:	428b      	cmp	r3, r1
    67b2:	d30d      	bcc.n	67d0 <__udivsi3+0x3c>
    67b4:	22ff      	movs	r2, #255	; 0xff
    67b6:	0209      	lsls	r1, r1, #8
    67b8:	ba12      	rev	r2, r2
    67ba:	0c03      	lsrs	r3, r0, #16
    67bc:	428b      	cmp	r3, r1
    67be:	d302      	bcc.n	67c6 <__udivsi3+0x32>
    67c0:	1212      	asrs	r2, r2, #8
    67c2:	0209      	lsls	r1, r1, #8
    67c4:	d065      	beq.n	6892 <__udivsi3+0xfe>
    67c6:	0b03      	lsrs	r3, r0, #12
    67c8:	428b      	cmp	r3, r1
    67ca:	d319      	bcc.n	6800 <__udivsi3+0x6c>
    67cc:	e000      	b.n	67d0 <__udivsi3+0x3c>
    67ce:	0a09      	lsrs	r1, r1, #8
    67d0:	0bc3      	lsrs	r3, r0, #15
    67d2:	428b      	cmp	r3, r1
    67d4:	d301      	bcc.n	67da <__udivsi3+0x46>
    67d6:	03cb      	lsls	r3, r1, #15
    67d8:	1ac0      	subs	r0, r0, r3
    67da:	4152      	adcs	r2, r2
    67dc:	0b83      	lsrs	r3, r0, #14
    67de:	428b      	cmp	r3, r1
    67e0:	d301      	bcc.n	67e6 <__udivsi3+0x52>
    67e2:	038b      	lsls	r3, r1, #14
    67e4:	1ac0      	subs	r0, r0, r3
    67e6:	4152      	adcs	r2, r2
    67e8:	0b43      	lsrs	r3, r0, #13
    67ea:	428b      	cmp	r3, r1
    67ec:	d301      	bcc.n	67f2 <__udivsi3+0x5e>
    67ee:	034b      	lsls	r3, r1, #13
    67f0:	1ac0      	subs	r0, r0, r3
    67f2:	4152      	adcs	r2, r2
    67f4:	0b03      	lsrs	r3, r0, #12
    67f6:	428b      	cmp	r3, r1
    67f8:	d301      	bcc.n	67fe <__udivsi3+0x6a>
    67fa:	030b      	lsls	r3, r1, #12
    67fc:	1ac0      	subs	r0, r0, r3
    67fe:	4152      	adcs	r2, r2
    6800:	0ac3      	lsrs	r3, r0, #11
    6802:	428b      	cmp	r3, r1
    6804:	d301      	bcc.n	680a <__udivsi3+0x76>
    6806:	02cb      	lsls	r3, r1, #11
    6808:	1ac0      	subs	r0, r0, r3
    680a:	4152      	adcs	r2, r2
    680c:	0a83      	lsrs	r3, r0, #10
    680e:	428b      	cmp	r3, r1
    6810:	d301      	bcc.n	6816 <__udivsi3+0x82>
    6812:	028b      	lsls	r3, r1, #10
    6814:	1ac0      	subs	r0, r0, r3
    6816:	4152      	adcs	r2, r2
    6818:	0a43      	lsrs	r3, r0, #9
    681a:	428b      	cmp	r3, r1
    681c:	d301      	bcc.n	6822 <__udivsi3+0x8e>
    681e:	024b      	lsls	r3, r1, #9
    6820:	1ac0      	subs	r0, r0, r3
    6822:	4152      	adcs	r2, r2
    6824:	0a03      	lsrs	r3, r0, #8
    6826:	428b      	cmp	r3, r1
    6828:	d301      	bcc.n	682e <__udivsi3+0x9a>
    682a:	020b      	lsls	r3, r1, #8
    682c:	1ac0      	subs	r0, r0, r3
    682e:	4152      	adcs	r2, r2
    6830:	d2cd      	bcs.n	67ce <__udivsi3+0x3a>
    6832:	09c3      	lsrs	r3, r0, #7
    6834:	428b      	cmp	r3, r1
    6836:	d301      	bcc.n	683c <__udivsi3+0xa8>
    6838:	01cb      	lsls	r3, r1, #7
    683a:	1ac0      	subs	r0, r0, r3
    683c:	4152      	adcs	r2, r2
    683e:	0983      	lsrs	r3, r0, #6
    6840:	428b      	cmp	r3, r1
    6842:	d301      	bcc.n	6848 <__udivsi3+0xb4>
    6844:	018b      	lsls	r3, r1, #6
    6846:	1ac0      	subs	r0, r0, r3
    6848:	4152      	adcs	r2, r2
    684a:	0943      	lsrs	r3, r0, #5
    684c:	428b      	cmp	r3, r1
    684e:	d301      	bcc.n	6854 <__udivsi3+0xc0>
    6850:	014b      	lsls	r3, r1, #5
    6852:	1ac0      	subs	r0, r0, r3
    6854:	4152      	adcs	r2, r2
    6856:	0903      	lsrs	r3, r0, #4
    6858:	428b      	cmp	r3, r1
    685a:	d301      	bcc.n	6860 <__udivsi3+0xcc>
    685c:	010b      	lsls	r3, r1, #4
    685e:	1ac0      	subs	r0, r0, r3
    6860:	4152      	adcs	r2, r2
    6862:	08c3      	lsrs	r3, r0, #3
    6864:	428b      	cmp	r3, r1
    6866:	d301      	bcc.n	686c <__udivsi3+0xd8>
    6868:	00cb      	lsls	r3, r1, #3
    686a:	1ac0      	subs	r0, r0, r3
    686c:	4152      	adcs	r2, r2
    686e:	0883      	lsrs	r3, r0, #2
    6870:	428b      	cmp	r3, r1
    6872:	d301      	bcc.n	6878 <__udivsi3+0xe4>
    6874:	008b      	lsls	r3, r1, #2
    6876:	1ac0      	subs	r0, r0, r3
    6878:	4152      	adcs	r2, r2
    687a:	0843      	lsrs	r3, r0, #1
    687c:	428b      	cmp	r3, r1
    687e:	d301      	bcc.n	6884 <__udivsi3+0xf0>
    6880:	004b      	lsls	r3, r1, #1
    6882:	1ac0      	subs	r0, r0, r3
    6884:	4152      	adcs	r2, r2
    6886:	1a41      	subs	r1, r0, r1
    6888:	d200      	bcs.n	688c <__udivsi3+0xf8>
    688a:	4601      	mov	r1, r0
    688c:	4152      	adcs	r2, r2
    688e:	4610      	mov	r0, r2
    6890:	4770      	bx	lr
    6892:	e7ff      	b.n	6894 <__udivsi3+0x100>
    6894:	b501      	push	{r0, lr}
    6896:	2000      	movs	r0, #0
    6898:	f000 f8f0 	bl	6a7c <__aeabi_idiv0>
    689c:	bd02      	pop	{r1, pc}
    689e:	46c0      	nop			; (mov r8, r8)

000068a0 <__aeabi_uidivmod>:
    68a0:	2900      	cmp	r1, #0
    68a2:	d0f7      	beq.n	6894 <__udivsi3+0x100>
    68a4:	e776      	b.n	6794 <__udivsi3>
    68a6:	4770      	bx	lr

000068a8 <__divsi3>:
    68a8:	4603      	mov	r3, r0
    68aa:	430b      	orrs	r3, r1
    68ac:	d47f      	bmi.n	69ae <__divsi3+0x106>
    68ae:	2200      	movs	r2, #0
    68b0:	0843      	lsrs	r3, r0, #1
    68b2:	428b      	cmp	r3, r1
    68b4:	d374      	bcc.n	69a0 <__divsi3+0xf8>
    68b6:	0903      	lsrs	r3, r0, #4
    68b8:	428b      	cmp	r3, r1
    68ba:	d35f      	bcc.n	697c <__divsi3+0xd4>
    68bc:	0a03      	lsrs	r3, r0, #8
    68be:	428b      	cmp	r3, r1
    68c0:	d344      	bcc.n	694c <__divsi3+0xa4>
    68c2:	0b03      	lsrs	r3, r0, #12
    68c4:	428b      	cmp	r3, r1
    68c6:	d328      	bcc.n	691a <__divsi3+0x72>
    68c8:	0c03      	lsrs	r3, r0, #16
    68ca:	428b      	cmp	r3, r1
    68cc:	d30d      	bcc.n	68ea <__divsi3+0x42>
    68ce:	22ff      	movs	r2, #255	; 0xff
    68d0:	0209      	lsls	r1, r1, #8
    68d2:	ba12      	rev	r2, r2
    68d4:	0c03      	lsrs	r3, r0, #16
    68d6:	428b      	cmp	r3, r1
    68d8:	d302      	bcc.n	68e0 <__divsi3+0x38>
    68da:	1212      	asrs	r2, r2, #8
    68dc:	0209      	lsls	r1, r1, #8
    68de:	d065      	beq.n	69ac <__divsi3+0x104>
    68e0:	0b03      	lsrs	r3, r0, #12
    68e2:	428b      	cmp	r3, r1
    68e4:	d319      	bcc.n	691a <__divsi3+0x72>
    68e6:	e000      	b.n	68ea <__divsi3+0x42>
    68e8:	0a09      	lsrs	r1, r1, #8
    68ea:	0bc3      	lsrs	r3, r0, #15
    68ec:	428b      	cmp	r3, r1
    68ee:	d301      	bcc.n	68f4 <__divsi3+0x4c>
    68f0:	03cb      	lsls	r3, r1, #15
    68f2:	1ac0      	subs	r0, r0, r3
    68f4:	4152      	adcs	r2, r2
    68f6:	0b83      	lsrs	r3, r0, #14
    68f8:	428b      	cmp	r3, r1
    68fa:	d301      	bcc.n	6900 <__divsi3+0x58>
    68fc:	038b      	lsls	r3, r1, #14
    68fe:	1ac0      	subs	r0, r0, r3
    6900:	4152      	adcs	r2, r2
    6902:	0b43      	lsrs	r3, r0, #13
    6904:	428b      	cmp	r3, r1
    6906:	d301      	bcc.n	690c <__divsi3+0x64>
    6908:	034b      	lsls	r3, r1, #13
    690a:	1ac0      	subs	r0, r0, r3
    690c:	4152      	adcs	r2, r2
    690e:	0b03      	lsrs	r3, r0, #12
    6910:	428b      	cmp	r3, r1
    6912:	d301      	bcc.n	6918 <__divsi3+0x70>
    6914:	030b      	lsls	r3, r1, #12
    6916:	1ac0      	subs	r0, r0, r3
    6918:	4152      	adcs	r2, r2
    691a:	0ac3      	lsrs	r3, r0, #11
    691c:	428b      	cmp	r3, r1
    691e:	d301      	bcc.n	6924 <__divsi3+0x7c>
    6920:	02cb      	lsls	r3, r1, #11
    6922:	1ac0      	subs	r0, r0, r3
    6924:	4152      	adcs	r2, r2
    6926:	0a83      	lsrs	r3, r0, #10
    6928:	428b      	cmp	r3, r1
    692a:	d301      	bcc.n	6930 <__divsi3+0x88>
    692c:	028b      	lsls	r3, r1, #10
    692e:	1ac0      	subs	r0, r0, r3
    6930:	4152      	adcs	r2, r2
    6932:	0a43      	lsrs	r3, r0, #9
    6934:	428b      	cmp	r3, r1
    6936:	d301      	bcc.n	693c <__divsi3+0x94>
    6938:	024b      	lsls	r3, r1, #9
    693a:	1ac0      	subs	r0, r0, r3
    693c:	4152      	adcs	r2, r2
    693e:	0a03      	lsrs	r3, r0, #8
    6940:	428b      	cmp	r3, r1
    6942:	d301      	bcc.n	6948 <__divsi3+0xa0>
    6944:	020b      	lsls	r3, r1, #8
    6946:	1ac0      	subs	r0, r0, r3
    6948:	4152      	adcs	r2, r2
    694a:	d2cd      	bcs.n	68e8 <__divsi3+0x40>
    694c:	09c3      	lsrs	r3, r0, #7
    694e:	428b      	cmp	r3, r1
    6950:	d301      	bcc.n	6956 <__divsi3+0xae>
    6952:	01cb      	lsls	r3, r1, #7
    6954:	1ac0      	subs	r0, r0, r3
    6956:	4152      	adcs	r2, r2
    6958:	0983      	lsrs	r3, r0, #6
    695a:	428b      	cmp	r3, r1
    695c:	d301      	bcc.n	6962 <__divsi3+0xba>
    695e:	018b      	lsls	r3, r1, #6
    6960:	1ac0      	subs	r0, r0, r3
    6962:	4152      	adcs	r2, r2
    6964:	0943      	lsrs	r3, r0, #5
    6966:	428b      	cmp	r3, r1
    6968:	d301      	bcc.n	696e <__divsi3+0xc6>
    696a:	014b      	lsls	r3, r1, #5
    696c:	1ac0      	subs	r0, r0, r3
    696e:	4152      	adcs	r2, r2
    6970:	0903      	lsrs	r3, r0, #4
    6972:	428b      	cmp	r3, r1
    6974:	d301      	bcc.n	697a <__divsi3+0xd2>
    6976:	010b      	lsls	r3, r1, #4
    6978:	1ac0      	subs	r0, r0, r3
    697a:	4152      	adcs	r2, r2
    697c:	08c3      	lsrs	r3, r0, #3
    697e:	428b      	cmp	r3, r1
    6980:	d301      	bcc.n	6986 <__divsi3+0xde>
    6982:	00cb      	lsls	r3, r1, #3
    6984:	1ac0      	subs	r0, r0, r3
    6986:	4152      	adcs	r2, r2
    6988:	0883      	lsrs	r3, r0, #2
    698a:	428b      	cmp	r3, r1
    698c:	d301      	bcc.n	6992 <__divsi3+0xea>
    698e:	008b      	lsls	r3, r1, #2
    6990:	1ac0      	subs	r0, r0, r3
    6992:	4152      	adcs	r2, r2
    6994:	0843      	lsrs	r3, r0, #1
    6996:	428b      	cmp	r3, r1
    6998:	d301      	bcc.n	699e <__divsi3+0xf6>
    699a:	004b      	lsls	r3, r1, #1
    699c:	1ac0      	subs	r0, r0, r3
    699e:	4152      	adcs	r2, r2
    69a0:	1a41      	subs	r1, r0, r1
    69a2:	d200      	bcs.n	69a6 <__divsi3+0xfe>
    69a4:	4601      	mov	r1, r0
    69a6:	4152      	adcs	r2, r2
    69a8:	4610      	mov	r0, r2
    69aa:	4770      	bx	lr
    69ac:	e05d      	b.n	6a6a <__divsi3+0x1c2>
    69ae:	0fca      	lsrs	r2, r1, #31
    69b0:	d000      	beq.n	69b4 <__divsi3+0x10c>
    69b2:	4249      	negs	r1, r1
    69b4:	1003      	asrs	r3, r0, #32
    69b6:	d300      	bcc.n	69ba <__divsi3+0x112>
    69b8:	4240      	negs	r0, r0
    69ba:	4053      	eors	r3, r2
    69bc:	2200      	movs	r2, #0
    69be:	469c      	mov	ip, r3
    69c0:	0903      	lsrs	r3, r0, #4
    69c2:	428b      	cmp	r3, r1
    69c4:	d32d      	bcc.n	6a22 <__divsi3+0x17a>
    69c6:	0a03      	lsrs	r3, r0, #8
    69c8:	428b      	cmp	r3, r1
    69ca:	d312      	bcc.n	69f2 <__divsi3+0x14a>
    69cc:	22fc      	movs	r2, #252	; 0xfc
    69ce:	0189      	lsls	r1, r1, #6
    69d0:	ba12      	rev	r2, r2
    69d2:	0a03      	lsrs	r3, r0, #8
    69d4:	428b      	cmp	r3, r1
    69d6:	d30c      	bcc.n	69f2 <__divsi3+0x14a>
    69d8:	0189      	lsls	r1, r1, #6
    69da:	1192      	asrs	r2, r2, #6
    69dc:	428b      	cmp	r3, r1
    69de:	d308      	bcc.n	69f2 <__divsi3+0x14a>
    69e0:	0189      	lsls	r1, r1, #6
    69e2:	1192      	asrs	r2, r2, #6
    69e4:	428b      	cmp	r3, r1
    69e6:	d304      	bcc.n	69f2 <__divsi3+0x14a>
    69e8:	0189      	lsls	r1, r1, #6
    69ea:	d03a      	beq.n	6a62 <__divsi3+0x1ba>
    69ec:	1192      	asrs	r2, r2, #6
    69ee:	e000      	b.n	69f2 <__divsi3+0x14a>
    69f0:	0989      	lsrs	r1, r1, #6
    69f2:	09c3      	lsrs	r3, r0, #7
    69f4:	428b      	cmp	r3, r1
    69f6:	d301      	bcc.n	69fc <__divsi3+0x154>
    69f8:	01cb      	lsls	r3, r1, #7
    69fa:	1ac0      	subs	r0, r0, r3
    69fc:	4152      	adcs	r2, r2
    69fe:	0983      	lsrs	r3, r0, #6
    6a00:	428b      	cmp	r3, r1
    6a02:	d301      	bcc.n	6a08 <__divsi3+0x160>
    6a04:	018b      	lsls	r3, r1, #6
    6a06:	1ac0      	subs	r0, r0, r3
    6a08:	4152      	adcs	r2, r2
    6a0a:	0943      	lsrs	r3, r0, #5
    6a0c:	428b      	cmp	r3, r1
    6a0e:	d301      	bcc.n	6a14 <__divsi3+0x16c>
    6a10:	014b      	lsls	r3, r1, #5
    6a12:	1ac0      	subs	r0, r0, r3
    6a14:	4152      	adcs	r2, r2
    6a16:	0903      	lsrs	r3, r0, #4
    6a18:	428b      	cmp	r3, r1
    6a1a:	d301      	bcc.n	6a20 <__divsi3+0x178>
    6a1c:	010b      	lsls	r3, r1, #4
    6a1e:	1ac0      	subs	r0, r0, r3
    6a20:	4152      	adcs	r2, r2
    6a22:	08c3      	lsrs	r3, r0, #3
    6a24:	428b      	cmp	r3, r1
    6a26:	d301      	bcc.n	6a2c <__divsi3+0x184>
    6a28:	00cb      	lsls	r3, r1, #3
    6a2a:	1ac0      	subs	r0, r0, r3
    6a2c:	4152      	adcs	r2, r2
    6a2e:	0883      	lsrs	r3, r0, #2
    6a30:	428b      	cmp	r3, r1
    6a32:	d301      	bcc.n	6a38 <__divsi3+0x190>
    6a34:	008b      	lsls	r3, r1, #2
    6a36:	1ac0      	subs	r0, r0, r3
    6a38:	4152      	adcs	r2, r2
    6a3a:	d2d9      	bcs.n	69f0 <__divsi3+0x148>
    6a3c:	0843      	lsrs	r3, r0, #1
    6a3e:	428b      	cmp	r3, r1
    6a40:	d301      	bcc.n	6a46 <__divsi3+0x19e>
    6a42:	004b      	lsls	r3, r1, #1
    6a44:	1ac0      	subs	r0, r0, r3
    6a46:	4152      	adcs	r2, r2
    6a48:	1a41      	subs	r1, r0, r1
    6a4a:	d200      	bcs.n	6a4e <__divsi3+0x1a6>
    6a4c:	4601      	mov	r1, r0
    6a4e:	4663      	mov	r3, ip
    6a50:	4152      	adcs	r2, r2
    6a52:	105b      	asrs	r3, r3, #1
    6a54:	4610      	mov	r0, r2
    6a56:	d301      	bcc.n	6a5c <__divsi3+0x1b4>
    6a58:	4240      	negs	r0, r0
    6a5a:	2b00      	cmp	r3, #0
    6a5c:	d500      	bpl.n	6a60 <__divsi3+0x1b8>
    6a5e:	4249      	negs	r1, r1
    6a60:	4770      	bx	lr
    6a62:	4663      	mov	r3, ip
    6a64:	105b      	asrs	r3, r3, #1
    6a66:	d300      	bcc.n	6a6a <__divsi3+0x1c2>
    6a68:	4240      	negs	r0, r0
    6a6a:	b501      	push	{r0, lr}
    6a6c:	2000      	movs	r0, #0
    6a6e:	f000 f805 	bl	6a7c <__aeabi_idiv0>
    6a72:	bd02      	pop	{r1, pc}

00006a74 <__aeabi_idivmod>:
    6a74:	2900      	cmp	r1, #0
    6a76:	d0f8      	beq.n	6a6a <__divsi3+0x1c2>
    6a78:	e716      	b.n	68a8 <__divsi3>
    6a7a:	4770      	bx	lr

00006a7c <__aeabi_idiv0>:
    6a7c:	4770      	bx	lr
    6a7e:	46c0      	nop			; (mov r8, r8)

00006a80 <__aeabi_lmul>:
    6a80:	b5f0      	push	{r4, r5, r6, r7, lr}
    6a82:	46ce      	mov	lr, r9
    6a84:	4647      	mov	r7, r8
    6a86:	0415      	lsls	r5, r2, #16
    6a88:	0c2d      	lsrs	r5, r5, #16
    6a8a:	002e      	movs	r6, r5
    6a8c:	b580      	push	{r7, lr}
    6a8e:	0407      	lsls	r7, r0, #16
    6a90:	0c14      	lsrs	r4, r2, #16
    6a92:	0c3f      	lsrs	r7, r7, #16
    6a94:	4699      	mov	r9, r3
    6a96:	0c03      	lsrs	r3, r0, #16
    6a98:	437e      	muls	r6, r7
    6a9a:	435d      	muls	r5, r3
    6a9c:	4367      	muls	r7, r4
    6a9e:	4363      	muls	r3, r4
    6aa0:	197f      	adds	r7, r7, r5
    6aa2:	0c34      	lsrs	r4, r6, #16
    6aa4:	19e4      	adds	r4, r4, r7
    6aa6:	469c      	mov	ip, r3
    6aa8:	42a5      	cmp	r5, r4
    6aaa:	d903      	bls.n	6ab4 <__aeabi_lmul+0x34>
    6aac:	2380      	movs	r3, #128	; 0x80
    6aae:	025b      	lsls	r3, r3, #9
    6ab0:	4698      	mov	r8, r3
    6ab2:	44c4      	add	ip, r8
    6ab4:	464b      	mov	r3, r9
    6ab6:	4351      	muls	r1, r2
    6ab8:	4343      	muls	r3, r0
    6aba:	0436      	lsls	r6, r6, #16
    6abc:	0c36      	lsrs	r6, r6, #16
    6abe:	0c25      	lsrs	r5, r4, #16
    6ac0:	0424      	lsls	r4, r4, #16
    6ac2:	4465      	add	r5, ip
    6ac4:	19a4      	adds	r4, r4, r6
    6ac6:	1859      	adds	r1, r3, r1
    6ac8:	1949      	adds	r1, r1, r5
    6aca:	0020      	movs	r0, r4
    6acc:	bc0c      	pop	{r2, r3}
    6ace:	4690      	mov	r8, r2
    6ad0:	4699      	mov	r9, r3
    6ad2:	bdf0      	pop	{r4, r5, r6, r7, pc}

00006ad4 <__libc_init_array>:
    6ad4:	b570      	push	{r4, r5, r6, lr}
    6ad6:	2600      	movs	r6, #0
    6ad8:	4d0c      	ldr	r5, [pc, #48]	; (6b0c <__libc_init_array+0x38>)
    6ada:	4c0d      	ldr	r4, [pc, #52]	; (6b10 <__libc_init_array+0x3c>)
    6adc:	1b64      	subs	r4, r4, r5
    6ade:	10a4      	asrs	r4, r4, #2
    6ae0:	42a6      	cmp	r6, r4
    6ae2:	d109      	bne.n	6af8 <__libc_init_array+0x24>
    6ae4:	2600      	movs	r6, #0
    6ae6:	f000 fc2b 	bl	7340 <_init>
    6aea:	4d0a      	ldr	r5, [pc, #40]	; (6b14 <__libc_init_array+0x40>)
    6aec:	4c0a      	ldr	r4, [pc, #40]	; (6b18 <__libc_init_array+0x44>)
    6aee:	1b64      	subs	r4, r4, r5
    6af0:	10a4      	asrs	r4, r4, #2
    6af2:	42a6      	cmp	r6, r4
    6af4:	d105      	bne.n	6b02 <__libc_init_array+0x2e>
    6af6:	bd70      	pop	{r4, r5, r6, pc}
    6af8:	00b3      	lsls	r3, r6, #2
    6afa:	58eb      	ldr	r3, [r5, r3]
    6afc:	4798      	blx	r3
    6afe:	3601      	adds	r6, #1
    6b00:	e7ee      	b.n	6ae0 <__libc_init_array+0xc>
    6b02:	00b3      	lsls	r3, r6, #2
    6b04:	58eb      	ldr	r3, [r5, r3]
    6b06:	4798      	blx	r3
    6b08:	3601      	adds	r6, #1
    6b0a:	e7f2      	b.n	6af2 <__libc_init_array+0x1e>
    6b0c:	0000734c 	.word	0x0000734c
    6b10:	0000734c 	.word	0x0000734c
    6b14:	0000734c 	.word	0x0000734c
    6b18:	00007350 	.word	0x00007350

00006b1c <memcpy>:
    6b1c:	2300      	movs	r3, #0
    6b1e:	b510      	push	{r4, lr}
    6b20:	429a      	cmp	r2, r3
    6b22:	d100      	bne.n	6b26 <memcpy+0xa>
    6b24:	bd10      	pop	{r4, pc}
    6b26:	5ccc      	ldrb	r4, [r1, r3]
    6b28:	54c4      	strb	r4, [r0, r3]
    6b2a:	3301      	adds	r3, #1
    6b2c:	e7f8      	b.n	6b20 <memcpy+0x4>
    6b2e:	0000      	movs	r0, r0
    6b30:	00000214 	.word	0x00000214
    6b34:	00000214 	.word	0x00000214
    6b38:	000001f0 	.word	0x000001f0
    6b3c:	00000214 	.word	0x00000214
    6b40:	000001f0 	.word	0x000001f0
    6b44:	000001d6 	.word	0x000001d6
    6b48:	000001d6 	.word	0x000001d6
    6b4c:	00000214 	.word	0x00000214
    6b50:	00000214 	.word	0x00000214
    6b54:	00000214 	.word	0x00000214
    6b58:	00000214 	.word	0x00000214
    6b5c:	00000214 	.word	0x00000214
    6b60:	00000214 	.word	0x00000214
    6b64:	00000214 	.word	0x00000214
    6b68:	00000214 	.word	0x00000214
    6b6c:	00000214 	.word	0x00000214
    6b70:	00000214 	.word	0x00000214
    6b74:	00000214 	.word	0x00000214
    6b78:	00000214 	.word	0x00000214
    6b7c:	00000214 	.word	0x00000214
    6b80:	00000214 	.word	0x00000214
    6b84:	00000214 	.word	0x00000214
    6b88:	00000214 	.word	0x00000214
    6b8c:	00000214 	.word	0x00000214
    6b90:	00000214 	.word	0x00000214
    6b94:	00000214 	.word	0x00000214
    6b98:	00000214 	.word	0x00000214
    6b9c:	00000214 	.word	0x00000214
    6ba0:	00000214 	.word	0x00000214
    6ba4:	00000214 	.word	0x00000214
    6ba8:	00000214 	.word	0x00000214
    6bac:	00000214 	.word	0x00000214
    6bb0:	00000214 	.word	0x00000214
    6bb4:	00000214 	.word	0x00000214
    6bb8:	00000214 	.word	0x00000214
    6bbc:	00000214 	.word	0x00000214
    6bc0:	00000214 	.word	0x00000214
    6bc4:	00000214 	.word	0x00000214
    6bc8:	00000214 	.word	0x00000214
    6bcc:	00000214 	.word	0x00000214
    6bd0:	00000214 	.word	0x00000214
    6bd4:	00000214 	.word	0x00000214
    6bd8:	00000214 	.word	0x00000214
    6bdc:	00000214 	.word	0x00000214
    6be0:	00000214 	.word	0x00000214
    6be4:	00000214 	.word	0x00000214
    6be8:	00000214 	.word	0x00000214
    6bec:	00000214 	.word	0x00000214
    6bf0:	00000214 	.word	0x00000214
    6bf4:	00000214 	.word	0x00000214
    6bf8:	00000214 	.word	0x00000214
    6bfc:	00000214 	.word	0x00000214
    6c00:	00000214 	.word	0x00000214
    6c04:	00000214 	.word	0x00000214
    6c08:	00000214 	.word	0x00000214
    6c0c:	00000214 	.word	0x00000214
    6c10:	00000214 	.word	0x00000214
    6c14:	00000214 	.word	0x00000214
    6c18:	00000214 	.word	0x00000214
    6c1c:	00000214 	.word	0x00000214
    6c20:	00000214 	.word	0x00000214
    6c24:	00000214 	.word	0x00000214
    6c28:	00000214 	.word	0x00000214
    6c2c:	00000214 	.word	0x00000214
    6c30:	000001f0 	.word	0x000001f0
    6c34:	000001f0 	.word	0x000001f0
    6c38:	000001f8 	.word	0x000001f8
    6c3c:	000001f8 	.word	0x000001f8
    6c40:	000001f8 	.word	0x000001f8
    6c44:	000001f8 	.word	0x000001f8
    6c48:	00004843 	.word	0x00004843
    6c4c:	00000009 	.word	0x00000009
    6c50:	20202009 	.word	0x20202009
    6c54:	20202020 	.word	0x20202020
    6c58:	49202020 	.word	0x49202020
    6c5c:	20202044 	.word	0x20202044
    6c60:	20505420 	.word	0x20505420
    6c64:	20305220 	.word	0x20305220
    6c68:	31522020 	.word	0x31522020
    6c6c:	52202020 	.word	0x52202020
    6c70:	20202032 	.word	0x20202032
    6c74:	20203352 	.word	0x20203352
    6c78:	20345220 	.word	0x20345220
    6c7c:	35522020 	.word	0x35522020
    6c80:	52202020 	.word	0x52202020
    6c84:	20202036 	.word	0x20202036
    6c88:	20203752 	.word	0x20203752
    6c8c:	52205256 	.word	0x52205256
    6c90:	20495353 	.word	0x20495353
    6c94:	49535352 	.word	0x49535352
    6c98:	20202020 	.word	0x20202020
    6c9c:	20202020 	.word	0x20202020
    6ca0:	656d6954 	.word	0x656d6954
    6ca4:	00000d72 	.word	0x00000d72
    6ca8:	3a434c50 	.word	0x3a434c50
    6cac:	00000020 	.word	0x00000020
    6cb0:	0046464f 	.word	0x0046464f
    6cb4:	00000000 	.word	0x00000000
    6cb8:	00004e4f 	.word	0x00004e4f
    6cbc:	002e6f4e 	.word	0x002e6f4e
    6cc0:	00000000 	.word	0x00000000
    6cc4:	00202020 	.word	0x00202020
    6cc8:	00000000 	.word	0x00000000
    6ccc:	616c4620 	.word	0x616c4620
    6cd0:	00005b67 	.word	0x00005b67
    6cd4:	203d205d 	.word	0x203d205d
    6cd8:	00000000 	.word	0x00000000
    6cdc:	000014ca 	.word	0x000014ca
    6ce0:	000014e0 	.word	0x000014e0
    6ce4:	000014fa 	.word	0x000014fa
    6ce8:	000014ca 	.word	0x000014ca
    6cec:	000014ca 	.word	0x000014ca
    6cf0:	000014ca 	.word	0x000014ca
    6cf4:	000014ca 	.word	0x000014ca
    6cf8:	000014ca 	.word	0x000014ca
    6cfc:	000014ca 	.word	0x000014ca
    6d00:	000014ca 	.word	0x000014ca
    6d04:	000014ca 	.word	0x000014ca
    6d08:	000014ca 	.word	0x000014ca
    6d0c:	000014ca 	.word	0x000014ca
    6d10:	000014ca 	.word	0x000014ca
    6d14:	000014ca 	.word	0x000014ca
    6d18:	000015a4 	.word	0x000015a4
    6d1c:	000014ca 	.word	0x000014ca
    6d20:	000014ca 	.word	0x000014ca
    6d24:	000015f2 	.word	0x000015f2
    6d28:	000014ca 	.word	0x000014ca
    6d2c:	000014ca 	.word	0x000014ca
    6d30:	000014ca 	.word	0x000014ca
    6d34:	000014ca 	.word	0x000014ca
    6d38:	000014ca 	.word	0x000014ca
    6d3c:	000014ca 	.word	0x000014ca
    6d40:	0000155c 	.word	0x0000155c
    6d44:	000014ca 	.word	0x000014ca
    6d48:	000014ca 	.word	0x000014ca
    6d4c:	00001514 	.word	0x00001514
    6d50:	7473614d 	.word	0x7473614d
    6d54:	52207265 	.word	0x52207265
    6d58:	32333253 	.word	0x32333253
    6d5c:	0000203a 	.word	0x0000203a
    6d60:	7074754f 	.word	0x7074754f
    6d64:	203a7475 	.word	0x203a7475
	...
    6d70:	2d2d2d20 	.word	0x2d2d2d20
    6d74:	0000203e 	.word	0x0000203e
    6d78:	50206f54 	.word	0x50206f54
    6d7c:	4f20434c 	.word	0x4f20434c
    6d80:	00000d4b 	.word	0x00000d4b
    6d84:	002e6f4e 	.word	0x002e6f4e
    6d88:	00000000 	.word	0x00000000
    6d8c:	2d2d3c20 	.word	0x2d2d3c20
    6d90:	6f4e202d 	.word	0x6f4e202d
    6d94:	0000002e 	.word	0x0000002e

00006d98 <Msg_Arrow_Right>:
    6d98:	3e2d2d09 00000009                       .-->....

00006da0 <Msg_Desh>:
    6da0:	202d202d 202d202d 202d202d 202d202d     - - - - - - - - 
    6db0:	202d202d 0d2d202d 00000000              - - - -.....

00006dbc <Msg_FoundIt>:
    6dbc:	6f46205b 20646e75 5d207469 0000000d     [ Found it ]....

00006dcc <Msg_LoRA01>:
    6dcc:	30524c40 00000931                       @LR01...

00006dd4 <Msg_LoRA02>:
    6dd4:	30524c20 00000932                        LR02...

00006ddc <Msg_MISSNODE>:
    6ddc:	73694d20 6f6e2073 000d6564 00000000      Miss node......

00006dec <Msg_Power_ON_START>:
    6dec:	20484853 41526f4c 73795320 0d6d6574     SHH LoRA System.
    6dfc:	00000000 0000368c 000038ea 000038ea     .....6...8...8..
    6e0c:	000038ea 000038ea 000038ea 000038ea     .8...8...8...8..
    6e1c:	000038ea 000038ea 000038ea 000038ea     .8...8...8...8..
    6e2c:	000038ea 000038ea 000038ea 000038ea     .8...8...8...8..
    6e3c:	000038ea 0000366c 000038ea 000038ea     .8..l6...8...8..
    6e4c:	000038ea 000038ea 000038ea 000038ea     .8...8...8...8..
    6e5c:	000038ea 000038ea 000038ea 000038ea     .8...8...8...8..
    6e6c:	000038ea 000038ea 000038ea 000038ea     .8...8...8...8..
    6e7c:	000038ea 00003684 000038ea 000038ea     .8...6...8...8..
    6e8c:	000038ea 000038ea 000038ea 000038ea     .8...8...8...8..
    6e9c:	000038ea 000038ea 000038ea 000038ea     .8...8...8...8..
    6eac:	000038ea 000038ea 000038ea 000038ea     .8...8...8...8..
    6ebc:	000038ea 0000367c 00003694 0000364c     .8..|6...6..L6..
    6ecc:	0000365c 00003654 00000002 00000003     \6..T6..........
    6edc:	0000ffff 0000ffff 00000004 00000005     ................
    6eec:	00000006 00000007 0000ffff 0000ffff     ................
    6efc:	0000ffff 0000ffff 0000ffff 0000ffff     ................
    6f0c:	0000ffff 0000ffff 00000008 00000009     ................
    6f1c:	0000000a 0000000b 42002000 42002400     ......... .B.$.B
    6f2c:	42002800 42002c00 42003000 42003400     .(.B.,.B.0.B.4.B
    6f3c:	02000100 08000400 20001000 00004794     ........... .G..
    6f4c:	000047e6 00004644 0000482e 0000480a     .G..DF...H...H..
    6f5c:	00004a4a 00004a08 00004644 00004644     JJ...J..DF..DF..
    6f6c:	00004644 00004644 00004644 00004644     DF..DF..DF..DF..
    6f7c:	00004644 00004644 00004644 00004644     DF..DF..DF..DF..
    6f8c:	00004644 00004644 00004644 00004644     DF..DF..DF..DF..
    6f9c:	00004644 00004644 00004644 00004644     DF..DF..DF..DF..
    6fac:	00004644 00004644 00004644 00004644     DF..DF..DF..DF..
    6fbc:	00004644 00004644 00004644 00004644     DF..DF..DF..DF..
    6fcc:	00004644 00004644 00004644 00004644     DF..DF..DF..DF..
    6fdc:	00004644 00004644 00004644 00004644     DF..DF..DF..DF..
    6fec:	00004644 00004644 00004644 00004644     DF..DF..DF..DF..
    6ffc:	00004644 00004644 00004644 00004644     DF..DF..DF..DF..
    700c:	00004644 00004644 00004644 00004644     DF..DF..DF..DF..
    701c:	00004644 00004644 00004644 00004644     DF..DF..DF..DF..
    702c:	00004644 00004644 00004644 00004644     DF..DF..DF..DF..
    703c:	00004644 00004644 00004644 00004644     DF..DF..DF..DF..
    704c:	00004644 00004644 00004644 00004644     DF..DF..DF..DF..
    705c:	00004644 00004644 00004644 00004644     DF..DF..DF..DF..
    706c:	00004644 00004644 00004644 00004644     DF..DF..DF..DF..
    707c:	00004644 00004644 00004644 00004644     DF..DF..DF..DF..
    708c:	00004644 00004644 00004644 00004644     DF..DF..DF..DF..
    709c:	00004644 00004644 00004644 00004644     DF..DF..DF..DF..
    70ac:	00004644 00004644 00004644 00004644     DF..DF..DF..DF..
    70bc:	00004644 00004644 00004644 00004644     DF..DF..DF..DF..
    70cc:	00004644 00004644 00004644 00004a26     DF..DF..DF..&J..
    70dc:	00004a9c 00004644 00004644 0000469e     .J..DF..DF...F..
    70ec:	000047be 00004644 0000464c 00004a70     .G..DF..LF..pJ..
    70fc:	00004644 00004644 00004644 00004644     DF..DF..DF..DF..
    710c:	00004634 000048a2 00004964 00004644     4F...H..dI..DF..
    711c:	00004644 00004644 00004644 00004644     DF..DF..DF..DF..
    712c:	00004644 00004644 00004644 00004644     DF..DF..DF..DF..
    713c:	00004644 00004644 000048f6 00295428     DF..DF...H..(T).
    714c:	00000000 00294328 00000000 207a2e2e     ....(C).......z 
    715c:	00000d5a 656b6157 2e705520 00000d2e     Z...Wake Up.....
    716c:	50202020 4120434c 3a726464 00000020        PLC Addr: ...
    717c:	4e4f5b09 0000005d 464f5b09 00005d46     .[ON]....[OFF]..
    718c:	00004e4f 0046464f 00000000 00007854     ON..OFF.....Tx..
    719c:	00007852 7a484d20 00000000 6d626420     Rx.. MHz.... dbm
    71ac:	00000000                                ....

000071b0 <Msg_CMDDelay>:
    71b0:	20444d43 616c6544 00000d79              CMD Delay...

000071bc <Msg_CRCErr>:
    71bc:	20435243 0d727245 00000000              CRC Err.....

000071c8 <Msg_CRCOK>:
    71c8:	20435243 000d4b4f 00000000              CRC OK......

000071d4 <Msg_DebugMode>:
    71d4:	44202020 67756265 646f4d20 00203a65        Debug Mode: .
    71e4:	00000000                                ....

000071e8 <Msg_FQ>:
    71e8:	465d665b 00203a51 00000000              [f]FQ: .....

000071f4 <Msg_FW>:
    71f4:	46202020 00203a57 00000000                 FW: .....

00007200 <Msg_ID>:
    7200:	495d695b 00203a44 00000000              [i]ID: .....

0000720c <Msg_LRRST>:
    720c:	5220524c 00095453 00000000              LR RST......

00007218 <Msg_LeaveTx>:
    7218:	7661654c 78542065 0000000d              Leave Tx....

00007224 <Msg_LoRA1_Time_Out>:
    7224:	41526f4c 69542031 4f20656d 00207475     LoRA1 Time Out .
    7234:	00000000                                ....

00007238 <Msg_LoRA2_Time_Out>:
    7238:	41526f4c 69542032 4f20656d 00207475     LoRA2 Time Out .
    7248:	00000000                                ....

0000724c <Msg_LoRAID>:
    724c:	41526f4c 3a444920 00000020              LoRA ID: ...

00007258 <Msg_LowPower>:
    7258:	20776f4c 65776f50 00000d72              Low Power...

00007264 <Msg_Mode>:
    7264:	4d202020 3a65646f 00000020                 Mode: ...

00007270 <Msg_Power>:
    7270:	505d705b 7265776f 002b203a 00000000     [p]Power: +.....

00007280 <Msg_RSTIRQ>:
    7280:	20545352 0d515249 00000000              RST IRQ.....

0000728c <Msg_RdBF>:
    728c:	42206452 00000946                       Rd BF...

00007294 <Msg_RdID>:
    7294:	49206452 00000944                       Rd ID...

0000729c <Msg_SF>:
    729c:	535d735b 00203a46 00000000              [s]SF: .....

000072a8 <Msg_TimeOut>:
    72a8:	656d6954 74754f20 0000000d              Time Out....

000072b4 <Msg_UserID>:
    72b4:	72657355 3a444920 00000020              User ID: ...

000072c0 <Msg_WaitTXIRQ>:
    72c0:	74696157 20585420 0d515249 00000000     Wait TX IRQ.....

000072d0 <Msg_WrBF>:
    72d0:	42207257 00000946                       Wr BF...

000072d8 <Msg_WrFQ>:
    72d8:	46207257 00000951                       Wr FQ...

000072e0 <Msg_WrSt>:
    72e0:	53207257 00000974                       Wr St...

000072e8 <tc_interrupt_vectors.10645>:
    72e8:	100f0e0d 00001211 42000800 42000c00     ...........B...B
    72f8:	42001000 42001400 00005cde 00005cda     ...B...B.\...\..
    7308:	00005cda 00005d2a 00005d2a 00005cf2     .\..*]..*]...\..
    7318:	00005ce4 00005cf8 00005db0 00005d90     .\...\...]...]..
    7328:	00005d90 00005e00 00005da2 00005dbe     .]...^...]...]..
    7338:	00005d94 00005dcc                       .]...]..

00007340 <_init>:
    7340:	b5f8      	push	{r3, r4, r5, r6, r7, lr}
    7342:	46c0      	nop			; (mov r8, r8)
    7344:	bcf8      	pop	{r3, r4, r5, r6, r7}
    7346:	bc08      	pop	{r3}
    7348:	469e      	mov	lr, r3
    734a:	4770      	bx	lr

0000734c <__init_array_start>:
    734c:	000000cd 	.word	0x000000cd

00007350 <_fini>:
    7350:	b5f8      	push	{r3, r4, r5, r6, r7, lr}
    7352:	46c0      	nop			; (mov r8, r8)
    7354:	bcf8      	pop	{r3, r4, r5, r6, r7}
    7356:	bc08      	pop	{r3}
    7358:	469e      	mov	lr, r3
    735a:	4770      	bx	lr

0000735c <__fini_array_start>:
    735c:	000000a5 	.word	0x000000a5
