
SHH_Repeater.elf:     file format elf32-littlearm

Sections:
Idx Name          Size      VMA       LMA       File off  Algn
  0 .text         00008e50  00000000  00000000  00010000  2**2
                  CONTENTS, ALLOC, LOAD, READONLY, CODE
  1 .relocate     00000230  20000000  00008e50  00020000  2**2
                  CONTENTS, ALLOC, LOAD, DATA
  2 .bss          00003030  20000230  00009080  00020230  2**2
                  ALLOC
  3 .stack        00002000  20003260  0000c0b0  00020230  2**0
                  ALLOC
  4 .ARM.attributes 00000028  00000000  00000000  00020230  2**0
                  CONTENTS, READONLY
  5 .comment      00000059  00000000  00000000  00020258  2**0
                  CONTENTS, READONLY
  6 .debug_info   000abbeb  00000000  00000000  000202b1  2**0
                  CONTENTS, READONLY, DEBUGGING
  7 .debug_abbrev 00009f5c  00000000  00000000  000cbe9c  2**0
                  CONTENTS, READONLY, DEBUGGING
  8 .debug_loc    0000ad84  00000000  00000000  000d5df8  2**0
                  CONTENTS, READONLY, DEBUGGING
  9 .debug_aranges 00000cc0  00000000  00000000  000e0b7c  2**0
                  CONTENTS, READONLY, DEBUGGING
 10 .debug_ranges 00000d78  00000000  00000000  000e183c  2**0
                  CONTENTS, READONLY, DEBUGGING
 11 .debug_macro  0001e727  00000000  00000000  000e25b4  2**0
                  CONTENTS, READONLY, DEBUGGING
 12 .debug_line   00025057  00000000  00000000  00100cdb  2**0
                  CONTENTS, READONLY, DEBUGGING
 13 .debug_str    000605fe  00000000  00000000  00125d32  2**0
                  CONTENTS, READONLY, DEBUGGING
 14 .debug_frame  00002268  00000000  00000000  00186330  2**2
                  CONTENTS, READONLY, DEBUGGING

Disassembly of section .text:

00000000 <exception_table>:
       0:	60 52 00 20 b1 67 00 00 ad 67 00 00 ad 67 00 00     `R. .g...g...g..
	...
      2c:	ad 67 00 00 00 00 00 00 00 00 00 00 ad 67 00 00     .g...........g..
      3c:	ad 67 00 00 ad 67 00 00 ad 67 00 00 ed 3e 00 00     .g...g...g...>..
      4c:	ad 67 00 00 bd 38 00 00 ad 67 00 00 ad 67 00 00     .g...8...g...g..
      5c:	75 5d 00 00 85 5d 00 00 95 5d 00 00 a5 5d 00 00     u]...]...]...]..
	...
      74:	b9 3a 00 00 c9 3a 00 00 d9 3a 00 00 e9 3a 00 00     .:...:...:...:..
      84:	f9 3a 00 00 09 3b 00 00 00 00 00 00 00 00 00 00     .:...;..........
      94:	ad 67 00 00 ad 67 00 00 ad 67 00 00 ad 67 00 00     .g...g...g...g..

000000a4 <__do_global_dtors_aux>:
      a4:	b510      	push	{r4, lr}
      a6:	4c06      	ldr	r4, [pc, #24]	; (c0 <__do_global_dtors_aux+0x1c>)
      a8:	7823      	ldrb	r3, [r4, #0]
      aa:	2b00      	cmp	r3, #0
      ac:	d107      	bne.n	be <__do_global_dtors_aux+0x1a>
      ae:	4b05      	ldr	r3, [pc, #20]	; (c4 <__do_global_dtors_aux+0x20>)
      b0:	2b00      	cmp	r3, #0
      b2:	d002      	beq.n	ba <__do_global_dtors_aux+0x16>
      b4:	4804      	ldr	r0, [pc, #16]	; (c8 <__do_global_dtors_aux+0x24>)
      b6:	e000      	b.n	ba <__do_global_dtors_aux+0x16>
      b8:	bf00      	nop
      ba:	2301      	movs	r3, #1
      bc:	7023      	strb	r3, [r4, #0]
      be:	bd10      	pop	{r4, pc}
      c0:	20000230 	.word	0x20000230
      c4:	00000000 	.word	0x00000000
      c8:	00008e50 	.word	0x00008e50

000000cc <frame_dummy>:
      cc:	4b08      	ldr	r3, [pc, #32]	; (f0 <frame_dummy+0x24>)
      ce:	b510      	push	{r4, lr}
      d0:	2b00      	cmp	r3, #0
      d2:	d003      	beq.n	dc <frame_dummy+0x10>
      d4:	4907      	ldr	r1, [pc, #28]	; (f4 <frame_dummy+0x28>)
      d6:	4808      	ldr	r0, [pc, #32]	; (f8 <frame_dummy+0x2c>)
      d8:	e000      	b.n	dc <frame_dummy+0x10>
      da:	bf00      	nop
      dc:	4807      	ldr	r0, [pc, #28]	; (fc <frame_dummy+0x30>)
      de:	6803      	ldr	r3, [r0, #0]
      e0:	2b00      	cmp	r3, #0
      e2:	d100      	bne.n	e6 <frame_dummy+0x1a>
      e4:	bd10      	pop	{r4, pc}
      e6:	4b06      	ldr	r3, [pc, #24]	; (100 <frame_dummy+0x34>)
      e8:	2b00      	cmp	r3, #0
      ea:	d0fb      	beq.n	e4 <frame_dummy+0x18>
      ec:	4798      	blx	r3
      ee:	e7f9      	b.n	e4 <frame_dummy+0x18>
      f0:	00000000 	.word	0x00000000
      f4:	20000234 	.word	0x20000234
      f8:	00008e50 	.word	0x00008e50
      fc:	00008e50 	.word	0x00008e50
     100:	00000000 	.word	0x00000000

00000104 <nvm_set_config>:
     104:	b510      	push	{r4, lr}
     106:	4a1e      	ldr	r2, [pc, #120]	; (180 <nvm_set_config+0x7c>)
     108:	69d3      	ldr	r3, [r2, #28]
     10a:	2104      	movs	r1, #4
     10c:	430b      	orrs	r3, r1
     10e:	61d3      	str	r3, [r2, #28]
     110:	4b1c      	ldr	r3, [pc, #112]	; (184 <nvm_set_config+0x80>)
     112:	2220      	movs	r2, #32
     114:	32ff      	adds	r2, #255	; 0xff
     116:	831a      	strh	r2, [r3, #24]
     118:	7d1a      	ldrb	r2, [r3, #20]
     11a:	2305      	movs	r3, #5
     11c:	07d2      	lsls	r2, r2, #31
     11e:	d401      	bmi.n	124 <nvm_set_config+0x20>
     120:	0018      	movs	r0, r3
     122:	bd10      	pop	{r4, pc}
     124:	7803      	ldrb	r3, [r0, #0]
     126:	021b      	lsls	r3, r3, #8
     128:	22c0      	movs	r2, #192	; 0xc0
     12a:	0092      	lsls	r2, r2, #2
     12c:	4013      	ands	r3, r2
     12e:	7841      	ldrb	r1, [r0, #1]
     130:	01c9      	lsls	r1, r1, #7
     132:	22ff      	movs	r2, #255	; 0xff
     134:	400a      	ands	r2, r1
     136:	4313      	orrs	r3, r2
     138:	7881      	ldrb	r1, [r0, #2]
     13a:	0049      	lsls	r1, r1, #1
     13c:	221e      	movs	r2, #30
     13e:	400a      	ands	r2, r1
     140:	4313      	orrs	r3, r2
     142:	78c2      	ldrb	r2, [r0, #3]
     144:	0492      	lsls	r2, r2, #18
     146:	2180      	movs	r1, #128	; 0x80
     148:	02c9      	lsls	r1, r1, #11
     14a:	400a      	ands	r2, r1
     14c:	4313      	orrs	r3, r2
     14e:	7902      	ldrb	r2, [r0, #4]
     150:	0412      	lsls	r2, r2, #16
     152:	21c0      	movs	r1, #192	; 0xc0
     154:	0289      	lsls	r1, r1, #10
     156:	400a      	ands	r2, r1
     158:	4313      	orrs	r3, r2
     15a:	4a0a      	ldr	r2, [pc, #40]	; (184 <nvm_set_config+0x80>)
     15c:	6053      	str	r3, [r2, #4]
     15e:	6893      	ldr	r3, [r2, #8]
     160:	035b      	lsls	r3, r3, #13
     162:	0f5b      	lsrs	r3, r3, #29
     164:	4908      	ldr	r1, [pc, #32]	; (188 <nvm_set_config+0x84>)
     166:	2408      	movs	r4, #8
     168:	409c      	lsls	r4, r3
     16a:	800c      	strh	r4, [r1, #0]
     16c:	6893      	ldr	r3, [r2, #8]
     16e:	804b      	strh	r3, [r1, #2]
     170:	7843      	ldrb	r3, [r0, #1]
     172:	710b      	strb	r3, [r1, #4]
     174:	8b13      	ldrh	r3, [r2, #24]
     176:	05db      	lsls	r3, r3, #23
     178:	0fdb      	lsrs	r3, r3, #31
     17a:	011b      	lsls	r3, r3, #4
     17c:	e7d0      	b.n	120 <nvm_set_config+0x1c>
     17e:	46c0      	nop			; (mov r8, r8)
     180:	40000400 	.word	0x40000400
     184:	41004000 	.word	0x41004000
     188:	2000024c 	.word	0x2000024c

0000018c <nvm_execute_command>:
     18c:	b530      	push	{r4, r5, lr}
     18e:	0004      	movs	r4, r0
     190:	4a22      	ldr	r2, [pc, #136]	; (21c <nvm_execute_command+0x90>)
     192:	8810      	ldrh	r0, [r2, #0]
     194:	8853      	ldrh	r3, [r2, #2]
     196:	4343      	muls	r3, r0
     198:	428b      	cmp	r3, r1
     19a:	d206      	bcs.n	1aa <nvm_execute_command+0x1e>
     19c:	2280      	movs	r2, #128	; 0x80
     19e:	0192      	lsls	r2, r2, #6
     1a0:	2018      	movs	r0, #24
     1a2:	4b1f      	ldr	r3, [pc, #124]	; (220 <nvm_execute_command+0x94>)
     1a4:	18cb      	adds	r3, r1, r3
     1a6:	4293      	cmp	r3, r2
     1a8:	d80e      	bhi.n	1c8 <nvm_execute_command+0x3c>
     1aa:	4b1e      	ldr	r3, [pc, #120]	; (224 <nvm_execute_command+0x98>)
     1ac:	685d      	ldr	r5, [r3, #4]
     1ae:	2280      	movs	r2, #128	; 0x80
     1b0:	02d2      	lsls	r2, r2, #11
     1b2:	432a      	orrs	r2, r5
     1b4:	605a      	str	r2, [r3, #4]
     1b6:	2220      	movs	r2, #32
     1b8:	32ff      	adds	r2, #255	; 0xff
     1ba:	831a      	strh	r2, [r3, #24]
     1bc:	7d1b      	ldrb	r3, [r3, #20]
     1be:	07db      	lsls	r3, r3, #31
     1c0:	d403      	bmi.n	1ca <nvm_execute_command+0x3e>
     1c2:	4b18      	ldr	r3, [pc, #96]	; (224 <nvm_execute_command+0x98>)
     1c4:	605d      	str	r5, [r3, #4]
     1c6:	2005      	movs	r0, #5
     1c8:	bd30      	pop	{r4, r5, pc}
     1ca:	2c45      	cmp	r4, #69	; 0x45
     1cc:	d822      	bhi.n	214 <nvm_execute_command+0x88>
     1ce:	00a3      	lsls	r3, r4, #2
     1d0:	4a15      	ldr	r2, [pc, #84]	; (228 <nvm_execute_command+0x9c>)
     1d2:	58d3      	ldr	r3, [r2, r3]
     1d4:	469f      	mov	pc, r3
     1d6:	4b13      	ldr	r3, [pc, #76]	; (224 <nvm_execute_command+0x98>)
     1d8:	8b1b      	ldrh	r3, [r3, #24]
     1da:	05db      	lsls	r3, r3, #23
     1dc:	d503      	bpl.n	1e6 <nvm_execute_command+0x5a>
     1de:	4b11      	ldr	r3, [pc, #68]	; (224 <nvm_execute_command+0x98>)
     1e0:	605d      	str	r5, [r3, #4]
     1e2:	2010      	movs	r0, #16
     1e4:	e7f0      	b.n	1c8 <nvm_execute_command+0x3c>
     1e6:	0889      	lsrs	r1, r1, #2
     1e8:	0049      	lsls	r1, r1, #1
     1ea:	4b0e      	ldr	r3, [pc, #56]	; (224 <nvm_execute_command+0x98>)
     1ec:	61d9      	str	r1, [r3, #28]
     1ee:	e003      	b.n	1f8 <nvm_execute_command+0x6c>
     1f0:	0889      	lsrs	r1, r1, #2
     1f2:	0049      	lsls	r1, r1, #1
     1f4:	4b0b      	ldr	r3, [pc, #44]	; (224 <nvm_execute_command+0x98>)
     1f6:	61d9      	str	r1, [r3, #28]
     1f8:	20a5      	movs	r0, #165	; 0xa5
     1fa:	0200      	lsls	r0, r0, #8
     1fc:	4304      	orrs	r4, r0
     1fe:	4b09      	ldr	r3, [pc, #36]	; (224 <nvm_execute_command+0x98>)
     200:	801c      	strh	r4, [r3, #0]
     202:	0019      	movs	r1, r3
     204:	2201      	movs	r2, #1
     206:	7d0b      	ldrb	r3, [r1, #20]
     208:	4213      	tst	r3, r2
     20a:	d0fc      	beq.n	206 <nvm_execute_command+0x7a>
     20c:	4b05      	ldr	r3, [pc, #20]	; (224 <nvm_execute_command+0x98>)
     20e:	605d      	str	r5, [r3, #4]
     210:	2000      	movs	r0, #0
     212:	e7d9      	b.n	1c8 <nvm_execute_command+0x3c>
     214:	4b03      	ldr	r3, [pc, #12]	; (224 <nvm_execute_command+0x98>)
     216:	605d      	str	r5, [r3, #4]
     218:	2017      	movs	r0, #23
     21a:	e7d5      	b.n	1c8 <nvm_execute_command+0x3c>
     21c:	2000024c 	.word	0x2000024c
     220:	ff7fc000 	.word	0xff7fc000
     224:	41004000 	.word	0x41004000
     228:	00008650 	.word	0x00008650

0000022c <nvm_write_buffer>:
     22c:	b5f8      	push	{r3, r4, r5, r6, r7, lr}
     22e:	4b25      	ldr	r3, [pc, #148]	; (2c4 <nvm_write_buffer+0x98>)
     230:	881d      	ldrh	r5, [r3, #0]
     232:	885b      	ldrh	r3, [r3, #2]
     234:	436b      	muls	r3, r5
     236:	2418      	movs	r4, #24
     238:	4283      	cmp	r3, r0
     23a:	d201      	bcs.n	240 <nvm_write_buffer+0x14>
     23c:	0020      	movs	r0, r4
     23e:	bdf8      	pop	{r3, r4, r5, r6, r7, pc}
     240:	1e6b      	subs	r3, r5, #1
     242:	4218      	tst	r0, r3
     244:	d1fa      	bne.n	23c <nvm_write_buffer+0x10>
     246:	3c01      	subs	r4, #1
     248:	4295      	cmp	r5, r2
     24a:	d3f7      	bcc.n	23c <nvm_write_buffer+0x10>
     24c:	4b1e      	ldr	r3, [pc, #120]	; (2c8 <nvm_write_buffer+0x9c>)
     24e:	7d1b      	ldrb	r3, [r3, #20]
     250:	3c12      	subs	r4, #18
     252:	07db      	lsls	r3, r3, #31
     254:	d5f2      	bpl.n	23c <nvm_write_buffer+0x10>
     256:	4c1d      	ldr	r4, [pc, #116]	; (2cc <nvm_write_buffer+0xa0>)
     258:	4b1b      	ldr	r3, [pc, #108]	; (2c8 <nvm_write_buffer+0x9c>)
     25a:	801c      	strh	r4, [r3, #0]
     25c:	001d      	movs	r5, r3
     25e:	2401      	movs	r4, #1
     260:	7d2b      	ldrb	r3, [r5, #20]
     262:	4223      	tst	r3, r4
     264:	d0fc      	beq.n	260 <nvm_write_buffer+0x34>
     266:	2420      	movs	r4, #32
     268:	34ff      	adds	r4, #255	; 0xff
     26a:	4b17      	ldr	r3, [pc, #92]	; (2c8 <nvm_write_buffer+0x9c>)
     26c:	831c      	strh	r4, [r3, #24]
     26e:	2a00      	cmp	r2, #0
     270:	d022      	beq.n	2b8 <nvm_write_buffer+0x8c>
     272:	2301      	movs	r3, #1
     274:	0005      	movs	r5, r0
     276:	439d      	bics	r5, r3
     278:	2300      	movs	r3, #0
     27a:	1e57      	subs	r7, r2, #1
     27c:	e009      	b.n	292 <nvm_write_buffer+0x66>
     27e:	18ce      	adds	r6, r1, r3
     280:	7876      	ldrb	r6, [r6, #1]
     282:	0236      	lsls	r6, r6, #8
     284:	4334      	orrs	r4, r6
     286:	802c      	strh	r4, [r5, #0]
     288:	3302      	adds	r3, #2
     28a:	b29b      	uxth	r3, r3
     28c:	3502      	adds	r5, #2
     28e:	429a      	cmp	r2, r3
     290:	d904      	bls.n	29c <nvm_write_buffer+0x70>
     292:	5ccc      	ldrb	r4, [r1, r3]
     294:	42bb      	cmp	r3, r7
     296:	dbf2      	blt.n	27e <nvm_write_buffer+0x52>
     298:	b2a4      	uxth	r4, r4
     29a:	e7f4      	b.n	286 <nvm_write_buffer+0x5a>
     29c:	4b09      	ldr	r3, [pc, #36]	; (2c4 <nvm_write_buffer+0x98>)
     29e:	791b      	ldrb	r3, [r3, #4]
     2a0:	2400      	movs	r4, #0
     2a2:	2b00      	cmp	r3, #0
     2a4:	d1ca      	bne.n	23c <nvm_write_buffer+0x10>
     2a6:	2a3f      	cmp	r2, #63	; 0x3f
     2a8:	d8c8      	bhi.n	23c <nvm_write_buffer+0x10>
     2aa:	2200      	movs	r2, #0
     2ac:	0001      	movs	r1, r0
     2ae:	2004      	movs	r0, #4
     2b0:	4b07      	ldr	r3, [pc, #28]	; (2d0 <nvm_write_buffer+0xa4>)
     2b2:	4798      	blx	r3
     2b4:	0004      	movs	r4, r0
     2b6:	e7c1      	b.n	23c <nvm_write_buffer+0x10>
     2b8:	4b02      	ldr	r3, [pc, #8]	; (2c4 <nvm_write_buffer+0x98>)
     2ba:	791b      	ldrb	r3, [r3, #4]
     2bc:	2400      	movs	r4, #0
     2be:	2b00      	cmp	r3, #0
     2c0:	d0f3      	beq.n	2aa <nvm_write_buffer+0x7e>
     2c2:	e7bb      	b.n	23c <nvm_write_buffer+0x10>
     2c4:	2000024c 	.word	0x2000024c
     2c8:	41004000 	.word	0x41004000
     2cc:	ffffa544 	.word	0xffffa544
     2d0:	0000018d 	.word	0x0000018d

000002d4 <nvm_read_buffer>:
     2d4:	b570      	push	{r4, r5, r6, lr}
     2d6:	4b18      	ldr	r3, [pc, #96]	; (338 <nvm_read_buffer+0x64>)
     2d8:	881d      	ldrh	r5, [r3, #0]
     2da:	885b      	ldrh	r3, [r3, #2]
     2dc:	436b      	muls	r3, r5
     2de:	2418      	movs	r4, #24
     2e0:	4283      	cmp	r3, r0
     2e2:	d201      	bcs.n	2e8 <nvm_read_buffer+0x14>
     2e4:	0020      	movs	r0, r4
     2e6:	bd70      	pop	{r4, r5, r6, pc}
     2e8:	1e6b      	subs	r3, r5, #1
     2ea:	4218      	tst	r0, r3
     2ec:	d1fa      	bne.n	2e4 <nvm_read_buffer+0x10>
     2ee:	3c01      	subs	r4, #1
     2f0:	4295      	cmp	r5, r2
     2f2:	d3f7      	bcc.n	2e4 <nvm_read_buffer+0x10>
     2f4:	4b11      	ldr	r3, [pc, #68]	; (33c <nvm_read_buffer+0x68>)
     2f6:	7d1b      	ldrb	r3, [r3, #20]
     2f8:	3c12      	subs	r4, #18
     2fa:	07db      	lsls	r3, r3, #31
     2fc:	d5f2      	bpl.n	2e4 <nvm_read_buffer+0x10>
     2fe:	2420      	movs	r4, #32
     300:	34ff      	adds	r4, #255	; 0xff
     302:	4b0e      	ldr	r3, [pc, #56]	; (33c <nvm_read_buffer+0x68>)
     304:	831c      	strh	r4, [r3, #24]
     306:	2a00      	cmp	r2, #0
     308:	d014      	beq.n	334 <nvm_read_buffer+0x60>
     30a:	2301      	movs	r3, #1
     30c:	4398      	bics	r0, r3
     30e:	2300      	movs	r3, #0
     310:	1e56      	subs	r6, r2, #1
     312:	e004      	b.n	31e <nvm_read_buffer+0x4a>
     314:	3302      	adds	r3, #2
     316:	b29b      	uxth	r3, r3
     318:	3002      	adds	r0, #2
     31a:	429a      	cmp	r2, r3
     31c:	d908      	bls.n	330 <nvm_read_buffer+0x5c>
     31e:	8804      	ldrh	r4, [r0, #0]
     320:	b2a4      	uxth	r4, r4
     322:	54cc      	strb	r4, [r1, r3]
     324:	42b3      	cmp	r3, r6
     326:	daf5      	bge.n	314 <nvm_read_buffer+0x40>
     328:	18cd      	adds	r5, r1, r3
     32a:	0a24      	lsrs	r4, r4, #8
     32c:	706c      	strb	r4, [r5, #1]
     32e:	e7f1      	b.n	314 <nvm_read_buffer+0x40>
     330:	2400      	movs	r4, #0
     332:	e7d7      	b.n	2e4 <nvm_read_buffer+0x10>
     334:	2400      	movs	r4, #0
     336:	e7d5      	b.n	2e4 <nvm_read_buffer+0x10>
     338:	2000024c 	.word	0x2000024c
     33c:	41004000 	.word	0x41004000

00000340 <nvm_erase_row>:
     340:	4b13      	ldr	r3, [pc, #76]	; (390 <nvm_erase_row+0x50>)
     342:	881a      	ldrh	r2, [r3, #0]
     344:	885b      	ldrh	r3, [r3, #2]
     346:	4353      	muls	r3, r2
     348:	2118      	movs	r1, #24
     34a:	4283      	cmp	r3, r0
     34c:	d201      	bcs.n	352 <nvm_erase_row+0x12>
     34e:	0008      	movs	r0, r1
     350:	4770      	bx	lr
     352:	0092      	lsls	r2, r2, #2
     354:	3a01      	subs	r2, #1
     356:	4210      	tst	r0, r2
     358:	d1f9      	bne.n	34e <nvm_erase_row+0xe>
     35a:	4b0e      	ldr	r3, [pc, #56]	; (394 <nvm_erase_row+0x54>)
     35c:	7d1b      	ldrb	r3, [r3, #20]
     35e:	3913      	subs	r1, #19
     360:	07db      	lsls	r3, r3, #31
     362:	d5f4      	bpl.n	34e <nvm_erase_row+0xe>
     364:	4b0b      	ldr	r3, [pc, #44]	; (394 <nvm_erase_row+0x54>)
     366:	2220      	movs	r2, #32
     368:	32ff      	adds	r2, #255	; 0xff
     36a:	831a      	strh	r2, [r3, #24]
     36c:	0880      	lsrs	r0, r0, #2
     36e:	0040      	lsls	r0, r0, #1
     370:	61d8      	str	r0, [r3, #28]
     372:	4a09      	ldr	r2, [pc, #36]	; (398 <nvm_erase_row+0x58>)
     374:	801a      	strh	r2, [r3, #0]
     376:	0019      	movs	r1, r3
     378:	2201      	movs	r2, #1
     37a:	7d0b      	ldrb	r3, [r1, #20]
     37c:	4213      	tst	r3, r2
     37e:	d0fc      	beq.n	37a <nvm_erase_row+0x3a>
     380:	4b04      	ldr	r3, [pc, #16]	; (394 <nvm_erase_row+0x54>)
     382:	8b19      	ldrh	r1, [r3, #24]
     384:	201c      	movs	r0, #28
     386:	4001      	ands	r1, r0
     388:	1e48      	subs	r0, r1, #1
     38a:	4181      	sbcs	r1, r0
     38c:	0089      	lsls	r1, r1, #2
     38e:	e7de      	b.n	34e <nvm_erase_row+0xe>
     390:	2000024c 	.word	0x2000024c
     394:	41004000 	.word	0x41004000
     398:	ffffa502 	.word	0xffffa502

0000039c <Judg_KEY_ADD>:
#include "myDefine.h"



void Judg_KEY_ADD(volatile LORA_Dev_List_t *tmp_LORA_Dev_List_Index)
{
     39c:	b5f0      	push	{r4, r5, r6, r7, lr}
     39e:	46d6      	mov	lr, sl
     3a0:	464f      	mov	r7, r9
     3a2:	b580      	push	{r7, lr}
     3a4:	b083      	sub	sp, #12
     3a6:	0004      	movs	r4, r0
	unsigned char tmp_list_table_index;
	
	if(	ascii_to_hex(UserKeyInBuf[0]) == KEYA &&
     3a8:	4b3b      	ldr	r3, [pc, #236]	; (498 <Judg_KEY_ADD+0xfc>)
     3aa:	7818      	ldrb	r0, [r3, #0]
     3ac:	4b3b      	ldr	r3, [pc, #236]	; (49c <Judg_KEY_ADD+0x100>)
     3ae:	4798      	blx	r3
     3b0:	280a      	cmp	r0, #10
     3b2:	d004      	beq.n	3be <Judg_KEY_ADD+0x22>
				uTXByte(Debug_COM, 0x0d);
				uTXByte(Debug_COM, 0x0d);
			}
		}
	}
     3b4:	b003      	add	sp, #12
     3b6:	bc0c      	pop	{r2, r3}
     3b8:	4691      	mov	r9, r2
     3ba:	469a      	mov	sl, r3
     3bc:	bdf0      	pop	{r4, r5, r6, r7, pc}
		ascii_to_hex(UserKeyInBuf[1]) == KEYD &&
     3be:	4b36      	ldr	r3, [pc, #216]	; (498 <Judg_KEY_ADD+0xfc>)
     3c0:	7858      	ldrb	r0, [r3, #1]
     3c2:	4b36      	ldr	r3, [pc, #216]	; (49c <Judg_KEY_ADD+0x100>)
     3c4:	4798      	blx	r3
	if(	ascii_to_hex(UserKeyInBuf[0]) == KEYA &&
     3c6:	280d      	cmp	r0, #13
     3c8:	d1f4      	bne.n	3b4 <Judg_KEY_ADD+0x18>
		ascii_to_hex(UserKeyInBuf[2]) == KEYD )	//	add device
     3ca:	4b33      	ldr	r3, [pc, #204]	; (498 <Judg_KEY_ADD+0xfc>)
     3cc:	7898      	ldrb	r0, [r3, #2]
     3ce:	4b33      	ldr	r3, [pc, #204]	; (49c <Judg_KEY_ADD+0x100>)
     3d0:	4798      	blx	r3
		ascii_to_hex(UserKeyInBuf[1]) == KEYD &&
     3d2:	280d      	cmp	r0, #13
     3d4:	d1ee      	bne.n	3b4 <Judg_KEY_ADD+0x18>
		if(UserKeyInBufCount == 17 && UserKeyInBuf[16] == 0x0d)
     3d6:	4b32      	ldr	r3, [pc, #200]	; (4a0 <Judg_KEY_ADD+0x104>)
     3d8:	781b      	ldrb	r3, [r3, #0]
     3da:	2b11      	cmp	r3, #17
     3dc:	d1ea      	bne.n	3b4 <Judg_KEY_ADD+0x18>
     3de:	4b2e      	ldr	r3, [pc, #184]	; (498 <Judg_KEY_ADD+0xfc>)
     3e0:	7c1b      	ldrb	r3, [r3, #16]
     3e2:	2b0d      	cmp	r3, #13
     3e4:	d1e6      	bne.n	3b4 <Judg_KEY_ADD+0x18>
			tmp_list_table_index =	Cal_list_table_index(UserKeyInBuf[4], UserKeyInBuf[5], UserKeyInBuf[6]);
     3e6:	4b2c      	ldr	r3, [pc, #176]	; (498 <Judg_KEY_ADD+0xfc>)
     3e8:	799a      	ldrb	r2, [r3, #6]
     3ea:	7959      	ldrb	r1, [r3, #5]
     3ec:	7918      	ldrb	r0, [r3, #4]
     3ee:	4b2d      	ldr	r3, [pc, #180]	; (4a4 <Judg_KEY_ADD+0x108>)
     3f0:	4798      	blx	r3
     3f2:	b2c0      	uxtb	r0, r0
			if(tmp_list_table_index > Dev_Item_MAX) return;
     3f4:	2864      	cmp	r0, #100	; 0x64
     3f6:	d8dd      	bhi.n	3b4 <Judg_KEY_ADD+0x18>
			tmp_list_table_index =  Search_list_table_index(tmp_list_table_index, tmp_LORA_Dev_List_Index);
     3f8:	0021      	movs	r1, r4
     3fa:	4b2b      	ldr	r3, [pc, #172]	; (4a8 <Judg_KEY_ADD+0x10c>)
     3fc:	4798      	blx	r3
     3fe:	0005      	movs	r5, r0
			if(tmp_list_table_index != Not_found_Index)
     400:	28ff      	cmp	r0, #255	; 0xff
     402:	d0d7      	beq.n	3b4 <Judg_KEY_ADD+0x18>
				Print_Find_Msg();
     404:	4b29      	ldr	r3, [pc, #164]	; (4ac <Judg_KEY_ADD+0x110>)
     406:	4798      	blx	r3
				Print_One_Form_List_Table(tmp_list_table_index, tmp_LORA_Dev_List_Index);
     408:	0021      	movs	r1, r4
     40a:	0028      	movs	r0, r5
     40c:	4b28      	ldr	r3, [pc, #160]	; (4b0 <Judg_KEY_ADD+0x114>)
     40e:	469a      	mov	sl, r3
     410:	4798      	blx	r3
				Print_Arrow_Right();
     412:	4b28      	ldr	r3, [pc, #160]	; (4b4 <Judg_KEY_ADD+0x118>)
     414:	4798      	blx	r3
				tmp_LORA_Dev_List_Index[tmp_list_table_index].Dev_En_Flag = Dev_Dis;
     416:	9501      	str	r5, [sp, #4]
     418:	012f      	lsls	r7, r5, #4
     41a:	19e7      	adds	r7, r4, r7
     41c:	2300      	movs	r3, #0
     41e:	707b      	strb	r3, [r7, #1]
				tmp_LORA_Dev_List_Index[tmp_list_table_index].MAC_ID.byte[0] = (ascii_to_hex(UserKeyInBuf[8])  << 4) | (ascii_to_hex(UserKeyInBuf[9] ));
     420:	4e1d      	ldr	r6, [pc, #116]	; (498 <Judg_KEY_ADD+0xfc>)
     422:	7a30      	ldrb	r0, [r6, #8]
     424:	4d1d      	ldr	r5, [pc, #116]	; (49c <Judg_KEY_ADD+0x100>)
     426:	47a8      	blx	r5
     428:	4681      	mov	r9, r0
     42a:	7a70      	ldrb	r0, [r6, #9]
     42c:	47a8      	blx	r5
     42e:	464a      	mov	r2, r9
     430:	0113      	lsls	r3, r2, #4
     432:	4303      	orrs	r3, r0
     434:	b2db      	uxtb	r3, r3
     436:	713b      	strb	r3, [r7, #4]
				tmp_LORA_Dev_List_Index[tmp_list_table_index].MAC_ID.byte[1] = (ascii_to_hex(UserKeyInBuf[10]) << 4) | (ascii_to_hex(UserKeyInBuf[11]));
     438:	7ab0      	ldrb	r0, [r6, #10]
     43a:	47a8      	blx	r5
     43c:	4681      	mov	r9, r0
     43e:	7af0      	ldrb	r0, [r6, #11]
     440:	47a8      	blx	r5
     442:	464a      	mov	r2, r9
     444:	0113      	lsls	r3, r2, #4
     446:	4303      	orrs	r3, r0
     448:	b2db      	uxtb	r3, r3
     44a:	717b      	strb	r3, [r7, #5]
				tmp_LORA_Dev_List_Index[tmp_list_table_index].MAC_ID.byte[2] = (ascii_to_hex(UserKeyInBuf[12]) << 4) | (ascii_to_hex(UserKeyInBuf[13]));
     44c:	7b30      	ldrb	r0, [r6, #12]
     44e:	47a8      	blx	r5
     450:	4681      	mov	r9, r0
     452:	7b70      	ldrb	r0, [r6, #13]
     454:	47a8      	blx	r5
     456:	464a      	mov	r2, r9
     458:	0113      	lsls	r3, r2, #4
     45a:	4303      	orrs	r3, r0
     45c:	b2db      	uxtb	r3, r3
     45e:	71bb      	strb	r3, [r7, #6]
				tmp_LORA_Dev_List_Index[tmp_list_table_index].MAC_ID.byte[3] = (ascii_to_hex(UserKeyInBuf[14]) << 4) | (ascii_to_hex(UserKeyInBuf[15]));
     460:	7bb0      	ldrb	r0, [r6, #14]
     462:	47a8      	blx	r5
     464:	4681      	mov	r9, r0
     466:	7bf0      	ldrb	r0, [r6, #15]
     468:	47a8      	blx	r5
     46a:	464a      	mov	r2, r9
     46c:	0113      	lsls	r3, r2, #4
     46e:	4303      	orrs	r3, r0
     470:	b2db      	uxtb	r3, r3
     472:	71fb      	strb	r3, [r7, #7]
				Save_List_in_NVM(tmp_LORA_Dev_List_Index);
     474:	0020      	movs	r0, r4
     476:	4b10      	ldr	r3, [pc, #64]	; (4b8 <Judg_KEY_ADD+0x11c>)
     478:	4798      	blx	r3
				Load_List_Form_NVM(tmp_LORA_Dev_List_Index);
     47a:	0020      	movs	r0, r4
     47c:	4b0f      	ldr	r3, [pc, #60]	; (4bc <Judg_KEY_ADD+0x120>)
     47e:	4798      	blx	r3
				Print_One_Form_List_Table(tmp_list_table_index, tmp_LORA_Dev_List_Index);
     480:	0021      	movs	r1, r4
     482:	9801      	ldr	r0, [sp, #4]
     484:	47d0      	blx	sl
				uTXByte(Debug_COM, 0x0d);
     486:	4d0e      	ldr	r5, [pc, #56]	; (4c0 <Judg_KEY_ADD+0x124>)
     488:	210d      	movs	r1, #13
     48a:	0028      	movs	r0, r5
     48c:	4c0d      	ldr	r4, [pc, #52]	; (4c4 <Judg_KEY_ADD+0x128>)
     48e:	47a0      	blx	r4
				uTXByte(Debug_COM, 0x0d);
     490:	210d      	movs	r1, #13
     492:	0028      	movs	r0, r5
     494:	47a0      	blx	r4
     496:	e78d      	b.n	3b4 <Judg_KEY_ADD+0x18>
     498:	20000358 	.word	0x20000358
     49c:	0000564d 	.word	0x0000564d
     4a0:	200003a6 	.word	0x200003a6
     4a4:	00001b51 	.word	0x00001b51
     4a8:	0000276d 	.word	0x0000276d
     4ac:	00003181 	.word	0x00003181
     4b0:	000031fd 	.word	0x000031fd
     4b4:	000032b1 	.word	0x000032b1
     4b8:	00002549 	.word	0x00002549
     4bc:	000026e1 	.word	0x000026e1
     4c0:	200002f0 	.word	0x200002f0
     4c4:	00005535 	.word	0x00005535

000004c8 <Judg_KEY_CH>:
﻿#include <asf.h>
#include <stdio.h>
#include "myDefine.h"

void Judg_KEY_CH(void)
{
     4c8:	b5f0      	push	{r4, r5, r6, r7, lr}
     4ca:	46de      	mov	lr, fp
     4cc:	4657      	mov	r7, sl
     4ce:	464e      	mov	r6, r9
     4d0:	4645      	mov	r5, r8
     4d2:	b5e0      	push	{r5, r6, r7, lr}
     4d4:	b083      	sub	sp, #12
	UINT16u_t tmp16;
	unsigned int tmp_value;
	unsigned char tmp_index;
	
	
	if(	ascii_to_hex(UserKeyInBuf[0]) == KEYC && ascii_to_hex(UserKeyInBuf[1]) == KEYH )
     4d6:	4b6a      	ldr	r3, [pc, #424]	; (680 <Judg_KEY_CH+0x1b8>)
     4d8:	7818      	ldrb	r0, [r3, #0]
     4da:	4b6a      	ldr	r3, [pc, #424]	; (684 <Judg_KEY_CH+0x1bc>)
     4dc:	4798      	blx	r3
     4de:	280c      	cmp	r0, #12
     4e0:	d006      	beq.n	4f0 <Judg_KEY_CH+0x28>
				}
				uTXByte(Debug_COM, 0x0d);
			}
		}
	}
     4e2:	b003      	add	sp, #12
     4e4:	bc3c      	pop	{r2, r3, r4, r5}
     4e6:	4690      	mov	r8, r2
     4e8:	4699      	mov	r9, r3
     4ea:	46a2      	mov	sl, r4
     4ec:	46ab      	mov	fp, r5
     4ee:	bdf0      	pop	{r4, r5, r6, r7, pc}
	if(	ascii_to_hex(UserKeyInBuf[0]) == KEYC && ascii_to_hex(UserKeyInBuf[1]) == KEYH )
     4f0:	4b63      	ldr	r3, [pc, #396]	; (680 <Judg_KEY_CH+0x1b8>)
     4f2:	7858      	ldrb	r0, [r3, #1]
     4f4:	4b63      	ldr	r3, [pc, #396]	; (684 <Judg_KEY_CH+0x1bc>)
     4f6:	4798      	blx	r3
     4f8:	2811      	cmp	r0, #17
     4fa:	d1f2      	bne.n	4e2 <Judg_KEY_CH+0x1a>
		if(UserKeyInBufCount == 9 && UserKeyInBuf[8] == 0x0d  && UserKeyInBuf[3] == ' ')
     4fc:	4b62      	ldr	r3, [pc, #392]	; (688 <Judg_KEY_CH+0x1c0>)
     4fe:	781b      	ldrb	r3, [r3, #0]
     500:	2b09      	cmp	r3, #9
     502:	d033      	beq.n	56c <Judg_KEY_CH+0xa4>
		else if(UserKeyInBufCount == 3 && UserKeyInBuf[2] == 0x0d)
     504:	2b03      	cmp	r3, #3
     506:	d1ec      	bne.n	4e2 <Judg_KEY_CH+0x1a>
     508:	4b5d      	ldr	r3, [pc, #372]	; (680 <Judg_KEY_CH+0x1b8>)
     50a:	789b      	ldrb	r3, [r3, #2]
     50c:	2b0d      	cmp	r3, #13
     50e:	d1e8      	bne.n	4e2 <Judg_KEY_CH+0x1a>
     510:	2400      	movs	r4, #0
     512:	2630      	movs	r6, #48	; 0x30
					uart_str("CH\0");
     514:	4f5d      	ldr	r7, [pc, #372]	; (68c <Judg_KEY_CH+0x1c4>)
     516:	485e      	ldr	r0, [pc, #376]	; (690 <Judg_KEY_CH+0x1c8>)
     518:	47b8      	blx	r7
					uTXByte(Debug_COM, 0x30 + i);
     51a:	0031      	movs	r1, r6
     51c:	485d      	ldr	r0, [pc, #372]	; (694 <Judg_KEY_CH+0x1cc>)
     51e:	4d5e      	ldr	r5, [pc, #376]	; (698 <Judg_KEY_CH+0x1d0>)
     520:	47a8      	blx	r5
					uTXByte(Debug_COM, ':');
     522:	213a      	movs	r1, #58	; 0x3a
     524:	485b      	ldr	r0, [pc, #364]	; (694 <Judg_KEY_CH+0x1cc>)
     526:	47a8      	blx	r5
					uart_send_word(Debug_COM, hex_to_bcd(CH_Formula[i]));
     528:	4b5c      	ldr	r3, [pc, #368]	; (69c <Judg_KEY_CH+0x1d4>)
     52a:	5918      	ldr	r0, [r3, r4]
     52c:	4b5c      	ldr	r3, [pc, #368]	; (6a0 <Judg_KEY_CH+0x1d8>)
     52e:	4798      	blx	r3
     530:	0001      	movs	r1, r0
     532:	4858      	ldr	r0, [pc, #352]	; (694 <Judg_KEY_CH+0x1cc>)
     534:	4b5b      	ldr	r3, [pc, #364]	; (6a4 <Judg_KEY_CH+0x1dc>)
     536:	469b      	mov	fp, r3
     538:	4798      	blx	r3
					uTXByte(Debug_COM, ' ');
     53a:	2120      	movs	r1, #32
     53c:	4855      	ldr	r0, [pc, #340]	; (694 <Judg_KEY_CH+0x1cc>)
     53e:	47a8      	blx	r5
					uTXByte(Debug_COM, '(');
     540:	2128      	movs	r1, #40	; 0x28
     542:	4854      	ldr	r0, [pc, #336]	; (694 <Judg_KEY_CH+0x1cc>)
     544:	47a8      	blx	r5
					uart_send_word(Debug_COM, CH_Formula_base[i]);
     546:	4b58      	ldr	r3, [pc, #352]	; (6a8 <Judg_KEY_CH+0x1e0>)
     548:	5919      	ldr	r1, [r3, r4]
     54a:	4852      	ldr	r0, [pc, #328]	; (694 <Judg_KEY_CH+0x1cc>)
     54c:	47d8      	blx	fp
					uTXByte(Debug_COM, ')');
     54e:	2129      	movs	r1, #41	; 0x29
     550:	4850      	ldr	r0, [pc, #320]	; (694 <Judg_KEY_CH+0x1cc>)
     552:	47a8      	blx	r5
					uart_str("\t\0");
     554:	4855      	ldr	r0, [pc, #340]	; (6ac <Judg_KEY_CH+0x1e4>)
     556:	47b8      	blx	r7
     558:	3601      	adds	r6, #1
     55a:	b2f6      	uxtb	r6, r6
     55c:	3404      	adds	r4, #4
				for (unsigned char i = 0 ; i < 4; i++)
     55e:	2c10      	cmp	r4, #16
     560:	d1d9      	bne.n	516 <Judg_KEY_CH+0x4e>
				uTXByte(Debug_COM, 0x0d);
     562:	210d      	movs	r1, #13
     564:	484b      	ldr	r0, [pc, #300]	; (694 <Judg_KEY_CH+0x1cc>)
     566:	4b4c      	ldr	r3, [pc, #304]	; (698 <Judg_KEY_CH+0x1d0>)
     568:	4798      	blx	r3
     56a:	e7ba      	b.n	4e2 <Judg_KEY_CH+0x1a>
		if(UserKeyInBufCount == 9 && UserKeyInBuf[8] == 0x0d  && UserKeyInBuf[3] == ' ')
     56c:	4b44      	ldr	r3, [pc, #272]	; (680 <Judg_KEY_CH+0x1b8>)
     56e:	7a1b      	ldrb	r3, [r3, #8]
     570:	2b0d      	cmp	r3, #13
     572:	d1b6      	bne.n	4e2 <Judg_KEY_CH+0x1a>
     574:	4b42      	ldr	r3, [pc, #264]	; (680 <Judg_KEY_CH+0x1b8>)
     576:	78db      	ldrb	r3, [r3, #3]
     578:	2b20      	cmp	r3, #32
     57a:	d1b2      	bne.n	4e2 <Judg_KEY_CH+0x1a>
			tmp_index = ascii_to_hex(UserKeyInBuf[2]);
     57c:	4e40      	ldr	r6, [pc, #256]	; (680 <Judg_KEY_CH+0x1b8>)
     57e:	78b0      	ldrb	r0, [r6, #2]
     580:	4d40      	ldr	r5, [pc, #256]	; (684 <Judg_KEY_CH+0x1bc>)
     582:	47a8      	blx	r5
     584:	4681      	mov	r9, r0
			tmp_value  = ascii_to_hex(UserKeyInBuf[4]) * 1000;
     586:	7930      	ldrb	r0, [r6, #4]
     588:	47a8      	blx	r5
     58a:	27fa      	movs	r7, #250	; 0xfa
     58c:	00bf      	lsls	r7, r7, #2
     58e:	4347      	muls	r7, r0
			tmp_value += ascii_to_hex(UserKeyInBuf[5]) * 100;
     590:	7970      	ldrb	r0, [r6, #5]
     592:	47a8      	blx	r5
     594:	2464      	movs	r4, #100	; 0x64
     596:	4344      	muls	r4, r0
     598:	19e4      	adds	r4, r4, r7
			tmp_value += ascii_to_hex(UserKeyInBuf[6]) * 10;
     59a:	79b0      	ldrb	r0, [r6, #6]
     59c:	47a8      	blx	r5
     59e:	0007      	movs	r7, r0
			tmp_value += ascii_to_hex(UserKeyInBuf[7]);
     5a0:	79f0      	ldrb	r0, [r6, #7]
     5a2:	47a8      	blx	r5
     5a4:	1904      	adds	r4, r0, r4
			tmp_value += ascii_to_hex(UserKeyInBuf[6]) * 10;
     5a6:	200a      	movs	r0, #10
     5a8:	4378      	muls	r0, r7
			tmp_value += ascii_to_hex(UserKeyInBuf[7]);
     5aa:	1903      	adds	r3, r0, r4
     5ac:	9301      	str	r3, [sp, #4]
     5ae:	2400      	movs	r4, #0
     5b0:	2630      	movs	r6, #48	; 0x30
				uart_str("CH\0");
     5b2:	4f36      	ldr	r7, [pc, #216]	; (68c <Judg_KEY_CH+0x1c4>)
     5b4:	4836      	ldr	r0, [pc, #216]	; (690 <Judg_KEY_CH+0x1c8>)
     5b6:	47b8      	blx	r7
				uTXByte(Debug_COM, 0x30 + i);
     5b8:	0031      	movs	r1, r6
     5ba:	4836      	ldr	r0, [pc, #216]	; (694 <Judg_KEY_CH+0x1cc>)
     5bc:	4d36      	ldr	r5, [pc, #216]	; (698 <Judg_KEY_CH+0x1d0>)
     5be:	47a8      	blx	r5
				uTXByte(Debug_COM, ':');
     5c0:	213a      	movs	r1, #58	; 0x3a
     5c2:	4834      	ldr	r0, [pc, #208]	; (694 <Judg_KEY_CH+0x1cc>)
     5c4:	47a8      	blx	r5
				uart_send_word(Debug_COM, hex_to_bcd(CH_Formula[i]));
     5c6:	4b35      	ldr	r3, [pc, #212]	; (69c <Judg_KEY_CH+0x1d4>)
     5c8:	5918      	ldr	r0, [r3, r4]
     5ca:	4b35      	ldr	r3, [pc, #212]	; (6a0 <Judg_KEY_CH+0x1d8>)
     5cc:	4798      	blx	r3
     5ce:	0001      	movs	r1, r0
     5d0:	4830      	ldr	r0, [pc, #192]	; (694 <Judg_KEY_CH+0x1cc>)
     5d2:	4b34      	ldr	r3, [pc, #208]	; (6a4 <Judg_KEY_CH+0x1dc>)
     5d4:	469a      	mov	sl, r3
     5d6:	4798      	blx	r3
				uTXByte(Debug_COM, ' ');
     5d8:	2120      	movs	r1, #32
     5da:	482e      	ldr	r0, [pc, #184]	; (694 <Judg_KEY_CH+0x1cc>)
     5dc:	47a8      	blx	r5
				uTXByte(Debug_COM, '(');
     5de:	2128      	movs	r1, #40	; 0x28
     5e0:	482c      	ldr	r0, [pc, #176]	; (694 <Judg_KEY_CH+0x1cc>)
     5e2:	47a8      	blx	r5
				uart_send_word(Debug_COM, CH_Formula_base[i]);
     5e4:	4b30      	ldr	r3, [pc, #192]	; (6a8 <Judg_KEY_CH+0x1e0>)
     5e6:	5919      	ldr	r1, [r3, r4]
     5e8:	482a      	ldr	r0, [pc, #168]	; (694 <Judg_KEY_CH+0x1cc>)
     5ea:	47d0      	blx	sl
				uTXByte(Debug_COM, ')');
     5ec:	2129      	movs	r1, #41	; 0x29
     5ee:	4829      	ldr	r0, [pc, #164]	; (694 <Judg_KEY_CH+0x1cc>)
     5f0:	47a8      	blx	r5
				uart_str("\t\0");
     5f2:	482e      	ldr	r0, [pc, #184]	; (6ac <Judg_KEY_CH+0x1e4>)
     5f4:	47b8      	blx	r7
     5f6:	3601      	adds	r6, #1
     5f8:	b2f6      	uxtb	r6, r6
     5fa:	3404      	adds	r4, #4
			for (unsigned char i = 0 ; i < 4; i++)
     5fc:	2c10      	cmp	r4, #16
     5fe:	d1d9      	bne.n	5b4 <Judg_KEY_CH+0xec>
			uTXByte(Debug_COM, 0x0d);
     600:	4c24      	ldr	r4, [pc, #144]	; (694 <Judg_KEY_CH+0x1cc>)
     602:	210d      	movs	r1, #13
     604:	0020      	movs	r0, r4
     606:	4d24      	ldr	r5, [pc, #144]	; (698 <Judg_KEY_CH+0x1d0>)
     608:	47a8      	blx	r5
			uart_str("CH\0");
     60a:	4821      	ldr	r0, [pc, #132]	; (690 <Judg_KEY_CH+0x1c8>)
     60c:	4b1f      	ldr	r3, [pc, #124]	; (68c <Judg_KEY_CH+0x1c4>)
     60e:	469b      	mov	fp, r3
     610:	4798      	blx	r3
			uTXByte(Debug_COM, UserKeyInBuf[2]);
     612:	4b1b      	ldr	r3, [pc, #108]	; (680 <Judg_KEY_CH+0x1b8>)
     614:	469a      	mov	sl, r3
     616:	7899      	ldrb	r1, [r3, #2]
     618:	0020      	movs	r0, r4
     61a:	47a8      	blx	r5
			uTXByte(Debug_COM, ':');
     61c:	213a      	movs	r1, #58	; 0x3a
     61e:	0020      	movs	r0, r4
     620:	47a8      	blx	r5
			uart_send_word(Debug_COM, hex_to_bcd(CH_Formula[tmp_index]));
     622:	4f1e      	ldr	r7, [pc, #120]	; (69c <Judg_KEY_CH+0x1d4>)
     624:	464b      	mov	r3, r9
     626:	009e      	lsls	r6, r3, #2
     628:	59f0      	ldr	r0, [r6, r7]
     62a:	4b1d      	ldr	r3, [pc, #116]	; (6a0 <Judg_KEY_CH+0x1d8>)
     62c:	4699      	mov	r9, r3
     62e:	4798      	blx	r3
     630:	0001      	movs	r1, r0
     632:	0020      	movs	r0, r4
     634:	4b1b      	ldr	r3, [pc, #108]	; (6a4 <Judg_KEY_CH+0x1dc>)
     636:	4698      	mov	r8, r3
     638:	4798      	blx	r3
			Print_Arrow_Right();
     63a:	4b1d      	ldr	r3, [pc, #116]	; (6b0 <Judg_KEY_CH+0x1e8>)
     63c:	4798      	blx	r3
			CH_Formula[tmp_index] = tmp_value;
     63e:	9b01      	ldr	r3, [sp, #4]
     640:	51f3      	str	r3, [r6, r7]
			uart_str("CH\0");
     642:	4813      	ldr	r0, [pc, #76]	; (690 <Judg_KEY_CH+0x1c8>)
     644:	47d8      	blx	fp
			uTXByte(Debug_COM, UserKeyInBuf[2]);
     646:	4653      	mov	r3, sl
     648:	7899      	ldrb	r1, [r3, #2]
     64a:	0020      	movs	r0, r4
     64c:	47a8      	blx	r5
			uTXByte(Debug_COM, ':');
     64e:	213a      	movs	r1, #58	; 0x3a
     650:	0020      	movs	r0, r4
     652:	47a8      	blx	r5
			uart_send_word(Debug_COM, hex_to_bcd(CH_Formula[tmp_index]));
     654:	59f0      	ldr	r0, [r6, r7]
     656:	47c8      	blx	r9
     658:	0001      	movs	r1, r0
     65a:	0020      	movs	r0, r4
     65c:	47c0      	blx	r8
			uTXByte(Debug_COM, 0x0d);
     65e:	210d      	movs	r1, #13
     660:	0020      	movs	r0, r4
     662:	47a8      	blx	r5
			uTXByte(Debug_COM, 0x0d);
     664:	210d      	movs	r1, #13
     666:	0020      	movs	r0, r4
     668:	47a8      	blx	r5
			Save_LoRa_Profile_in_NVM(LORA01);
     66a:	4e12      	ldr	r6, [pc, #72]	; (6b4 <Judg_KEY_CH+0x1ec>)
     66c:	6830      	ldr	r0, [r6, #0]
     66e:	4b12      	ldr	r3, [pc, #72]	; (6b8 <Judg_KEY_CH+0x1f0>)
     670:	4798      	blx	r3
			Load_LoRa_Profile_in_NVM(LORA01);
     672:	6830      	ldr	r0, [r6, #0]
     674:	4b11      	ldr	r3, [pc, #68]	; (6bc <Judg_KEY_CH+0x1f4>)
     676:	4798      	blx	r3
			uTXByte(Debug_COM, 0x0d);
     678:	210d      	movs	r1, #13
     67a:	0020      	movs	r0, r4
     67c:	47a8      	blx	r5
     67e:	e730      	b.n	4e2 <Judg_KEY_CH+0x1a>
     680:	20000358 	.word	0x20000358
     684:	0000564d 	.word	0x0000564d
     688:	200003a6 	.word	0x200003a6
     68c:	00003101 	.word	0x00003101
     690:	00008768 	.word	0x00008768
     694:	200002f0 	.word	0x200002f0
     698:	00005535 	.word	0x00005535
     69c:	20001948 	.word	0x20001948
     6a0:	000057f5 	.word	0x000057f5
     6a4:	000055c9 	.word	0x000055c9
     6a8:	200016e4 	.word	0x200016e4
     6ac:	0000876c 	.word	0x0000876c
     6b0:	000032b1 	.word	0x000032b1
     6b4:	20001944 	.word	0x20001944
     6b8:	00002439 	.word	0x00002439
     6bc:	00002149 	.word	0x00002149

000006c0 <Print_Debug_Msg>:
#include <stdio.h>
#include "myDefine.h"


void Print_Debug_Msg(void)
{
     6c0:	b570      	push	{r4, r5, r6, lr}
	uTXByte(Debug_COM, 'D');
     6c2:	4d0a      	ldr	r5, [pc, #40]	; (6ec <Print_Debug_Msg+0x2c>)
     6c4:	2144      	movs	r1, #68	; 0x44
     6c6:	0028      	movs	r0, r5
     6c8:	4c09      	ldr	r4, [pc, #36]	; (6f0 <Print_Debug_Msg+0x30>)
     6ca:	47a0      	blx	r4
	uTXByte(Debug_COM, 'e');
     6cc:	2165      	movs	r1, #101	; 0x65
     6ce:	0028      	movs	r0, r5
     6d0:	47a0      	blx	r4
	uTXByte(Debug_COM, 'B');
     6d2:	2142      	movs	r1, #66	; 0x42
     6d4:	0028      	movs	r0, r5
     6d6:	47a0      	blx	r4
	uTXByte(Debug_COM, 'u');
     6d8:	2175      	movs	r1, #117	; 0x75
     6da:	0028      	movs	r0, r5
     6dc:	47a0      	blx	r4
	uTXByte(Debug_COM, 'g');
     6de:	2167      	movs	r1, #103	; 0x67
     6e0:	0028      	movs	r0, r5
     6e2:	47a0      	blx	r4
	uTXByte(Debug_COM, ' ');	
     6e4:	2120      	movs	r1, #32
     6e6:	0028      	movs	r0, r5
     6e8:	47a0      	blx	r4
}
     6ea:	bd70      	pop	{r4, r5, r6, pc}
     6ec:	200002f0 	.word	0x200002f0
     6f0:	00005535 	.word	0x00005535

000006f4 <Print_Debug_Mode_ON_Msg>:

void Print_Debug_Mode_ON_Msg(void)
{
     6f4:	b570      	push	{r4, r5, r6, lr}
	Print_Debug_Msg();
     6f6:	4b05      	ldr	r3, [pc, #20]	; (70c <Print_Debug_Mode_ON_Msg+0x18>)
     6f8:	4798      	blx	r3
	uTXByte(Debug_COM, 'O');
     6fa:	4d05      	ldr	r5, [pc, #20]	; (710 <Print_Debug_Mode_ON_Msg+0x1c>)
     6fc:	214f      	movs	r1, #79	; 0x4f
     6fe:	0028      	movs	r0, r5
     700:	4c04      	ldr	r4, [pc, #16]	; (714 <Print_Debug_Mode_ON_Msg+0x20>)
     702:	47a0      	blx	r4
	uTXByte(Debug_COM, 'N');
     704:	214e      	movs	r1, #78	; 0x4e
     706:	0028      	movs	r0, r5
     708:	47a0      	blx	r4
}
     70a:	bd70      	pop	{r4, r5, r6, pc}
     70c:	000006c1 	.word	0x000006c1
     710:	200002f0 	.word	0x200002f0
     714:	00005535 	.word	0x00005535

00000718 <Print_Debug_Mode_OFF_Msg>:

void Print_Debug_Mode_OFF_Msg(void)
{
     718:	b570      	push	{r4, r5, r6, lr}
	Print_Debug_Msg();
     71a:	4b07      	ldr	r3, [pc, #28]	; (738 <Print_Debug_Mode_OFF_Msg+0x20>)
     71c:	4798      	blx	r3
	uTXByte(Debug_COM, 'O');
     71e:	4d07      	ldr	r5, [pc, #28]	; (73c <Print_Debug_Mode_OFF_Msg+0x24>)
     720:	214f      	movs	r1, #79	; 0x4f
     722:	0028      	movs	r0, r5
     724:	4c06      	ldr	r4, [pc, #24]	; (740 <Print_Debug_Mode_OFF_Msg+0x28>)
     726:	47a0      	blx	r4
	uTXByte(Debug_COM, 'F');
     728:	2146      	movs	r1, #70	; 0x46
     72a:	0028      	movs	r0, r5
     72c:	47a0      	blx	r4
	uTXByte(Debug_COM, 'F');
     72e:	2146      	movs	r1, #70	; 0x46
     730:	0028      	movs	r0, r5
     732:	47a0      	blx	r4
}
     734:	bd70      	pop	{r4, r5, r6, pc}
     736:	46c0      	nop			; (mov r8, r8)
     738:	000006c1 	.word	0x000006c1
     73c:	200002f0 	.word	0x200002f0
     740:	00005535 	.word	0x00005535

00000744 <Debug_Mode_Func>:

void Debug_Mode_Func(volatile LORA_DEFINE_t *tmp_LORA)
{
     744:	b510      	push	{r4, lr}
     746:	0004      	movs	r4, r0
	Print_Lora_number(tmp_LORA);
     748:	4b0c      	ldr	r3, [pc, #48]	; (77c <Debug_Mode_Func+0x38>)
     74a:	4798      	blx	r3
	if(tmp_LORA->Lora_Debug_Flag == NeedDebug)
     74c:	2388      	movs	r3, #136	; 0x88
     74e:	009b      	lsls	r3, r3, #2
     750:	5ce3      	ldrb	r3, [r4, r3]
     752:	2b01      	cmp	r3, #1
     754:	d00a      	beq.n	76c <Debug_Mode_Func+0x28>
		tmp_LORA->Lora_Debug_Flag = NoDebug;
		Print_Debug_Mode_OFF_Msg();
	}
	else
	{
		tmp_LORA->Lora_Debug_Flag = NeedDebug;
     756:	2201      	movs	r2, #1
     758:	2388      	movs	r3, #136	; 0x88
     75a:	009b      	lsls	r3, r3, #2
     75c:	54e2      	strb	r2, [r4, r3]
		Print_Debug_Mode_ON_Msg();
     75e:	4b08      	ldr	r3, [pc, #32]	; (780 <Debug_Mode_Func+0x3c>)
     760:	4798      	blx	r3
	}
	uTXByte(Debug_COM, 0x0d);
     762:	210d      	movs	r1, #13
     764:	4807      	ldr	r0, [pc, #28]	; (784 <Debug_Mode_Func+0x40>)
     766:	4b08      	ldr	r3, [pc, #32]	; (788 <Debug_Mode_Func+0x44>)
     768:	4798      	blx	r3
}
     76a:	bd10      	pop	{r4, pc}
		tmp_LORA->Lora_Debug_Flag = NoDebug;
     76c:	2200      	movs	r2, #0
     76e:	2388      	movs	r3, #136	; 0x88
     770:	009b      	lsls	r3, r3, #2
     772:	54e2      	strb	r2, [r4, r3]
		Print_Debug_Mode_OFF_Msg();
     774:	4b05      	ldr	r3, [pc, #20]	; (78c <Debug_Mode_Func+0x48>)
     776:	4798      	blx	r3
     778:	e7f3      	b.n	762 <Debug_Mode_Func+0x1e>
     77a:	46c0      	nop			; (mov r8, r8)
     77c:	00003125 	.word	0x00003125
     780:	000006f5 	.word	0x000006f5
     784:	200002f0 	.word	0x200002f0
     788:	00005535 	.word	0x00005535
     78c:	00000719 	.word	0x00000719

00000790 <Judg_KEY_D>:

void Judg_KEY_D(void)
{
     790:	b510      	push	{r4, lr}
	// Example: D1←
	//  D  1  ←
	// [0][1][2]
	// UserKeyInBufCount = 3
	// ← = 0x0d
	if(ascii_to_hex(UserKeyInBuf[0]) == KEYD)
     792:	4b15      	ldr	r3, [pc, #84]	; (7e8 <Judg_KEY_D+0x58>)
     794:	7818      	ldrb	r0, [r3, #0]
     796:	4b15      	ldr	r3, [pc, #84]	; (7ec <Judg_KEY_D+0x5c>)
     798:	4798      	blx	r3
     79a:	280d      	cmp	r0, #13
     79c:	d000      	beq.n	7a0 <Judg_KEY_D+0x10>
		{
			if(ascii_to_hex(UserKeyInBuf[1]) == KEY1)		{	Debug_Mode_Func(LORA01);	CMD_Save_Func(LORA01);}
			else if(ascii_to_hex(UserKeyInBuf[1]) == KEY2)	{	Debug_Mode_Func(LORA02);	CMD_Save_Func(LORA02);}
		}
	}
}
     79e:	bd10      	pop	{r4, pc}
		if(UserKeyInBufCount == 3 && UserKeyInBuf[2] == 0x0d)
     7a0:	4b13      	ldr	r3, [pc, #76]	; (7f0 <Judg_KEY_D+0x60>)
     7a2:	781b      	ldrb	r3, [r3, #0]
     7a4:	2b03      	cmp	r3, #3
     7a6:	d1fa      	bne.n	79e <Judg_KEY_D+0xe>
     7a8:	4b0f      	ldr	r3, [pc, #60]	; (7e8 <Judg_KEY_D+0x58>)
     7aa:	789b      	ldrb	r3, [r3, #2]
     7ac:	2b0d      	cmp	r3, #13
     7ae:	d1f6      	bne.n	79e <Judg_KEY_D+0xe>
			if(ascii_to_hex(UserKeyInBuf[1]) == KEY1)		{	Debug_Mode_Func(LORA01);	CMD_Save_Func(LORA01);}
     7b0:	4b0d      	ldr	r3, [pc, #52]	; (7e8 <Judg_KEY_D+0x58>)
     7b2:	7858      	ldrb	r0, [r3, #1]
     7b4:	4b0d      	ldr	r3, [pc, #52]	; (7ec <Judg_KEY_D+0x5c>)
     7b6:	4798      	blx	r3
     7b8:	2801      	cmp	r0, #1
     7ba:	d00d      	beq.n	7d8 <Judg_KEY_D+0x48>
			else if(ascii_to_hex(UserKeyInBuf[1]) == KEY2)	{	Debug_Mode_Func(LORA02);	CMD_Save_Func(LORA02);}
     7bc:	4b0a      	ldr	r3, [pc, #40]	; (7e8 <Judg_KEY_D+0x58>)
     7be:	7858      	ldrb	r0, [r3, #1]
     7c0:	4b0a      	ldr	r3, [pc, #40]	; (7ec <Judg_KEY_D+0x5c>)
     7c2:	4798      	blx	r3
     7c4:	2802      	cmp	r0, #2
     7c6:	d1ea      	bne.n	79e <Judg_KEY_D+0xe>
     7c8:	4c0a      	ldr	r4, [pc, #40]	; (7f4 <Judg_KEY_D+0x64>)
     7ca:	6820      	ldr	r0, [r4, #0]
     7cc:	4b0a      	ldr	r3, [pc, #40]	; (7f8 <Judg_KEY_D+0x68>)
     7ce:	4798      	blx	r3
     7d0:	6820      	ldr	r0, [r4, #0]
     7d2:	4b0a      	ldr	r3, [pc, #40]	; (7fc <Judg_KEY_D+0x6c>)
     7d4:	4798      	blx	r3
}
     7d6:	e7e2      	b.n	79e <Judg_KEY_D+0xe>
			if(ascii_to_hex(UserKeyInBuf[1]) == KEY1)		{	Debug_Mode_Func(LORA01);	CMD_Save_Func(LORA01);}
     7d8:	4c09      	ldr	r4, [pc, #36]	; (800 <Judg_KEY_D+0x70>)
     7da:	6820      	ldr	r0, [r4, #0]
     7dc:	4b06      	ldr	r3, [pc, #24]	; (7f8 <Judg_KEY_D+0x68>)
     7de:	4798      	blx	r3
     7e0:	6820      	ldr	r0, [r4, #0]
     7e2:	4b06      	ldr	r3, [pc, #24]	; (7fc <Judg_KEY_D+0x6c>)
     7e4:	4798      	blx	r3
     7e6:	e7da      	b.n	79e <Judg_KEY_D+0xe>
     7e8:	20000358 	.word	0x20000358
     7ec:	0000564d 	.word	0x0000564d
     7f0:	200003a6 	.word	0x200003a6
     7f4:	20000d18 	.word	0x20000d18
     7f8:	00000745 	.word	0x00000745
     7fc:	00001b79 	.word	0x00001b79
     800:	20001944 	.word	0x20001944

00000804 <Judg_KEY_DL>:
#include <asf.h>
#include <stdio.h>
#include "myDefine.h"

void Judg_KEY_DL(volatile LORA_Dev_List_t *tmp_LORA_Dev_List_Index)
{
     804:	b5f0      	push	{r4, r5, r6, r7, lr}
     806:	46d6      	mov	lr, sl
     808:	464f      	mov	r7, r9
     80a:	4646      	mov	r6, r8
     80c:	b5c0      	push	{r6, r7, lr}
     80e:	0006      	movs	r6, r0
	UINT16u_t tmp16;
	
	if(	ascii_to_hex(UserKeyInBuf[0]) == KEYD && ascii_to_hex(UserKeyInBuf[1]) == KEYL )
     810:	4b9b      	ldr	r3, [pc, #620]	; (a80 <Judg_KEY_DL+0x27c>)
     812:	7818      	ldrb	r0, [r3, #0]
     814:	4b9b      	ldr	r3, [pc, #620]	; (a84 <Judg_KEY_DL+0x280>)
     816:	4798      	blx	r3
     818:	280d      	cmp	r0, #13
     81a:	d004      	beq.n	826 <Judg_KEY_DL+0x22>
			uTXByte(Debug_COM, ' ');
			uart_send_ascii_byte(Debug_COM, LORA01->LoRa_TxRx_Mode_Flag);
			uTXByte(Debug_COM, 0x0d);
		}
	}
     81c:	bc1c      	pop	{r2, r3, r4}
     81e:	4690      	mov	r8, r2
     820:	4699      	mov	r9, r3
     822:	46a2      	mov	sl, r4
     824:	bdf0      	pop	{r4, r5, r6, r7, pc}
	if(	ascii_to_hex(UserKeyInBuf[0]) == KEYD && ascii_to_hex(UserKeyInBuf[1]) == KEYL )
     826:	4b96      	ldr	r3, [pc, #600]	; (a80 <Judg_KEY_DL+0x27c>)
     828:	7858      	ldrb	r0, [r3, #1]
     82a:	4b96      	ldr	r3, [pc, #600]	; (a84 <Judg_KEY_DL+0x280>)
     82c:	4798      	blx	r3
     82e:	2815      	cmp	r0, #21
     830:	d1f4      	bne.n	81c <Judg_KEY_DL+0x18>
		if(UserKeyInBufCount == 3 && UserKeyInBuf[2] == 0x0d)
     832:	4b95      	ldr	r3, [pc, #596]	; (a88 <Judg_KEY_DL+0x284>)
     834:	781b      	ldrb	r3, [r3, #0]
     836:	2b03      	cmp	r3, #3
     838:	d1f0      	bne.n	81c <Judg_KEY_DL+0x18>
     83a:	4b91      	ldr	r3, [pc, #580]	; (a80 <Judg_KEY_DL+0x27c>)
     83c:	789b      	ldrb	r3, [r3, #2]
     83e:	2b0d      	cmp	r3, #13
     840:	d1ec      	bne.n	81c <Judg_KEY_DL+0x18>
			uTXByte(Debug_COM, 0x09);
     842:	4d92      	ldr	r5, [pc, #584]	; (a8c <Judg_KEY_DL+0x288>)
     844:	2109      	movs	r1, #9
     846:	0028      	movs	r0, r5
     848:	4c91      	ldr	r4, [pc, #580]	; (a90 <Judg_KEY_DL+0x28c>)
     84a:	47a0      	blx	r4
			uTXByte(Debug_COM, ' ');
     84c:	2120      	movs	r1, #32
     84e:	0028      	movs	r0, r5
     850:	47a0      	blx	r4
			uTXByte(Debug_COM, ' ');
     852:	2120      	movs	r1, #32
     854:	0028      	movs	r0, r5
     856:	47a0      	blx	r4
			uTXByte(Debug_COM, ' ');
     858:	2120      	movs	r1, #32
     85a:	0028      	movs	r0, r5
     85c:	47a0      	blx	r4
			uTXByte(Debug_COM, ' ');
     85e:	2120      	movs	r1, #32
     860:	0028      	movs	r0, r5
     862:	47a0      	blx	r4
			uTXByte(Debug_COM, ' ');
     864:	2120      	movs	r1, #32
     866:	0028      	movs	r0, r5
     868:	47a0      	blx	r4
			uTXByte(Debug_COM, ' ');
     86a:	2120      	movs	r1, #32
     86c:	0028      	movs	r0, r5
     86e:	47a0      	blx	r4
			uTXByte(Debug_COM, ' ');
     870:	2120      	movs	r1, #32
     872:	0028      	movs	r0, r5
     874:	47a0      	blx	r4
			uTXByte(Debug_COM, ' ');
     876:	2120      	movs	r1, #32
     878:	0028      	movs	r0, r5
     87a:	47a0      	blx	r4
			uTXByte(Debug_COM, ' ');
     87c:	2120      	movs	r1, #32
     87e:	0028      	movs	r0, r5
     880:	47a0      	blx	r4
			uTXByte(Debug_COM, ' ');
     882:	2120      	movs	r1, #32
     884:	0028      	movs	r0, r5
     886:	47a0      	blx	r4
			uTXByte(Debug_COM, 'I');
     888:	2149      	movs	r1, #73	; 0x49
     88a:	0028      	movs	r0, r5
     88c:	47a0      	blx	r4
			uTXByte(Debug_COM, 'D');
     88e:	2144      	movs	r1, #68	; 0x44
     890:	0028      	movs	r0, r5
     892:	47a0      	blx	r4
			uTXByte(Debug_COM, ' ');
     894:	2120      	movs	r1, #32
     896:	0028      	movs	r0, r5
     898:	47a0      	blx	r4
			uTXByte(Debug_COM, ' ');
     89a:	2120      	movs	r1, #32
     89c:	0028      	movs	r0, r5
     89e:	47a0      	blx	r4
			uTXByte(Debug_COM, ' ');
     8a0:	2120      	movs	r1, #32
     8a2:	0028      	movs	r0, r5
     8a4:	47a0      	blx	r4
			uTXByte(Debug_COM, ' ');
     8a6:	2120      	movs	r1, #32
     8a8:	0028      	movs	r0, r5
     8aa:	47a0      	blx	r4
			uTXByte(Debug_COM, 'T');
     8ac:	2154      	movs	r1, #84	; 0x54
     8ae:	0028      	movs	r0, r5
     8b0:	47a0      	blx	r4
			uTXByte(Debug_COM, 'P');
     8b2:	2150      	movs	r1, #80	; 0x50
     8b4:	0028      	movs	r0, r5
     8b6:	47a0      	blx	r4
			uTXByte(Debug_COM, ' ');
     8b8:	2120      	movs	r1, #32
     8ba:	0028      	movs	r0, r5
     8bc:	47a0      	blx	r4
			uTXByte(Debug_COM, ' ');
     8be:	2120      	movs	r1, #32
     8c0:	0028      	movs	r0, r5
     8c2:	47a0      	blx	r4
			uTXByte(Debug_COM, 'R');
     8c4:	2152      	movs	r1, #82	; 0x52
     8c6:	0028      	movs	r0, r5
     8c8:	47a0      	blx	r4
			uTXByte(Debug_COM, '0');
     8ca:	2130      	movs	r1, #48	; 0x30
     8cc:	0028      	movs	r0, r5
     8ce:	47a0      	blx	r4
			uTXByte(Debug_COM, ' ');
     8d0:	2120      	movs	r1, #32
     8d2:	0028      	movs	r0, r5
     8d4:	47a0      	blx	r4
			uTXByte(Debug_COM, ' ');
     8d6:	2120      	movs	r1, #32
     8d8:	0028      	movs	r0, r5
     8da:	47a0      	blx	r4
			uTXByte(Debug_COM, ' ');
     8dc:	2120      	movs	r1, #32
     8de:	0028      	movs	r0, r5
     8e0:	47a0      	blx	r4
			uTXByte(Debug_COM, 'R');
     8e2:	2152      	movs	r1, #82	; 0x52
     8e4:	0028      	movs	r0, r5
     8e6:	47a0      	blx	r4
			uTXByte(Debug_COM, '1');
     8e8:	2131      	movs	r1, #49	; 0x31
     8ea:	0028      	movs	r0, r5
     8ec:	47a0      	blx	r4
			uTXByte(Debug_COM, ' ');
     8ee:	2120      	movs	r1, #32
     8f0:	0028      	movs	r0, r5
     8f2:	47a0      	blx	r4
			uTXByte(Debug_COM, ' ');
     8f4:	2120      	movs	r1, #32
     8f6:	0028      	movs	r0, r5
     8f8:	47a0      	blx	r4
			uTXByte(Debug_COM, ' ');
     8fa:	2120      	movs	r1, #32
     8fc:	0028      	movs	r0, r5
     8fe:	47a0      	blx	r4
			uTXByte(Debug_COM, 'R');
     900:	2152      	movs	r1, #82	; 0x52
     902:	0028      	movs	r0, r5
     904:	47a0      	blx	r4
			uTXByte(Debug_COM, '2');
     906:	2132      	movs	r1, #50	; 0x32
     908:	0028      	movs	r0, r5
     90a:	47a0      	blx	r4
			uTXByte(Debug_COM, ' ');
     90c:	2120      	movs	r1, #32
     90e:	0028      	movs	r0, r5
     910:	47a0      	blx	r4
			uTXByte(Debug_COM, ' ');
     912:	2120      	movs	r1, #32
     914:	0028      	movs	r0, r5
     916:	47a0      	blx	r4
			uTXByte(Debug_COM, ' ');
     918:	2120      	movs	r1, #32
     91a:	0028      	movs	r0, r5
     91c:	47a0      	blx	r4
			uTXByte(Debug_COM, 'R');
     91e:	2152      	movs	r1, #82	; 0x52
     920:	0028      	movs	r0, r5
     922:	47a0      	blx	r4
			uTXByte(Debug_COM, '3');
     924:	2133      	movs	r1, #51	; 0x33
     926:	0028      	movs	r0, r5
     928:	47a0      	blx	r4
			uTXByte(Debug_COM, ' ');
     92a:	2120      	movs	r1, #32
     92c:	0028      	movs	r0, r5
     92e:	47a0      	blx	r4
			uTXByte(Debug_COM, ' ');
     930:	2120      	movs	r1, #32
     932:	0028      	movs	r0, r5
     934:	47a0      	blx	r4
			uTXByte(Debug_COM, ' ');
     936:	2120      	movs	r1, #32
     938:	0028      	movs	r0, r5
     93a:	47a0      	blx	r4
			uTXByte(Debug_COM, 'R');
     93c:	2152      	movs	r1, #82	; 0x52
     93e:	0028      	movs	r0, r5
     940:	47a0      	blx	r4
			uTXByte(Debug_COM, '4');
     942:	2134      	movs	r1, #52	; 0x34
     944:	0028      	movs	r0, r5
     946:	47a0      	blx	r4
			uTXByte(Debug_COM, ' ');
     948:	2120      	movs	r1, #32
     94a:	0028      	movs	r0, r5
     94c:	47a0      	blx	r4
			uTXByte(Debug_COM, ' ');
     94e:	2120      	movs	r1, #32
     950:	0028      	movs	r0, r5
     952:	47a0      	blx	r4
			uTXByte(Debug_COM, ' ');
     954:	2120      	movs	r1, #32
     956:	0028      	movs	r0, r5
     958:	47a0      	blx	r4
			uTXByte(Debug_COM, 'R');
     95a:	2152      	movs	r1, #82	; 0x52
     95c:	0028      	movs	r0, r5
     95e:	47a0      	blx	r4
			uTXByte(Debug_COM, '5');
     960:	2135      	movs	r1, #53	; 0x35
     962:	0028      	movs	r0, r5
     964:	47a0      	blx	r4
			uTXByte(Debug_COM, ' ');
     966:	2120      	movs	r1, #32
     968:	0028      	movs	r0, r5
     96a:	47a0      	blx	r4
			uTXByte(Debug_COM, ' ');
     96c:	2120      	movs	r1, #32
     96e:	0028      	movs	r0, r5
     970:	47a0      	blx	r4
			uTXByte(Debug_COM, ' ');
     972:	2120      	movs	r1, #32
     974:	0028      	movs	r0, r5
     976:	47a0      	blx	r4
			uTXByte(Debug_COM, 'R');
     978:	2152      	movs	r1, #82	; 0x52
     97a:	0028      	movs	r0, r5
     97c:	47a0      	blx	r4
			uTXByte(Debug_COM, '6');
     97e:	2136      	movs	r1, #54	; 0x36
     980:	0028      	movs	r0, r5
     982:	47a0      	blx	r4
			uTXByte(Debug_COM, ' ');
     984:	2120      	movs	r1, #32
     986:	0028      	movs	r0, r5
     988:	47a0      	blx	r4
			uTXByte(Debug_COM, ' ');
     98a:	2120      	movs	r1, #32
     98c:	0028      	movs	r0, r5
     98e:	47a0      	blx	r4
			uTXByte(Debug_COM, ' ');
     990:	2120      	movs	r1, #32
     992:	0028      	movs	r0, r5
     994:	47a0      	blx	r4
			uTXByte(Debug_COM, 'R');
     996:	2152      	movs	r1, #82	; 0x52
     998:	0028      	movs	r0, r5
     99a:	47a0      	blx	r4
			uTXByte(Debug_COM, '7');
     99c:	2137      	movs	r1, #55	; 0x37
     99e:	0028      	movs	r0, r5
     9a0:	47a0      	blx	r4
			uTXByte(Debug_COM, ' ');
     9a2:	2120      	movs	r1, #32
     9a4:	0028      	movs	r0, r5
     9a6:	47a0      	blx	r4
			uTXByte(Debug_COM, ' ');
     9a8:	2120      	movs	r1, #32
     9aa:	0028      	movs	r0, r5
     9ac:	47a0      	blx	r4
			uTXByte(Debug_COM, 'V');
     9ae:	2156      	movs	r1, #86	; 0x56
     9b0:	0028      	movs	r0, r5
     9b2:	47a0      	blx	r4
			uTXByte(Debug_COM, 'R');
     9b4:	2152      	movs	r1, #82	; 0x52
     9b6:	0028      	movs	r0, r5
     9b8:	47a0      	blx	r4
			uTXByte(Debug_COM, ' ');
     9ba:	2120      	movs	r1, #32
     9bc:	0028      	movs	r0, r5
     9be:	47a0      	blx	r4
			uTXByte(Debug_COM, 'R');
     9c0:	2152      	movs	r1, #82	; 0x52
     9c2:	0028      	movs	r0, r5
     9c4:	47a0      	blx	r4
			uTXByte(Debug_COM, 'S');
     9c6:	2153      	movs	r1, #83	; 0x53
     9c8:	0028      	movs	r0, r5
     9ca:	47a0      	blx	r4
			uTXByte(Debug_COM, 'S');
     9cc:	2153      	movs	r1, #83	; 0x53
     9ce:	0028      	movs	r0, r5
     9d0:	47a0      	blx	r4
			uTXByte(Debug_COM, 'I');
     9d2:	2149      	movs	r1, #73	; 0x49
     9d4:	0028      	movs	r0, r5
     9d6:	47a0      	blx	r4
			uTXByte(Debug_COM, ' ');
     9d8:	2120      	movs	r1, #32
     9da:	0028      	movs	r0, r5
     9dc:	47a0      	blx	r4
			uTXByte(Debug_COM, 'R');
     9de:	2152      	movs	r1, #82	; 0x52
     9e0:	0028      	movs	r0, r5
     9e2:	47a0      	blx	r4
			uTXByte(Debug_COM, 'S');
     9e4:	2153      	movs	r1, #83	; 0x53
     9e6:	0028      	movs	r0, r5
     9e8:	47a0      	blx	r4
			uTXByte(Debug_COM, 'S');
     9ea:	2153      	movs	r1, #83	; 0x53
     9ec:	0028      	movs	r0, r5
     9ee:	47a0      	blx	r4
			uTXByte(Debug_COM, 'I');
     9f0:	2149      	movs	r1, #73	; 0x49
     9f2:	0028      	movs	r0, r5
     9f4:	47a0      	blx	r4
			uTXByte(Debug_COM, ' ');
     9f6:	2120      	movs	r1, #32
     9f8:	0028      	movs	r0, r5
     9fa:	47a0      	blx	r4
			uTXByte(Debug_COM, ' ');
     9fc:	2120      	movs	r1, #32
     9fe:	0028      	movs	r0, r5
     a00:	47a0      	blx	r4
			uTXByte(Debug_COM, ' ');
     a02:	2120      	movs	r1, #32
     a04:	0028      	movs	r0, r5
     a06:	47a0      	blx	r4
			uTXByte(Debug_COM, ' ');
     a08:	2120      	movs	r1, #32
     a0a:	0028      	movs	r0, r5
     a0c:	47a0      	blx	r4
			uTXByte(Debug_COM, ' ');
     a0e:	2120      	movs	r1, #32
     a10:	0028      	movs	r0, r5
     a12:	47a0      	blx	r4
			uTXByte(Debug_COM, ' ');
     a14:	2120      	movs	r1, #32
     a16:	0028      	movs	r0, r5
     a18:	47a0      	blx	r4
			uTXByte(Debug_COM, ' ');
     a1a:	2120      	movs	r1, #32
     a1c:	0028      	movs	r0, r5
     a1e:	47a0      	blx	r4
			uTXByte(Debug_COM, ' ');
     a20:	2120      	movs	r1, #32
     a22:	0028      	movs	r0, r5
     a24:	47a0      	blx	r4
			uTXByte(Debug_COM, 'T');
     a26:	2154      	movs	r1, #84	; 0x54
     a28:	0028      	movs	r0, r5
     a2a:	47a0      	blx	r4
			uTXByte(Debug_COM, 'i');
     a2c:	2169      	movs	r1, #105	; 0x69
     a2e:	0028      	movs	r0, r5
     a30:	47a0      	blx	r4
			uTXByte(Debug_COM, 'm');
     a32:	216d      	movs	r1, #109	; 0x6d
     a34:	0028      	movs	r0, r5
     a36:	47a0      	blx	r4
			uTXByte(Debug_COM, 'e');
     a38:	2165      	movs	r1, #101	; 0x65
     a3a:	0028      	movs	r0, r5
     a3c:	47a0      	blx	r4
			uTXByte(Debug_COM, 'r');
     a3e:	2172      	movs	r1, #114	; 0x72
     a40:	0028      	movs	r0, r5
     a42:	47a0      	blx	r4
			uTXByte(Debug_COM, ' ');
     a44:	2120      	movs	r1, #32
     a46:	0028      	movs	r0, r5
     a48:	47a0      	blx	r4
			uTXByte(Debug_COM, ' ');
     a4a:	2120      	movs	r1, #32
     a4c:	0028      	movs	r0, r5
     a4e:	47a0      	blx	r4
			uTXByte(Debug_COM, ' ');
     a50:	2120      	movs	r1, #32
     a52:	0028      	movs	r0, r5
     a54:	47a0      	blx	r4
			uTXByte(Debug_COM, ' ');
     a56:	2120      	movs	r1, #32
     a58:	0028      	movs	r0, r5
     a5a:	47a0      	blx	r4
			uTXByte(Debug_COM, 0x0d);
     a5c:	210d      	movs	r1, #13
     a5e:	0028      	movs	r0, r5
     a60:	47a0      	blx	r4
     a62:	4d0c      	ldr	r5, [pc, #48]	; (a94 <Judg_KEY_DL+0x290>)
     a64:	2323      	movs	r3, #35	; 0x23
     a66:	4699      	mov	r9, r3
     a68:	44a9      	add	r9, r5
     a6a:	4b0b      	ldr	r3, [pc, #44]	; (a98 <Judg_KEY_DL+0x294>)
     a6c:	469a      	mov	sl, r3
     a6e:	44aa      	add	sl, r5
					uTXByte(Debug_COM, 'N');
     a70:	4c07      	ldr	r4, [pc, #28]	; (a90 <Judg_KEY_DL+0x28c>)
     a72:	e026      	b.n	ac2 <Judg_KEY_DL+0x2be>
						uTXByte(Debug_COM, ' ');
     a74:	2120      	movs	r1, #32
     a76:	4805      	ldr	r0, [pc, #20]	; (a8c <Judg_KEY_DL+0x288>)
     a78:	4b05      	ldr	r3, [pc, #20]	; (a90 <Judg_KEY_DL+0x28c>)
     a7a:	4798      	blx	r3
     a7c:	e100      	b.n	c80 <Judg_KEY_DL+0x47c>
     a7e:	46c0      	nop			; (mov r8, r8)
     a80:	20000358 	.word	0x20000358
     a84:	0000564d 	.word	0x0000564d
     a88:	200003a6 	.word	0x200003a6
     a8c:	200002f0 	.word	0x200002f0
     a90:	00005535 	.word	0x00005535
     a94:	200019a4 	.word	0x200019a4
     a98:	00000e74 	.word	0x00000e74
						uTXByte(Debug_COM, 'N');
     a9c:	214e      	movs	r1, #78	; 0x4e
     a9e:	4897      	ldr	r0, [pc, #604]	; (cfc <Judg_KEY_DL+0x4f8>)
     aa0:	4b97      	ldr	r3, [pc, #604]	; (d00 <Judg_KEY_DL+0x4fc>)
     aa2:	4798      	blx	r3
					uTXByte(Debug_COM, ')');
     aa4:	2129      	movs	r1, #41	; 0x29
     aa6:	4895      	ldr	r0, [pc, #596]	; (cfc <Judg_KEY_DL+0x4f8>)
     aa8:	4f95      	ldr	r7, [pc, #596]	; (d00 <Judg_KEY_DL+0x4fc>)
     aaa:	47b8      	blx	r7
					uTXByte(Debug_COM, 0x0d);
     aac:	210d      	movs	r1, #13
     aae:	4893      	ldr	r0, [pc, #588]	; (cfc <Judg_KEY_DL+0x4f8>)
     ab0:	47b8      	blx	r7
     ab2:	3610      	adds	r6, #16
     ab4:	3525      	adds	r5, #37	; 0x25
     ab6:	2325      	movs	r3, #37	; 0x25
     ab8:	469c      	mov	ip, r3
     aba:	44e1      	add	r9, ip
			for(unsigned char i= 0; i < Dev_Item_MAX; i++)
     abc:	4555      	cmp	r5, sl
     abe:	d100      	bne.n	ac2 <Judg_KEY_DL+0x2be>
     ac0:	e0f2      	b.n	ca8 <Judg_KEY_DL+0x4a4>
				if(tmp_LORA_Dev_List_Index[i].Dev_En_Flag == Dev_EN)
     ac2:	7873      	ldrb	r3, [r6, #1]
     ac4:	2b01      	cmp	r3, #1
     ac6:	d1f4      	bne.n	ab2 <Judg_KEY_DL+0x2ae>
					uTXByte(Debug_COM, 'N');
     ac8:	214e      	movs	r1, #78	; 0x4e
     aca:	488c      	ldr	r0, [pc, #560]	; (cfc <Judg_KEY_DL+0x4f8>)
     acc:	47a0      	blx	r4
					uTXByte(Debug_COM, 'o');
     ace:	216f      	movs	r1, #111	; 0x6f
     ad0:	488a      	ldr	r0, [pc, #552]	; (cfc <Judg_KEY_DL+0x4f8>)
     ad2:	47a0      	blx	r4
					uTXByte(Debug_COM, '.');
     ad4:	212e      	movs	r1, #46	; 0x2e
     ad6:	4889      	ldr	r0, [pc, #548]	; (cfc <Judg_KEY_DL+0x4f8>)
     ad8:	47a0      	blx	r4
					uart_send_word_for_ListNumber(Debug_COM, hex_to_bcd(tmp_LORA_Dev_List_Index[i].Dev_Number));
     ada:	7830      	ldrb	r0, [r6, #0]
     adc:	b2c0      	uxtb	r0, r0
     ade:	4b89      	ldr	r3, [pc, #548]	; (d04 <Judg_KEY_DL+0x500>)
     ae0:	4798      	blx	r3
     ae2:	0001      	movs	r1, r0
     ae4:	4885      	ldr	r0, [pc, #532]	; (cfc <Judg_KEY_DL+0x4f8>)
     ae6:	4b88      	ldr	r3, [pc, #544]	; (d08 <Judg_KEY_DL+0x504>)
     ae8:	4798      	blx	r3
					uTXByte(Debug_COM, 0x09);
     aea:	2109      	movs	r1, #9
     aec:	4883      	ldr	r0, [pc, #524]	; (cfc <Judg_KEY_DL+0x4f8>)
     aee:	47a0      	blx	r4
					uart_send_ascii_byte(Debug_COM, dev_value[i][0]);
     af0:	7829      	ldrb	r1, [r5, #0]
     af2:	4882      	ldr	r0, [pc, #520]	; (cfc <Judg_KEY_DL+0x4f8>)
     af4:	4f85      	ldr	r7, [pc, #532]	; (d0c <Judg_KEY_DL+0x508>)
     af6:	47b8      	blx	r7
					uart_send_ascii_byte(Debug_COM, dev_value[i][1]);
     af8:	7869      	ldrb	r1, [r5, #1]
     afa:	4880      	ldr	r0, [pc, #512]	; (cfc <Judg_KEY_DL+0x4f8>)
     afc:	47b8      	blx	r7
					uart_send_ascii_byte(Debug_COM, dev_value[i][2]);
     afe:	78a9      	ldrb	r1, [r5, #2]
     b00:	487e      	ldr	r0, [pc, #504]	; (cfc <Judg_KEY_DL+0x4f8>)
     b02:	47b8      	blx	r7
					uTXByte(Debug_COM, ' ');
     b04:	2120      	movs	r1, #32
     b06:	487d      	ldr	r0, [pc, #500]	; (cfc <Judg_KEY_DL+0x4f8>)
     b08:	47a0      	blx	r4
					uart_send_ascii_byte(Debug_COM, dev_value[i][3]);
     b0a:	78e9      	ldrb	r1, [r5, #3]
     b0c:	487b      	ldr	r0, [pc, #492]	; (cfc <Judg_KEY_DL+0x4f8>)
     b0e:	47b8      	blx	r7
					uart_send_ascii_byte(Debug_COM, dev_value[i][4]);
     b10:	7929      	ldrb	r1, [r5, #4]
     b12:	487a      	ldr	r0, [pc, #488]	; (cfc <Judg_KEY_DL+0x4f8>)
     b14:	47b8      	blx	r7
					uart_send_ascii_byte(Debug_COM, dev_value[i][5]);
     b16:	7969      	ldrb	r1, [r5, #5]
     b18:	4878      	ldr	r0, [pc, #480]	; (cfc <Judg_KEY_DL+0x4f8>)
     b1a:	47b8      	blx	r7
					uart_send_ascii_byte(Debug_COM, dev_value[i][6]);
     b1c:	79a9      	ldrb	r1, [r5, #6]
     b1e:	4877      	ldr	r0, [pc, #476]	; (cfc <Judg_KEY_DL+0x4f8>)
     b20:	47b8      	blx	r7
					uTXByte(Debug_COM, ' ');
     b22:	2120      	movs	r1, #32
     b24:	4875      	ldr	r0, [pc, #468]	; (cfc <Judg_KEY_DL+0x4f8>)
     b26:	47a0      	blx	r4
					uart_send_ascii_byte(Debug_COM, dev_value[i][7]);
     b28:	79e9      	ldrb	r1, [r5, #7]
     b2a:	4874      	ldr	r0, [pc, #464]	; (cfc <Judg_KEY_DL+0x4f8>)
     b2c:	47b8      	blx	r7
					uTXByte(Debug_COM, ' ');
     b2e:	2120      	movs	r1, #32
     b30:	4872      	ldr	r0, [pc, #456]	; (cfc <Judg_KEY_DL+0x4f8>)
     b32:	47a0      	blx	r4
					uart_send_ascii_byte(Debug_COM, dev_value[i][8]);
     b34:	7a29      	ldrb	r1, [r5, #8]
     b36:	4871      	ldr	r0, [pc, #452]	; (cfc <Judg_KEY_DL+0x4f8>)
     b38:	47b8      	blx	r7
					uart_send_ascii_byte(Debug_COM, dev_value[i][9]);
     b3a:	7a69      	ldrb	r1, [r5, #9]
     b3c:	486f      	ldr	r0, [pc, #444]	; (cfc <Judg_KEY_DL+0x4f8>)
     b3e:	47b8      	blx	r7
					uTXByte(Debug_COM, ' ');
     b40:	2120      	movs	r1, #32
     b42:	486e      	ldr	r0, [pc, #440]	; (cfc <Judg_KEY_DL+0x4f8>)
     b44:	47a0      	blx	r4
					uart_send_ascii_byte(Debug_COM, dev_value[i][10]);
     b46:	7aa9      	ldrb	r1, [r5, #10]
     b48:	486c      	ldr	r0, [pc, #432]	; (cfc <Judg_KEY_DL+0x4f8>)
     b4a:	47b8      	blx	r7
					uart_send_ascii_byte(Debug_COM, dev_value[i][11]);
     b4c:	7ae9      	ldrb	r1, [r5, #11]
     b4e:	486b      	ldr	r0, [pc, #428]	; (cfc <Judg_KEY_DL+0x4f8>)
     b50:	47b8      	blx	r7
					uTXByte(Debug_COM, ' ');
     b52:	2120      	movs	r1, #32
     b54:	4869      	ldr	r0, [pc, #420]	; (cfc <Judg_KEY_DL+0x4f8>)
     b56:	47a0      	blx	r4
					uart_send_ascii_byte(Debug_COM, dev_value[i][12]);
     b58:	7b29      	ldrb	r1, [r5, #12]
     b5a:	4868      	ldr	r0, [pc, #416]	; (cfc <Judg_KEY_DL+0x4f8>)
     b5c:	47b8      	blx	r7
					uart_send_ascii_byte(Debug_COM, dev_value[i][13]);
     b5e:	7b69      	ldrb	r1, [r5, #13]
     b60:	4866      	ldr	r0, [pc, #408]	; (cfc <Judg_KEY_DL+0x4f8>)
     b62:	47b8      	blx	r7
					uTXByte(Debug_COM, ' ');
     b64:	2120      	movs	r1, #32
     b66:	4865      	ldr	r0, [pc, #404]	; (cfc <Judg_KEY_DL+0x4f8>)
     b68:	47a0      	blx	r4
					uart_send_ascii_byte(Debug_COM, dev_value[i][14]);
     b6a:	7ba9      	ldrb	r1, [r5, #14]
     b6c:	4863      	ldr	r0, [pc, #396]	; (cfc <Judg_KEY_DL+0x4f8>)
     b6e:	47b8      	blx	r7
					uart_send_ascii_byte(Debug_COM, dev_value[i][15]);
     b70:	7be9      	ldrb	r1, [r5, #15]
     b72:	4862      	ldr	r0, [pc, #392]	; (cfc <Judg_KEY_DL+0x4f8>)
     b74:	47b8      	blx	r7
					uTXByte(Debug_COM, ' ');
     b76:	2120      	movs	r1, #32
     b78:	4860      	ldr	r0, [pc, #384]	; (cfc <Judg_KEY_DL+0x4f8>)
     b7a:	47a0      	blx	r4
					uart_send_ascii_byte(Debug_COM, dev_value[i][16]);
     b7c:	7c29      	ldrb	r1, [r5, #16]
     b7e:	485f      	ldr	r0, [pc, #380]	; (cfc <Judg_KEY_DL+0x4f8>)
     b80:	47b8      	blx	r7
					uart_send_ascii_byte(Debug_COM, dev_value[i][17]);
     b82:	7c69      	ldrb	r1, [r5, #17]
     b84:	485d      	ldr	r0, [pc, #372]	; (cfc <Judg_KEY_DL+0x4f8>)
     b86:	47b8      	blx	r7
					uTXByte(Debug_COM, ' ');
     b88:	2120      	movs	r1, #32
     b8a:	485c      	ldr	r0, [pc, #368]	; (cfc <Judg_KEY_DL+0x4f8>)
     b8c:	47a0      	blx	r4
					uart_send_ascii_byte(Debug_COM, dev_value[i][18]);
     b8e:	7ca9      	ldrb	r1, [r5, #18]
     b90:	485a      	ldr	r0, [pc, #360]	; (cfc <Judg_KEY_DL+0x4f8>)
     b92:	47b8      	blx	r7
					uart_send_ascii_byte(Debug_COM, dev_value[i][19]);
     b94:	7ce9      	ldrb	r1, [r5, #19]
     b96:	4859      	ldr	r0, [pc, #356]	; (cfc <Judg_KEY_DL+0x4f8>)
     b98:	47b8      	blx	r7
					uTXByte(Debug_COM, ' ');
     b9a:	2120      	movs	r1, #32
     b9c:	4857      	ldr	r0, [pc, #348]	; (cfc <Judg_KEY_DL+0x4f8>)
     b9e:	47a0      	blx	r4
					uart_send_ascii_byte(Debug_COM, dev_value[i][20]);
     ba0:	7d29      	ldrb	r1, [r5, #20]
     ba2:	4856      	ldr	r0, [pc, #344]	; (cfc <Judg_KEY_DL+0x4f8>)
     ba4:	47b8      	blx	r7
					uart_send_ascii_byte(Debug_COM, dev_value[i][21]);
     ba6:	7d69      	ldrb	r1, [r5, #21]
     ba8:	4854      	ldr	r0, [pc, #336]	; (cfc <Judg_KEY_DL+0x4f8>)
     baa:	47b8      	blx	r7
					uTXByte(Debug_COM, ' ');
     bac:	2120      	movs	r1, #32
     bae:	4853      	ldr	r0, [pc, #332]	; (cfc <Judg_KEY_DL+0x4f8>)
     bb0:	47a0      	blx	r4
					uart_send_ascii_byte(Debug_COM, dev_value[i][22]);
     bb2:	7da9      	ldrb	r1, [r5, #22]
     bb4:	4851      	ldr	r0, [pc, #324]	; (cfc <Judg_KEY_DL+0x4f8>)
     bb6:	47b8      	blx	r7
					uart_send_ascii_byte(Debug_COM, dev_value[i][23]);
     bb8:	7de9      	ldrb	r1, [r5, #23]
     bba:	4850      	ldr	r0, [pc, #320]	; (cfc <Judg_KEY_DL+0x4f8>)
     bbc:	47b8      	blx	r7
					uTXByte(Debug_COM, ' ');
     bbe:	2120      	movs	r1, #32
     bc0:	484e      	ldr	r0, [pc, #312]	; (cfc <Judg_KEY_DL+0x4f8>)
     bc2:	47a0      	blx	r4
					uart_send_ascii_byte(Debug_COM, dev_value[i][24]);	//版本
     bc4:	7e29      	ldrb	r1, [r5, #24]
     bc6:	484d      	ldr	r0, [pc, #308]	; (cfc <Judg_KEY_DL+0x4f8>)
     bc8:	47b8      	blx	r7
					uTXByte(Debug_COM, ' ');
     bca:	2120      	movs	r1, #32
     bcc:	484b      	ldr	r0, [pc, #300]	; (cfc <Judg_KEY_DL+0x4f8>)
     bce:	47a0      	blx	r4
					uart_send_ascii_byte(Debug_COM, dev_value[i][25]);	//RSSI
     bd0:	7e69      	ldrb	r1, [r5, #25]
     bd2:	484a      	ldr	r0, [pc, #296]	; (cfc <Judg_KEY_DL+0x4f8>)
     bd4:	47b8      	blx	r7
					uart_send_ascii_byte(Debug_COM, dev_value[i][26]);
     bd6:	7ea9      	ldrb	r1, [r5, #26]
     bd8:	4848      	ldr	r0, [pc, #288]	; (cfc <Judg_KEY_DL+0x4f8>)
     bda:	47b8      	blx	r7
					uTXByte(Debug_COM, ' ');
     bdc:	2120      	movs	r1, #32
     bde:	4847      	ldr	r0, [pc, #284]	; (cfc <Judg_KEY_DL+0x4f8>)
     be0:	47a0      	blx	r4
					uart_send_ascii_byte(Debug_COM, dev_value[i][27]);	//RSSI
     be2:	7ee9      	ldrb	r1, [r5, #27]
     be4:	4845      	ldr	r0, [pc, #276]	; (cfc <Judg_KEY_DL+0x4f8>)
     be6:	47b8      	blx	r7
					uart_send_ascii_byte(Debug_COM, dev_value[i][28]);
     be8:	7f29      	ldrb	r1, [r5, #28]
     bea:	4844      	ldr	r0, [pc, #272]	; (cfc <Judg_KEY_DL+0x4f8>)
     bec:	47b8      	blx	r7
					uTXByte(Debug_COM, ' ');
     bee:	2120      	movs	r1, #32
     bf0:	4842      	ldr	r0, [pc, #264]	; (cfc <Judg_KEY_DL+0x4f8>)
     bf2:	47a0      	blx	r4
					uart_send_ascii_byte(Debug_COM, dev_value[i][29]);	//CRC
     bf4:	7f69      	ldrb	r1, [r5, #29]
     bf6:	4841      	ldr	r0, [pc, #260]	; (cfc <Judg_KEY_DL+0x4f8>)
     bf8:	47b8      	blx	r7
					uTXByte(Debug_COM, ' ');	
     bfa:	2120      	movs	r1, #32
     bfc:	483f      	ldr	r0, [pc, #252]	; (cfc <Judg_KEY_DL+0x4f8>)
     bfe:	47a0      	blx	r4
					uTXByte(Debug_COM, '{');	
     c00:	217b      	movs	r1, #123	; 0x7b
     c02:	483e      	ldr	r0, [pc, #248]	; (cfc <Judg_KEY_DL+0x4f8>)
     c04:	47a0      	blx	r4
					uart_send_ascii_byte(Debug_COM, tmp_LORA_Dev_List_Index[i].Dev_Time.byte[1]);
     c06:	7a71      	ldrb	r1, [r6, #9]
     c08:	b2c9      	uxtb	r1, r1
     c0a:	483c      	ldr	r0, [pc, #240]	; (cfc <Judg_KEY_DL+0x4f8>)
     c0c:	47b8      	blx	r7
					uart_send_ascii_byte(Debug_COM, tmp_LORA_Dev_List_Index[i].Dev_Time.byte[0]);
     c0e:	7a31      	ldrb	r1, [r6, #8]
     c10:	b2c9      	uxtb	r1, r1
     c12:	483a      	ldr	r0, [pc, #232]	; (cfc <Judg_KEY_DL+0x4f8>)
     c14:	47b8      	blx	r7
					uTXByte(Debug_COM, ' ');
     c16:	2120      	movs	r1, #32
     c18:	4838      	ldr	r0, [pc, #224]	; (cfc <Judg_KEY_DL+0x4f8>)
     c1a:	47a0      	blx	r4
					uTXByte(Debug_COM, '<');
     c1c:	213c      	movs	r1, #60	; 0x3c
     c1e:	4837      	ldr	r0, [pc, #220]	; (cfc <Judg_KEY_DL+0x4f8>)
     c20:	47a0      	blx	r4
					uTXByte(Debug_COM, ' ');
     c22:	2120      	movs	r1, #32
     c24:	4835      	ldr	r0, [pc, #212]	; (cfc <Judg_KEY_DL+0x4f8>)
     c26:	47a0      	blx	r4
					uart_send_ascii_byte(Debug_COM, tmp_LORA_Dev_List_Index[i].Now_Counter.byte[1]);
     c28:	7b71      	ldrb	r1, [r6, #13]
     c2a:	b2c9      	uxtb	r1, r1
     c2c:	4833      	ldr	r0, [pc, #204]	; (cfc <Judg_KEY_DL+0x4f8>)
     c2e:	47b8      	blx	r7
					uart_send_ascii_byte(Debug_COM, tmp_LORA_Dev_List_Index[i].Now_Counter.byte[0]);
     c30:	7b31      	ldrb	r1, [r6, #12]
     c32:	b2c9      	uxtb	r1, r1
     c34:	4831      	ldr	r0, [pc, #196]	; (cfc <Judg_KEY_DL+0x4f8>)
     c36:	47b8      	blx	r7
					uTXByte(Debug_COM, '}');	
     c38:	217d      	movs	r1, #125	; 0x7d
     c3a:	4830      	ldr	r0, [pc, #192]	; (cfc <Judg_KEY_DL+0x4f8>)
     c3c:	47a0      	blx	r4
					uTXByte(Debug_COM, ' ');
     c3e:	2120      	movs	r1, #32
     c40:	482e      	ldr	r0, [pc, #184]	; (cfc <Judg_KEY_DL+0x4f8>)
     c42:	47a0      	blx	r4
     c44:	46c8      	mov	r8, r9
					uart_send_ascii_byte(Debug_COM, dev_value[i][36]);
     c46:	464b      	mov	r3, r9
     c48:	7859      	ldrb	r1, [r3, #1]
     c4a:	482c      	ldr	r0, [pc, #176]	; (cfc <Judg_KEY_DL+0x4f8>)
     c4c:	47b8      	blx	r7
					uTXByte(Debug_COM, ' ');
     c4e:	2120      	movs	r1, #32
     c50:	482a      	ldr	r0, [pc, #168]	; (cfc <Judg_KEY_DL+0x4f8>)
     c52:	47a0      	blx	r4
					tmp16.byte[1] = dev_value[i][27];
     c54:	7eeb      	ldrb	r3, [r5, #27]
					tmp16.byte[0] = dev_value[i][28];
     c56:	7f28      	ldrb	r0, [r5, #28]
     c58:	021b      	lsls	r3, r3, #8
     c5a:	4318      	orrs	r0, r3
					tmp16.word = 65536 - tmp16.word;
     c5c:	4240      	negs	r0, r0
     c5e:	b280      	uxth	r0, r0
					Print_One_RSSI_Msg(tmp16.word);
     c60:	4b2b      	ldr	r3, [pc, #172]	; (d10 <Judg_KEY_DL+0x50c>)
     c62:	4798      	blx	r3
					uTXByte(Debug_COM, ' ');
     c64:	2120      	movs	r1, #32
     c66:	4825      	ldr	r0, [pc, #148]	; (cfc <Judg_KEY_DL+0x4f8>)
     c68:	47a0      	blx	r4
					uTXByte(Debug_COM, '[');
     c6a:	215b      	movs	r1, #91	; 0x5b
     c6c:	4823      	ldr	r0, [pc, #140]	; (cfc <Judg_KEY_DL+0x4f8>)
     c6e:	47a0      	blx	r4
					if(dev_value[i][30] == 0x00)	//MISSNODE
     c70:	7fab      	ldrb	r3, [r5, #30]
     c72:	2b00      	cmp	r3, #0
     c74:	d000      	beq.n	c78 <Judg_KEY_DL+0x474>
     c76:	e6fd      	b.n	a74 <Judg_KEY_DL+0x270>
						uTXByte(Debug_COM, 'X');
     c78:	2158      	movs	r1, #88	; 0x58
     c7a:	4820      	ldr	r0, [pc, #128]	; (cfc <Judg_KEY_DL+0x4f8>)
     c7c:	4b20      	ldr	r3, [pc, #128]	; (d00 <Judg_KEY_DL+0x4fc>)
     c7e:	4798      	blx	r3
					uTXByte(Debug_COM, ']');
     c80:	215d      	movs	r1, #93	; 0x5d
     c82:	481e      	ldr	r0, [pc, #120]	; (cfc <Judg_KEY_DL+0x4f8>)
     c84:	4f1e      	ldr	r7, [pc, #120]	; (d00 <Judg_KEY_DL+0x4fc>)
     c86:	47b8      	blx	r7
					uTXByte(Debug_COM, ' ');
     c88:	2120      	movs	r1, #32
     c8a:	481c      	ldr	r0, [pc, #112]	; (cfc <Judg_KEY_DL+0x4f8>)
     c8c:	47b8      	blx	r7
					uTXByte(Debug_COM, '(');
     c8e:	2128      	movs	r1, #40	; 0x28
     c90:	481a      	ldr	r0, [pc, #104]	; (cfc <Judg_KEY_DL+0x4f8>)
     c92:	47b8      	blx	r7
					if(dev_value[i][35] == 0x00)	//New Data
     c94:	4643      	mov	r3, r8
     c96:	781b      	ldrb	r3, [r3, #0]
     c98:	2b00      	cmp	r3, #0
     c9a:	d000      	beq.n	c9e <Judg_KEY_DL+0x49a>
     c9c:	e6fe      	b.n	a9c <Judg_KEY_DL+0x298>
						uTXByte(Debug_COM, ' ');
     c9e:	2120      	movs	r1, #32
     ca0:	4816      	ldr	r0, [pc, #88]	; (cfc <Judg_KEY_DL+0x4f8>)
     ca2:	4b17      	ldr	r3, [pc, #92]	; (d00 <Judg_KEY_DL+0x4fc>)
     ca4:	4798      	blx	r3
     ca6:	e6fd      	b.n	aa4 <Judg_KEY_DL+0x2a0>
			uart_send_ascii_byte(Debug_COM, LORA01->LastStatus);
     ca8:	4f1a      	ldr	r7, [pc, #104]	; (d14 <Judg_KEY_DL+0x510>)
     caa:	4b1b      	ldr	r3, [pc, #108]	; (d18 <Judg_KEY_DL+0x514>)
     cac:	683a      	ldr	r2, [r7, #0]
     cae:	5cd1      	ldrb	r1, [r2, r3]
     cb0:	b2c9      	uxtb	r1, r1
     cb2:	4c12      	ldr	r4, [pc, #72]	; (cfc <Judg_KEY_DL+0x4f8>)
     cb4:	0020      	movs	r0, r4
     cb6:	4e15      	ldr	r6, [pc, #84]	; (d0c <Judg_KEY_DL+0x508>)
     cb8:	47b0      	blx	r6
			uTXByte(Debug_COM, ' ');
     cba:	2120      	movs	r1, #32
     cbc:	0020      	movs	r0, r4
     cbe:	4d10      	ldr	r5, [pc, #64]	; (d00 <Judg_KEY_DL+0x4fc>)
     cc0:	47a8      	blx	r5
			uart_send_ascii_byte(Debug_COM, LORA01->NowStatus);
     cc2:	4b16      	ldr	r3, [pc, #88]	; (d1c <Judg_KEY_DL+0x518>)
     cc4:	683a      	ldr	r2, [r7, #0]
     cc6:	5cd1      	ldrb	r1, [r2, r3]
     cc8:	b2c9      	uxtb	r1, r1
     cca:	0020      	movs	r0, r4
     ccc:	47b0      	blx	r6
			uTXByte(Debug_COM, ' ');
     cce:	2120      	movs	r1, #32
     cd0:	0020      	movs	r0, r4
     cd2:	47a8      	blx	r5
			uart_send_ascii_byte(Debug_COM, LORA01->NextStatus);
     cd4:	4b12      	ldr	r3, [pc, #72]	; (d20 <Judg_KEY_DL+0x51c>)
     cd6:	683a      	ldr	r2, [r7, #0]
     cd8:	5cd1      	ldrb	r1, [r2, r3]
     cda:	b2c9      	uxtb	r1, r1
     cdc:	0020      	movs	r0, r4
     cde:	47b0      	blx	r6
			uTXByte(Debug_COM, ' ');
     ce0:	2120      	movs	r1, #32
     ce2:	0020      	movs	r0, r4
     ce4:	47a8      	blx	r5
			uart_send_ascii_byte(Debug_COM, LORA01->LoRa_TxRx_Mode_Flag);
     ce6:	683a      	ldr	r2, [r7, #0]
     ce8:	4b0e      	ldr	r3, [pc, #56]	; (d24 <Judg_KEY_DL+0x520>)
     cea:	5cd1      	ldrb	r1, [r2, r3]
     cec:	b2c9      	uxtb	r1, r1
     cee:	0020      	movs	r0, r4
     cf0:	47b0      	blx	r6
			uTXByte(Debug_COM, 0x0d);
     cf2:	210d      	movs	r1, #13
     cf4:	0020      	movs	r0, r4
     cf6:	47a8      	blx	r5
     cf8:	e590      	b.n	81c <Judg_KEY_DL+0x18>
     cfa:	46c0      	nop			; (mov r8, r8)
     cfc:	200002f0 	.word	0x200002f0
     d00:	00005535 	.word	0x00005535
     d04:	000057f5 	.word	0x000057f5
     d08:	00005615 	.word	0x00005615
     d0c:	00005555 	.word	0x00005555
     d10:	00005009 	.word	0x00005009
     d14:	20001944 	.word	0x20001944
     d18:	0000021e 	.word	0x0000021e
     d1c:	0000021d 	.word	0x0000021d
     d20:	0000021f 	.word	0x0000021f
     d24:	0000022a 	.word	0x0000022a

00000d28 <Judg_KEY_E>:
#include <stdio.h>
#include "myDefine.h"


void Judg_KEY_E(volatile LORA_Dev_List_t *tmp_LORA_Dev_List_Index)
{
     d28:	b570      	push	{r4, r5, r6, lr}
     d2a:	0004      	movs	r4, r0
	unsigned char tmp_list_table_index;
	
	if(ascii_to_hex(UserKeyInBuf[0]) && UserKeyInBuf[1] == ' ' )	//enable & disable
     d2c:	4b20      	ldr	r3, [pc, #128]	; (db0 <Judg_KEY_E+0x88>)
     d2e:	7818      	ldrb	r0, [r3, #0]
     d30:	4b20      	ldr	r3, [pc, #128]	; (db4 <Judg_KEY_E+0x8c>)
     d32:	4798      	blx	r3
     d34:	2800      	cmp	r0, #0
     d36:	d003      	beq.n	d40 <Judg_KEY_E+0x18>
     d38:	4b1d      	ldr	r3, [pc, #116]	; (db0 <Judg_KEY_E+0x88>)
     d3a:	785b      	ldrb	r3, [r3, #1]
     d3c:	2b20      	cmp	r3, #32
     d3e:	d000      	beq.n	d42 <Judg_KEY_E+0x1a>
				Print_One_Form_List_Table(tmp_list_table_index, tmp_LORA_Dev_List_Index);
				uTXByte(Debug_COM, 0x0d);
			}
		}
	}
     d40:	bd70      	pop	{r4, r5, r6, pc}
		if(UserKeyInBufCount == 6 && UserKeyInBuf[5] == 0x0d)
     d42:	4b1d      	ldr	r3, [pc, #116]	; (db8 <Judg_KEY_E+0x90>)
     d44:	781b      	ldrb	r3, [r3, #0]
     d46:	2b06      	cmp	r3, #6
     d48:	d1fa      	bne.n	d40 <Judg_KEY_E+0x18>
     d4a:	4b19      	ldr	r3, [pc, #100]	; (db0 <Judg_KEY_E+0x88>)
     d4c:	795b      	ldrb	r3, [r3, #5]
     d4e:	2b0d      	cmp	r3, #13
     d50:	d1f6      	bne.n	d40 <Judg_KEY_E+0x18>
			tmp_list_table_index =	Cal_list_table_index(UserKeyInBuf[2], UserKeyInBuf[3], UserKeyInBuf[4]);
     d52:	4b17      	ldr	r3, [pc, #92]	; (db0 <Judg_KEY_E+0x88>)
     d54:	791a      	ldrb	r2, [r3, #4]
     d56:	78d9      	ldrb	r1, [r3, #3]
     d58:	7898      	ldrb	r0, [r3, #2]
     d5a:	4b18      	ldr	r3, [pc, #96]	; (dbc <Judg_KEY_E+0x94>)
     d5c:	4798      	blx	r3
     d5e:	b2c0      	uxtb	r0, r0
			tmp_list_table_index =  Search_list_table_index(tmp_list_table_index, tmp_LORA_Dev_List_Index);
     d60:	0021      	movs	r1, r4
     d62:	4b17      	ldr	r3, [pc, #92]	; (dc0 <Judg_KEY_E+0x98>)
     d64:	4798      	blx	r3
     d66:	0005      	movs	r5, r0
			if(tmp_list_table_index != Not_found_Index)
     d68:	28ff      	cmp	r0, #255	; 0xff
     d6a:	d0e9      	beq.n	d40 <Judg_KEY_E+0x18>
				Print_Find_Msg();
     d6c:	4b15      	ldr	r3, [pc, #84]	; (dc4 <Judg_KEY_E+0x9c>)
     d6e:	4798      	blx	r3
				Print_One_Form_List_Table(tmp_list_table_index, tmp_LORA_Dev_List_Index);
     d70:	0021      	movs	r1, r4
     d72:	0028      	movs	r0, r5
     d74:	4b14      	ldr	r3, [pc, #80]	; (dc8 <Judg_KEY_E+0xa0>)
     d76:	4798      	blx	r3
				Print_Arrow_Right();
     d78:	4b14      	ldr	r3, [pc, #80]	; (dcc <Judg_KEY_E+0xa4>)
     d7a:	4798      	blx	r3
				if(tmp_LORA_Dev_List_Index[tmp_list_table_index].Dev_En_Flag == Dev_Dis)
     d7c:	012b      	lsls	r3, r5, #4
     d7e:	18e3      	adds	r3, r4, r3
     d80:	785a      	ldrb	r2, [r3, #1]
     d82:	2a00      	cmp	r2, #0
     d84:	d110      	bne.n	da8 <Judg_KEY_E+0x80>
					tmp_LORA_Dev_List_Index[tmp_list_table_index].Dev_En_Flag = Dev_EN;
     d86:	3201      	adds	r2, #1
     d88:	705a      	strb	r2, [r3, #1]
				Save_List_in_NVM(tmp_LORA_Dev_List_Index);
     d8a:	0020      	movs	r0, r4
     d8c:	4b10      	ldr	r3, [pc, #64]	; (dd0 <Judg_KEY_E+0xa8>)
     d8e:	4798      	blx	r3
				Load_List_Form_NVM(tmp_LORA_Dev_List_Index);
     d90:	0020      	movs	r0, r4
     d92:	4b10      	ldr	r3, [pc, #64]	; (dd4 <Judg_KEY_E+0xac>)
     d94:	4798      	blx	r3
				Print_One_Form_List_Table(tmp_list_table_index, tmp_LORA_Dev_List_Index);
     d96:	0021      	movs	r1, r4
     d98:	0028      	movs	r0, r5
     d9a:	4b0b      	ldr	r3, [pc, #44]	; (dc8 <Judg_KEY_E+0xa0>)
     d9c:	4798      	blx	r3
				uTXByte(Debug_COM, 0x0d);
     d9e:	210d      	movs	r1, #13
     da0:	480d      	ldr	r0, [pc, #52]	; (dd8 <Judg_KEY_E+0xb0>)
     da2:	4b0e      	ldr	r3, [pc, #56]	; (ddc <Judg_KEY_E+0xb4>)
     da4:	4798      	blx	r3
     da6:	e7cb      	b.n	d40 <Judg_KEY_E+0x18>
					tmp_LORA_Dev_List_Index[tmp_list_table_index].Dev_En_Flag = Dev_Dis;
     da8:	2200      	movs	r2, #0
     daa:	705a      	strb	r2, [r3, #1]
     dac:	e7ed      	b.n	d8a <Judg_KEY_E+0x62>
     dae:	46c0      	nop			; (mov r8, r8)
     db0:	20000358 	.word	0x20000358
     db4:	0000564d 	.word	0x0000564d
     db8:	200003a6 	.word	0x200003a6
     dbc:	00001b51 	.word	0x00001b51
     dc0:	0000276d 	.word	0x0000276d
     dc4:	00003181 	.word	0x00003181
     dc8:	000031fd 	.word	0x000031fd
     dcc:	000032b1 	.word	0x000032b1
     dd0:	00002549 	.word	0x00002549
     dd4:	000026e1 	.word	0x000026e1
     dd8:	200002f0 	.word	0x200002f0
     ddc:	00005535 	.word	0x00005535

00000de0 <Print_List_Table>:
#include <stdio.h>
#include "myDefine.h"


void Print_List_Table(volatile LORA_Dev_List_t *tmp_LORA_Dev_List_Index)
{
     de0:	b5f0      	push	{r4, r5, r6, r7, lr}
     de2:	b083      	sub	sp, #12
     de4:	9001      	str	r0, [sp, #4]
	unsigned char i, tmp_count;
	tmp_count = 0;
     de6:	2700      	movs	r7, #0
	for ( i = 0; i < Dev_Item_MAX; i++)
     de8:	2400      	movs	r4, #0
	{
		Print_One_Form_List_Table(i, tmp_LORA_Dev_List_Index);
     dea:	4d0c      	ldr	r5, [pc, #48]	; (e1c <Print_List_Table+0x3c>)
			uTXByte(Debug_COM, 0x0d);
			tmp_count = 0;
		}
		else
		{
			uTXByte(Debug_COM, 0x09);	
     dec:	4e0c      	ldr	r6, [pc, #48]	; (e20 <Print_List_Table+0x40>)
     dee:	e008      	b.n	e02 <Print_List_Table+0x22>
			uTXByte(Debug_COM, 0x0d);
     df0:	210d      	movs	r1, #13
     df2:	480c      	ldr	r0, [pc, #48]	; (e24 <Print_List_Table+0x44>)
     df4:	4b0a      	ldr	r3, [pc, #40]	; (e20 <Print_List_Table+0x40>)
     df6:	4798      	blx	r3
			tmp_count = 0;
     df8:	2700      	movs	r7, #0
	for ( i = 0; i < Dev_Item_MAX; i++)
     dfa:	3401      	adds	r4, #1
     dfc:	b2e4      	uxtb	r4, r4
     dfe:	2c64      	cmp	r4, #100	; 0x64
     e00:	d00a      	beq.n	e18 <Print_List_Table+0x38>
		Print_One_Form_List_Table(i, tmp_LORA_Dev_List_Index);
     e02:	9901      	ldr	r1, [sp, #4]
     e04:	0020      	movs	r0, r4
     e06:	47a8      	blx	r5
		if(tmp_count == 3)
     e08:	2f03      	cmp	r7, #3
     e0a:	d0f1      	beq.n	df0 <Print_List_Table+0x10>
			uTXByte(Debug_COM, 0x09);	
     e0c:	2109      	movs	r1, #9
     e0e:	4805      	ldr	r0, [pc, #20]	; (e24 <Print_List_Table+0x44>)
     e10:	47b0      	blx	r6
			tmp_count++;
     e12:	3701      	adds	r7, #1
     e14:	b2ff      	uxtb	r7, r7
     e16:	e7f0      	b.n	dfa <Print_List_Table+0x1a>
		}
	}
}
     e18:	b003      	add	sp, #12
     e1a:	bdf0      	pop	{r4, r5, r6, r7, pc}
     e1c:	000031fd 	.word	0x000031fd
     e20:	00005535 	.word	0x00005535
     e24:	200002f0 	.word	0x200002f0

00000e28 <Judg_KEY_L>:

void Judg_KEY_L(volatile LORA_Dev_List_t *tmp_LORA_Dev_List_Index)
{
     e28:	b510      	push	{r4, lr}
     e2a:	0004      	movs	r4, r0
	if(	ascii_to_hex(UserKeyInBuf[0]) == KEYL)
     e2c:	4b0c      	ldr	r3, [pc, #48]	; (e60 <Judg_KEY_L+0x38>)
     e2e:	7818      	ldrb	r0, [r3, #0]
     e30:	4b0c      	ldr	r3, [pc, #48]	; (e64 <Judg_KEY_L+0x3c>)
     e32:	4798      	blx	r3
     e34:	2815      	cmp	r0, #21
     e36:	d000      	beq.n	e3a <Judg_KEY_L+0x12>
			Load_List_Form_NVM(tmp_LORA_Dev_List_Index);
			Print_List_Table(tmp_LORA_Dev_List_Index);
			CMD_Index = CMD_NOP_Index;
		}
	}
     e38:	bd10      	pop	{r4, pc}
		if(UserKeyInBufCount == 2 && UserKeyInBuf[1] == 0x0d)
     e3a:	4b0b      	ldr	r3, [pc, #44]	; (e68 <Judg_KEY_L+0x40>)
     e3c:	781b      	ldrb	r3, [r3, #0]
     e3e:	2b02      	cmp	r3, #2
     e40:	d1fa      	bne.n	e38 <Judg_KEY_L+0x10>
     e42:	4b07      	ldr	r3, [pc, #28]	; (e60 <Judg_KEY_L+0x38>)
     e44:	785b      	ldrb	r3, [r3, #1]
     e46:	2b0d      	cmp	r3, #13
     e48:	d1f6      	bne.n	e38 <Judg_KEY_L+0x10>
			Load_List_Form_NVM(tmp_LORA_Dev_List_Index);
     e4a:	0020      	movs	r0, r4
     e4c:	4b07      	ldr	r3, [pc, #28]	; (e6c <Judg_KEY_L+0x44>)
     e4e:	4798      	blx	r3
			Print_List_Table(tmp_LORA_Dev_List_Index);
     e50:	0020      	movs	r0, r4
     e52:	4b07      	ldr	r3, [pc, #28]	; (e70 <Judg_KEY_L+0x48>)
     e54:	4798      	blx	r3
			CMD_Index = CMD_NOP_Index;
     e56:	2200      	movs	r2, #0
     e58:	4b06      	ldr	r3, [pc, #24]	; (e74 <Judg_KEY_L+0x4c>)
     e5a:	701a      	strb	r2, [r3, #0]
     e5c:	e7ec      	b.n	e38 <Judg_KEY_L+0x10>
     e5e:	46c0      	nop			; (mov r8, r8)
     e60:	20000358 	.word	0x20000358
     e64:	0000564d 	.word	0x0000564d
     e68:	200003a6 	.word	0x200003a6
     e6c:	000026e1 	.word	0x000026e1
     e70:	00000de1 	.word	0x00000de1
     e74:	20002818 	.word	0x20002818

00000e78 <Print_One_Form_Write_PLC_List_Table>:
#include <stdio.h>
#include "myDefine.h"


void Print_One_Form_Write_PLC_List_Table(volatile Write_PLC_List_t *tmp_Write_PLC_List_Index, unsigned int tmp_index)
{
     e78:	b5f8      	push	{r3, r4, r5, r6, r7, lr}
     e7a:	0004      	movs	r4, r0
     e7c:	000f      	movs	r7, r1
	unsigned char tmpIndex;
	uTXByte(Debug_COM, 'N');
     e7e:	4d54      	ldr	r5, [pc, #336]	; (fd0 <Print_One_Form_Write_PLC_List_Table+0x158>)
     e80:	214e      	movs	r1, #78	; 0x4e
     e82:	0028      	movs	r0, r5
     e84:	4e53      	ldr	r6, [pc, #332]	; (fd4 <Print_One_Form_Write_PLC_List_Table+0x15c>)
     e86:	47b0      	blx	r6
	uTXByte(Debug_COM, 'o');
     e88:	216f      	movs	r1, #111	; 0x6f
     e8a:	0028      	movs	r0, r5
     e8c:	47b0      	blx	r6
	uTXByte(Debug_COM, '.');
     e8e:	212e      	movs	r1, #46	; 0x2e
     e90:	0028      	movs	r0, r5
     e92:	47b0      	blx	r6
	uTXByte(Debug_COM, '(');
     e94:	2128      	movs	r1, #40	; 0x28
     e96:	0028      	movs	r0, r5
     e98:	47b0      	blx	r6
	uart_send_word_for_ListNumber(Debug_COM, hex_to_bcd(tmp_index));
     e9a:	0038      	movs	r0, r7
     e9c:	4b4e      	ldr	r3, [pc, #312]	; (fd8 <Print_One_Form_Write_PLC_List_Table+0x160>)
     e9e:	4798      	blx	r3
     ea0:	0001      	movs	r1, r0
     ea2:	0028      	movs	r0, r5
     ea4:	4b4d      	ldr	r3, [pc, #308]	; (fdc <Print_One_Form_Write_PLC_List_Table+0x164>)
     ea6:	4798      	blx	r3
	uTXByte(Debug_COM, ')');
     ea8:	2129      	movs	r1, #41	; 0x29
     eaa:	0028      	movs	r0, r5
     eac:	47b0      	blx	r6
	uTXByte(Debug_COM, ' ');
     eae:	2120      	movs	r1, #32
     eb0:	0028      	movs	r0, r5
     eb2:	47b0      	blx	r6

	uTXByte(Debug_COM, '[');
     eb4:	215b      	movs	r1, #91	; 0x5b
     eb6:	0028      	movs	r0, r5
     eb8:	47b0      	blx	r6
	if(tmp_Write_PLC_List_Index[tmp_index].MAC_ID_Index.word == 0xffff) //沒有設定過
     eba:	00bf      	lsls	r7, r7, #2
     ebc:	19e4      	adds	r4, r4, r7
     ebe:	8823      	ldrh	r3, [r4, #0]
     ec0:	b29b      	uxth	r3, r3
     ec2:	4a47      	ldr	r2, [pc, #284]	; (fe0 <Print_One_Form_Write_PLC_List_Table+0x168>)
     ec4:	4293      	cmp	r3, r2
     ec6:	d100      	bne.n	eca <Print_One_Form_Write_PLC_List_Table+0x52>
     ec8:	e069      	b.n	f9e <Print_One_Form_Write_PLC_List_Table+0x126>
	{
		tmp_Write_PLC_List_Index[tmp_index].Channel_En = Dev_Dis;
	}
	if(tmp_Write_PLC_List_Index[tmp_index].Channel_En == Dev_Dis)
     eca:	78e3      	ldrb	r3, [r4, #3]
     ecc:	2b00      	cmp	r3, #0
     ece:	d000      	beq.n	ed2 <Print_One_Form_Write_PLC_List_Table+0x5a>
     ed0:	e068      	b.n	fa4 <Print_One_Form_Write_PLC_List_Table+0x12c>
		Print_Disable_CMD_Msg();
     ed2:	4b44      	ldr	r3, [pc, #272]	; (fe4 <Print_One_Form_Write_PLC_List_Table+0x16c>)
     ed4:	4798      	blx	r3
	else
		Print_Enable_CMD_Msg();
	uTXByte(Debug_COM, ']');
     ed6:	4e3e      	ldr	r6, [pc, #248]	; (fd0 <Print_One_Form_Write_PLC_List_Table+0x158>)
     ed8:	215d      	movs	r1, #93	; 0x5d
     eda:	0030      	movs	r0, r6
     edc:	4d3d      	ldr	r5, [pc, #244]	; (fd4 <Print_One_Form_Write_PLC_List_Table+0x15c>)
     ede:	47a8      	blx	r5
	uTXByte(Debug_COM, ' ');
     ee0:	2120      	movs	r1, #32
     ee2:	0030      	movs	r0, r6
     ee4:	47a8      	blx	r5
		
	uTXByte(Debug_COM, '(');
     ee6:	2128      	movs	r1, #40	; 0x28
     ee8:	0030      	movs	r0, r6
     eea:	47a8      	blx	r5
	if(tmp_Write_PLC_List_Index[tmp_index].MAC_ID_Index.word == 0xffff)
     eec:	8823      	ldrh	r3, [r4, #0]
     eee:	b29b      	uxth	r3, r3
     ef0:	4a3b      	ldr	r2, [pc, #236]	; (fe0 <Print_One_Form_Write_PLC_List_Table+0x168>)
     ef2:	4293      	cmp	r3, r2
     ef4:	d059      	beq.n	faa <Print_One_Form_Write_PLC_List_Table+0x132>
		uTXByte(Debug_COM, '_');
		uTXByte(Debug_COM, '_');
	}
	else
	{
		uart_send_word_for_ListNumber(Debug_COM, hex_to_bcd(tmp_Write_PLC_List_Index[tmp_index].MAC_ID_Index.word));	
     ef6:	8820      	ldrh	r0, [r4, #0]
     ef8:	b280      	uxth	r0, r0
     efa:	4b37      	ldr	r3, [pc, #220]	; (fd8 <Print_One_Form_Write_PLC_List_Table+0x160>)
     efc:	4798      	blx	r3
     efe:	0001      	movs	r1, r0
     f00:	4833      	ldr	r0, [pc, #204]	; (fd0 <Print_One_Form_Write_PLC_List_Table+0x158>)
     f02:	4b36      	ldr	r3, [pc, #216]	; (fdc <Print_One_Form_Write_PLC_List_Table+0x164>)
     f04:	4798      	blx	r3
	}
	uTXByte(Debug_COM, ')');
     f06:	2129      	movs	r1, #41	; 0x29
     f08:	4831      	ldr	r0, [pc, #196]	; (fd0 <Print_One_Form_Write_PLC_List_Table+0x158>)
     f0a:	4f32      	ldr	r7, [pc, #200]	; (fd4 <Print_One_Form_Write_PLC_List_Table+0x15c>)
     f0c:	47b8      	blx	r7
	uTXByte(Debug_COM, ' ');
     f0e:	2120      	movs	r1, #32
     f10:	482f      	ldr	r0, [pc, #188]	; (fd0 <Print_One_Form_Write_PLC_List_Table+0x158>)
     f12:	47b8      	blx	r7
	tmpIndex = (unsigned char *)tmp_Write_PLC_List_Index[tmp_index].MAC_ID_Index.word;
     f14:	8822      	ldrh	r2, [r4, #0]
	uart_send_ascii_byte(Debug_COM, dev_value[tmpIndex][3]);
     f16:	b2d2      	uxtb	r2, r2
     f18:	00d3      	lsls	r3, r2, #3
     f1a:	189b      	adds	r3, r3, r2
     f1c:	009b      	lsls	r3, r3, #2
     f1e:	189b      	adds	r3, r3, r2
     f20:	4e31      	ldr	r6, [pc, #196]	; (fe8 <Print_One_Form_Write_PLC_List_Table+0x170>)
     f22:	18f6      	adds	r6, r6, r3
     f24:	78f1      	ldrb	r1, [r6, #3]
     f26:	482a      	ldr	r0, [pc, #168]	; (fd0 <Print_One_Form_Write_PLC_List_Table+0x158>)
     f28:	4d30      	ldr	r5, [pc, #192]	; (fec <Print_One_Form_Write_PLC_List_Table+0x174>)
     f2a:	47a8      	blx	r5
	uart_send_ascii_byte(Debug_COM, dev_value[tmpIndex][4]);
     f2c:	7931      	ldrb	r1, [r6, #4]
     f2e:	4828      	ldr	r0, [pc, #160]	; (fd0 <Print_One_Form_Write_PLC_List_Table+0x158>)
     f30:	47a8      	blx	r5
	uart_send_ascii_byte(Debug_COM, dev_value[tmpIndex][5]);
     f32:	7971      	ldrb	r1, [r6, #5]
     f34:	4826      	ldr	r0, [pc, #152]	; (fd0 <Print_One_Form_Write_PLC_List_Table+0x158>)
     f36:	47a8      	blx	r5
	uart_send_ascii_byte(Debug_COM, dev_value[tmpIndex][6]);
     f38:	79b1      	ldrb	r1, [r6, #6]
     f3a:	4825      	ldr	r0, [pc, #148]	; (fd0 <Print_One_Form_Write_PLC_List_Table+0x158>)
     f3c:	47a8      	blx	r5
	
	
	uTXByte(Debug_COM, '-');
     f3e:	212d      	movs	r1, #45	; 0x2d
     f40:	4823      	ldr	r0, [pc, #140]	; (fd0 <Print_One_Form_Write_PLC_List_Table+0x158>)
     f42:	47b8      	blx	r7
	uTXByte(Debug_COM, 'R');
     f44:	2152      	movs	r1, #82	; 0x52
     f46:	4822      	ldr	r0, [pc, #136]	; (fd0 <Print_One_Form_Write_PLC_List_Table+0x158>)
     f48:	47b8      	blx	r7
	if(	tmp_Write_PLC_List_Index[tmp_index].MAC_ID_Index.word >= 0 &&
     f4a:	8823      	ldrh	r3, [r4, #0]
		tmp_Write_PLC_List_Index[tmp_index].MAC_ID_Index.word < 8 )
     f4c:	8823      	ldrh	r3, [r4, #0]
     f4e:	b29b      	uxth	r3, r3
	if(	tmp_Write_PLC_List_Index[tmp_index].MAC_ID_Index.word >= 0 &&
     f50:	2b07      	cmp	r3, #7
     f52:	d936      	bls.n	fc2 <Print_One_Form_Write_PLC_List_Table+0x14a>
		uTXByte(Debug_COM, tmp_Write_PLC_List_Index[tmp_index].Channel_Index + 0x30);	
	else
		uTXByte(Debug_COM, '_');
     f54:	215f      	movs	r1, #95	; 0x5f
     f56:	481e      	ldr	r0, [pc, #120]	; (fd0 <Print_One_Form_Write_PLC_List_Table+0x158>)
     f58:	4b1e      	ldr	r3, [pc, #120]	; (fd4 <Print_One_Form_Write_PLC_List_Table+0x15c>)
     f5a:	4798      	blx	r3

	// MAC ID INDEX
	// dev_value[MAC ID INDEX][Channel_Index]
	// dev_value[MAC ID INDEX][Channel_Index + 1]

	unsigned char tmp_i = tmp_Write_PLC_List_Index[tmp_index].MAC_ID_Index.word;
     f5c:	8826      	ldrh	r6, [r4, #0]
     f5e:	b2b6      	uxth	r6, r6
	unsigned char tmp_j = tmp_Write_PLC_List_Index[tmp_index].Channel_Index;
     f60:	78a4      	ldrb	r4, [r4, #2]
     f62:	b2e4      	uxtb	r4, r4
	tmp_j = tmp_j * 2;
	uTXByte(Debug_COM, ' ');
     f64:	4d1a      	ldr	r5, [pc, #104]	; (fd0 <Print_One_Form_Write_PLC_List_Table+0x158>)
     f66:	2120      	movs	r1, #32
     f68:	0028      	movs	r0, r5
     f6a:	4f1a      	ldr	r7, [pc, #104]	; (fd4 <Print_One_Form_Write_PLC_List_Table+0x15c>)
     f6c:	47b8      	blx	r7
	uTXByte(Debug_COM, ':');
     f6e:	213a      	movs	r1, #58	; 0x3a
     f70:	0028      	movs	r0, r5
     f72:	47b8      	blx	r7
	uTXByte(Debug_COM, ' ');
     f74:	2120      	movs	r1, #32
     f76:	0028      	movs	r0, r5
     f78:	47b8      	blx	r7
	uart_send_ascii_byte(Debug_COM, dev_value[tmp_i][8 + tmp_j]);
     f7a:	b2f6      	uxtb	r6, r6
	tmp_j = tmp_j * 2;
     f7c:	0064      	lsls	r4, r4, #1
	uart_send_ascii_byte(Debug_COM, dev_value[tmp_i][8 + tmp_j]);
     f7e:	b2e4      	uxtb	r4, r4
     f80:	00f3      	lsls	r3, r6, #3
     f82:	199b      	adds	r3, r3, r6
     f84:	009b      	lsls	r3, r3, #2
     f86:	199b      	adds	r3, r3, r6
     f88:	4a17      	ldr	r2, [pc, #92]	; (fe8 <Print_One_Form_Write_PLC_List_Table+0x170>)
     f8a:	18d3      	adds	r3, r2, r3
     f8c:	191c      	adds	r4, r3, r4
     f8e:	7a21      	ldrb	r1, [r4, #8]
     f90:	0028      	movs	r0, r5
     f92:	4e16      	ldr	r6, [pc, #88]	; (fec <Print_One_Form_Write_PLC_List_Table+0x174>)
     f94:	47b0      	blx	r6
	uart_send_ascii_byte(Debug_COM, dev_value[tmp_i][9 + tmp_j]);	
     f96:	7a61      	ldrb	r1, [r4, #9]
     f98:	0028      	movs	r0, r5
     f9a:	47b0      	blx	r6
}
     f9c:	bdf8      	pop	{r3, r4, r5, r6, r7, pc}
		tmp_Write_PLC_List_Index[tmp_index].Channel_En = Dev_Dis;
     f9e:	2300      	movs	r3, #0
     fa0:	70e3      	strb	r3, [r4, #3]
     fa2:	e792      	b.n	eca <Print_One_Form_Write_PLC_List_Table+0x52>
		Print_Enable_CMD_Msg();
     fa4:	4b12      	ldr	r3, [pc, #72]	; (ff0 <Print_One_Form_Write_PLC_List_Table+0x178>)
     fa6:	4798      	blx	r3
     fa8:	e795      	b.n	ed6 <Print_One_Form_Write_PLC_List_Table+0x5e>
		uTXByte(Debug_COM, '_');
     faa:	4e09      	ldr	r6, [pc, #36]	; (fd0 <Print_One_Form_Write_PLC_List_Table+0x158>)
     fac:	215f      	movs	r1, #95	; 0x5f
     fae:	0030      	movs	r0, r6
     fb0:	4d08      	ldr	r5, [pc, #32]	; (fd4 <Print_One_Form_Write_PLC_List_Table+0x15c>)
     fb2:	47a8      	blx	r5
		uTXByte(Debug_COM, '_');
     fb4:	215f      	movs	r1, #95	; 0x5f
     fb6:	0030      	movs	r0, r6
     fb8:	47a8      	blx	r5
		uTXByte(Debug_COM, '_');
     fba:	215f      	movs	r1, #95	; 0x5f
     fbc:	0030      	movs	r0, r6
     fbe:	47a8      	blx	r5
     fc0:	e7a1      	b.n	f06 <Print_One_Form_Write_PLC_List_Table+0x8e>
		uTXByte(Debug_COM, tmp_Write_PLC_List_Index[tmp_index].Channel_Index + 0x30);	
     fc2:	78a1      	ldrb	r1, [r4, #2]
     fc4:	3130      	adds	r1, #48	; 0x30
     fc6:	b2c9      	uxtb	r1, r1
     fc8:	4801      	ldr	r0, [pc, #4]	; (fd0 <Print_One_Form_Write_PLC_List_Table+0x158>)
     fca:	4b02      	ldr	r3, [pc, #8]	; (fd4 <Print_One_Form_Write_PLC_List_Table+0x15c>)
     fcc:	4798      	blx	r3
     fce:	e7c5      	b.n	f5c <Print_One_Form_Write_PLC_List_Table+0xe4>
     fd0:	200002f0 	.word	0x200002f0
     fd4:	00005535 	.word	0x00005535
     fd8:	000057f5 	.word	0x000057f5
     fdc:	00005615 	.word	0x00005615
     fe0:	0000ffff 	.word	0x0000ffff
     fe4:	000031a9 	.word	0x000031a9
     fe8:	200019a4 	.word	0x200019a4
     fec:	00005555 	.word	0x00005555
     ff0:	00003195 	.word	0x00003195

00000ff4 <Judg_KEY_P>:

//void Judg_KEY_P(volatile Write_PLC_List_t *tmp_Write_PLC_List_Index)
void Judg_KEY_P(void)
{
     ff4:	b5f0      	push	{r4, r5, r6, r7, lr}
     ff6:	46d6      	mov	lr, sl
     ff8:	4647      	mov	r7, r8
     ffa:	b580      	push	{r7, lr}
     ffc:	b083      	sub	sp, #12
	volatile Write_PLC_List_t *tmp_Write_PLC_List_Index = Write_PLC_List_In_RAM;
	unsigned int tmp_index;
	unsigned char tmp_count;
	tmp_count = 0;
	if(	ascii_to_hex(UserKeyInBuf[0]) == KEYP && ascii_to_hex(UserKeyInBuf[1]) == KEYL)
     ffe:	4b77      	ldr	r3, [pc, #476]	; (11dc <Judg_KEY_P+0x1e8>)
    1000:	7818      	ldrb	r0, [r3, #0]
    1002:	4b77      	ldr	r3, [pc, #476]	; (11e0 <Judg_KEY_P+0x1ec>)
    1004:	4798      	blx	r3
    1006:	2819      	cmp	r0, #25
    1008:	d00b      	beq.n	1022 <Judg_KEY_P+0x2e>
				}
				break;
		}		
	}
	
	if(ascii_to_hex(UserKeyInBuf[0]) == KEYP)
    100a:	4b74      	ldr	r3, [pc, #464]	; (11dc <Judg_KEY_P+0x1e8>)
    100c:	7818      	ldrb	r0, [r3, #0]
    100e:	4b74      	ldr	r3, [pc, #464]	; (11e0 <Judg_KEY_P+0x1ec>)
    1010:	4798      	blx	r3
    1012:	2819      	cmp	r0, #25
    1014:	d100      	bne.n	1018 <Judg_KEY_P+0x24>
    1016:	e09f      	b.n	1158 <Judg_KEY_P+0x164>
				uTXByte(Debug_COM, 0x0d);
				CMD_Save_Func(LORA02);
				break;
		}
	}
}
    1018:	b003      	add	sp, #12
    101a:	bc0c      	pop	{r2, r3}
    101c:	4690      	mov	r8, r2
    101e:	469a      	mov	sl, r3
    1020:	bdf0      	pop	{r4, r5, r6, r7, pc}
	if(	ascii_to_hex(UserKeyInBuf[0]) == KEYP && ascii_to_hex(UserKeyInBuf[1]) == KEYL)
    1022:	4b6e      	ldr	r3, [pc, #440]	; (11dc <Judg_KEY_P+0x1e8>)
    1024:	7858      	ldrb	r0, [r3, #1]
    1026:	4b6e      	ldr	r3, [pc, #440]	; (11e0 <Judg_KEY_P+0x1ec>)
    1028:	4798      	blx	r3
    102a:	2815      	cmp	r0, #21
    102c:	d1ed      	bne.n	100a <Judg_KEY_P+0x16>
		switch(UserKeyInBufCount)
    102e:	4b6d      	ldr	r3, [pc, #436]	; (11e4 <Judg_KEY_P+0x1f0>)
    1030:	781b      	ldrb	r3, [r3, #0]
    1032:	2b08      	cmp	r3, #8
    1034:	d047      	beq.n	10c6 <Judg_KEY_P+0xd2>
    1036:	2b0e      	cmp	r3, #14
    1038:	d00a      	beq.n	1050 <Judg_KEY_P+0x5c>
    103a:	2b03      	cmp	r3, #3
    103c:	d1e5      	bne.n	100a <Judg_KEY_P+0x16>
				if(UserKeyInBuf[2] != 0x0d)	{	break;	}
    103e:	4b67      	ldr	r3, [pc, #412]	; (11dc <Judg_KEY_P+0x1e8>)
    1040:	789b      	ldrb	r3, [r3, #2]
    1042:	2b0d      	cmp	r3, #13
    1044:	d1e1      	bne.n	100a <Judg_KEY_P+0x16>
    1046:	2700      	movs	r7, #0
    1048:	2400      	movs	r4, #0
					Print_One_Form_Write_PLC_List_Table(tmp_Write_PLC_List_Index, i);
    104a:	4d67      	ldr	r5, [pc, #412]	; (11e8 <Judg_KEY_P+0x1f4>)
    104c:	4e67      	ldr	r6, [pc, #412]	; (11ec <Judg_KEY_P+0x1f8>)
    104e:	e077      	b.n	1140 <Judg_KEY_P+0x14c>
				if(UserKeyInBuf[13] != 0x0d)	{	break;	}
    1050:	4b62      	ldr	r3, [pc, #392]	; (11dc <Judg_KEY_P+0x1e8>)
    1052:	7b5b      	ldrb	r3, [r3, #13]
    1054:	2b0d      	cmp	r3, #13
    1056:	d1d8      	bne.n	100a <Judg_KEY_P+0x16>
				tmp_index =	Cal_list_table_index(UserKeyInBuf[3], UserKeyInBuf[4], UserKeyInBuf[5]);
    1058:	4c60      	ldr	r4, [pc, #384]	; (11dc <Judg_KEY_P+0x1e8>)
    105a:	7962      	ldrb	r2, [r4, #5]
    105c:	7921      	ldrb	r1, [r4, #4]
    105e:	78e0      	ldrb	r0, [r4, #3]
    1060:	4d63      	ldr	r5, [pc, #396]	; (11f0 <Judg_KEY_P+0x1fc>)
    1062:	47a8      	blx	r5
				Print_One_Form_Write_PLC_List_Table(tmp_Write_PLC_List_Index, tmp_index);
    1064:	4e60      	ldr	r6, [pc, #384]	; (11e8 <Judg_KEY_P+0x1f4>)
    1066:	9001      	str	r0, [sp, #4]
    1068:	0001      	movs	r1, r0
    106a:	0030      	movs	r0, r6
    106c:	4f5f      	ldr	r7, [pc, #380]	; (11ec <Judg_KEY_P+0x1f8>)
    106e:	47b8      	blx	r7
				Print_Arrow_Right();
    1070:	4b60      	ldr	r3, [pc, #384]	; (11f4 <Judg_KEY_P+0x200>)
    1072:	4798      	blx	r3
				tmp_Write_PLC_List_Index[tmp_index].MAC_ID_Index.word = Cal_list_table_index(UserKeyInBuf[7], UserKeyInBuf[8], UserKeyInBuf[9]);
    1074:	9b01      	ldr	r3, [sp, #4]
    1076:	009b      	lsls	r3, r3, #2
    1078:	4698      	mov	r8, r3
    107a:	44b0      	add	r8, r6
    107c:	7a62      	ldrb	r2, [r4, #9]
    107e:	7a21      	ldrb	r1, [r4, #8]
    1080:	79e0      	ldrb	r0, [r4, #7]
    1082:	47a8      	blx	r5
    1084:	b280      	uxth	r0, r0
    1086:	4642      	mov	r2, r8
    1088:	8010      	strh	r0, [r2, #0]
				tmp_Write_PLC_List_Index[tmp_index].Channel_Index = ascii_to_hex(UserKeyInBuf[11]) * 10 + ascii_to_hex(UserKeyInBuf[12]);
    108a:	7ae0      	ldrb	r0, [r4, #11]
    108c:	4a54      	ldr	r2, [pc, #336]	; (11e0 <Judg_KEY_P+0x1ec>)
    108e:	4692      	mov	sl, r2
    1090:	4790      	blx	r2
    1092:	0005      	movs	r5, r0
    1094:	7b20      	ldrb	r0, [r4, #12]
    1096:	47d0      	blx	sl
    1098:	00ab      	lsls	r3, r5, #2
    109a:	18ed      	adds	r5, r5, r3
    109c:	006d      	lsls	r5, r5, #1
    109e:	1945      	adds	r5, r0, r5
    10a0:	b2ed      	uxtb	r5, r5
    10a2:	4642      	mov	r2, r8
    10a4:	7095      	strb	r5, [r2, #2]
				tmp_Write_PLC_List_Index[tmp_index].Channel_En = 0;
    10a6:	2300      	movs	r3, #0
    10a8:	70d3      	strb	r3, [r2, #3]
				Save_Write_PLC_List_in_NVM(tmp_Write_PLC_List_Index);
    10aa:	0030      	movs	r0, r6
    10ac:	4b52      	ldr	r3, [pc, #328]	; (11f8 <Judg_KEY_P+0x204>)
    10ae:	4798      	blx	r3
				Load_Write_PLC_List_in_NVM(tmp_Write_PLC_List_Index);
    10b0:	0030      	movs	r0, r6
    10b2:	4b52      	ldr	r3, [pc, #328]	; (11fc <Judg_KEY_P+0x208>)
    10b4:	4798      	blx	r3
				Print_One_Form_Write_PLC_List_Table(tmp_Write_PLC_List_Index, tmp_index);
    10b6:	9901      	ldr	r1, [sp, #4]
    10b8:	0030      	movs	r0, r6
    10ba:	47b8      	blx	r7
				uTXByte(Debug_COM, 0x0d);
    10bc:	210d      	movs	r1, #13
    10be:	4850      	ldr	r0, [pc, #320]	; (1200 <Judg_KEY_P+0x20c>)
    10c0:	4b50      	ldr	r3, [pc, #320]	; (1204 <Judg_KEY_P+0x210>)
    10c2:	4798      	blx	r3
				break;
    10c4:	e7a1      	b.n	100a <Judg_KEY_P+0x16>
				if(ascii_to_hex(UserKeyInBuf[2]) != KEYE)	{	break;	}
    10c6:	4b45      	ldr	r3, [pc, #276]	; (11dc <Judg_KEY_P+0x1e8>)
    10c8:	7898      	ldrb	r0, [r3, #2]
    10ca:	4b45      	ldr	r3, [pc, #276]	; (11e0 <Judg_KEY_P+0x1ec>)
    10cc:	4798      	blx	r3
    10ce:	280e      	cmp	r0, #14
    10d0:	d19b      	bne.n	100a <Judg_KEY_P+0x16>
				if(UserKeyInBuf[7] != 0x0d)					{	break;	}
    10d2:	4b42      	ldr	r3, [pc, #264]	; (11dc <Judg_KEY_P+0x1e8>)
    10d4:	79db      	ldrb	r3, [r3, #7]
    10d6:	2b0d      	cmp	r3, #13
    10d8:	d197      	bne.n	100a <Judg_KEY_P+0x16>
				tmp_index =	Cal_list_table_index(UserKeyInBuf[4], UserKeyInBuf[5], UserKeyInBuf[6]);
    10da:	4b40      	ldr	r3, [pc, #256]	; (11dc <Judg_KEY_P+0x1e8>)
    10dc:	799a      	ldrb	r2, [r3, #6]
    10de:	7959      	ldrb	r1, [r3, #5]
    10e0:	7918      	ldrb	r0, [r3, #4]
    10e2:	4b43      	ldr	r3, [pc, #268]	; (11f0 <Judg_KEY_P+0x1fc>)
    10e4:	4798      	blx	r3
    10e6:	0005      	movs	r5, r0
				Print_One_Form_Write_PLC_List_Table(tmp_Write_PLC_List_Index, tmp_index);
    10e8:	4c3f      	ldr	r4, [pc, #252]	; (11e8 <Judg_KEY_P+0x1f4>)
    10ea:	0001      	movs	r1, r0
    10ec:	0020      	movs	r0, r4
    10ee:	4b3f      	ldr	r3, [pc, #252]	; (11ec <Judg_KEY_P+0x1f8>)
    10f0:	4798      	blx	r3
				Print_Arrow_Right();
    10f2:	4b40      	ldr	r3, [pc, #256]	; (11f4 <Judg_KEY_P+0x200>)
    10f4:	4798      	blx	r3
				if(tmp_Write_PLC_List_Index[tmp_index].Channel_En == Dev_Dis)
    10f6:	00ab      	lsls	r3, r5, #2
    10f8:	191b      	adds	r3, r3, r4
    10fa:	78da      	ldrb	r2, [r3, #3]
    10fc:	2a00      	cmp	r2, #0
    10fe:	d111      	bne.n	1124 <Judg_KEY_P+0x130>
					tmp_Write_PLC_List_Index[tmp_index].Channel_En = Dev_EN;	
    1100:	3201      	adds	r2, #1
    1102:	70da      	strb	r2, [r3, #3]
				Save_Write_PLC_List_in_NVM(tmp_Write_PLC_List_Index);
    1104:	4c38      	ldr	r4, [pc, #224]	; (11e8 <Judg_KEY_P+0x1f4>)
    1106:	0020      	movs	r0, r4
    1108:	4b3b      	ldr	r3, [pc, #236]	; (11f8 <Judg_KEY_P+0x204>)
    110a:	4798      	blx	r3
				Load_Write_PLC_List_in_NVM(tmp_Write_PLC_List_Index);
    110c:	0020      	movs	r0, r4
    110e:	4b3b      	ldr	r3, [pc, #236]	; (11fc <Judg_KEY_P+0x208>)
    1110:	4798      	blx	r3
				Print_One_Form_Write_PLC_List_Table(tmp_Write_PLC_List_Index, tmp_index);
    1112:	0029      	movs	r1, r5
    1114:	0020      	movs	r0, r4
    1116:	4b35      	ldr	r3, [pc, #212]	; (11ec <Judg_KEY_P+0x1f8>)
    1118:	4798      	blx	r3
				uTXByte(Debug_COM, 0x0d);
    111a:	210d      	movs	r1, #13
    111c:	4838      	ldr	r0, [pc, #224]	; (1200 <Judg_KEY_P+0x20c>)
    111e:	4b39      	ldr	r3, [pc, #228]	; (1204 <Judg_KEY_P+0x210>)
    1120:	4798      	blx	r3
				break;
    1122:	e772      	b.n	100a <Judg_KEY_P+0x16>
					tmp_Write_PLC_List_Index[tmp_index].Channel_En = Dev_Dis;	
    1124:	2200      	movs	r2, #0
    1126:	70da      	strb	r2, [r3, #3]
    1128:	e7ec      	b.n	1104 <Judg_KEY_P+0x110>
						uTXByte(Debug_COM, 0x0d);
    112a:	210d      	movs	r1, #13
    112c:	4834      	ldr	r0, [pc, #208]	; (1200 <Judg_KEY_P+0x20c>)
    112e:	4b35      	ldr	r3, [pc, #212]	; (1204 <Judg_KEY_P+0x210>)
    1130:	4798      	blx	r3
						tmp_count = 0;
    1132:	2400      	movs	r4, #0
				for(unsigned int i = 0; i < Write_PLC_List_Max; i++)
    1134:	3701      	adds	r7, #1
    1136:	2396      	movs	r3, #150	; 0x96
    1138:	009b      	lsls	r3, r3, #2
    113a:	429f      	cmp	r7, r3
    113c:	d100      	bne.n	1140 <Judg_KEY_P+0x14c>
    113e:	e764      	b.n	100a <Judg_KEY_P+0x16>
					Print_One_Form_Write_PLC_List_Table(tmp_Write_PLC_List_Index, i);
    1140:	0039      	movs	r1, r7
    1142:	0028      	movs	r0, r5
    1144:	47b0      	blx	r6
					if(tmp_count == 2)
    1146:	2c02      	cmp	r4, #2
    1148:	d0ef      	beq.n	112a <Judg_KEY_P+0x136>
						uTXByte(Debug_COM, 0x09);
    114a:	2109      	movs	r1, #9
    114c:	482c      	ldr	r0, [pc, #176]	; (1200 <Judg_KEY_P+0x20c>)
    114e:	4b2d      	ldr	r3, [pc, #180]	; (1204 <Judg_KEY_P+0x210>)
    1150:	4798      	blx	r3
						tmp_count++;
    1152:	3401      	adds	r4, #1
    1154:	b2e4      	uxtb	r4, r4
    1156:	e7ed      	b.n	1134 <Judg_KEY_P+0x140>
		switch(UserKeyInBufCount)
    1158:	4b22      	ldr	r3, [pc, #136]	; (11e4 <Judg_KEY_P+0x1f0>)
    115a:	781b      	ldrb	r3, [r3, #0]
    115c:	2b04      	cmp	r3, #4
    115e:	d000      	beq.n	1162 <Judg_KEY_P+0x16e>
    1160:	e75a      	b.n	1018 <Judg_KEY_P+0x24>
				if(ascii_to_hex(UserKeyInBuf[0]) != KEYP)	{	break;	}
    1162:	4b1e      	ldr	r3, [pc, #120]	; (11dc <Judg_KEY_P+0x1e8>)
    1164:	7818      	ldrb	r0, [r3, #0]
    1166:	4b1e      	ldr	r3, [pc, #120]	; (11e0 <Judg_KEY_P+0x1ec>)
    1168:	4798      	blx	r3
    116a:	2819      	cmp	r0, #25
    116c:	d000      	beq.n	1170 <Judg_KEY_P+0x17c>
    116e:	e753      	b.n	1018 <Judg_KEY_P+0x24>
				if(ascii_to_hex(UserKeyInBuf[1]) != KEYL)	{	break;	}
    1170:	4b1a      	ldr	r3, [pc, #104]	; (11dc <Judg_KEY_P+0x1e8>)
    1172:	7858      	ldrb	r0, [r3, #1]
    1174:	4b1a      	ldr	r3, [pc, #104]	; (11e0 <Judg_KEY_P+0x1ec>)
    1176:	4798      	blx	r3
    1178:	2815      	cmp	r0, #21
    117a:	d000      	beq.n	117e <Judg_KEY_P+0x18a>
    117c:	e74c      	b.n	1018 <Judg_KEY_P+0x24>
				if(ascii_to_hex(UserKeyInBuf[2]) != KEYC)	{	break;	}
    117e:	4b17      	ldr	r3, [pc, #92]	; (11dc <Judg_KEY_P+0x1e8>)
    1180:	7898      	ldrb	r0, [r3, #2]
    1182:	4b17      	ldr	r3, [pc, #92]	; (11e0 <Judg_KEY_P+0x1ec>)
    1184:	4798      	blx	r3
    1186:	280c      	cmp	r0, #12
    1188:	d000      	beq.n	118c <Judg_KEY_P+0x198>
    118a:	e745      	b.n	1018 <Judg_KEY_P+0x24>
				if(UserKeyInBuf[3] != 0x0d)	{	break;	}
    118c:	4b13      	ldr	r3, [pc, #76]	; (11dc <Judg_KEY_P+0x1e8>)
    118e:	78db      	ldrb	r3, [r3, #3]
    1190:	2b0d      	cmp	r3, #13
    1192:	d000      	beq.n	1196 <Judg_KEY_P+0x1a2>
    1194:	e740      	b.n	1018 <Judg_KEY_P+0x24>
				uart_str("PLC: \0");
    1196:	481c      	ldr	r0, [pc, #112]	; (1208 <Judg_KEY_P+0x214>)
    1198:	4b1c      	ldr	r3, [pc, #112]	; (120c <Judg_KEY_P+0x218>)
    119a:	4798      	blx	r3
				if(LORA02->PLC_Flag == NeedPLC)
    119c:	4b1c      	ldr	r3, [pc, #112]	; (1210 <Judg_KEY_P+0x21c>)
    119e:	681b      	ldr	r3, [r3, #0]
    11a0:	7c1b      	ldrb	r3, [r3, #16]
    11a2:	2b01      	cmp	r3, #1
    11a4:	d010      	beq.n	11c8 <Judg_KEY_P+0x1d4>
					uart_str("ON\0");
    11a6:	4818      	ldr	r0, [pc, #96]	; (1208 <Judg_KEY_P+0x214>)
    11a8:	3010      	adds	r0, #16
    11aa:	4b18      	ldr	r3, [pc, #96]	; (120c <Judg_KEY_P+0x218>)
    11ac:	4798      	blx	r3
					LORA02->PLC_Flag = NeedPLC;
    11ae:	4b18      	ldr	r3, [pc, #96]	; (1210 <Judg_KEY_P+0x21c>)
    11b0:	681b      	ldr	r3, [r3, #0]
    11b2:	2201      	movs	r2, #1
    11b4:	741a      	strb	r2, [r3, #16]
				uTXByte(Debug_COM, 0x0d);
    11b6:	210d      	movs	r1, #13
    11b8:	4811      	ldr	r0, [pc, #68]	; (1200 <Judg_KEY_P+0x20c>)
    11ba:	4b12      	ldr	r3, [pc, #72]	; (1204 <Judg_KEY_P+0x210>)
    11bc:	4798      	blx	r3
				CMD_Save_Func(LORA02);
    11be:	4b14      	ldr	r3, [pc, #80]	; (1210 <Judg_KEY_P+0x21c>)
    11c0:	6818      	ldr	r0, [r3, #0]
    11c2:	4b14      	ldr	r3, [pc, #80]	; (1214 <Judg_KEY_P+0x220>)
    11c4:	4798      	blx	r3
}
    11c6:	e727      	b.n	1018 <Judg_KEY_P+0x24>
					uart_str("OFF\0");
    11c8:	480f      	ldr	r0, [pc, #60]	; (1208 <Judg_KEY_P+0x214>)
    11ca:	3008      	adds	r0, #8
    11cc:	4b0f      	ldr	r3, [pc, #60]	; (120c <Judg_KEY_P+0x218>)
    11ce:	4798      	blx	r3
					LORA02->PLC_Flag = NoPLC;
    11d0:	4b0f      	ldr	r3, [pc, #60]	; (1210 <Judg_KEY_P+0x21c>)
    11d2:	681b      	ldr	r3, [r3, #0]
    11d4:	2200      	movs	r2, #0
    11d6:	741a      	strb	r2, [r3, #16]
    11d8:	e7ed      	b.n	11b6 <Judg_KEY_P+0x1c2>
    11da:	46c0      	nop			; (mov r8, r8)
    11dc:	20000358 	.word	0x20000358
    11e0:	0000564d 	.word	0x0000564d
    11e4:	200003a6 	.word	0x200003a6
    11e8:	200003ac 	.word	0x200003ac
    11ec:	00000e79 	.word	0x00000e79
    11f0:	00001b51 	.word	0x00001b51
    11f4:	000032b1 	.word	0x000032b1
    11f8:	00001fdd 	.word	0x00001fdd
    11fc:	00002085 	.word	0x00002085
    1200:	200002f0 	.word	0x200002f0
    1204:	00005535 	.word	0x00005535
    1208:	00008770 	.word	0x00008770
    120c:	00003101 	.word	0x00003101
    1210:	20000d18 	.word	0x20000d18
    1214:	00001b79 	.word	0x00001b79

00001218 <Judg_KEY_PDL>:
﻿#include <asf.h>
#include <stdio.h>
#include "myDefine.h"

void Judg_KEY_PDL(void)
{
    1218:	b5f8      	push	{r3, r4, r5, r6, r7, lr}
    121a:	46ce      	mov	lr, r9
    121c:	4647      	mov	r7, r8
    121e:	b580      	push	{r7, lr}
	//UINT16u_t tmp16;
	volatile PLC_Dev_List_t *PLC_Dev_List_Index = PLC_D_Buf;
	
	if(	ascii_to_hex(UserKeyInBuf[0]) == KEYP &&
    1220:	4b2b      	ldr	r3, [pc, #172]	; (12d0 <Judg_KEY_PDL+0xb8>)
    1222:	7818      	ldrb	r0, [r3, #0]
    1224:	4b2b      	ldr	r3, [pc, #172]	; (12d4 <Judg_KEY_PDL+0xbc>)
    1226:	4798      	blx	r3
    1228:	2819      	cmp	r0, #25
    122a:	d003      	beq.n	1234 <Judg_KEY_PDL+0x1c>
				uTXByte(Debug_COM, 0x0d);
				k++;
			}
		}
	}
    122c:	bc0c      	pop	{r2, r3}
    122e:	4690      	mov	r8, r2
    1230:	4699      	mov	r9, r3
    1232:	bdf8      	pop	{r3, r4, r5, r6, r7, pc}
		ascii_to_hex(UserKeyInBuf[1]) == KEYD &&
    1234:	4b26      	ldr	r3, [pc, #152]	; (12d0 <Judg_KEY_PDL+0xb8>)
    1236:	7858      	ldrb	r0, [r3, #1]
    1238:	4b26      	ldr	r3, [pc, #152]	; (12d4 <Judg_KEY_PDL+0xbc>)
    123a:	4798      	blx	r3
	if(	ascii_to_hex(UserKeyInBuf[0]) == KEYP &&
    123c:	280d      	cmp	r0, #13
    123e:	d1f5      	bne.n	122c <Judg_KEY_PDL+0x14>
		ascii_to_hex(UserKeyInBuf[2]) == KEYL )
    1240:	4b23      	ldr	r3, [pc, #140]	; (12d0 <Judg_KEY_PDL+0xb8>)
    1242:	7898      	ldrb	r0, [r3, #2]
    1244:	4b23      	ldr	r3, [pc, #140]	; (12d4 <Judg_KEY_PDL+0xbc>)
    1246:	4798      	blx	r3
		ascii_to_hex(UserKeyInBuf[1]) == KEYD &&
    1248:	2815      	cmp	r0, #21
    124a:	d1ef      	bne.n	122c <Judg_KEY_PDL+0x14>
		if(UserKeyInBufCount == 4 && UserKeyInBuf[3] == 0x0d)
    124c:	4b22      	ldr	r3, [pc, #136]	; (12d8 <Judg_KEY_PDL+0xc0>)
    124e:	781b      	ldrb	r3, [r3, #0]
    1250:	2b04      	cmp	r3, #4
    1252:	d1eb      	bne.n	122c <Judg_KEY_PDL+0x14>
    1254:	4b1e      	ldr	r3, [pc, #120]	; (12d0 <Judg_KEY_PDL+0xb8>)
    1256:	78db      	ldrb	r3, [r3, #3]
    1258:	2b0d      	cmp	r3, #13
    125a:	d1e7      	bne.n	122c <Judg_KEY_PDL+0x14>
    125c:	2300      	movs	r3, #0
    125e:	4699      	mov	r9, r3
				uart_str("No.\0");
    1260:	4b1e      	ldr	r3, [pc, #120]	; (12dc <Judg_KEY_PDL+0xc4>)
    1262:	4698      	mov	r8, r3
    1264:	e00e      	b.n	1284 <Judg_KEY_PDL+0x6c>
				uart_send_ascii_byte(Debug_COM, PLC_D_Check_Equel_Flag[k]);
    1266:	4b1e      	ldr	r3, [pc, #120]	; (12e0 <Judg_KEY_PDL+0xc8>)
    1268:	464a      	mov	r2, r9
    126a:	5c99      	ldrb	r1, [r3, r2]
    126c:	4c1d      	ldr	r4, [pc, #116]	; (12e4 <Judg_KEY_PDL+0xcc>)
    126e:	0020      	movs	r0, r4
    1270:	4b1d      	ldr	r3, [pc, #116]	; (12e8 <Judg_KEY_PDL+0xd0>)
    1272:	4798      	blx	r3
				uTXByte(Debug_COM, 0x0d);
    1274:	210d      	movs	r1, #13
    1276:	0020      	movs	r0, r4
    1278:	4b1c      	ldr	r3, [pc, #112]	; (12ec <Judg_KEY_PDL+0xd4>)
    127a:	4798      	blx	r3
				k++;
    127c:	464b      	mov	r3, r9
    127e:	1c5f      	adds	r7, r3, #1
    1280:	b2fb      	uxtb	r3, r7
    1282:	4699      	mov	r9, r3
				uart_str("No.\0");
    1284:	481a      	ldr	r0, [pc, #104]	; (12f0 <Judg_KEY_PDL+0xd8>)
    1286:	47c0      	blx	r8
				uart_send_ascii_byte(Debug_COM, k);
    1288:	4649      	mov	r1, r9
    128a:	4816      	ldr	r0, [pc, #88]	; (12e4 <Judg_KEY_PDL+0xcc>)
    128c:	4b16      	ldr	r3, [pc, #88]	; (12e8 <Judg_KEY_PDL+0xd0>)
    128e:	4798      	blx	r3
				uTXByte(Debug_COM, ' ');
    1290:	2120      	movs	r1, #32
    1292:	4814      	ldr	r0, [pc, #80]	; (12e4 <Judg_KEY_PDL+0xcc>)
    1294:	4b15      	ldr	r3, [pc, #84]	; (12ec <Judg_KEY_PDL+0xd4>)
    1296:	4798      	blx	r3
    1298:	464b      	mov	r3, r9
    129a:	00db      	lsls	r3, r3, #3
    129c:	464a      	mov	r2, r9
    129e:	1a9b      	subs	r3, r3, r2
    12a0:	b2de      	uxtb	r6, r3
    12a2:	00b4      	lsls	r4, r6, #2
    12a4:	4a13      	ldr	r2, [pc, #76]	; (12f4 <Judg_KEY_PDL+0xdc>)
    12a6:	18a4      	adds	r4, r4, r2
    12a8:	3607      	adds	r6, #7
    12aa:	00b6      	lsls	r6, r6, #2
    12ac:	18b6      	adds	r6, r6, r2
					uart_send_ascii_byte(Debug_COM, PLC_Dev_List_Index[i + j].DataBuf.byte[1]);
    12ae:	4f0e      	ldr	r7, [pc, #56]	; (12e8 <Judg_KEY_PDL+0xd0>)
					uTXByte(Debug_COM, ' ');
    12b0:	4d0e      	ldr	r5, [pc, #56]	; (12ec <Judg_KEY_PDL+0xd4>)
					uart_send_ascii_byte(Debug_COM, PLC_Dev_List_Index[i + j].DataBuf.byte[1]);
    12b2:	7861      	ldrb	r1, [r4, #1]
    12b4:	b2c9      	uxtb	r1, r1
    12b6:	480b      	ldr	r0, [pc, #44]	; (12e4 <Judg_KEY_PDL+0xcc>)
    12b8:	47b8      	blx	r7
					uart_send_ascii_byte(Debug_COM, PLC_Dev_List_Index[i + j].DataBuf.byte[0]);
    12ba:	7821      	ldrb	r1, [r4, #0]
    12bc:	b2c9      	uxtb	r1, r1
    12be:	4809      	ldr	r0, [pc, #36]	; (12e4 <Judg_KEY_PDL+0xcc>)
    12c0:	47b8      	blx	r7
					uTXByte(Debug_COM, ' ');
    12c2:	2120      	movs	r1, #32
    12c4:	4807      	ldr	r0, [pc, #28]	; (12e4 <Judg_KEY_PDL+0xcc>)
    12c6:	47a8      	blx	r5
    12c8:	3404      	adds	r4, #4
				for(j = 0 ; j < PLC_D_Buf_Print_Columns_Max; j++)
    12ca:	42b4      	cmp	r4, r6
    12cc:	d1f1      	bne.n	12b2 <Judg_KEY_PDL+0x9a>
    12ce:	e7ca      	b.n	1266 <Judg_KEY_PDL+0x4e>
    12d0:	20000358 	.word	0x20000358
    12d4:	0000564d 	.word	0x0000564d
    12d8:	200003a6 	.word	0x200003a6
    12dc:	00003101 	.word	0x00003101
    12e0:	20000284 	.word	0x20000284
    12e4:	200002f0 	.word	0x200002f0
    12e8:	00005555 	.word	0x00005555
    12ec:	00005535 	.word	0x00005535
    12f0:	00008784 	.word	0x00008784
    12f4:	20002880 	.word	0x20002880

000012f8 <Judg_KEY_PSHOW>:
﻿#include <asf.h>
#include <stdio.h>
#include "myDefine.h"

void Judg_KEY_PSHOW(void)
{
    12f8:	b510      	push	{r4, lr}
	//UINT16u_t tmp16;
	
	if(	ascii_to_hex(UserKeyInBuf[0]) == KEYP &&
    12fa:	4b25      	ldr	r3, [pc, #148]	; (1390 <Judg_KEY_PSHOW+0x98>)
    12fc:	7818      	ldrb	r0, [r3, #0]
    12fe:	4b25      	ldr	r3, [pc, #148]	; (1394 <Judg_KEY_PSHOW+0x9c>)
    1300:	4798      	blx	r3
    1302:	2819      	cmp	r0, #25
    1304:	d000      	beq.n	1308 <Judg_KEY_PSHOW+0x10>
					PLC_Show_r_Flag = true;
			}
		}
	}

    1306:	bd10      	pop	{r4, pc}
		ascii_to_hex(UserKeyInBuf[1]) == KEYS &&
    1308:	4b21      	ldr	r3, [pc, #132]	; (1390 <Judg_KEY_PSHOW+0x98>)
    130a:	7858      	ldrb	r0, [r3, #1]
    130c:	4b21      	ldr	r3, [pc, #132]	; (1394 <Judg_KEY_PSHOW+0x9c>)
    130e:	4798      	blx	r3
	if(	ascii_to_hex(UserKeyInBuf[0]) == KEYP &&
    1310:	281c      	cmp	r0, #28
    1312:	d1f8      	bne.n	1306 <Judg_KEY_PSHOW+0xe>
		ascii_to_hex(UserKeyInBuf[2]) == KEYH &&
    1314:	4b1e      	ldr	r3, [pc, #120]	; (1390 <Judg_KEY_PSHOW+0x98>)
    1316:	7898      	ldrb	r0, [r3, #2]
    1318:	4b1e      	ldr	r3, [pc, #120]	; (1394 <Judg_KEY_PSHOW+0x9c>)
    131a:	4798      	blx	r3
		ascii_to_hex(UserKeyInBuf[1]) == KEYS &&
    131c:	2811      	cmp	r0, #17
    131e:	d1f2      	bne.n	1306 <Judg_KEY_PSHOW+0xe>
		ascii_to_hex(UserKeyInBuf[3]) == KEYO &&
    1320:	4b1b      	ldr	r3, [pc, #108]	; (1390 <Judg_KEY_PSHOW+0x98>)
    1322:	78d8      	ldrb	r0, [r3, #3]
    1324:	4b1b      	ldr	r3, [pc, #108]	; (1394 <Judg_KEY_PSHOW+0x9c>)
    1326:	4798      	blx	r3
		ascii_to_hex(UserKeyInBuf[2]) == KEYH &&
    1328:	2818      	cmp	r0, #24
    132a:	d1ec      	bne.n	1306 <Judg_KEY_PSHOW+0xe>
		ascii_to_hex(UserKeyInBuf[4]) == KEYW)
    132c:	4b18      	ldr	r3, [pc, #96]	; (1390 <Judg_KEY_PSHOW+0x98>)
    132e:	7918      	ldrb	r0, [r3, #4]
    1330:	4b18      	ldr	r3, [pc, #96]	; (1394 <Judg_KEY_PSHOW+0x9c>)
    1332:	4798      	blx	r3
		ascii_to_hex(UserKeyInBuf[3]) == KEYO &&
    1334:	2820      	cmp	r0, #32
    1336:	d1e6      	bne.n	1306 <Judg_KEY_PSHOW+0xe>
		if(UserKeyInBufCount == 7 && UserKeyInBuf[6] == 0x0d)
    1338:	4b17      	ldr	r3, [pc, #92]	; (1398 <Judg_KEY_PSHOW+0xa0>)
    133a:	781b      	ldrb	r3, [r3, #0]
    133c:	2b07      	cmp	r3, #7
    133e:	d1e2      	bne.n	1306 <Judg_KEY_PSHOW+0xe>
    1340:	4b13      	ldr	r3, [pc, #76]	; (1390 <Judg_KEY_PSHOW+0x98>)
    1342:	799b      	ldrb	r3, [r3, #6]
    1344:	2b0d      	cmp	r3, #13
    1346:	d1de      	bne.n	1306 <Judg_KEY_PSHOW+0xe>
			if(ascii_to_hex(UserKeyInBuf[5]) == KEYW)
    1348:	4b11      	ldr	r3, [pc, #68]	; (1390 <Judg_KEY_PSHOW+0x98>)
    134a:	7958      	ldrb	r0, [r3, #5]
    134c:	4b11      	ldr	r3, [pc, #68]	; (1394 <Judg_KEY_PSHOW+0x9c>)
    134e:	4798      	blx	r3
    1350:	2820      	cmp	r0, #32
    1352:	d10b      	bne.n	136c <Judg_KEY_PSHOW+0x74>
				if(PLC_Show_w_Flag == true)
    1354:	4b11      	ldr	r3, [pc, #68]	; (139c <Judg_KEY_PSHOW+0xa4>)
    1356:	781b      	ldrb	r3, [r3, #0]
    1358:	2b00      	cmp	r3, #0
    135a:	d003      	beq.n	1364 <Judg_KEY_PSHOW+0x6c>
					PLC_Show_w_Flag = false;
    135c:	2200      	movs	r2, #0
    135e:	4b0f      	ldr	r3, [pc, #60]	; (139c <Judg_KEY_PSHOW+0xa4>)
    1360:	701a      	strb	r2, [r3, #0]
    1362:	e7d0      	b.n	1306 <Judg_KEY_PSHOW+0xe>
					PLC_Show_w_Flag = true;	
    1364:	2201      	movs	r2, #1
    1366:	4b0d      	ldr	r3, [pc, #52]	; (139c <Judg_KEY_PSHOW+0xa4>)
    1368:	701a      	strb	r2, [r3, #0]
    136a:	e7cc      	b.n	1306 <Judg_KEY_PSHOW+0xe>
			else if(ascii_to_hex(UserKeyInBuf[5]) == KEYR)
    136c:	4b08      	ldr	r3, [pc, #32]	; (1390 <Judg_KEY_PSHOW+0x98>)
    136e:	7958      	ldrb	r0, [r3, #5]
    1370:	4b08      	ldr	r3, [pc, #32]	; (1394 <Judg_KEY_PSHOW+0x9c>)
    1372:	4798      	blx	r3
    1374:	281b      	cmp	r0, #27
    1376:	d1c6      	bne.n	1306 <Judg_KEY_PSHOW+0xe>
				if(PLC_Show_r_Flag == true)
    1378:	4b09      	ldr	r3, [pc, #36]	; (13a0 <Judg_KEY_PSHOW+0xa8>)
    137a:	781b      	ldrb	r3, [r3, #0]
    137c:	2b00      	cmp	r3, #0
    137e:	d003      	beq.n	1388 <Judg_KEY_PSHOW+0x90>
					PLC_Show_r_Flag = false;
    1380:	2200      	movs	r2, #0
    1382:	4b07      	ldr	r3, [pc, #28]	; (13a0 <Judg_KEY_PSHOW+0xa8>)
    1384:	701a      	strb	r2, [r3, #0]
    1386:	e7be      	b.n	1306 <Judg_KEY_PSHOW+0xe>
					PLC_Show_r_Flag = true;
    1388:	2201      	movs	r2, #1
    138a:	4b05      	ldr	r3, [pc, #20]	; (13a0 <Judg_KEY_PSHOW+0xa8>)
    138c:	701a      	strb	r2, [r3, #0]
    138e:	e7ba      	b.n	1306 <Judg_KEY_PSHOW+0xe>
    1390:	20000358 	.word	0x20000358
    1394:	0000564d 	.word	0x0000564d
    1398:	200003a6 	.word	0x200003a6
    139c:	20000d0e 	.word	0x20000d0e
    13a0:	20002848 	.word	0x20002848

000013a4 <Set_Lora_User_ID_Func>:
#include <stdio.h>
#include "myDefine.h"


void Set_Lora_User_ID_Func(volatile LORA_DEFINE_t *tmp_LORA)
{
    13a4:	b5f8      	push	{r3, r4, r5, r6, r7, lr}
    13a6:	46de      	mov	lr, fp
    13a8:	4657      	mov	r7, sl
    13aa:	464e      	mov	r6, r9
    13ac:	4645      	mov	r5, r8
    13ae:	b5e0      	push	{r5, r6, r7, lr}
    13b0:	4681      	mov	r9, r0
	UINT8u_t tmp8;
	tmp8.HL.H = ascii_to_hex(UserKeyInBuf[4]);
    13b2:	4b25      	ldr	r3, [pc, #148]	; (1448 <Set_Lora_User_ID_Func+0xa4>)
    13b4:	469b      	mov	fp, r3
    13b6:	7918      	ldrb	r0, [r3, #4]
    13b8:	4b24      	ldr	r3, [pc, #144]	; (144c <Set_Lora_User_ID_Func+0xa8>)
    13ba:	4698      	mov	r8, r3
    13bc:	4798      	blx	r3
    13be:	270f      	movs	r7, #15
    13c0:	0106      	lsls	r6, r0, #4
	tmp8.HL.L = ascii_to_hex(UserKeyInBuf[5]);
    13c2:	465b      	mov	r3, fp
    13c4:	7958      	ldrb	r0, [r3, #5]
    13c6:	47c0      	blx	r8
    13c8:	4038      	ands	r0, r7
    13ca:	230f      	movs	r3, #15
    13cc:	469a      	mov	sl, r3
    13ce:	4306      	orrs	r6, r0
	tmp_LORA->MyLoRaID[0] = tmp8.byte;
    13d0:	b2f3      	uxtb	r3, r6
    13d2:	464a      	mov	r2, r9
    13d4:	7053      	strb	r3, [r2, #1]
	tmp8.HL.H = ascii_to_hex(UserKeyInBuf[6]);
    13d6:	465b      	mov	r3, fp
    13d8:	7998      	ldrb	r0, [r3, #6]
    13da:	47c0      	blx	r8
    13dc:	0100      	lsls	r0, r0, #4
    13de:	403e      	ands	r6, r7
    13e0:	4306      	orrs	r6, r0
	tmp8.HL.L = ascii_to_hex(UserKeyInBuf[7]);
    13e2:	465b      	mov	r3, fp
    13e4:	79d8      	ldrb	r0, [r3, #7]
    13e6:	47c0      	blx	r8
    13e8:	4038      	ands	r0, r7
    13ea:	4653      	mov	r3, sl
    13ec:	439e      	bics	r6, r3
    13ee:	0035      	movs	r5, r6
    13f0:	4305      	orrs	r5, r0
	tmp_LORA->MyLoRaID[1] = tmp8.byte;
    13f2:	b2eb      	uxtb	r3, r5
    13f4:	464a      	mov	r2, r9
    13f6:	7093      	strb	r3, [r2, #2]
	tmp8.HL.H = ascii_to_hex(UserKeyInBuf[8]);
    13f8:	465b      	mov	r3, fp
    13fa:	7a18      	ldrb	r0, [r3, #8]
    13fc:	47c0      	blx	r8
    13fe:	0100      	lsls	r0, r0, #4
    1400:	403d      	ands	r5, r7
    1402:	4305      	orrs	r5, r0
	tmp8.HL.L = ascii_to_hex(UserKeyInBuf[9]);
    1404:	465b      	mov	r3, fp
    1406:	7a58      	ldrb	r0, [r3, #9]
    1408:	47c0      	blx	r8
    140a:	4038      	ands	r0, r7
    140c:	4653      	mov	r3, sl
    140e:	439d      	bics	r5, r3
    1410:	002c      	movs	r4, r5
    1412:	4304      	orrs	r4, r0
	tmp_LORA->MyLoRaID[2] = tmp8.byte;
    1414:	b2e3      	uxtb	r3, r4
    1416:	464a      	mov	r2, r9
    1418:	70d3      	strb	r3, [r2, #3]
	tmp8.HL.H = ascii_to_hex(UserKeyInBuf[10]);
    141a:	465b      	mov	r3, fp
    141c:	7a98      	ldrb	r0, [r3, #10]
    141e:	47c0      	blx	r8
    1420:	0100      	lsls	r0, r0, #4
    1422:	403c      	ands	r4, r7
    1424:	4304      	orrs	r4, r0
	tmp8.HL.L = ascii_to_hex(UserKeyInBuf[11]);
    1426:	465b      	mov	r3, fp
    1428:	7ad8      	ldrb	r0, [r3, #11]
    142a:	47c0      	blx	r8
    142c:	4038      	ands	r0, r7
    142e:	4653      	mov	r3, sl
    1430:	439c      	bics	r4, r3
    1432:	4320      	orrs	r0, r4
	tmp_LORA->MyLoRaID[3] = tmp8.byte;
    1434:	b2c0      	uxtb	r0, r0
    1436:	464b      	mov	r3, r9
    1438:	7118      	strb	r0, [r3, #4]
}
    143a:	bc3c      	pop	{r2, r3, r4, r5}
    143c:	4690      	mov	r8, r2
    143e:	4699      	mov	r9, r3
    1440:	46a2      	mov	sl, r4
    1442:	46ab      	mov	fp, r5
    1444:	bdf8      	pop	{r3, r4, r5, r6, r7, pc}
    1446:	46c0      	nop			; (mov r8, r8)
    1448:	20000358 	.word	0x20000358
    144c:	0000564d 	.word	0x0000564d

00001450 <Set_Lora_FQ_Func>:

void Set_Lora_FQ_Func(volatile LORA_DEFINE_t *tmp_LORA)
{
    1450:	b5f0      	push	{r4, r5, r6, r7, lr}
    1452:	46ce      	mov	lr, r9
    1454:	4647      	mov	r7, r8
    1456:	b580      	push	{r7, lr}
    1458:	b083      	sub	sp, #12
    145a:	0005      	movs	r5, r0
	UINT32u_t tmp_FQ;
	tmp_FQ.dword =  (ascii_to_hex(UserKeyInBuf[4]) * 10000);
    145c:	4b22      	ldr	r3, [pc, #136]	; (14e8 <Set_Lora_FQ_Func+0x98>)
    145e:	4698      	mov	r8, r3
    1460:	7918      	ldrb	r0, [r3, #4]
    1462:	4c22      	ldr	r4, [pc, #136]	; (14ec <Set_Lora_FQ_Func+0x9c>)
    1464:	47a0      	blx	r4
    1466:	0007      	movs	r7, r0
	tmp_FQ.dword += (ascii_to_hex(UserKeyInBuf[5]) * 1000);
    1468:	4643      	mov	r3, r8
    146a:	7958      	ldrb	r0, [r3, #5]
    146c:	47a0      	blx	r4
	tmp_FQ.dword =  (ascii_to_hex(UserKeyInBuf[4]) * 10000);
    146e:	4e20      	ldr	r6, [pc, #128]	; (14f0 <Set_Lora_FQ_Func+0xa0>)
    1470:	437e      	muls	r6, r7
	tmp_FQ.dword += (ascii_to_hex(UserKeyInBuf[5]) * 1000);
    1472:	23fa      	movs	r3, #250	; 0xfa
    1474:	009b      	lsls	r3, r3, #2
    1476:	4358      	muls	r0, r3
    1478:	1836      	adds	r6, r6, r0
	tmp_FQ.dword += (ascii_to_hex(UserKeyInBuf[6]) * 100);
    147a:	4643      	mov	r3, r8
    147c:	7998      	ldrb	r0, [r3, #6]
    147e:	47a0      	blx	r4
    1480:	4681      	mov	r9, r0
	tmp_FQ.dword += (ascii_to_hex(UserKeyInBuf[7]) * 10);
    1482:	4643      	mov	r3, r8
    1484:	79d8      	ldrb	r0, [r3, #7]
    1486:	47a0      	blx	r4
    1488:	0007      	movs	r7, r0
	tmp_FQ.dword +=  ascii_to_hex(UserKeyInBuf[8]);
    148a:	4643      	mov	r3, r8
    148c:	7a18      	ldrb	r0, [r3, #8]
    148e:	47a0      	blx	r4
	tmp_FQ.dword += (ascii_to_hex(UserKeyInBuf[6]) * 100);
    1490:	2464      	movs	r4, #100	; 0x64
    1492:	464b      	mov	r3, r9
    1494:	435c      	muls	r4, r3
	tmp_FQ.dword +=  ascii_to_hex(UserKeyInBuf[8]);
    1496:	1986      	adds	r6, r0, r6
    1498:	19a4      	adds	r4, r4, r6
	tmp_FQ.dword += (ascii_to_hex(UserKeyInBuf[7]) * 10);
    149a:	00bb      	lsls	r3, r7, #2
    149c:	19db      	adds	r3, r3, r7
    149e:	005b      	lsls	r3, r3, #1
	tmp_FQ.dword +=  ascii_to_hex(UserKeyInBuf[8]);
    14a0:	18e4      	adds	r4, r4, r3
	uart_send_ascii_byte(Debug_COM, tmp_FQ.byte[2]);
    14a2:	0223      	lsls	r3, r4, #8
    14a4:	0e1b      	lsrs	r3, r3, #24
    14a6:	4698      	mov	r8, r3
    14a8:	466a      	mov	r2, sp
    14aa:	71d3      	strb	r3, [r2, #7]
    14ac:	79d1      	ldrb	r1, [r2, #7]
    14ae:	4811      	ldr	r0, [pc, #68]	; (14f4 <Set_Lora_FQ_Func+0xa4>)
    14b0:	4b11      	ldr	r3, [pc, #68]	; (14f8 <Set_Lora_FQ_Func+0xa8>)
    14b2:	4699      	mov	r9, r3
    14b4:	4798      	blx	r3
	uart_send_ascii_byte(Debug_COM, tmp_FQ.byte[1]);
    14b6:	0426      	lsls	r6, r4, #16
    14b8:	0e36      	lsrs	r6, r6, #24
    14ba:	b2f1      	uxtb	r1, r6
    14bc:	480d      	ldr	r0, [pc, #52]	; (14f4 <Set_Lora_FQ_Func+0xa4>)
    14be:	47c8      	blx	r9
	uart_send_ascii_byte(Debug_COM, tmp_FQ.byte[0]);
    14c0:	b2e7      	uxtb	r7, r4
    14c2:	0039      	movs	r1, r7
    14c4:	480b      	ldr	r0, [pc, #44]	; (14f4 <Set_Lora_FQ_Func+0xa4>)
    14c6:	47c8      	blx	r9
	tmp_LORA->MyLoRaFQ.dword = tmp_FQ.dword;
    14c8:	616c      	str	r4, [r5, #20]
	tmp_LORA->MyLoRaTmp[Write_LoRa_Mode_FQ_Index][4] = tmp_FQ.byte[2];
    14ca:	23c2      	movs	r3, #194	; 0xc2
    14cc:	4642      	mov	r2, r8
    14ce:	54ea      	strb	r2, [r5, r3]
	tmp_LORA->MyLoRaTmp[Write_LoRa_Mode_FQ_Index][5] = tmp_FQ.byte[1];
    14d0:	3301      	adds	r3, #1
    14d2:	54ee      	strb	r6, [r5, r3]
	tmp_LORA->MyLoRaTmp[Write_LoRa_Mode_FQ_Index][6] = tmp_FQ.byte[0];
    14d4:	3301      	adds	r3, #1
    14d6:	54ef      	strb	r7, [r5, r3]
	tmp_LORA->NowStatus = Write_LoRa_Setting_Index;
    14d8:	2204      	movs	r2, #4
    14da:	4b08      	ldr	r3, [pc, #32]	; (14fc <Set_Lora_FQ_Func+0xac>)
    14dc:	54ea      	strb	r2, [r5, r3]
}
    14de:	b003      	add	sp, #12
    14e0:	bc0c      	pop	{r2, r3}
    14e2:	4690      	mov	r8, r2
    14e4:	4699      	mov	r9, r3
    14e6:	bdf0      	pop	{r4, r5, r6, r7, pc}
    14e8:	20000358 	.word	0x20000358
    14ec:	0000564d 	.word	0x0000564d
    14f0:	00002710 	.word	0x00002710
    14f4:	200002f0 	.word	0x200002f0
    14f8:	00005555 	.word	0x00005555
    14fc:	0000021d 	.word	0x0000021d

00001500 <Set_Lora_Power_Func>:

void Set_Lora_Power_Func(volatile LORA_DEFINE_t *tmp_LORA)
{
    1500:	b5f8      	push	{r3, r4, r5, r6, r7, lr}
    1502:	0005      	movs	r5, r0
	tmp_LORA->MyLoRaTmp[Write_LoRa_Mode_FQ_Index][7] = ((ascii_to_hex(UserKeyInBuf[4]) * 10) + ascii_to_hex(UserKeyInBuf[5]) - 2);
    1504:	4f0a      	ldr	r7, [pc, #40]	; (1530 <Set_Lora_Power_Func+0x30>)
    1506:	7938      	ldrb	r0, [r7, #4]
    1508:	4e0a      	ldr	r6, [pc, #40]	; (1534 <Set_Lora_Power_Func+0x34>)
    150a:	47b0      	blx	r6
    150c:	0004      	movs	r4, r0
    150e:	7978      	ldrb	r0, [r7, #5]
    1510:	47b0      	blx	r6
    1512:	00a3      	lsls	r3, r4, #2
    1514:	18e4      	adds	r4, r4, r3
    1516:	0064      	lsls	r4, r4, #1
    1518:	3802      	subs	r0, #2
    151a:	1820      	adds	r0, r4, r0
    151c:	b2c0      	uxtb	r0, r0
    151e:	23c5      	movs	r3, #197	; 0xc5
    1520:	54e8      	strb	r0, [r5, r3]
	tmp_LORA->MyLoRaPower = tmp_LORA->MyLoRaTmp[Write_LoRa_Mode_FQ_Index][7];
    1522:	5ceb      	ldrb	r3, [r5, r3]
    1524:	b2db      	uxtb	r3, r3
    1526:	73ab      	strb	r3, [r5, #14]
	tmp_LORA->NowStatus = Write_LoRa_Setting_Index;
    1528:	2204      	movs	r2, #4
    152a:	4b03      	ldr	r3, [pc, #12]	; (1538 <Set_Lora_Power_Func+0x38>)
    152c:	54ea      	strb	r2, [r5, r3]
}
    152e:	bdf8      	pop	{r3, r4, r5, r6, r7, pc}
    1530:	20000358 	.word	0x20000358
    1534:	0000564d 	.word	0x0000564d
    1538:	0000021d 	.word	0x0000021d

0000153c <Set_Lora_SF_Func>:

void Set_Lora_SF_Func(volatile LORA_DEFINE_t *tmp_LORA)
{
    153c:	b5f8      	push	{r3, r4, r5, r6, r7, lr}
    153e:	0005      	movs	r5, r0
	tmp_LORA->MyLoRaTmp[Write_LoRa_Setting_Index][5] = ((ascii_to_hex(UserKeyInBuf[4]) * 10) + ascii_to_hex(UserKeyInBuf[5]) - 5);
    1540:	4f0a      	ldr	r7, [pc, #40]	; (156c <Set_Lora_SF_Func+0x30>)
    1542:	7938      	ldrb	r0, [r7, #4]
    1544:	4e0a      	ldr	r6, [pc, #40]	; (1570 <Set_Lora_SF_Func+0x34>)
    1546:	47b0      	blx	r6
    1548:	0004      	movs	r4, r0
    154a:	7978      	ldrb	r0, [r7, #5]
    154c:	47b0      	blx	r6
    154e:	00a3      	lsls	r3, r4, #2
    1550:	18e4      	adds	r4, r4, r3
    1552:	0064      	lsls	r4, r4, #1
    1554:	3805      	subs	r0, #5
    1556:	1820      	adds	r0, r4, r0
    1558:	b2c0      	uxtb	r0, r0
    155a:	23de      	movs	r3, #222	; 0xde
    155c:	54e8      	strb	r0, [r5, r3]
	tmp_LORA->MyLoRaSF = tmp_LORA->MyLoRaTmp[Write_LoRa_Setting_Index][5];
    155e:	5ceb      	ldrb	r3, [r5, r3]
    1560:	b2db      	uxtb	r3, r3
    1562:	73eb      	strb	r3, [r5, #15]
	tmp_LORA->NowStatus = Write_LoRa_Setting_Index;
    1564:	2204      	movs	r2, #4
    1566:	4b03      	ldr	r3, [pc, #12]	; (1574 <Set_Lora_SF_Func+0x38>)
    1568:	54ea      	strb	r2, [r5, r3]
}
    156a:	bdf8      	pop	{r3, r4, r5, r6, r7, pc}
    156c:	20000358 	.word	0x20000358
    1570:	0000564d 	.word	0x0000564d
    1574:	0000021d 	.word	0x0000021d

00001578 <Print_Lora_FW_ID_Func>:

void Print_Lora_FW_ID_Func(volatile LORA_DEFINE_t *tmp_LORA)
{
    1578:	b570      	push	{r4, r5, r6, lr}
    157a:	0004      	movs	r4, r0
	Print_Lora_number(tmp_LORA);
    157c:	4b0d      	ldr	r3, [pc, #52]	; (15b4 <Print_Lora_FW_ID_Func+0x3c>)
    157e:	4798      	blx	r3
	uTXByte(Debug_COM, 0x0d);
    1580:	4e0d      	ldr	r6, [pc, #52]	; (15b8 <Print_Lora_FW_ID_Func+0x40>)
    1582:	210d      	movs	r1, #13
    1584:	0030      	movs	r0, r6
    1586:	4d0d      	ldr	r5, [pc, #52]	; (15bc <Print_Lora_FW_ID_Func+0x44>)
    1588:	47a8      	blx	r5
	Print_Line_Msg();
    158a:	4b0d      	ldr	r3, [pc, #52]	; (15c0 <Print_Lora_FW_ID_Func+0x48>)
    158c:	4798      	blx	r3
	Print_Catch_LoRa_ID_Msg(tmp_LORA);
    158e:	0020      	movs	r0, r4
    1590:	4b0c      	ldr	r3, [pc, #48]	; (15c4 <Print_Lora_FW_ID_Func+0x4c>)
    1592:	4798      	blx	r3
	uTXByte(Debug_COM, ' ');
    1594:	2120      	movs	r1, #32
    1596:	0030      	movs	r0, r6
    1598:	47a8      	blx	r5
	uTXByte(Debug_COM, ' ');
    159a:	2120      	movs	r1, #32
    159c:	0030      	movs	r0, r6
    159e:	47a8      	blx	r5
	uTXByte(Debug_COM, ' ');
    15a0:	2120      	movs	r1, #32
    15a2:	0030      	movs	r0, r6
    15a4:	47a8      	blx	r5
	Load_LoRa_Profile_in_NVM(tmp_LORA);
    15a6:	0020      	movs	r0, r4
    15a8:	4b07      	ldr	r3, [pc, #28]	; (15c8 <Print_Lora_FW_ID_Func+0x50>)
    15aa:	4798      	blx	r3
	Print_Catch_LoRa_Setting_Msg(tmp_LORA);
    15ac:	0020      	movs	r0, r4
    15ae:	4b07      	ldr	r3, [pc, #28]	; (15cc <Print_Lora_FW_ID_Func+0x54>)
    15b0:	4798      	blx	r3
}
    15b2:	bd70      	pop	{r4, r5, r6, pc}
    15b4:	00003125 	.word	0x00003125
    15b8:	200002f0 	.word	0x200002f0
    15bc:	00005535 	.word	0x00005535
    15c0:	00003151 	.word	0x00003151
    15c4:	00004cc9 	.word	0x00004cc9
    15c8:	00002149 	.word	0x00002149
    15cc:	00004da1 	.word	0x00004da1

000015d0 <Judg_KEY_S>:

void Judg_KEY_S(void)
{
    15d0:	b510      	push	{r4, lr}
	if(ascii_to_hex(UserKeyInBuf[0]) == KEYS)
    15d2:	4b60      	ldr	r3, [pc, #384]	; (1754 <Judg_KEY_S+0x184>)
    15d4:	7818      	ldrb	r0, [r3, #0]
    15d6:	4b60      	ldr	r3, [pc, #384]	; (1758 <Judg_KEY_S+0x188>)
    15d8:	4798      	blx	r3
    15da:	281c      	cmp	r0, #28
    15dc:	d000      	beq.n	15e0 <Judg_KEY_S+0x10>
				else if(ascii_to_hex(UserKeyInBuf[2]) == KEY2)	{	Set_Lora_User_ID_Func(LORA02);	CMD_Save_Func(LORA02);}
			}
			break;
		}
	}
    15de:	bd10      	pop	{r4, pc}
		switch(ascii_to_hex(UserKeyInBuf[1]))
    15e0:	4b5c      	ldr	r3, [pc, #368]	; (1754 <Judg_KEY_S+0x184>)
    15e2:	7858      	ldrb	r0, [r3, #1]
    15e4:	4b5c      	ldr	r3, [pc, #368]	; (1758 <Judg_KEY_S+0x188>)
    15e6:	4798      	blx	r3
    15e8:	281c      	cmp	r0, #28
    15ea:	d8f8      	bhi.n	15de <Judg_KEY_S+0xe>
    15ec:	0080      	lsls	r0, r0, #2
    15ee:	4b5b      	ldr	r3, [pc, #364]	; (175c <Judg_KEY_S+0x18c>)
    15f0:	581b      	ldr	r3, [r3, r0]
    15f2:	469f      	mov	pc, r3
			if(UserKeyInBufCount == 3 && UserKeyInBuf[2] == 0x0d)
    15f4:	4b5a      	ldr	r3, [pc, #360]	; (1760 <Judg_KEY_S+0x190>)
    15f6:	781b      	ldrb	r3, [r3, #0]
    15f8:	2b03      	cmp	r3, #3
    15fa:	d1f0      	bne.n	15de <Judg_KEY_S+0xe>
    15fc:	4b55      	ldr	r3, [pc, #340]	; (1754 <Judg_KEY_S+0x184>)
    15fe:	789b      	ldrb	r3, [r3, #2]
    1600:	2b0d      	cmp	r3, #13
    1602:	d1ec      	bne.n	15de <Judg_KEY_S+0xe>
				Print_Lora_FW_ID_Func(LORA01);
    1604:	4b57      	ldr	r3, [pc, #348]	; (1764 <Judg_KEY_S+0x194>)
    1606:	6818      	ldr	r0, [r3, #0]
    1608:	4b57      	ldr	r3, [pc, #348]	; (1768 <Judg_KEY_S+0x198>)
    160a:	4798      	blx	r3
    160c:	e7e7      	b.n	15de <Judg_KEY_S+0xe>
			if(UserKeyInBufCount == 3 && UserKeyInBuf[2] == 0x0d)
    160e:	4b54      	ldr	r3, [pc, #336]	; (1760 <Judg_KEY_S+0x190>)
    1610:	781b      	ldrb	r3, [r3, #0]
    1612:	2b03      	cmp	r3, #3
    1614:	d1e3      	bne.n	15de <Judg_KEY_S+0xe>
    1616:	4b4f      	ldr	r3, [pc, #316]	; (1754 <Judg_KEY_S+0x184>)
    1618:	789b      	ldrb	r3, [r3, #2]
    161a:	2b0d      	cmp	r3, #13
    161c:	d1df      	bne.n	15de <Judg_KEY_S+0xe>
				Print_Lora_FW_ID_Func(LORA02);
    161e:	4b53      	ldr	r3, [pc, #332]	; (176c <Judg_KEY_S+0x19c>)
    1620:	6818      	ldr	r0, [r3, #0]
    1622:	4b51      	ldr	r3, [pc, #324]	; (1768 <Judg_KEY_S+0x198>)
    1624:	4798      	blx	r3
    1626:	e7da      	b.n	15de <Judg_KEY_S+0xe>
			if(UserKeyInBufCount == 7 && UserKeyInBuf[6] == 0x0d)
    1628:	4b4d      	ldr	r3, [pc, #308]	; (1760 <Judg_KEY_S+0x190>)
    162a:	781b      	ldrb	r3, [r3, #0]
    162c:	2b07      	cmp	r3, #7
    162e:	d1d6      	bne.n	15de <Judg_KEY_S+0xe>
    1630:	4b48      	ldr	r3, [pc, #288]	; (1754 <Judg_KEY_S+0x184>)
    1632:	799b      	ldrb	r3, [r3, #6]
    1634:	2b0d      	cmp	r3, #13
    1636:	d1d2      	bne.n	15de <Judg_KEY_S+0xe>
				if(ascii_to_hex(UserKeyInBuf[2]) == KEY1)		{	Set_Lora_SF_Func(LORA01);	CMD_Save_Func(LORA01);}
    1638:	4b46      	ldr	r3, [pc, #280]	; (1754 <Judg_KEY_S+0x184>)
    163a:	7898      	ldrb	r0, [r3, #2]
    163c:	4b46      	ldr	r3, [pc, #280]	; (1758 <Judg_KEY_S+0x188>)
    163e:	4798      	blx	r3
    1640:	2801      	cmp	r0, #1
    1642:	d00d      	beq.n	1660 <Judg_KEY_S+0x90>
				else if(ascii_to_hex(UserKeyInBuf[2]) == KEY2)	{	Set_Lora_SF_Func(LORA02);	CMD_Save_Func(LORA02);}
    1644:	4b43      	ldr	r3, [pc, #268]	; (1754 <Judg_KEY_S+0x184>)
    1646:	7898      	ldrb	r0, [r3, #2]
    1648:	4b43      	ldr	r3, [pc, #268]	; (1758 <Judg_KEY_S+0x188>)
    164a:	4798      	blx	r3
    164c:	2802      	cmp	r0, #2
    164e:	d1c6      	bne.n	15de <Judg_KEY_S+0xe>
    1650:	4c46      	ldr	r4, [pc, #280]	; (176c <Judg_KEY_S+0x19c>)
    1652:	6820      	ldr	r0, [r4, #0]
    1654:	4b46      	ldr	r3, [pc, #280]	; (1770 <Judg_KEY_S+0x1a0>)
    1656:	4798      	blx	r3
    1658:	6820      	ldr	r0, [r4, #0]
    165a:	4b46      	ldr	r3, [pc, #280]	; (1774 <Judg_KEY_S+0x1a4>)
    165c:	4798      	blx	r3
    165e:	e7be      	b.n	15de <Judg_KEY_S+0xe>
				if(ascii_to_hex(UserKeyInBuf[2]) == KEY1)		{	Set_Lora_SF_Func(LORA01);	CMD_Save_Func(LORA01);}
    1660:	4c40      	ldr	r4, [pc, #256]	; (1764 <Judg_KEY_S+0x194>)
    1662:	6820      	ldr	r0, [r4, #0]
    1664:	4b42      	ldr	r3, [pc, #264]	; (1770 <Judg_KEY_S+0x1a0>)
    1666:	4798      	blx	r3
    1668:	6820      	ldr	r0, [r4, #0]
    166a:	4b42      	ldr	r3, [pc, #264]	; (1774 <Judg_KEY_S+0x1a4>)
    166c:	4798      	blx	r3
    166e:	e7b6      	b.n	15de <Judg_KEY_S+0xe>
			if(UserKeyInBufCount == 7 && UserKeyInBuf[6] == 0x0d)
    1670:	4b3b      	ldr	r3, [pc, #236]	; (1760 <Judg_KEY_S+0x190>)
    1672:	781b      	ldrb	r3, [r3, #0]
    1674:	2b07      	cmp	r3, #7
    1676:	d1b2      	bne.n	15de <Judg_KEY_S+0xe>
    1678:	4b36      	ldr	r3, [pc, #216]	; (1754 <Judg_KEY_S+0x184>)
    167a:	799b      	ldrb	r3, [r3, #6]
    167c:	2b0d      	cmp	r3, #13
    167e:	d1ae      	bne.n	15de <Judg_KEY_S+0xe>
				if(ascii_to_hex(UserKeyInBuf[2]) == KEY1)		{	Set_Lora_Power_Func(LORA01);	CMD_Save_Func(LORA01);}
    1680:	4b34      	ldr	r3, [pc, #208]	; (1754 <Judg_KEY_S+0x184>)
    1682:	7898      	ldrb	r0, [r3, #2]
    1684:	4b34      	ldr	r3, [pc, #208]	; (1758 <Judg_KEY_S+0x188>)
    1686:	4798      	blx	r3
    1688:	2801      	cmp	r0, #1
    168a:	d00d      	beq.n	16a8 <Judg_KEY_S+0xd8>
				else if(ascii_to_hex(UserKeyInBuf[2]) == KEY2)	{	Set_Lora_Power_Func(LORA02);	CMD_Save_Func(LORA02);}
    168c:	4b31      	ldr	r3, [pc, #196]	; (1754 <Judg_KEY_S+0x184>)
    168e:	7898      	ldrb	r0, [r3, #2]
    1690:	4b31      	ldr	r3, [pc, #196]	; (1758 <Judg_KEY_S+0x188>)
    1692:	4798      	blx	r3
    1694:	2802      	cmp	r0, #2
    1696:	d1a2      	bne.n	15de <Judg_KEY_S+0xe>
    1698:	4c34      	ldr	r4, [pc, #208]	; (176c <Judg_KEY_S+0x19c>)
    169a:	6820      	ldr	r0, [r4, #0]
    169c:	4b36      	ldr	r3, [pc, #216]	; (1778 <Judg_KEY_S+0x1a8>)
    169e:	4798      	blx	r3
    16a0:	6820      	ldr	r0, [r4, #0]
    16a2:	4b34      	ldr	r3, [pc, #208]	; (1774 <Judg_KEY_S+0x1a4>)
    16a4:	4798      	blx	r3
    16a6:	e79a      	b.n	15de <Judg_KEY_S+0xe>
				if(ascii_to_hex(UserKeyInBuf[2]) == KEY1)		{	Set_Lora_Power_Func(LORA01);	CMD_Save_Func(LORA01);}
    16a8:	4c2e      	ldr	r4, [pc, #184]	; (1764 <Judg_KEY_S+0x194>)
    16aa:	6820      	ldr	r0, [r4, #0]
    16ac:	4b32      	ldr	r3, [pc, #200]	; (1778 <Judg_KEY_S+0x1a8>)
    16ae:	4798      	blx	r3
    16b0:	6820      	ldr	r0, [r4, #0]
    16b2:	4b30      	ldr	r3, [pc, #192]	; (1774 <Judg_KEY_S+0x1a4>)
    16b4:	4798      	blx	r3
    16b6:	e792      	b.n	15de <Judg_KEY_S+0xe>
			if(UserKeyInBufCount == 10 && UserKeyInBuf[9] == 0x0d)
    16b8:	4b29      	ldr	r3, [pc, #164]	; (1760 <Judg_KEY_S+0x190>)
    16ba:	781b      	ldrb	r3, [r3, #0]
    16bc:	2b0a      	cmp	r3, #10
    16be:	d000      	beq.n	16c2 <Judg_KEY_S+0xf2>
    16c0:	e78d      	b.n	15de <Judg_KEY_S+0xe>
    16c2:	4b24      	ldr	r3, [pc, #144]	; (1754 <Judg_KEY_S+0x184>)
    16c4:	7a5b      	ldrb	r3, [r3, #9]
    16c6:	2b0d      	cmp	r3, #13
    16c8:	d000      	beq.n	16cc <Judg_KEY_S+0xfc>
    16ca:	e788      	b.n	15de <Judg_KEY_S+0xe>
				if(ascii_to_hex(UserKeyInBuf[2]) == KEY1)		{	Set_Lora_FQ_Func(LORA01);	CMD_Save_Func(LORA01);}
    16cc:	4b21      	ldr	r3, [pc, #132]	; (1754 <Judg_KEY_S+0x184>)
    16ce:	7898      	ldrb	r0, [r3, #2]
    16d0:	4b21      	ldr	r3, [pc, #132]	; (1758 <Judg_KEY_S+0x188>)
    16d2:	4798      	blx	r3
    16d4:	2801      	cmp	r0, #1
    16d6:	d00e      	beq.n	16f6 <Judg_KEY_S+0x126>
				else if(ascii_to_hex(UserKeyInBuf[2]) == KEY2)	{	Set_Lora_FQ_Func(LORA02);	CMD_Save_Func(LORA02);}
    16d8:	4b1e      	ldr	r3, [pc, #120]	; (1754 <Judg_KEY_S+0x184>)
    16da:	7898      	ldrb	r0, [r3, #2]
    16dc:	4b1e      	ldr	r3, [pc, #120]	; (1758 <Judg_KEY_S+0x188>)
    16de:	4798      	blx	r3
    16e0:	2802      	cmp	r0, #2
    16e2:	d000      	beq.n	16e6 <Judg_KEY_S+0x116>
    16e4:	e77b      	b.n	15de <Judg_KEY_S+0xe>
    16e6:	4c21      	ldr	r4, [pc, #132]	; (176c <Judg_KEY_S+0x19c>)
    16e8:	6820      	ldr	r0, [r4, #0]
    16ea:	4b24      	ldr	r3, [pc, #144]	; (177c <Judg_KEY_S+0x1ac>)
    16ec:	4798      	blx	r3
    16ee:	6820      	ldr	r0, [r4, #0]
    16f0:	4b20      	ldr	r3, [pc, #128]	; (1774 <Judg_KEY_S+0x1a4>)
    16f2:	4798      	blx	r3
    16f4:	e773      	b.n	15de <Judg_KEY_S+0xe>
				if(ascii_to_hex(UserKeyInBuf[2]) == KEY1)		{	Set_Lora_FQ_Func(LORA01);	CMD_Save_Func(LORA01);}
    16f6:	4c1b      	ldr	r4, [pc, #108]	; (1764 <Judg_KEY_S+0x194>)
    16f8:	6820      	ldr	r0, [r4, #0]
    16fa:	4b20      	ldr	r3, [pc, #128]	; (177c <Judg_KEY_S+0x1ac>)
    16fc:	4798      	blx	r3
    16fe:	6820      	ldr	r0, [r4, #0]
    1700:	4b1c      	ldr	r3, [pc, #112]	; (1774 <Judg_KEY_S+0x1a4>)
    1702:	4798      	blx	r3
    1704:	e76b      	b.n	15de <Judg_KEY_S+0xe>
			if(UserKeyInBufCount == 13 && UserKeyInBuf[12] == 0x0d)
    1706:	4b16      	ldr	r3, [pc, #88]	; (1760 <Judg_KEY_S+0x190>)
    1708:	781b      	ldrb	r3, [r3, #0]
    170a:	2b0d      	cmp	r3, #13
    170c:	d000      	beq.n	1710 <Judg_KEY_S+0x140>
    170e:	e766      	b.n	15de <Judg_KEY_S+0xe>
    1710:	4b10      	ldr	r3, [pc, #64]	; (1754 <Judg_KEY_S+0x184>)
    1712:	7b1b      	ldrb	r3, [r3, #12]
    1714:	2b0d      	cmp	r3, #13
    1716:	d000      	beq.n	171a <Judg_KEY_S+0x14a>
    1718:	e761      	b.n	15de <Judg_KEY_S+0xe>
				if(ascii_to_hex(UserKeyInBuf[2]) == KEY1)		{	Set_Lora_User_ID_Func(LORA01);	CMD_Save_Func(LORA01);}
    171a:	4b0e      	ldr	r3, [pc, #56]	; (1754 <Judg_KEY_S+0x184>)
    171c:	7898      	ldrb	r0, [r3, #2]
    171e:	4b0e      	ldr	r3, [pc, #56]	; (1758 <Judg_KEY_S+0x188>)
    1720:	4798      	blx	r3
    1722:	2801      	cmp	r0, #1
    1724:	d00e      	beq.n	1744 <Judg_KEY_S+0x174>
				else if(ascii_to_hex(UserKeyInBuf[2]) == KEY2)	{	Set_Lora_User_ID_Func(LORA02);	CMD_Save_Func(LORA02);}
    1726:	4b0b      	ldr	r3, [pc, #44]	; (1754 <Judg_KEY_S+0x184>)
    1728:	7898      	ldrb	r0, [r3, #2]
    172a:	4b0b      	ldr	r3, [pc, #44]	; (1758 <Judg_KEY_S+0x188>)
    172c:	4798      	blx	r3
    172e:	2802      	cmp	r0, #2
    1730:	d000      	beq.n	1734 <Judg_KEY_S+0x164>
    1732:	e754      	b.n	15de <Judg_KEY_S+0xe>
    1734:	4c0d      	ldr	r4, [pc, #52]	; (176c <Judg_KEY_S+0x19c>)
    1736:	6820      	ldr	r0, [r4, #0]
    1738:	4b11      	ldr	r3, [pc, #68]	; (1780 <Judg_KEY_S+0x1b0>)
    173a:	4798      	blx	r3
    173c:	6820      	ldr	r0, [r4, #0]
    173e:	4b0d      	ldr	r3, [pc, #52]	; (1774 <Judg_KEY_S+0x1a4>)
    1740:	4798      	blx	r3
    1742:	e74c      	b.n	15de <Judg_KEY_S+0xe>
				if(ascii_to_hex(UserKeyInBuf[2]) == KEY1)		{	Set_Lora_User_ID_Func(LORA01);	CMD_Save_Func(LORA01);}
    1744:	4c07      	ldr	r4, [pc, #28]	; (1764 <Judg_KEY_S+0x194>)
    1746:	6820      	ldr	r0, [r4, #0]
    1748:	4b0d      	ldr	r3, [pc, #52]	; (1780 <Judg_KEY_S+0x1b0>)
    174a:	4798      	blx	r3
    174c:	6820      	ldr	r0, [r4, #0]
    174e:	4b09      	ldr	r3, [pc, #36]	; (1774 <Judg_KEY_S+0x1a4>)
    1750:	4798      	blx	r3
    1752:	e744      	b.n	15de <Judg_KEY_S+0xe>
    1754:	20000358 	.word	0x20000358
    1758:	0000564d 	.word	0x0000564d
    175c:	0000878c 	.word	0x0000878c
    1760:	200003a6 	.word	0x200003a6
    1764:	20001944 	.word	0x20001944
    1768:	00001579 	.word	0x00001579
    176c:	20000d18 	.word	0x20000d18
    1770:	0000153d 	.word	0x0000153d
    1774:	00001b79 	.word	0x00001b79
    1778:	00001501 	.word	0x00001501
    177c:	00001451 	.word	0x00001451
    1780:	000013a5 	.word	0x000013a5

00001784 <Judg_KEY_SHOW>:
﻿#include <asf.h>
#include <stdio.h>
#include "myDefine.h"

void Judg_KEY_SHOW(void)
{
    1784:	b510      	push	{r4, lr}
	//UINT16u_t tmp16;
	
	if(	ascii_to_hex(UserKeyInBuf[0]) == KEYS &&
    1786:	4b1a      	ldr	r3, [pc, #104]	; (17f0 <Judg_KEY_SHOW+0x6c>)
    1788:	7818      	ldrb	r0, [r3, #0]
    178a:	4b1a      	ldr	r3, [pc, #104]	; (17f4 <Judg_KEY_SHOW+0x70>)
    178c:	4798      	blx	r3
    178e:	281c      	cmp	r0, #28
    1790:	d000      	beq.n	1794 <Judg_KEY_SHOW+0x10>
				LORA01->Lora_Show_Flag = true;
				LORA02->Lora_Show_Flag = true;
			}
		}
	}
    1792:	bd10      	pop	{r4, pc}
		ascii_to_hex(UserKeyInBuf[1]) == KEYH &&
    1794:	4b16      	ldr	r3, [pc, #88]	; (17f0 <Judg_KEY_SHOW+0x6c>)
    1796:	7858      	ldrb	r0, [r3, #1]
    1798:	4b16      	ldr	r3, [pc, #88]	; (17f4 <Judg_KEY_SHOW+0x70>)
    179a:	4798      	blx	r3
	if(	ascii_to_hex(UserKeyInBuf[0]) == KEYS &&
    179c:	2811      	cmp	r0, #17
    179e:	d1f8      	bne.n	1792 <Judg_KEY_SHOW+0xe>
		ascii_to_hex(UserKeyInBuf[2]) == KEYO &&
    17a0:	4b13      	ldr	r3, [pc, #76]	; (17f0 <Judg_KEY_SHOW+0x6c>)
    17a2:	7898      	ldrb	r0, [r3, #2]
    17a4:	4b13      	ldr	r3, [pc, #76]	; (17f4 <Judg_KEY_SHOW+0x70>)
    17a6:	4798      	blx	r3
		ascii_to_hex(UserKeyInBuf[1]) == KEYH &&
    17a8:	2818      	cmp	r0, #24
    17aa:	d1f2      	bne.n	1792 <Judg_KEY_SHOW+0xe>
		ascii_to_hex(UserKeyInBuf[3]) == KEYW)
    17ac:	4b10      	ldr	r3, [pc, #64]	; (17f0 <Judg_KEY_SHOW+0x6c>)
    17ae:	78d8      	ldrb	r0, [r3, #3]
    17b0:	4b10      	ldr	r3, [pc, #64]	; (17f4 <Judg_KEY_SHOW+0x70>)
    17b2:	4798      	blx	r3
		ascii_to_hex(UserKeyInBuf[2]) == KEYO &&
    17b4:	2820      	cmp	r0, #32
    17b6:	d1ec      	bne.n	1792 <Judg_KEY_SHOW+0xe>
		if(UserKeyInBufCount == 5 && UserKeyInBuf[4] == 0x0d)
    17b8:	4b0f      	ldr	r3, [pc, #60]	; (17f8 <Judg_KEY_SHOW+0x74>)
    17ba:	781b      	ldrb	r3, [r3, #0]
    17bc:	2b05      	cmp	r3, #5
    17be:	d1e8      	bne.n	1792 <Judg_KEY_SHOW+0xe>
    17c0:	4b0b      	ldr	r3, [pc, #44]	; (17f0 <Judg_KEY_SHOW+0x6c>)
    17c2:	791b      	ldrb	r3, [r3, #4]
    17c4:	2b0d      	cmp	r3, #13
    17c6:	d1e4      	bne.n	1792 <Judg_KEY_SHOW+0xe>
			if(LORA01->Lora_Show_Flag == true)
    17c8:	4b0c      	ldr	r3, [pc, #48]	; (17fc <Judg_KEY_SHOW+0x78>)
    17ca:	681b      	ldr	r3, [r3, #0]
    17cc:	4a0c      	ldr	r2, [pc, #48]	; (1800 <Judg_KEY_SHOW+0x7c>)
    17ce:	5c9a      	ldrb	r2, [r3, r2]
    17d0:	2a01      	cmp	r2, #1
    17d2:	d006      	beq.n	17e2 <Judg_KEY_SHOW+0x5e>
				LORA01->Lora_Show_Flag = true;
    17d4:	4a0a      	ldr	r2, [pc, #40]	; (1800 <Judg_KEY_SHOW+0x7c>)
    17d6:	2101      	movs	r1, #1
    17d8:	5499      	strb	r1, [r3, r2]
				LORA02->Lora_Show_Flag = true;
    17da:	4b0a      	ldr	r3, [pc, #40]	; (1804 <Judg_KEY_SHOW+0x80>)
    17dc:	681b      	ldr	r3, [r3, #0]
    17de:	5499      	strb	r1, [r3, r2]
    17e0:	e7d7      	b.n	1792 <Judg_KEY_SHOW+0xe>
				LORA01->Lora_Show_Flag = false;
    17e2:	4a07      	ldr	r2, [pc, #28]	; (1800 <Judg_KEY_SHOW+0x7c>)
    17e4:	2100      	movs	r1, #0
    17e6:	5499      	strb	r1, [r3, r2]
				LORA02->Lora_Show_Flag = false;
    17e8:	4b06      	ldr	r3, [pc, #24]	; (1804 <Judg_KEY_SHOW+0x80>)
    17ea:	681b      	ldr	r3, [r3, #0]
    17ec:	5499      	strb	r1, [r3, r2]
    17ee:	e7d0      	b.n	1792 <Judg_KEY_SHOW+0xe>
    17f0:	20000358 	.word	0x20000358
    17f4:	0000564d 	.word	0x0000564d
    17f8:	200003a6 	.word	0x200003a6
    17fc:	20001944 	.word	0x20001944
    1800:	00000226 	.word	0x00000226
    1804:	20000d18 	.word	0x20000d18

00001808 <Judg_KEY_T>:
﻿#include <asf.h>
#include <stdio.h>
#include "myDefine.h"

void Judg_KEY_T(volatile LORA_Dev_List_t *tmp_LORA_Dev_List_Index)
{
    1808:	b5f0      	push	{r4, r5, r6, r7, lr}
    180a:	46c6      	mov	lr, r8
    180c:	b500      	push	{lr}
    180e:	b082      	sub	sp, #8
    1810:	0004      	movs	r4, r0
	UINT16u_t tmp16;
	unsigned int tmp_sec_value;
	unsigned char tmp_list_table_index;
	
	if(	ascii_to_hex(UserKeyInBuf[0]) == KEYT && UserKeyInBuf[1] == ' ')
    1812:	4b35      	ldr	r3, [pc, #212]	; (18e8 <Judg_KEY_T+0xe0>)
    1814:	7818      	ldrb	r0, [r3, #0]
    1816:	4b35      	ldr	r3, [pc, #212]	; (18ec <Judg_KEY_T+0xe4>)
    1818:	4798      	blx	r3
    181a:	281d      	cmp	r0, #29
    181c:	d003      	beq.n	1826 <Judg_KEY_T+0x1e>
			Print_One_Form_List_Table(tmp_list_table_index, tmp_LORA_Dev_List_Index);
			uTXByte(Debug_COM, 0x0d);
			uTXByte(Debug_COM, 0x0d);
		}
	}
    181e:	b002      	add	sp, #8
    1820:	bc04      	pop	{r2}
    1822:	4690      	mov	r8, r2
    1824:	bdf0      	pop	{r4, r5, r6, r7, pc}
	if(	ascii_to_hex(UserKeyInBuf[0]) == KEYT && UserKeyInBuf[1] == ' ')
    1826:	4b30      	ldr	r3, [pc, #192]	; (18e8 <Judg_KEY_T+0xe0>)
    1828:	785b      	ldrb	r3, [r3, #1]
    182a:	2b20      	cmp	r3, #32
    182c:	d1f7      	bne.n	181e <Judg_KEY_T+0x16>
		if(UserKeyInBufCount == 11 && UserKeyInBuf[10] == 0x0d)
    182e:	4b30      	ldr	r3, [pc, #192]	; (18f0 <Judg_KEY_T+0xe8>)
    1830:	781b      	ldrb	r3, [r3, #0]
    1832:	2b0b      	cmp	r3, #11
    1834:	d1f3      	bne.n	181e <Judg_KEY_T+0x16>
    1836:	4b2c      	ldr	r3, [pc, #176]	; (18e8 <Judg_KEY_T+0xe0>)
    1838:	7a9b      	ldrb	r3, [r3, #10]
    183a:	2b0d      	cmp	r3, #13
    183c:	d1ef      	bne.n	181e <Judg_KEY_T+0x16>
			tmp_sec_value  = ascii_to_hex(UserKeyInBuf[6]) * 1000;
    183e:	4e2a      	ldr	r6, [pc, #168]	; (18e8 <Judg_KEY_T+0xe0>)
    1840:	79b0      	ldrb	r0, [r6, #6]
    1842:	4d2a      	ldr	r5, [pc, #168]	; (18ec <Judg_KEY_T+0xe4>)
    1844:	47a8      	blx	r5
    1846:	27fa      	movs	r7, #250	; 0xfa
    1848:	00bf      	lsls	r7, r7, #2
    184a:	4347      	muls	r7, r0
    184c:	46b8      	mov	r8, r7
			tmp_sec_value += ascii_to_hex(UserKeyInBuf[7]) * 100;
    184e:	79f0      	ldrb	r0, [r6, #7]
    1850:	47a8      	blx	r5
    1852:	2764      	movs	r7, #100	; 0x64
    1854:	4347      	muls	r7, r0
    1856:	4447      	add	r7, r8
			tmp_sec_value += ascii_to_hex(UserKeyInBuf[8]) * 10;
    1858:	7a30      	ldrb	r0, [r6, #8]
    185a:	47a8      	blx	r5
    185c:	4680      	mov	r8, r0
			tmp_sec_value += ascii_to_hex(UserKeyInBuf[9]);
    185e:	7a70      	ldrb	r0, [r6, #9]
    1860:	47a8      	blx	r5
    1862:	19c7      	adds	r7, r0, r7
			tmp_sec_value += ascii_to_hex(UserKeyInBuf[8]) * 10;
    1864:	4643      	mov	r3, r8
    1866:	009d      	lsls	r5, r3, #2
    1868:	4445      	add	r5, r8
    186a:	006d      	lsls	r5, r5, #1
			tmp_sec_value += ascii_to_hex(UserKeyInBuf[9]);
    186c:	19ed      	adds	r5, r5, r7
			tmp_list_table_index =	Cal_list_table_index(UserKeyInBuf[2], UserKeyInBuf[3], UserKeyInBuf[4]);
    186e:	7932      	ldrb	r2, [r6, #4]
    1870:	78f1      	ldrb	r1, [r6, #3]
    1872:	78b0      	ldrb	r0, [r6, #2]
    1874:	4b1f      	ldr	r3, [pc, #124]	; (18f4 <Judg_KEY_T+0xec>)
    1876:	4798      	blx	r3
    1878:	0007      	movs	r7, r0
    187a:	b2c3      	uxtb	r3, r0
    187c:	001e      	movs	r6, r3
			Print_Find_Msg();
    187e:	4b1e      	ldr	r3, [pc, #120]	; (18f8 <Judg_KEY_T+0xf0>)
    1880:	4798      	blx	r3
			Print_One_Form_List_Table(tmp_list_table_index, tmp_LORA_Dev_List_Index);
    1882:	0021      	movs	r1, r4
    1884:	9601      	str	r6, [sp, #4]
    1886:	0030      	movs	r0, r6
    1888:	4e1c      	ldr	r6, [pc, #112]	; (18fc <Judg_KEY_T+0xf4>)
    188a:	47b0      	blx	r6
			Print_Arrow_Right();
    188c:	4b1c      	ldr	r3, [pc, #112]	; (1900 <Judg_KEY_T+0xf8>)
    188e:	4798      	blx	r3
    1890:	23ff      	movs	r3, #255	; 0xff
    1892:	401f      	ands	r7, r3
			tmp_LORA_Dev_List_Index[tmp_list_table_index].Dev_Time.byte[1] = tmp16.byte[1];
    1894:	013b      	lsls	r3, r7, #4
    1896:	18e3      	adds	r3, r4, r3
    1898:	042a      	lsls	r2, r5, #16
    189a:	0e12      	lsrs	r2, r2, #24
    189c:	725a      	strb	r2, [r3, #9]
			tmp_LORA_Dev_List_Index[tmp_list_table_index].Dev_Time.byte[0] = tmp16.byte[0];
    189e:	b2ed      	uxtb	r5, r5
    18a0:	721d      	strb	r5, [r3, #8]
			dev_value[tmp_list_table_index][dev_value_Time_High] = tmp16.byte[1];
    18a2:	00fb      	lsls	r3, r7, #3
    18a4:	19db      	adds	r3, r3, r7
    18a6:	009b      	lsls	r3, r3, #2
    18a8:	19df      	adds	r7, r3, r7
    18aa:	4b16      	ldr	r3, [pc, #88]	; (1904 <Judg_KEY_T+0xfc>)
    18ac:	19db      	adds	r3, r3, r7
    18ae:	77da      	strb	r2, [r3, #31]
			dev_value[tmp_list_table_index][dev_value_Time_Low]  = tmp16.byte[0];
    18b0:	001a      	movs	r2, r3
    18b2:	3220      	adds	r2, #32
    18b4:	7015      	strb	r5, [r2, #0]
			dev_value[tmp_list_table_index][dev_value_Count_High] = 0;
    18b6:	0019      	movs	r1, r3
    18b8:	3121      	adds	r1, #33	; 0x21
    18ba:	2200      	movs	r2, #0
    18bc:	700a      	strb	r2, [r1, #0]
			dev_value[tmp_list_table_index][dev_value_Count_Low]  = 0;
    18be:	3322      	adds	r3, #34	; 0x22
    18c0:	701a      	strb	r2, [r3, #0]
			Save_Dev_Time_into_NVM(tmp_LORA_Dev_List_Index);
    18c2:	0020      	movs	r0, r4
    18c4:	4b10      	ldr	r3, [pc, #64]	; (1908 <Judg_KEY_T+0x100>)
    18c6:	4798      	blx	r3
			Load_Dev_Time_Form_NVM(tmp_LORA_Dev_List_Index);
    18c8:	0020      	movs	r0, r4
    18ca:	4b10      	ldr	r3, [pc, #64]	; (190c <Judg_KEY_T+0x104>)
    18cc:	4798      	blx	r3
			Print_One_Form_List_Table(tmp_list_table_index, tmp_LORA_Dev_List_Index);
    18ce:	0021      	movs	r1, r4
    18d0:	9801      	ldr	r0, [sp, #4]
    18d2:	47b0      	blx	r6
			uTXByte(Debug_COM, 0x0d);
    18d4:	4d0e      	ldr	r5, [pc, #56]	; (1910 <Judg_KEY_T+0x108>)
    18d6:	210d      	movs	r1, #13
    18d8:	0028      	movs	r0, r5
    18da:	4c0e      	ldr	r4, [pc, #56]	; (1914 <Judg_KEY_T+0x10c>)
    18dc:	47a0      	blx	r4
			uTXByte(Debug_COM, 0x0d);
    18de:	210d      	movs	r1, #13
    18e0:	0028      	movs	r0, r5
    18e2:	47a0      	blx	r4
    18e4:	e79b      	b.n	181e <Judg_KEY_T+0x16>
    18e6:	46c0      	nop			; (mov r8, r8)
    18e8:	20000358 	.word	0x20000358
    18ec:	0000564d 	.word	0x0000564d
    18f0:	200003a6 	.word	0x200003a6
    18f4:	00001b51 	.word	0x00001b51
    18f8:	00003181 	.word	0x00003181
    18fc:	000031fd 	.word	0x000031fd
    1900:	000032b1 	.word	0x000032b1
    1904:	200019a4 	.word	0x200019a4
    1908:	000025e5 	.word	0x000025e5
    190c:	0000266d 	.word	0x0000266d
    1910:	200002f0 	.word	0x200002f0
    1914:	00005535 	.word	0x00005535

00001918 <Dev_Value_inital>:
unsigned long tmp_humi;

void Dev_Value_inital(void)
{
	//nop
}
    1918:	4770      	bx	lr
	...

0000191c <LORA01_Reset_Func>:
{
	PortGroup *const port_base = port_get_group_from_gpio_pin(gpio_pin);
	uint32_t pin_mask  = (1UL << (gpio_pin % 32));

	/* Set the pin to high or low atomically based on the requested level */
	if (level) {
    191c:	2800      	cmp	r0, #0
    191e:	d104      	bne.n	192a <LORA01_Reset_Func+0xe>
		port_base->OUTSET.reg = pin_mask;
	} else {
		port_base->OUTCLR.reg = pin_mask;
    1920:	2280      	movs	r2, #128	; 0x80
    1922:	0292      	lsls	r2, r2, #10
    1924:	4b03      	ldr	r3, [pc, #12]	; (1934 <LORA01_Reset_Func+0x18>)
    1926:	615a      	str	r2, [r3, #20]

void LORA01_Reset_Func(bool tmp_bool)
{
	port_pin_set_output_level(PIN_PA17, tmp_bool);
}
    1928:	4770      	bx	lr
		port_base->OUTSET.reg = pin_mask;
    192a:	2280      	movs	r2, #128	; 0x80
    192c:	0292      	lsls	r2, r2, #10
    192e:	4b01      	ldr	r3, [pc, #4]	; (1934 <LORA01_Reset_Func+0x18>)
    1930:	619a      	str	r2, [r3, #24]
    1932:	e7f9      	b.n	1928 <LORA01_Reset_Func+0xc>
    1934:	41004400 	.word	0x41004400

00001938 <LORA02_Reset_Func>:
	if (level) {
    1938:	2800      	cmp	r0, #0
    193a:	d104      	bne.n	1946 <LORA02_Reset_Func+0xe>
		port_base->OUTCLR.reg = pin_mask;
    193c:	2280      	movs	r2, #128	; 0x80
    193e:	0252      	lsls	r2, r2, #9
    1940:	4b03      	ldr	r3, [pc, #12]	; (1950 <LORA02_Reset_Func+0x18>)
    1942:	615a      	str	r2, [r3, #20]

void LORA02_Reset_Func(bool tmp_bool)
{
	port_pin_set_output_level(PIN_PA16, tmp_bool);
}
    1944:	4770      	bx	lr
		port_base->OUTSET.reg = pin_mask;
    1946:	2280      	movs	r2, #128	; 0x80
    1948:	0252      	lsls	r2, r2, #9
    194a:	4b01      	ldr	r3, [pc, #4]	; (1950 <LORA02_Reset_Func+0x18>)
    194c:	619a      	str	r2, [r3, #24]
    194e:	e7f9      	b.n	1944 <LORA02_Reset_Func+0xc>
    1950:	41004400 	.word	0x41004400

00001954 <LORA01_inital>:


void LORA01_inital(void)
{
    1954:	b570      	push	{r4, r5, r6, lr}
	LORA01 = &NewLORA01;
    1956:	4c1c      	ldr	r4, [pc, #112]	; (19c8 <LORA01_inital+0x74>)
    1958:	481c      	ldr	r0, [pc, #112]	; (19cc <LORA01_inital+0x78>)
    195a:	6020      	str	r0, [r4, #0]
	LORA01->DevUART = &MyUart03;
    195c:	4b1c      	ldr	r3, [pc, #112]	; (19d0 <LORA01_inital+0x7c>)
    195e:	6183      	str	r3, [r0, #24]
	LORA01->NVM_offset_Value = 0;
    1960:	2500      	movs	r5, #0
    1962:	238e      	movs	r3, #142	; 0x8e
    1964:	009b      	lsls	r3, r3, #2
    1966:	54c5      	strb	r5, [r0, r3]
	LORA01->List_Now = 0;
    1968:	3bde      	subs	r3, #222	; 0xde
    196a:	3bff      	subs	r3, #255	; 0xff
    196c:	54c5      	strb	r5, [r0, r3]
	LORA01->List_Next = 0;
    196e:	3301      	adds	r3, #1
    1970:	54c5      	strb	r5, [r0, r3]
	change_and_check(&(LORA01->NowStatus), Read_LoRa_ID_Index);
    1972:	4b18      	ldr	r3, [pc, #96]	; (19d4 <LORA01_inital+0x80>)
    1974:	469c      	mov	ip, r3
    1976:	4460      	add	r0, ip
    1978:	2100      	movs	r1, #0
    197a:	4e17      	ldr	r6, [pc, #92]	; (19d8 <LORA01_inital+0x84>)
    197c:	47b0      	blx	r6
	change_and_check(&(LORA01->LoRa_TxRx_Mode_Flag), SetRx);
    197e:	6823      	ldr	r3, [r4, #0]
    1980:	4a16      	ldr	r2, [pc, #88]	; (19dc <LORA01_inital+0x88>)
    1982:	4694      	mov	ip, r2
    1984:	4463      	add	r3, ip
    1986:	0018      	movs	r0, r3
    1988:	2103      	movs	r1, #3
    198a:	47b0      	blx	r6
	change_and_check(&(LORA01->LoRa_Tx_Send_Time_Out_Count), 0);
    198c:	6823      	ldr	r3, [r4, #0]
    198e:	228a      	movs	r2, #138	; 0x8a
    1990:	0092      	lsls	r2, r2, #2
    1992:	4694      	mov	ip, r2
    1994:	4463      	add	r3, ip
    1996:	0018      	movs	r0, r3
    1998:	2100      	movs	r1, #0
    199a:	47b0      	blx	r6
	change_and_check(&(LORA01->LoRa_IRQ_Flag), 0);
    199c:	6823      	ldr	r3, [r4, #0]
    199e:	4a10      	ldr	r2, [pc, #64]	; (19e0 <LORA01_inital+0x8c>)
    19a0:	4694      	mov	ip, r2
    19a2:	4463      	add	r3, ip
    19a4:	0018      	movs	r0, r3
    19a6:	2100      	movs	r1, #0
    19a8:	47b0      	blx	r6
	change_and_check(&(LORA01->LoRa_Send_Tx_Flag), LoraTxNoSend);
    19aa:	6823      	ldr	r3, [r4, #0]
    19ac:	4a0d      	ldr	r2, [pc, #52]	; (19e4 <LORA01_inital+0x90>)
    19ae:	4694      	mov	ip, r2
    19b0:	4463      	add	r3, ip
    19b2:	0018      	movs	r0, r3
    19b4:	2100      	movs	r1, #0
    19b6:	47b0      	blx	r6
	LORA01->f_count = 0;
    19b8:	6823      	ldr	r3, [r4, #0]
    19ba:	228f      	movs	r2, #143	; 0x8f
    19bc:	0092      	lsls	r2, r2, #2
    19be:	509d      	str	r5, [r3, r2]
	LORA01->Lora_Show_Flag = false;
    19c0:	4a09      	ldr	r2, [pc, #36]	; (19e8 <LORA01_inital+0x94>)
    19c2:	549d      	strb	r5, [r3, r2]
}
    19c4:	bd70      	pop	{r4, r5, r6, pc}
    19c6:	46c0      	nop			; (mov r8, r8)
    19c8:	20001944 	.word	0x20001944
    19cc:	200016f4 	.word	0x200016f4
    19d0:	2000195c 	.word	0x2000195c
    19d4:	0000021d 	.word	0x0000021d
    19d8:	000040f9 	.word	0x000040f9
    19dc:	0000022a 	.word	0x0000022a
    19e0:	00000223 	.word	0x00000223
    19e4:	00000225 	.word	0x00000225
    19e8:	00000226 	.word	0x00000226

000019ec <LORA02_inital>:

void LORA02_inital(void)
{
    19ec:	b570      	push	{r4, r5, r6, lr}
	LORA02 = &NewLORA02;
    19ee:	4c15      	ldr	r4, [pc, #84]	; (1a44 <LORA02_inital+0x58>)
    19f0:	4815      	ldr	r0, [pc, #84]	; (1a48 <LORA02_inital+0x5c>)
    19f2:	6020      	str	r0, [r4, #0]
	LORA02->DevUART = &MyUart04;
    19f4:	4b15      	ldr	r3, [pc, #84]	; (1a4c <LORA02_inital+0x60>)
    19f6:	6183      	str	r3, [r0, #24]
	LORA02->NVM_offset_Value = 20;
    19f8:	2214      	movs	r2, #20
    19fa:	238e      	movs	r3, #142	; 0x8e
    19fc:	009b      	lsls	r3, r3, #2
    19fe:	54c2      	strb	r2, [r0, r3]
	change_and_check(&(LORA02->NowStatus), Read_LoRa_ID_Index);
    1a00:	4b13      	ldr	r3, [pc, #76]	; (1a50 <LORA02_inital+0x64>)
    1a02:	469c      	mov	ip, r3
    1a04:	4460      	add	r0, ip
    1a06:	2100      	movs	r1, #0
    1a08:	4d12      	ldr	r5, [pc, #72]	; (1a54 <LORA02_inital+0x68>)
    1a0a:	47a8      	blx	r5
	change_and_check(&(LORA02->LoRa_TxRx_Mode_Flag), SetRx);
    1a0c:	6823      	ldr	r3, [r4, #0]
    1a0e:	4a12      	ldr	r2, [pc, #72]	; (1a58 <LORA02_inital+0x6c>)
    1a10:	4694      	mov	ip, r2
    1a12:	4463      	add	r3, ip
    1a14:	0018      	movs	r0, r3
    1a16:	2103      	movs	r1, #3
    1a18:	47a8      	blx	r5
	change_and_check(&(LORA02->LoRa_Tx_Send_Time_Out_Count), 0);
    1a1a:	6823      	ldr	r3, [r4, #0]
    1a1c:	228a      	movs	r2, #138	; 0x8a
    1a1e:	0092      	lsls	r2, r2, #2
    1a20:	4694      	mov	ip, r2
    1a22:	4463      	add	r3, ip
    1a24:	0018      	movs	r0, r3
    1a26:	2100      	movs	r1, #0
    1a28:	47a8      	blx	r5
	change_and_check(&(LORA02->LoRa_IRQ_Flag), 0);
    1a2a:	6823      	ldr	r3, [r4, #0]
    1a2c:	4a0b      	ldr	r2, [pc, #44]	; (1a5c <LORA02_inital+0x70>)
    1a2e:	4694      	mov	ip, r2
    1a30:	4463      	add	r3, ip
    1a32:	0018      	movs	r0, r3
    1a34:	2100      	movs	r1, #0
    1a36:	47a8      	blx	r5
	LORA02->Lora_Show_Flag = true;
    1a38:	6822      	ldr	r2, [r4, #0]
    1a3a:	2101      	movs	r1, #1
    1a3c:	4b08      	ldr	r3, [pc, #32]	; (1a60 <LORA02_inital+0x74>)
    1a3e:	54d1      	strb	r1, [r2, r3]
}
    1a40:	bd70      	pop	{r4, r5, r6, pc}
    1a42:	46c0      	nop			; (mov r8, r8)
    1a44:	20000d18 	.word	0x20000d18
    1a48:	20000d20 	.word	0x20000d20
    1a4c:	2000284c 	.word	0x2000284c
    1a50:	0000021d 	.word	0x0000021d
    1a54:	000040f9 	.word	0x000040f9
    1a58:	0000022a 	.word	0x0000022a
    1a5c:	00000223 	.word	0x00000223
    1a60:	00000226 	.word	0x00000226

00001a64 <IO_init>:


void IO_init(void)
{
    1a64:	b5f0      	push	{r4, r5, r6, r7, lr}
    1a66:	46c6      	mov	lr, r8
    1a68:	b500      	push	{lr}
    1a6a:	b082      	sub	sp, #8
	config->input_pull = PORT_PIN_PULL_UP;
    1a6c:	ac01      	add	r4, sp, #4
    1a6e:	2701      	movs	r7, #1
    1a70:	7067      	strb	r7, [r4, #1]
	config->powersave  = false;
    1a72:	2300      	movs	r3, #0
    1a74:	4698      	mov	r8, r3
    1a76:	70a3      	strb	r3, [r4, #2]
	struct port_config pin_conf;
	port_get_config_defaults(&pin_conf);
	
	/* Configure LEDs as outputs, turn them off */
	
	pin_conf.direction  = PORT_PIN_DIR_OUTPUT;
    1a78:	7027      	strb	r7, [r4, #0]
	//	RGB LED PIN DEFINE
	port_pin_set_config(PIN_PA23, &pin_conf);
    1a7a:	0021      	movs	r1, r4
    1a7c:	2017      	movs	r0, #23
    1a7e:	4e1b      	ldr	r6, [pc, #108]	; (1aec <IO_init+0x88>)
    1a80:	47b0      	blx	r6
		port_base->OUTSET.reg = pin_mask;
    1a82:	4d1b      	ldr	r5, [pc, #108]	; (1af0 <IO_init+0x8c>)
    1a84:	2380      	movs	r3, #128	; 0x80
    1a86:	041b      	lsls	r3, r3, #16
    1a88:	61ab      	str	r3, [r5, #24]
	port_pin_set_output_level(PIN_PA23, true);
	port_pin_set_config(PIN_PA27, &pin_conf);
    1a8a:	0021      	movs	r1, r4
    1a8c:	201b      	movs	r0, #27
    1a8e:	47b0      	blx	r6
    1a90:	2380      	movs	r3, #128	; 0x80
    1a92:	051b      	lsls	r3, r3, #20
    1a94:	61ab      	str	r3, [r5, #24]
	port_pin_set_output_level(PIN_PA27, true);
	port_pin_set_config(PIN_PA28, &pin_conf);
    1a96:	0021      	movs	r1, r4
    1a98:	201c      	movs	r0, #28
    1a9a:	47b0      	blx	r6
    1a9c:	2380      	movs	r3, #128	; 0x80
    1a9e:	055b      	lsls	r3, r3, #21
    1aa0:	61ab      	str	r3, [r5, #24]
	port_pin_set_output_level(PIN_PA28, true);
	port_pin_set_config(PIN_PA17, &pin_conf);
    1aa2:	0021      	movs	r1, r4
    1aa4:	2011      	movs	r0, #17
    1aa6:	47b0      	blx	r6
		port_base->OUTCLR.reg = pin_mask;
    1aa8:	2380      	movs	r3, #128	; 0x80
    1aaa:	029b      	lsls	r3, r3, #10
    1aac:	616b      	str	r3, [r5, #20]
	port_pin_set_output_level(PIN_PA17, false);

	
	pin_conf.direction  = PORT_PIN_DIR_INPUT;
    1aae:	4643      	mov	r3, r8
    1ab0:	7023      	strb	r3, [r4, #0]
	port_pin_set_config(PIN_PA00, &pin_conf);
    1ab2:	0021      	movs	r1, r4
    1ab4:	2000      	movs	r0, #0
    1ab6:	47b0      	blx	r6
    1ab8:	616f      	str	r7, [r5, #20]
	port_pin_set_output_level(PIN_PA00, false);
	port_pin_set_config(PIN_PA01, &pin_conf);
    1aba:	0021      	movs	r1, r4
    1abc:	2001      	movs	r0, #1
    1abe:	47b0      	blx	r6
    1ac0:	2302      	movs	r3, #2
    1ac2:	616b      	str	r3, [r5, #20]
	port_pin_set_output_level(PIN_PA01, false);
	
	port_pin_set_config(PIN_PA11, &pin_conf);
    1ac4:	0021      	movs	r1, r4
    1ac6:	200b      	movs	r0, #11
    1ac8:	47b0      	blx	r6
    1aca:	2380      	movs	r3, #128	; 0x80
    1acc:	011b      	lsls	r3, r3, #4
    1ace:	616b      	str	r3, [r5, #20]
	port_pin_set_output_level(PIN_PA11, false);
	
	port_pin_set_config(PIN_PA10, &pin_conf);
    1ad0:	0021      	movs	r1, r4
    1ad2:	200a      	movs	r0, #10
    1ad4:	47b0      	blx	r6
    1ad6:	2380      	movs	r3, #128	; 0x80
    1ad8:	00db      	lsls	r3, r3, #3
    1ada:	616b      	str	r3, [r5, #20]
	port_pin_set_output_level(PIN_PA10, false);	// ADC因為是用數位IO所以需要設定為輸入
	
	port_pin_set_config(PIN_PA00, &pin_conf);
    1adc:	0021      	movs	r1, r4
    1ade:	2000      	movs	r0, #0
    1ae0:	47b0      	blx	r6
    1ae2:	616f      	str	r7, [r5, #20]
	port_pin_set_output_level(PIN_PA00, false);
	

}
    1ae4:	b002      	add	sp, #8
    1ae6:	bc04      	pop	{r2}
    1ae8:	4690      	mov	r8, r2
    1aea:	bdf0      	pop	{r4, r5, r6, r7, pc}
    1aec:	000059e1 	.word	0x000059e1
    1af0:	41004400 	.word	0x41004400

00001af4 <Print_FW_ID>:



void Print_FW_ID(void)
{
    1af4:	b570      	push	{r4, r5, r6, lr}
	uTXByte(Debug_COM, 'S');
    1af6:	4c12      	ldr	r4, [pc, #72]	; (1b40 <Print_FW_ID+0x4c>)
    1af8:	2153      	movs	r1, #83	; 0x53
    1afa:	0020      	movs	r0, r4
    1afc:	4d11      	ldr	r5, [pc, #68]	; (1b44 <Print_FW_ID+0x50>)
    1afe:	47a8      	blx	r5
	uTXByte(Debug_COM, 'e');
    1b00:	2165      	movs	r1, #101	; 0x65
    1b02:	0020      	movs	r0, r4
    1b04:	47a8      	blx	r5
	uTXByte(Debug_COM, 'n');
    1b06:	216e      	movs	r1, #110	; 0x6e
    1b08:	0020      	movs	r0, r4
    1b0a:	47a8      	blx	r5
	uTXByte(Debug_COM, 's');
    1b0c:	2173      	movs	r1, #115	; 0x73
    1b0e:	0020      	movs	r0, r4
    1b10:	47a8      	blx	r5
	uTXByte(Debug_COM, 'o');
    1b12:	216f      	movs	r1, #111	; 0x6f
    1b14:	0020      	movs	r0, r4
    1b16:	47a8      	blx	r5
	uTXByte(Debug_COM, 'r');
    1b18:	2172      	movs	r1, #114	; 0x72
    1b1a:	0020      	movs	r0, r4
    1b1c:	47a8      	blx	r5
	uTXByte(Debug_COM, ' ');
    1b1e:	2120      	movs	r1, #32
    1b20:	0020      	movs	r0, r4
    1b22:	47a8      	blx	r5
	uTXByte(Debug_COM, ':');
    1b24:	213a      	movs	r1, #58	; 0x3a
    1b26:	0020      	movs	r0, r4
    1b28:	47a8      	blx	r5
	uTXByte(Debug_COM, ' ');
    1b2a:	2120      	movs	r1, #32
    1b2c:	0020      	movs	r0, r4
    1b2e:	47a8      	blx	r5
	uart_send_word_for_ListNumber(Debug_COM, hex_to_bcd(Version));
    1b30:	206e      	movs	r0, #110	; 0x6e
    1b32:	4b05      	ldr	r3, [pc, #20]	; (1b48 <Print_FW_ID+0x54>)
    1b34:	4798      	blx	r3
    1b36:	0001      	movs	r1, r0
    1b38:	0020      	movs	r0, r4
    1b3a:	4b04      	ldr	r3, [pc, #16]	; (1b4c <Print_FW_ID+0x58>)
    1b3c:	4798      	blx	r3
}
    1b3e:	bd70      	pop	{r4, r5, r6, pc}
    1b40:	200002f0 	.word	0x200002f0
    1b44:	00005535 	.word	0x00005535
    1b48:	000057f5 	.word	0x000057f5
    1b4c:	00005615 	.word	0x00005615

00001b50 <Cal_list_table_index>:
#include "myDefine.h"



unsigned int Cal_list_table_index(unsigned char tmpA, unsigned char tmpB, unsigned char tmpC)
{
    1b50:	b5f8      	push	{r3, r4, r5, r6, r7, lr}
    1b52:	000c      	movs	r4, r1
    1b54:	0015      	movs	r5, r2
	return	ascii_to_hex(tmpA) * 100 + ascii_to_hex(tmpB) * 10 + ascii_to_hex(tmpC);
    1b56:	4e07      	ldr	r6, [pc, #28]	; (1b74 <Cal_list_table_index+0x24>)
    1b58:	47b0      	blx	r6
    1b5a:	0007      	movs	r7, r0
    1b5c:	0020      	movs	r0, r4
    1b5e:	47b0      	blx	r6
    1b60:	2464      	movs	r4, #100	; 0x64
    1b62:	437c      	muls	r4, r7
    1b64:	0083      	lsls	r3, r0, #2
    1b66:	1818      	adds	r0, r3, r0
    1b68:	0040      	lsls	r0, r0, #1
    1b6a:	1824      	adds	r4, r4, r0
    1b6c:	0028      	movs	r0, r5
    1b6e:	47b0      	blx	r6
    1b70:	1900      	adds	r0, r0, r4
}
    1b72:	bdf8      	pop	{r3, r4, r5, r6, r7, pc}
    1b74:	0000564d 	.word	0x0000564d

00001b78 <CMD_Save_Func>:

void CMD_Save_Func(volatile LORA_DEFINE_t *tmp_LORA)
{
    1b78:	b510      	push	{r4, lr}
    1b7a:	0004      	movs	r4, r0
	if(tmp_LORA->Lora_initial_Flag == 1)
    1b7c:	4b08      	ldr	r3, [pc, #32]	; (1ba0 <CMD_Save_Func+0x28>)
    1b7e:	5cc3      	ldrb	r3, [r0, r3]
    1b80:	2b01      	cmp	r3, #1
    1b82:	d000      	beq.n	1b86 <CMD_Save_Func+0xe>
		Print_Lora_number(tmp_LORA);
		Save_LoRa_Profile_in_NVM(tmp_LORA);
		Load_LoRa_Profile_in_NVM(tmp_LORA);
		CMD_Index = CMD_NOP_Index;
	}
}
    1b84:	bd10      	pop	{r4, pc}
		Print_Lora_number(tmp_LORA);
    1b86:	4b07      	ldr	r3, [pc, #28]	; (1ba4 <CMD_Save_Func+0x2c>)
    1b88:	4798      	blx	r3
		Save_LoRa_Profile_in_NVM(tmp_LORA);
    1b8a:	0020      	movs	r0, r4
    1b8c:	4b06      	ldr	r3, [pc, #24]	; (1ba8 <CMD_Save_Func+0x30>)
    1b8e:	4798      	blx	r3
		Load_LoRa_Profile_in_NVM(tmp_LORA);
    1b90:	0020      	movs	r0, r4
    1b92:	4b06      	ldr	r3, [pc, #24]	; (1bac <CMD_Save_Func+0x34>)
    1b94:	4798      	blx	r3
		CMD_Index = CMD_NOP_Index;
    1b96:	2200      	movs	r2, #0
    1b98:	4b05      	ldr	r3, [pc, #20]	; (1bb0 <CMD_Save_Func+0x38>)
    1b9a:	701a      	strb	r2, [r3, #0]
}
    1b9c:	e7f2      	b.n	1b84 <CMD_Save_Func+0xc>
    1b9e:	46c0      	nop			; (mov r8, r8)
    1ba0:	00000221 	.word	0x00000221
    1ba4:	00003125 	.word	0x00003125
    1ba8:	00002439 	.word	0x00002439
    1bac:	00002149 	.word	0x00002149
    1bb0:	20002818 	.word	0x20002818

00001bb4 <CMD_Func>:


void CMD_Func(void)
{
    1bb4:	b5f0      	push	{r4, r5, r6, r7, lr}
    1bb6:	46c6      	mov	lr, r8
    1bb8:	b500      	push	{lr}
	switch(CMD_Index)
    1bba:	4b15      	ldr	r3, [pc, #84]	; (1c10 <CMD_Func+0x5c>)
    1bbc:	781b      	ldrb	r3, [r3, #0]
    1bbe:	2b0c      	cmp	r3, #12
    1bc0:	d122      	bne.n	1c08 <CMD_Func+0x54>
    1bc2:	4c14      	ldr	r4, [pc, #80]	; (1c14 <CMD_Func+0x60>)
    1bc4:	4d14      	ldr	r5, [pc, #80]	; (1c18 <CMD_Func+0x64>)
    1bc6:	3316      	adds	r3, #22
    1bc8:	4698      	mov	r8, r3
    1bca:	44a0      	add	r8, r4
			uTXByte(Debug_COM, 'k');
			uTXByte(Debug_COM, 0x0d);
		*/	
			for(unsigned char i = 0; i < UserKeyInBufMax; i++)
			{
				WriteBuffer[i] = ascii_to_hex(UserKeyInBuf[i]);
    1bcc:	4f13      	ldr	r7, [pc, #76]	; (1c1c <CMD_Func+0x68>)
				UserKeyInBuf[i]	= "";
    1bce:	4e14      	ldr	r6, [pc, #80]	; (1c20 <CMD_Func+0x6c>)
				WriteBuffer[i] = ascii_to_hex(UserKeyInBuf[i]);
    1bd0:	7820      	ldrb	r0, [r4, #0]
    1bd2:	47b8      	blx	r7
    1bd4:	7028      	strb	r0, [r5, #0]
				UserKeyInBuf[i]	= "";
    1bd6:	7026      	strb	r6, [r4, #0]
    1bd8:	3401      	adds	r4, #1
    1bda:	3501      	adds	r5, #1
			for(unsigned char i = 0; i < UserKeyInBufMax; i++)
    1bdc:	4544      	cmp	r4, r8
    1bde:	d1f7      	bne.n	1bd0 <CMD_Func+0x1c>
    1be0:	4a10      	ldr	r2, [pc, #64]	; (1c24 <CMD_Func+0x70>)
    1be2:	4911      	ldr	r1, [pc, #68]	; (1c28 <CMD_Func+0x74>)
    1be4:	0014      	movs	r4, r2
    1be6:	3422      	adds	r4, #34	; 0x22
			}
			//	uTXByte(Debug_COM, 0x0d);
			
			for(unsigned char i = 0; i < (UserKeyInBufMax / 2); i++)
			{
				WriteBufferHex[i] = WriteBuffer[(i*2)+1]<<4 | WriteBuffer[(i*2)+2];
    1be8:	7813      	ldrb	r3, [r2, #0]
    1bea:	011b      	lsls	r3, r3, #4
    1bec:	7850      	ldrb	r0, [r2, #1]
    1bee:	4303      	orrs	r3, r0
    1bf0:	700b      	strb	r3, [r1, #0]
    1bf2:	3202      	adds	r2, #2
    1bf4:	3101      	adds	r1, #1
			for(unsigned char i = 0; i < (UserKeyInBufMax / 2); i++)
    1bf6:	42a2      	cmp	r2, r4
    1bf8:	d1f6      	bne.n	1be8 <CMD_Func+0x34>
			//	uart_send_ascii_byte(Debug_COM, WriteBufferHex[i]);
			//	uTXByte(Debug_COM, ' ');
			}
			WriteBufferHex[16] = 0x33;
    1bfa:	4b0b      	ldr	r3, [pc, #44]	; (1c28 <CMD_Func+0x74>)
    1bfc:	2233      	movs	r2, #51	; 0x33
    1bfe:	741a      	strb	r2, [r3, #16]
			WriteBufferHex[17] = 0x33;
    1c00:	745a      	strb	r2, [r3, #17]
			//	uTXByte(Debug_COM, 0x0d);
			
			CMD_Index = CMD_NOP_Index;
    1c02:	2200      	movs	r2, #0
    1c04:	4b02      	ldr	r3, [pc, #8]	; (1c10 <CMD_Func+0x5c>)
    1c06:	701a      	strb	r2, [r3, #0]
		case CMD_NOP_Index:
			break;
	}
	

    1c08:	bc04      	pop	{r2}
    1c0a:	4690      	mov	r8, r2
    1c0c:	bdf0      	pop	{r4, r5, r6, r7, pc}
    1c0e:	46c0      	nop			; (mov r8, r8)
    1c10:	20002818 	.word	0x20002818
    1c14:	20000358 	.word	0x20000358
    1c18:	20000380 	.word	0x20000380
    1c1c:	0000564d 	.word	0x0000564d
    1c20:	00008800 	.word	0x00008800
    1c24:	20000381 	.word	0x20000381
    1c28:	2000281c 	.word	0x2000281c

00001c2c <Define_Profile_COPY_TO_RAM>:
	{0xC1, 0x06, 0x00, 0xFF, 0xFF, 0xFF, 0xFF, 0xFF, 0xFF, 0xFF, 0xFF, 0xFF, 0xFF, 0xFF, 0xFF, 0xFF, 0xFF, 0xFF, 0xFF, 0xFF, 0xFF, 0xFF, 0xFF, 0xFF, 0xFF, 0xFF, 0xFF},
	{0xC1, 0x07, 0x00, 0xFF, 0xFF, 0xFF, 0xFF, 0xFF, 0xFF, 0xFF, 0xFF, 0xFF, 0xFF, 0xFF, 0xFF, 0xFF, 0xFF, 0xFF, 0xFF, 0xFF, 0xFF, 0xFF, 0xFF, 0xFF, 0xFF, 0xFF, 0xFF}
};

void Define_Profile_COPY_TO_RAM(void)
{
    1c2c:	b5f8      	push	{r3, r4, r5, r6, r7, lr}
    1c2e:	46de      	mov	lr, fp
    1c30:	4657      	mov	r7, sl
    1c32:	464e      	mov	r6, r9
    1c34:	4645      	mov	r5, r8
    1c36:	b5e0      	push	{r5, r6, r7, lr}
    1c38:	245d      	movs	r4, #93	; 0x5d
    1c3a:	4b1e      	ldr	r3, [pc, #120]	; (1cb4 <Define_Profile_COPY_TO_RAM+0x88>)
    1c3c:	4698      	mov	r8, r3

	unsigned int i, j;
	
	for(i = 0; i < 15; i++)
	{
		change_and_check(&(LORA01->MyLoRaTmpCount[i]), Define_MyLoRaTmpCount[i]);
    1c3e:	4f1e      	ldr	r7, [pc, #120]	; (1cb8 <Define_Profile_COPY_TO_RAM+0x8c>)
    1c40:	4e1e      	ldr	r6, [pc, #120]	; (1cbc <Define_Profile_COPY_TO_RAM+0x90>)
    1c42:	0025      	movs	r5, r4
    1c44:	3d5d      	subs	r5, #93	; 0x5d
    1c46:	4445      	add	r5, r8
    1c48:	7829      	ldrb	r1, [r5, #0]
    1c4a:	683b      	ldr	r3, [r7, #0]
    1c4c:	1918      	adds	r0, r3, r4
    1c4e:	47b0      	blx	r6
		change_and_check(&(LORA02->MyLoRaTmpCount[i]), Define_MyLoRaTmpCount[i]);
    1c50:	7829      	ldrb	r1, [r5, #0]
    1c52:	4b1b      	ldr	r3, [pc, #108]	; (1cc0 <Define_Profile_COPY_TO_RAM+0x94>)
    1c54:	6818      	ldr	r0, [r3, #0]
    1c56:	1900      	adds	r0, r0, r4
    1c58:	47b0      	blx	r6
    1c5a:	3401      	adds	r4, #1
	for(i = 0; i < 15; i++)
    1c5c:	2c6c      	cmp	r4, #108	; 0x6c
    1c5e:	d1f0      	bne.n	1c42 <Define_Profile_COPY_TO_RAM+0x16>
    1c60:	2300      	movs	r3, #0
    1c62:	4699      	mov	r9, r3
    1c64:	4b17      	ldr	r3, [pc, #92]	; (1cc4 <Define_Profile_COPY_TO_RAM+0x98>)
    1c66:	469a      	mov	sl, r3
    1c68:	226d      	movs	r2, #109	; 0x6d
    1c6a:	1ad3      	subs	r3, r2, r3
    1c6c:	4698      	mov	r8, r3
    1c6e:	4654      	mov	r4, sl
    1c70:	444c      	add	r4, r9
    1c72:	464e      	mov	r6, r9
    1c74:	361c      	adds	r6, #28
    1c76:	4456      	add	r6, sl
    1c78:	46b3      	mov	fp, r6
	}
	for(i = 0; i < 15; i++)
	{
		for(j = 0; j < 28; j++)
		{
			change_and_check(&(LORA01->MyLoRaTmp[i][j]), Define_MyLoRaTmp[i][j]);
    1c7a:	4f0f      	ldr	r7, [pc, #60]	; (1cb8 <Define_Profile_COPY_TO_RAM+0x8c>)
    1c7c:	4643      	mov	r3, r8
    1c7e:	191e      	adds	r6, r3, r4
    1c80:	7821      	ldrb	r1, [r4, #0]
    1c82:	683b      	ldr	r3, [r7, #0]
    1c84:	1998      	adds	r0, r3, r6
    1c86:	4d0d      	ldr	r5, [pc, #52]	; (1cbc <Define_Profile_COPY_TO_RAM+0x90>)
    1c88:	47a8      	blx	r5
			change_and_check(&(LORA02->MyLoRaTmp[i][j]), Define_MyLoRaTmp[i][j]);
    1c8a:	7821      	ldrb	r1, [r4, #0]
    1c8c:	4b0c      	ldr	r3, [pc, #48]	; (1cc0 <Define_Profile_COPY_TO_RAM+0x94>)
    1c8e:	6818      	ldr	r0, [r3, #0]
    1c90:	1980      	adds	r0, r0, r6
    1c92:	47a8      	blx	r5
    1c94:	3401      	adds	r4, #1
		for(j = 0; j < 28; j++)
    1c96:	455c      	cmp	r4, fp
    1c98:	d1f0      	bne.n	1c7c <Define_Profile_COPY_TO_RAM+0x50>
    1c9a:	231b      	movs	r3, #27
    1c9c:	469c      	mov	ip, r3
    1c9e:	44e1      	add	r9, ip
	for(i = 0; i < 15; i++)
    1ca0:	2396      	movs	r3, #150	; 0x96
    1ca2:	33ff      	adds	r3, #255	; 0xff
    1ca4:	4599      	cmp	r9, r3
    1ca6:	d1e2      	bne.n	1c6e <Define_Profile_COPY_TO_RAM+0x42>
		}
	}
}
    1ca8:	bc3c      	pop	{r2, r3, r4, r5}
    1caa:	4690      	mov	r8, r2
    1cac:	4699      	mov	r9, r3
    1cae:	46a2      	mov	sl, r4
    1cb0:	46ab      	mov	fp, r5
    1cb2:	bdf8      	pop	{r3, r4, r5, r6, r7, pc}
    1cb4:	200001b0 	.word	0x200001b0
    1cb8:	20001944 	.word	0x20001944
    1cbc:	000040f9 	.word	0x000040f9
    1cc0:	20000d18 	.word	0x20000d18
    1cc4:	20000000 	.word	0x20000000

00001cc8 <Find_Now_And_Next_Wait_Upload_Func>:


void Find_Now_And_Next_Wait_Upload_Func(volatile LORA_DEFINE_t *tmp_LORA)
{
    1cc8:	b5f8      	push	{r3, r4, r5, r6, r7, lr}
    1cca:	0006      	movs	r6, r0
	unsigned char i;
	unsigned char tmp_count = 0;
	unsigned char tmp_List_Index;
	
	tmp_LORA->List_Now = tmp_LORA->List_Next;
    1ccc:	235c      	movs	r3, #92	; 0x5c
    1cce:	5cc3      	ldrb	r3, [r0, r3]
    1cd0:	b2db      	uxtb	r3, r3
    1cd2:	225b      	movs	r2, #91	; 0x5b
    1cd4:	5483      	strb	r3, [r0, r2]
	//for(i = 0; i < Dev_Item_MAX; i++)
	for(i = tmp_LORA->List_Now; i < Dev_Item_MAX; i++)
    1cd6:	5c83      	ldrb	r3, [r0, r2]
    1cd8:	b2db      	uxtb	r3, r3
    1cda:	2b63      	cmp	r3, #99	; 0x63
    1cdc:	d876      	bhi.n	1dcc <Find_Now_And_Next_Wait_Upload_Func+0x104>
	{
		if(dev_value[i][dev_value_New_Data_Input] == Dev_Have_New_Data)
    1cde:	001d      	movs	r5, r3
    1ce0:	00da      	lsls	r2, r3, #3
    1ce2:	18d2      	adds	r2, r2, r3
    1ce4:	0092      	lsls	r2, r2, #2
    1ce6:	18d2      	adds	r2, r2, r3
    1ce8:	4950      	ldr	r1, [pc, #320]	; (1e2c <Find_Now_And_Next_Wait_Upload_Func+0x164>)
    1cea:	188a      	adds	r2, r1, r2
    1cec:	3223      	adds	r2, #35	; 0x23
    1cee:	7812      	ldrb	r2, [r2, #0]
    1cf0:	2a01      	cmp	r2, #1
    1cf2:	d013      	beq.n	1d1c <Find_Now_And_Next_Wait_Upload_Func+0x54>
    1cf4:	1c5c      	adds	r4, r3, #1
    1cf6:	b2e4      	uxtb	r4, r4
    1cf8:	00e2      	lsls	r2, r4, #3
    1cfa:	1912      	adds	r2, r2, r4
    1cfc:	0092      	lsls	r2, r2, #2
    1cfe:	1912      	adds	r2, r2, r4
    1d00:	3223      	adds	r2, #35	; 0x23
    1d02:	494a      	ldr	r1, [pc, #296]	; (1e2c <Find_Now_And_Next_Wait_Upload_Func+0x164>)
    1d04:	1852      	adds	r2, r2, r1
    1d06:	2100      	movs	r1, #0
	for(i = tmp_LORA->List_Now; i < Dev_Item_MAX; i++)
    1d08:	3301      	adds	r3, #1
    1d0a:	b2db      	uxtb	r3, r3
    1d0c:	2b64      	cmp	r3, #100	; 0x64
    1d0e:	d05d      	beq.n	1dcc <Find_Now_And_Next_Wait_Upload_Func+0x104>
    1d10:	190d      	adds	r5, r1, r4
		if(dev_value[i][dev_value_New_Data_Input] == Dev_Have_New_Data)
    1d12:	7810      	ldrb	r0, [r2, #0]
    1d14:	3101      	adds	r1, #1
    1d16:	3225      	adds	r2, #37	; 0x25
    1d18:	2801      	cmp	r0, #1
    1d1a:	d1f5      	bne.n	1d08 <Find_Now_And_Next_Wait_Upload_Func+0x40>
		{
			// MAC ID
			tmp_LORA->MyLoRaTmp[Write_LoRa_TxBuffer_Index][3] = dev_value[i][3];	
    1d1c:	00ea      	lsls	r2, r5, #3
    1d1e:	1952      	adds	r2, r2, r5
    1d20:	0092      	lsls	r2, r2, #2
    1d22:	1955      	adds	r5, r2, r5
    1d24:	4a41      	ldr	r2, [pc, #260]	; (1e2c <Find_Now_And_Next_Wait_Upload_Func+0x164>)
    1d26:	1952      	adds	r2, r2, r5
    1d28:	78d0      	ldrb	r0, [r2, #3]
    1d2a:	21f7      	movs	r1, #247	; 0xf7
    1d2c:	5470      	strb	r0, [r6, r1]
			tmp_LORA->MyLoRaTmp[Write_LoRa_TxBuffer_Index][4] = dev_value[i][4];
    1d2e:	7910      	ldrb	r0, [r2, #4]
    1d30:	3101      	adds	r1, #1
    1d32:	5470      	strb	r0, [r6, r1]
			tmp_LORA->MyLoRaTmp[Write_LoRa_TxBuffer_Index][5] = dev_value[i][5];
    1d34:	7950      	ldrb	r0, [r2, #5]
    1d36:	3101      	adds	r1, #1
    1d38:	5470      	strb	r0, [r6, r1]
			tmp_LORA->MyLoRaTmp[Write_LoRa_TxBuffer_Index][6] = dev_value[i][6];
    1d3a:	7990      	ldrb	r0, [r2, #6]
    1d3c:	3101      	adds	r1, #1
    1d3e:	5470      	strb	r0, [r6, r1]
			// dev index
			tmp_LORA->MyLoRaTmp[Write_LoRa_TxBuffer_Index][7] = dev_value[i][7];
    1d40:	79d0      	ldrb	r0, [r2, #7]
    1d42:	3101      	adds	r1, #1
    1d44:	5470      	strb	r0, [r6, r1]
			// R1
			tmp_LORA->MyLoRaTmp[Write_LoRa_TxBuffer_Index][8] = dev_value[i][8];
    1d46:	7a10      	ldrb	r0, [r2, #8]
    1d48:	3101      	adds	r1, #1
    1d4a:	5470      	strb	r0, [r6, r1]
			tmp_LORA->MyLoRaTmp[Write_LoRa_TxBuffer_Index][9] = dev_value[i][9];
    1d4c:	7a50      	ldrb	r0, [r2, #9]
    1d4e:	3101      	adds	r1, #1
    1d50:	5470      	strb	r0, [r6, r1]
			// R2
			tmp_LORA->MyLoRaTmp[Write_LoRa_TxBuffer_Index][10] = dev_value[i][10];
    1d52:	7a90      	ldrb	r0, [r2, #10]
    1d54:	3101      	adds	r1, #1
    1d56:	5470      	strb	r0, [r6, r1]
			tmp_LORA->MyLoRaTmp[Write_LoRa_TxBuffer_Index][11] = dev_value[i][11];
    1d58:	7ad0      	ldrb	r0, [r2, #11]
    1d5a:	3101      	adds	r1, #1
    1d5c:	5470      	strb	r0, [r6, r1]
			// R3
			tmp_LORA->MyLoRaTmp[Write_LoRa_TxBuffer_Index][12] = dev_value[i][12];
    1d5e:	7b10      	ldrb	r0, [r2, #12]
    1d60:	3101      	adds	r1, #1
    1d62:	5470      	strb	r0, [r6, r1]
			tmp_LORA->MyLoRaTmp[Write_LoRa_TxBuffer_Index][13] = dev_value[i][13];
    1d64:	7b50      	ldrb	r0, [r2, #13]
    1d66:	2102      	movs	r1, #2
    1d68:	31ff      	adds	r1, #255	; 0xff
    1d6a:	5470      	strb	r0, [r6, r1]
			// R4
			tmp_LORA->MyLoRaTmp[Write_LoRa_TxBuffer_Index][14] = dev_value[i][14];
    1d6c:	7b90      	ldrb	r0, [r2, #14]
    1d6e:	3101      	adds	r1, #1
    1d70:	5470      	strb	r0, [r6, r1]
			tmp_LORA->MyLoRaTmp[Write_LoRa_TxBuffer_Index][15] = dev_value[i][15];
    1d72:	7bd0      	ldrb	r0, [r2, #15]
    1d74:	2104      	movs	r1, #4
    1d76:	31ff      	adds	r1, #255	; 0xff
    1d78:	5470      	strb	r0, [r6, r1]
			// R5
			tmp_LORA->MyLoRaTmp[Write_LoRa_TxBuffer_Index][16] = dev_value[i][16];
    1d7a:	7c10      	ldrb	r0, [r2, #16]
    1d7c:	3101      	adds	r1, #1
    1d7e:	5470      	strb	r0, [r6, r1]
			tmp_LORA->MyLoRaTmp[Write_LoRa_TxBuffer_Index][17] = dev_value[i][17];
    1d80:	7c50      	ldrb	r0, [r2, #17]
    1d82:	2106      	movs	r1, #6
    1d84:	31ff      	adds	r1, #255	; 0xff
    1d86:	5470      	strb	r0, [r6, r1]
			// R6
			tmp_LORA->MyLoRaTmp[Write_LoRa_TxBuffer_Index][18] = dev_value[i][18];
    1d88:	7c90      	ldrb	r0, [r2, #18]
    1d8a:	3101      	adds	r1, #1
    1d8c:	5470      	strb	r0, [r6, r1]
			tmp_LORA->MyLoRaTmp[Write_LoRa_TxBuffer_Index][19] = dev_value[i][19];
    1d8e:	7cd0      	ldrb	r0, [r2, #19]
    1d90:	2108      	movs	r1, #8
    1d92:	31ff      	adds	r1, #255	; 0xff
    1d94:	5470      	strb	r0, [r6, r1]
			// R7
			tmp_LORA->MyLoRaTmp[Write_LoRa_TxBuffer_Index][20] = dev_value[i][20];
    1d96:	7d10      	ldrb	r0, [r2, #20]
    1d98:	3101      	adds	r1, #1
    1d9a:	5470      	strb	r0, [r6, r1]
			tmp_LORA->MyLoRaTmp[Write_LoRa_TxBuffer_Index][21] = dev_value[i][21];
    1d9c:	7d50      	ldrb	r0, [r2, #21]
    1d9e:	210a      	movs	r1, #10
    1da0:	31ff      	adds	r1, #255	; 0xff
    1da2:	5470      	strb	r0, [r6, r1]
			// R8
			tmp_LORA->MyLoRaTmp[Write_LoRa_TxBuffer_Index][22] = dev_value[i][22];
    1da4:	7d90      	ldrb	r0, [r2, #22]
    1da6:	3101      	adds	r1, #1
    1da8:	5470      	strb	r0, [r6, r1]
			tmp_LORA->MyLoRaTmp[Write_LoRa_TxBuffer_Index][23] = dev_value[i][23];
    1daa:	7dd0      	ldrb	r0, [r2, #23]
    1dac:	210c      	movs	r1, #12
    1dae:	31ff      	adds	r1, #255	; 0xff
    1db0:	5470      	strb	r0, [r6, r1]
			
			//Version
			tmp_LORA->MyLoRaTmp[Write_LoRa_TxBuffer_Index][24] = dev_value[i][24];
    1db2:	7e10      	ldrb	r0, [r2, #24]
    1db4:	3101      	adds	r1, #1
    1db6:	5470      	strb	r0, [r6, r1]
			
			//Dev RSSI
			tmp_LORA->MyLoRaTmp[Write_LoRa_TxBuffer_Index][25] = dev_value[i][27];
    1db8:	7ed0      	ldrb	r0, [r2, #27]
    1dba:	210e      	movs	r1, #14
    1dbc:	31ff      	adds	r1, #255	; 0xff
    1dbe:	5470      	strb	r0, [r6, r1]
			tmp_LORA->MyLoRaTmp[Write_LoRa_TxBuffer_Index][26] = dev_value[i][28];
    1dc0:	7f11      	ldrb	r1, [r2, #28]
    1dc2:	2287      	movs	r2, #135	; 0x87
    1dc4:	0052      	lsls	r2, r2, #1
    1dc6:	54b1      	strb	r1, [r6, r2]
			tmp_LORA->List_Now = i;
    1dc8:	3ab3      	subs	r2, #179	; 0xb3
    1dca:	54b3      	strb	r3, [r6, r2]
			break;
		}
	}
	
	
	tmp_List_Index = tmp_LORA->List_Now + 1;
    1dcc:	235b      	movs	r3, #91	; 0x5b
    1dce:	5cf0      	ldrb	r0, [r6, r3]
    1dd0:	3001      	adds	r0, #1
    1dd2:	b2c0      	uxtb	r0, r0
	if(tmp_List_Index == 0xFF)
    1dd4:	28ff      	cmp	r0, #255	; 0xff
    1dd6:	d023      	beq.n	1e20 <Find_Now_And_Next_Wait_Upload_Func+0x158>
		tmp_List_Index = 0;
	}

	for(i = tmp_List_Index ; tmp_count < Dev_Item_MAX; i = (i + 1) % Dev_Item_MAX)
	{
		if(dev_value[i][dev_value_New_Data_Input] == Dev_Have_New_Data)
    1dd8:	00c3      	lsls	r3, r0, #3
    1dda:	181b      	adds	r3, r3, r0
    1ddc:	009b      	lsls	r3, r3, #2
    1dde:	181b      	adds	r3, r3, r0
    1de0:	4a12      	ldr	r2, [pc, #72]	; (1e2c <Find_Now_And_Next_Wait_Upload_Func+0x164>)
    1de2:	18d3      	adds	r3, r2, r3
    1de4:	3323      	adds	r3, #35	; 0x23
    1de6:	781b      	ldrb	r3, [r3, #0]
    1de8:	2b01      	cmp	r3, #1
    1dea:	d01b      	beq.n	1e24 <Find_Now_And_Next_Wait_Upload_Func+0x15c>
	for(i = tmp_List_Index ; tmp_count < Dev_Item_MAX; i = (i + 1) % Dev_Item_MAX)
    1dec:	3001      	adds	r0, #1
    1dee:	2164      	movs	r1, #100	; 0x64
    1df0:	4b0f      	ldr	r3, [pc, #60]	; (1e30 <Find_Now_And_Next_Wait_Upload_Func+0x168>)
    1df2:	4798      	blx	r3
    1df4:	b2c8      	uxtb	r0, r1
    1df6:	2463      	movs	r4, #99	; 0x63
		if(dev_value[i][dev_value_New_Data_Input] == Dev_Have_New_Data)
    1df8:	4d0c      	ldr	r5, [pc, #48]	; (1e2c <Find_Now_And_Next_Wait_Upload_Func+0x164>)
	for(i = tmp_List_Index ; tmp_count < Dev_Item_MAX; i = (i + 1) % Dev_Item_MAX)
    1dfa:	4f0d      	ldr	r7, [pc, #52]	; (1e30 <Find_Now_And_Next_Wait_Upload_Func+0x168>)
		if(dev_value[i][dev_value_New_Data_Input] == Dev_Have_New_Data)
    1dfc:	00c3      	lsls	r3, r0, #3
    1dfe:	181b      	adds	r3, r3, r0
    1e00:	009b      	lsls	r3, r3, #2
    1e02:	181b      	adds	r3, r3, r0
    1e04:	18eb      	adds	r3, r5, r3
    1e06:	3323      	adds	r3, #35	; 0x23
    1e08:	781b      	ldrb	r3, [r3, #0]
    1e0a:	2b01      	cmp	r3, #1
    1e0c:	d00a      	beq.n	1e24 <Find_Now_And_Next_Wait_Upload_Func+0x15c>
	for(i = tmp_List_Index ; tmp_count < Dev_Item_MAX; i = (i + 1) % Dev_Item_MAX)
    1e0e:	3001      	adds	r0, #1
    1e10:	2164      	movs	r1, #100	; 0x64
    1e12:	47b8      	blx	r7
    1e14:	b2c8      	uxtb	r0, r1
    1e16:	3c01      	subs	r4, #1
    1e18:	b2e4      	uxtb	r4, r4
    1e1a:	2c00      	cmp	r4, #0
    1e1c:	d1ee      	bne.n	1dfc <Find_Now_And_Next_Wait_Upload_Func+0x134>
    1e1e:	e003      	b.n	1e28 <Find_Now_And_Next_Wait_Upload_Func+0x160>
		tmp_List_Index = 0;
    1e20:	2000      	movs	r0, #0
    1e22:	e7d9      	b.n	1dd8 <Find_Now_And_Next_Wait_Upload_Func+0x110>
		{
			tmp_LORA->List_Next = i;
    1e24:	235c      	movs	r3, #92	; 0x5c
    1e26:	54f0      	strb	r0, [r6, r3]
			break;
		}
		tmp_count++;
	}

}
    1e28:	bdf8      	pop	{r3, r4, r5, r6, r7, pc}
    1e2a:	46c0      	nop			; (mov r8, r8)
    1e2c:	200019a4 	.word	0x200019a4
    1e30:	000074d9 	.word	0x000074d9

00001e34 <Find_Now_And_Next_Enable_Func>:


//void Find_Now_And_Next_Enable_Func(volatile LORA_DEFINE_t *tmp_LORA)
void Find_Now_And_Next_Enable_Func(volatile LORA_DEFINE_t *tmp_LORA, volatile LORA_Dev_List_t *tmp_LORA_Dev_List_Index)
{
    1e34:	b530      	push	{r4, r5, lr}
		//}
		////把數據寫入封包後段，當作廣播使用
		//tmp_count++;
	//}
	//
	tmp_LORA->List_Now = tmp_LORA->List_Next;
    1e36:	235c      	movs	r3, #92	; 0x5c
    1e38:	5cc3      	ldrb	r3, [r0, r3]
    1e3a:	b2db      	uxtb	r3, r3
    1e3c:	225b      	movs	r2, #91	; 0x5b
    1e3e:	5483      	strb	r3, [r0, r2]
	for(i = tmp_LORA->List_Now; i < Dev_Item_MAX; i++)
    1e40:	5c85      	ldrb	r5, [r0, r2]
    1e42:	b2ed      	uxtb	r5, r5
    1e44:	2d63      	cmp	r5, #99	; 0x63
    1e46:	d825      	bhi.n	1e94 <Find_Now_And_Next_Enable_Func+0x60>
// Master只詢問有Enable
#ifdef Dev_Master_RS232
		if(tmp_LORA_Dev_List_Index[i].Dev_En_Flag == Dev_EN)
#endif
		{
			tmp_LORA->MyLoRaTmp[Write_LoRa_TxBuffer_Index][3] = tmp_LORA_Dev_List_Index[i].MAC_ID.byte[0];
    1e48:	012b      	lsls	r3, r5, #4
    1e4a:	18c9      	adds	r1, r1, r3
    1e4c:	790b      	ldrb	r3, [r1, #4]
    1e4e:	b2db      	uxtb	r3, r3
    1e50:	329c      	adds	r2, #156	; 0x9c
    1e52:	5483      	strb	r3, [r0, r2]
			tmp_LORA->MyLoRaTmp[Write_LoRa_TxBuffer_Index][4] = tmp_LORA_Dev_List_Index[i].MAC_ID.byte[1];
    1e54:	794b      	ldrb	r3, [r1, #5]
    1e56:	b2db      	uxtb	r3, r3
    1e58:	3201      	adds	r2, #1
    1e5a:	5483      	strb	r3, [r0, r2]
			tmp_LORA->MyLoRaTmp[Write_LoRa_TxBuffer_Index][5] = tmp_LORA_Dev_List_Index[i].MAC_ID.byte[2];
    1e5c:	798b      	ldrb	r3, [r1, #6]
    1e5e:	b2db      	uxtb	r3, r3
    1e60:	3201      	adds	r2, #1
    1e62:	5483      	strb	r3, [r0, r2]
			tmp_LORA->MyLoRaTmp[Write_LoRa_TxBuffer_Index][6] = tmp_LORA_Dev_List_Index[i].MAC_ID.byte[3];
    1e64:	79cb      	ldrb	r3, [r1, #7]
    1e66:	b2db      	uxtb	r3, r3
    1e68:	3201      	adds	r2, #1
    1e6a:	5483      	strb	r3, [r0, r2]
			tmp_LORA->MyLoRaTmp[Write_LoRa_TxBuffer_Index][7] = tmp_LORA->MyLoRaPower;
    1e6c:	7b83      	ldrb	r3, [r0, #14]
    1e6e:	b2db      	uxtb	r3, r3
    1e70:	3201      	adds	r2, #1
    1e72:	5483      	strb	r3, [r0, r2]
			tmp_LORA->MyLoRaTmp[Write_LoRa_TxBuffer_Index][8] = 0xFE;	//Write Mode
    1e74:	3203      	adds	r2, #3
    1e76:	23fc      	movs	r3, #252	; 0xfc
    1e78:	54c2      	strb	r2, [r0, r3]
    1e7a:	3bf3      	subs	r3, #243	; 0xf3
			
			//把數據寫入封包後段，當作廣播使用
			for(j = 0; j < 18; j++)
			{
				tmp_LORA->MyLoRaTmp[Write_LoRa_TxBuffer_Index][9+j] = WriteBufferHex[j];
    1e7c:	4c0b      	ldr	r4, [pc, #44]	; (1eac <Find_Now_And_Next_Enable_Func+0x78>)
    1e7e:	001a      	movs	r2, r3
    1e80:	3a09      	subs	r2, #9
    1e82:	5ca1      	ldrb	r1, [r4, r2]
    1e84:	18c2      	adds	r2, r0, r3
    1e86:	32f4      	adds	r2, #244	; 0xf4
    1e88:	7011      	strb	r1, [r2, #0]
    1e8a:	3301      	adds	r3, #1
			for(j = 0; j < 18; j++)
    1e8c:	2b1b      	cmp	r3, #27
    1e8e:	d1f6      	bne.n	1e7e <Find_Now_And_Next_Enable_Func+0x4a>
			}
			tmp_LORA->List_Now = i;
    1e90:	3340      	adds	r3, #64	; 0x40
    1e92:	54c5      	strb	r5, [r0, r3]
			break;
		}
	}
	
	tmp_List_Index = tmp_LORA->List_Now + 1;
    1e94:	235b      	movs	r3, #91	; 0x5b
    1e96:	5cc3      	ldrb	r3, [r0, r3]
    1e98:	3301      	adds	r3, #1
    1e9a:	b2db      	uxtb	r3, r3
	if(tmp_List_Index == Dev_Item_MAX)
    1e9c:	2b64      	cmp	r3, #100	; 0x64
    1e9e:	d002      	beq.n	1ea6 <Find_Now_And_Next_Enable_Func+0x72>
// Master只詢問有Enable
#ifdef Dev_Master_RS232
		if(tmp_LORA_Dev_List_Index[i].Dev_En_Flag == Dev_EN)
#endif
		{
			tmp_LORA->List_Next = i;
    1ea0:	225c      	movs	r2, #92	; 0x5c
    1ea2:	5483      	strb	r3, [r0, r2]
			break;
		}
		tmp_count++;
	}
	
}
    1ea4:	bd30      	pop	{r4, r5, pc}
		tmp_List_Index = 0;
    1ea6:	2300      	movs	r3, #0
    1ea8:	e7fa      	b.n	1ea0 <Find_Now_And_Next_Enable_Func+0x6c>
    1eaa:	46c0      	nop			; (mov r8, r8)
    1eac:	2000281c 	.word	0x2000281c

00001eb0 <Define_Dev_Time_Func>:
	#endif
}


void Define_Dev_Time_Func(volatile LORA_Dev_List_t *tmp_LORA_Dev_List_Index)
{
    1eb0:	b510      	push	{r4, lr}
    1eb2:	0004      	movs	r4, r0
	Load_Dev_Time_Form_NVM(tmp_LORA_Dev_List_Index);
    1eb4:	4b09      	ldr	r3, [pc, #36]	; (1edc <Define_Dev_Time_Func+0x2c>)
    1eb6:	4798      	blx	r3
	if(tmp_LORA_Dev_List_Index[0].Dev_Time.word == 0xffff)
    1eb8:	8923      	ldrh	r3, [r4, #8]
    1eba:	b29b      	uxth	r3, r3
    1ebc:	4a08      	ldr	r2, [pc, #32]	; (1ee0 <Define_Dev_Time_Func+0x30>)
    1ebe:	4293      	cmp	r3, r2
    1ec0:	d000      	beq.n	1ec4 <Define_Dev_Time_Func+0x14>
		{
			tmp_LORA_Dev_List_Index[i].Dev_Time.word;
		}
		Save_Dev_Time_into_NVM(tmp_LORA_Dev_List_Index);
	}
}
    1ec2:	bd10      	pop	{r4, pc}
    1ec4:	0023      	movs	r3, r4
    1ec6:	22c8      	movs	r2, #200	; 0xc8
    1ec8:	00d2      	lsls	r2, r2, #3
    1eca:	18a2      	adds	r2, r4, r2
			tmp_LORA_Dev_List_Index[i].Dev_Time.word;
    1ecc:	8919      	ldrh	r1, [r3, #8]
    1ece:	3310      	adds	r3, #16
		for ( unsigned char i = 0; i < Dev_Item_MAX; i++)
    1ed0:	4293      	cmp	r3, r2
    1ed2:	d1fb      	bne.n	1ecc <Define_Dev_Time_Func+0x1c>
		Save_Dev_Time_into_NVM(tmp_LORA_Dev_List_Index);
    1ed4:	0020      	movs	r0, r4
    1ed6:	4b03      	ldr	r3, [pc, #12]	; (1ee4 <Define_Dev_Time_Func+0x34>)
    1ed8:	4798      	blx	r3
}
    1eda:	e7f2      	b.n	1ec2 <Define_Dev_Time_Func+0x12>
    1edc:	0000266d 	.word	0x0000266d
    1ee0:	0000ffff 	.word	0x0000ffff
    1ee4:	000025e5 	.word	0x000025e5

00001ee8 <Define_Dev_List_Func>:


void Define_Dev_List_Func(volatile LORA_Dev_List_t *tmp_LORA_Dev_List_Index)
{
    1ee8:	b510      	push	{r4, lr}
    1eea:	0004      	movs	r4, r0
	Load_List_Form_NVM(tmp_LORA_Dev_List_Index);
    1eec:	4b0a      	ldr	r3, [pc, #40]	; (1f18 <Define_Dev_List_Func+0x30>)
    1eee:	4798      	blx	r3
	if(tmp_LORA_Dev_List_Index[0].Dev_Number == 0xff)
    1ef0:	7823      	ldrb	r3, [r4, #0]
    1ef2:	b2db      	uxtb	r3, r3
    1ef4:	2bff      	cmp	r3, #255	; 0xff
    1ef6:	d000      	beq.n	1efa <Define_Dev_List_Func+0x12>
			tmp_LORA_Dev_List_Index[i].Dev_En_Flag = Dev_Dis;
			tmp_LORA_Dev_List_Index[i].MAC_ID.dword = 0;
		}
		Save_List_in_NVM(tmp_LORA_Dev_List_Index);
	}
}
    1ef8:	bd10      	pop	{r4, pc}
    1efa:	0022      	movs	r2, r4
	if(tmp_LORA_Dev_List_Index[0].Dev_Number == 0xff)
    1efc:	2300      	movs	r3, #0
			tmp_LORA_Dev_List_Index[i].Dev_En_Flag = Dev_Dis;
    1efe:	2100      	movs	r1, #0
			tmp_LORA_Dev_List_Index[i].Dev_Number = i;
    1f00:	7013      	strb	r3, [r2, #0]
			tmp_LORA_Dev_List_Index[i].Dev_En_Flag = Dev_Dis;
    1f02:	7051      	strb	r1, [r2, #1]
			tmp_LORA_Dev_List_Index[i].MAC_ID.dword = 0;
    1f04:	6051      	str	r1, [r2, #4]
		for (unsigned char i = 0; i < Dev_Item_MAX; i++)
    1f06:	3301      	adds	r3, #1
    1f08:	b2db      	uxtb	r3, r3
    1f0a:	3210      	adds	r2, #16
    1f0c:	2b64      	cmp	r3, #100	; 0x64
    1f0e:	d1f7      	bne.n	1f00 <Define_Dev_List_Func+0x18>
		Save_List_in_NVM(tmp_LORA_Dev_List_Index);
    1f10:	0020      	movs	r0, r4
    1f12:	4b02      	ldr	r3, [pc, #8]	; (1f1c <Define_Dev_List_Func+0x34>)
    1f14:	4798      	blx	r3
}
    1f16:	e7ef      	b.n	1ef8 <Define_Dev_List_Func+0x10>
    1f18:	000026e1 	.word	0x000026e1
    1f1c:	00002549 	.word	0x00002549

00001f20 <Dev_Time_Counter_By_Timer_Func>:



void Dev_Time_Counter_By_Timer_Func(unsigned char tmp_start, unsigned char tmp_end, volatile LORA_Dev_List_t *tmp_LORA_Dev_List_Index)
{
	for(unsigned char i = tmp_start; i < tmp_end; i++)
    1f20:	4288      	cmp	r0, r1
    1f22:	d216      	bcs.n	1f52 <Dev_Time_Counter_By_Timer_Func+0x32>
    1f24:	0103      	lsls	r3, r0, #4
    1f26:	18d3      	adds	r3, r2, r3
    1f28:	3901      	subs	r1, #1
    1f2a:	1a09      	subs	r1, r1, r0
    1f2c:	b2c9      	uxtb	r1, r1
    1f2e:	3001      	adds	r0, #1
    1f30:	1808      	adds	r0, r1, r0
    1f32:	0100      	lsls	r0, r0, #4
    1f34:	1812      	adds	r2, r2, r0
	{
		if(tmp_LORA_Dev_List_Index[i].Now_Counter.word < 10000)
    1f36:	4807      	ldr	r0, [pc, #28]	; (1f54 <Dev_Time_Counter_By_Timer_Func+0x34>)
    1f38:	e002      	b.n	1f40 <Dev_Time_Counter_By_Timer_Func+0x20>
    1f3a:	3310      	adds	r3, #16
	for(unsigned char i = tmp_start; i < tmp_end; i++)
    1f3c:	4293      	cmp	r3, r2
    1f3e:	d008      	beq.n	1f52 <Dev_Time_Counter_By_Timer_Func+0x32>
		if(tmp_LORA_Dev_List_Index[i].Now_Counter.word < 10000)
    1f40:	8999      	ldrh	r1, [r3, #12]
    1f42:	b289      	uxth	r1, r1
    1f44:	4281      	cmp	r1, r0
    1f46:	d8f8      	bhi.n	1f3a <Dev_Time_Counter_By_Timer_Func+0x1a>
		{
			tmp_LORA_Dev_List_Index[i].Now_Counter.word++;
    1f48:	8999      	ldrh	r1, [r3, #12]
    1f4a:	3101      	adds	r1, #1
    1f4c:	b289      	uxth	r1, r1
    1f4e:	8199      	strh	r1, [r3, #12]
    1f50:	e7f3      	b.n	1f3a <Dev_Time_Counter_By_Timer_Func+0x1a>
		}
	}
}
    1f52:	4770      	bx	lr
    1f54:	0000270f 	.word	0x0000270f

00001f58 <Fill_Dev_Time_into_dev_value>:
{
    1f58:	b570      	push	{r4, r5, r6, lr}
    1f5a:	0004      	movs	r4, r0
    1f5c:	000a      	movs	r2, r1
	tmpStart = (tmp_LORA->Lora_Dev_Count_IRQ_Flag - 1) * 25;
    1f5e:	4d0e      	ldr	r5, [pc, #56]	; (1f98 <Fill_Dev_Time_into_dev_value+0x40>)
    1f60:	5d40      	ldrb	r0, [r0, r5]
    1f62:	3801      	subs	r0, #1
    1f64:	0083      	lsls	r3, r0, #2
    1f66:	18c0      	adds	r0, r0, r3
    1f68:	0083      	lsls	r3, r0, #2
    1f6a:	18c0      	adds	r0, r0, r3
    1f6c:	b2c0      	uxtb	r0, r0
	tmpEnd = tmpStart + 25;
    1f6e:	0001      	movs	r1, r0
    1f70:	3119      	adds	r1, #25
	Dev_Time_Counter_By_Timer_Func(tmpStart, tmpEnd ,tmp_LORA_Dev_List_Index);
    1f72:	b2c9      	uxtb	r1, r1
    1f74:	4b09      	ldr	r3, [pc, #36]	; (1f9c <Fill_Dev_Time_into_dev_value+0x44>)
    1f76:	4798      	blx	r3
	if(tmp_LORA->Lora_Dev_Count_IRQ_Flag < 4)
    1f78:	5d63      	ldrb	r3, [r4, r5]
    1f7a:	b2db      	uxtb	r3, r3
    1f7c:	2b03      	cmp	r3, #3
    1f7e:	d905      	bls.n	1f8c <Fill_Dev_Time_into_dev_value+0x34>
		tmp_LORA->Lora_Dev_Count_IRQ_Flag = 0;
    1f80:	2300      	movs	r3, #0
    1f82:	4a05      	ldr	r2, [pc, #20]	; (1f98 <Fill_Dev_Time_into_dev_value+0x40>)
    1f84:	54a3      	strb	r3, [r4, r2]
		tmp_LORA->t2_tmp_count = 0;
    1f86:	3219      	adds	r2, #25
    1f88:	50a3      	str	r3, [r4, r2]
}
    1f8a:	bd70      	pop	{r4, r5, r6, pc}
		tmp_LORA->Lora_Dev_Count_IRQ_Flag++;
    1f8c:	5d63      	ldrb	r3, [r4, r5]
    1f8e:	3301      	adds	r3, #1
    1f90:	b2db      	uxtb	r3, r3
    1f92:	5563      	strb	r3, [r4, r5]
    1f94:	e7f9      	b.n	1f8a <Fill_Dev_Time_into_dev_value+0x32>
    1f96:	46c0      	nop			; (mov r8, r8)
    1f98:	00000227 	.word	0x00000227
    1f9c:	00001f21 	.word	0x00001f21

00001fa0 <Judg_KEY_W>:
﻿#include <asf.h>
#include <stdio.h>
#include "myDefine.h"

void Judg_KEY_W(void)
{
    1fa0:	b510      	push	{r4, lr}
	//W020000000000010000CC5678EEEEF111Z
	if(UserKeyInBuf[0]  != 'w' && UserKeyInBuf[0]  != 'W') return;		//Check 'w' or W
    1fa2:	4b0a      	ldr	r3, [pc, #40]	; (1fcc <Judg_KEY_W+0x2c>)
    1fa4:	781b      	ldrb	r3, [r3, #0]
    1fa6:	2220      	movs	r2, #32
    1fa8:	4393      	bics	r3, r2
    1faa:	2b57      	cmp	r3, #87	; 0x57
    1fac:	d000      	beq.n	1fb0 <Judg_KEY_W+0x10>
	if(UserKeyInBuf[UserKeyInBufMax-1] != 'z' && UserKeyInBuf[UserKeyInBufMax-1] != 'Z') return;		//Check 'w' or W
	CMD_Index = Write_Data_Form_UART_Index;
	uart_str("To PLC OK\r\0");
}
    1fae:	bd10      	pop	{r4, pc}
	if(UserKeyInBuf[UserKeyInBufMax-1] != 'z' && UserKeyInBuf[UserKeyInBufMax-1] != 'Z') return;		//Check 'w' or W
    1fb0:	3b36      	subs	r3, #54	; 0x36
    1fb2:	4a06      	ldr	r2, [pc, #24]	; (1fcc <Judg_KEY_W+0x2c>)
    1fb4:	5cd3      	ldrb	r3, [r2, r3]
    1fb6:	2220      	movs	r2, #32
    1fb8:	4393      	bics	r3, r2
    1fba:	2b5a      	cmp	r3, #90	; 0x5a
    1fbc:	d1f7      	bne.n	1fae <Judg_KEY_W+0xe>
	CMD_Index = Write_Data_Form_UART_Index;
    1fbe:	3a14      	subs	r2, #20
    1fc0:	4b03      	ldr	r3, [pc, #12]	; (1fd0 <Judg_KEY_W+0x30>)
    1fc2:	701a      	strb	r2, [r3, #0]
	uart_str("To PLC OK\r\0");
    1fc4:	4803      	ldr	r0, [pc, #12]	; (1fd4 <Judg_KEY_W+0x34>)
    1fc6:	4b04      	ldr	r3, [pc, #16]	; (1fd8 <Judg_KEY_W+0x38>)
    1fc8:	4798      	blx	r3
    1fca:	e7f0      	b.n	1fae <Judg_KEY_W+0xe>
    1fcc:	20000358 	.word	0x20000358
    1fd0:	20002818 	.word	0x20002818
    1fd4:	00008804 	.word	0x00008804
    1fd8:	00003101 	.word	0x00003101

00001fdc <Save_Write_PLC_List_in_NVM>:

============================================
*/

void Save_Write_PLC_List_in_NVM(volatile Write_PLC_List_t *tmp_Write_PLC_List_Index)
{
    1fdc:	b5f0      	push	{r4, r5, r6, r7, lr}
    1fde:	46d6      	mov	lr, sl
    1fe0:	4647      	mov	r7, r8
    1fe2:	b580      	push	{r7, lr}
    1fe4:	4c20      	ldr	r4, [pc, #128]	; (2068 <STACK_SIZE+0x68>)
    1fe6:	44a5      	add	sp, r4
    1fe8:	ae02      	add	r6, sp, #8
    1fea:	2196      	movs	r1, #150	; 0x96
    1fec:	0109      	lsls	r1, r1, #4
    1fee:	0033      	movs	r3, r6
    1ff0:	46b4      	mov	ip, r6
    1ff2:	4461      	add	r1, ip
	// Dev_List (二維) 轉換成 page_buffer (一維)
	//======================================
	for( i = 0; i < Write_PLC_List_Max; i++)
	{
		k = i * Write_PLC_List_Item_Max;
		page_buffer[k]		= tmp_Write_PLC_List_Index[i].MAC_ID_Index.byte[1];
    1ff4:	7842      	ldrb	r2, [r0, #1]
    1ff6:	701a      	strb	r2, [r3, #0]
		page_buffer[k + 1]	= tmp_Write_PLC_List_Index[i].MAC_ID_Index.byte[0];
    1ff8:	7802      	ldrb	r2, [r0, #0]
    1ffa:	705a      	strb	r2, [r3, #1]
		page_buffer[k + 2]	= tmp_Write_PLC_List_Index[i].Channel_Index;
    1ffc:	7882      	ldrb	r2, [r0, #2]
    1ffe:	709a      	strb	r2, [r3, #2]
		page_buffer[k + 3]	= tmp_Write_PLC_List_Index[i].Channel_En;
    2000:	78c2      	ldrb	r2, [r0, #3]
    2002:	70da      	strb	r2, [r3, #3]
    2004:	3004      	adds	r0, #4
    2006:	3304      	adds	r3, #4
	for( i = 0; i < Write_PLC_List_Max; i++)
    2008:	428b      	cmp	r3, r1
    200a:	d1f3      	bne.n	1ff4 <Save_Write_PLC_List_in_NVM+0x18>
    200c:	4b17      	ldr	r3, [pc, #92]	; (206c <STACK_SIZE+0x6c>)
    200e:	9301      	str	r3, [sp, #4]
		//======================================
		// page_buffer 分次存到 tmp_page_buffer，準備存到NVM使用
		//======================================
		for(i = 0; i < NVMCTRL_PAGE_SIZE; i++)
		{
			tmp_page_buffer[i] = page_buffer[i + j];
    2010:	2498      	movs	r4, #152	; 0x98
    2012:	0124      	lsls	r4, r4, #4
    2014:	ab02      	add	r3, sp, #8
    2016:	469c      	mov	ip, r3
    2018:	4464      	add	r4, ip
		//======================================
		// 儲存前要先erase
		//======================================
		do
		{
			error_code = nvm_erase_row(
    201a:	4b15      	ldr	r3, [pc, #84]	; (2070 <STACK_SIZE+0x70>)
    201c:	4698      	mov	r8, r3
    201e:	4f15      	ldr	r7, [pc, #84]	; (2074 <STACK_SIZE+0x74>)
{
    2020:	2300      	movs	r3, #0
			tmp_page_buffer[i] = page_buffer[i + j];
    2022:	5cf2      	ldrb	r2, [r6, r3]
    2024:	551a      	strb	r2, [r3, r4]
		for(i = 0; i < NVMCTRL_PAGE_SIZE; i++)
    2026:	3301      	adds	r3, #1
    2028:	2b40      	cmp	r3, #64	; 0x40
    202a:	d1fa      	bne.n	2022 <STACK_SIZE+0x22>
			error_code = nvm_erase_row(
    202c:	9801      	ldr	r0, [sp, #4]
    202e:	47c0      	blx	r8
    2030:	7038      	strb	r0, [r7, #0]
			(535 + k) * NVMCTRL_ROW_PAGES * NVMCTRL_PAGE_SIZE);
		} while (error_code == STATUS_BUSY);
    2032:	2805      	cmp	r0, #5
    2034:	d0fa      	beq.n	202c <STACK_SIZE+0x2c>
		//======================================
		// 開始儲存寫入
		//======================================
		do
		{
			error_code = nvm_write_buffer(
    2036:	4b10      	ldr	r3, [pc, #64]	; (2078 <STACK_SIZE+0x78>)
    2038:	469a      	mov	sl, r3
    203a:	4d0e      	ldr	r5, [pc, #56]	; (2074 <STACK_SIZE+0x74>)
    203c:	2240      	movs	r2, #64	; 0x40
    203e:	0021      	movs	r1, r4
    2040:	9801      	ldr	r0, [sp, #4]
    2042:	47d0      	blx	sl
    2044:	7028      	strb	r0, [r5, #0]
			(535 + k)  * NVMCTRL_ROW_PAGES * NVMCTRL_PAGE_SIZE,
			tmp_page_buffer, NVMCTRL_PAGE_SIZE);
		} while (error_code == STATUS_BUSY);
    2046:	2805      	cmp	r0, #5
    2048:	d0f8      	beq.n	203c <STACK_SIZE+0x3c>
    204a:	9b01      	ldr	r3, [sp, #4]
    204c:	3301      	adds	r3, #1
    204e:	33ff      	adds	r3, #255	; 0xff
    2050:	001a      	movs	r2, r3
    2052:	9301      	str	r3, [sp, #4]
    2054:	3640      	adds	r6, #64	; 0x40
	for(j = 0; j < (NVMCTRL_PAGE_SIZE * NVM_Write_PLC_List_Page_MAX); j = j + NVMCTRL_PAGE_SIZE)
    2056:	4b09      	ldr	r3, [pc, #36]	; (207c <STACK_SIZE+0x7c>)
    2058:	429a      	cmp	r2, r3
    205a:	d1e1      	bne.n	2020 <STACK_SIZE+0x20>
		// K = page count，每+1 = 256 位置
		// 因為位置計算公式為 NVMCTRL_ROW_PAGES(4) * NVMCTRL_PAGE_SIZE (64) = 256個位置
		//======================================
		k++;
	}
}
    205c:	4b08      	ldr	r3, [pc, #32]	; (2080 <STACK_SIZE+0x80>)
    205e:	449d      	add	sp, r3
    2060:	bc0c      	pop	{r2, r3}
    2062:	4690      	mov	r8, r2
    2064:	469a      	mov	sl, r3
    2066:	bdf0      	pop	{r4, r5, r6, r7, pc}
    2068:	fffff634 	.word	0xfffff634
    206c:	00021700 	.word	0x00021700
    2070:	00000341 	.word	0x00000341
    2074:	20002849 	.word	0x20002849
    2078:	0000022d 	.word	0x0000022d
    207c:	00023d00 	.word	0x00023d00
    2080:	000009cc 	.word	0x000009cc

00002084 <Load_Write_PLC_List_in_NVM>:


void Load_Write_PLC_List_in_NVM(volatile Write_PLC_List_t *tmp_Write_PLC_List_Index)
{
    2084:	b5f0      	push	{r4, r5, r6, r7, lr}
    2086:	46d6      	mov	lr, sl
    2088:	b500      	push	{lr}
    208a:	4c1d      	ldr	r4, [pc, #116]	; (2100 <Load_Write_PLC_List_in_NVM+0x7c>)
    208c:	44a5      	add	sp, r4
    208e:	9001      	str	r0, [sp, #4]
    2090:	ae02      	add	r6, sp, #8
    2092:	0037      	movs	r7, r6
    2094:	4b1b      	ldr	r3, [pc, #108]	; (2104 <Load_Write_PLC_List_in_NVM+0x80>)
    2096:	9300      	str	r3, [sp, #0]
	//	64 BYTE				24個自訂義PAGE
	for(j = 0; j < (NVMCTRL_PAGE_SIZE * NVM_Write_PLC_List_Page_MAX); j = j + NVMCTRL_PAGE_SIZE)
	{
		do
		{
			error_code = nvm_read_buffer(
    2098:	2498      	movs	r4, #152	; 0x98
    209a:	0124      	lsls	r4, r4, #4
    209c:	46b4      	mov	ip, r6
    209e:	4464      	add	r4, ip
    20a0:	4b19      	ldr	r3, [pc, #100]	; (2108 <Load_Write_PLC_List_in_NVM+0x84>)
    20a2:	469a      	mov	sl, r3
    20a4:	4d19      	ldr	r5, [pc, #100]	; (210c <Load_Write_PLC_List_in_NVM+0x88>)
    20a6:	2240      	movs	r2, #64	; 0x40
    20a8:	0021      	movs	r1, r4
    20aa:	9800      	ldr	r0, [sp, #0]
    20ac:	47d0      	blx	sl
    20ae:	7028      	strb	r0, [r5, #0]
			(535 + k)  * NVMCTRL_ROW_PAGES * NVMCTRL_PAGE_SIZE,
			tmp_page_buffer, NVMCTRL_PAGE_SIZE);
		} while (error_code == STATUS_BUSY);
    20b0:	2805      	cmp	r0, #5
    20b2:	d0f8      	beq.n	20a6 <Load_Write_PLC_List_in_NVM+0x22>
    20b4:	2300      	movs	r3, #0
		
		for(i = 0; i < NVMCTRL_PAGE_SIZE; i++)
		{
			page_buffer[i + j] = tmp_page_buffer[i];
    20b6:	5d1a      	ldrb	r2, [r3, r4]
    20b8:	54fa      	strb	r2, [r7, r3]
		for(i = 0; i < NVMCTRL_PAGE_SIZE; i++)
    20ba:	3301      	adds	r3, #1
    20bc:	2b40      	cmp	r3, #64	; 0x40
    20be:	d1fa      	bne.n	20b6 <Load_Write_PLC_List_in_NVM+0x32>
    20c0:	3740      	adds	r7, #64	; 0x40
    20c2:	9b00      	ldr	r3, [sp, #0]
    20c4:	3301      	adds	r3, #1
    20c6:	33ff      	adds	r3, #255	; 0xff
    20c8:	001a      	movs	r2, r3
    20ca:	9300      	str	r3, [sp, #0]
	for(j = 0; j < (NVMCTRL_PAGE_SIZE * NVM_Write_PLC_List_Page_MAX); j = j + NVMCTRL_PAGE_SIZE)
    20cc:	4b10      	ldr	r3, [pc, #64]	; (2110 <Load_Write_PLC_List_in_NVM+0x8c>)
    20ce:	429a      	cmp	r2, r3
    20d0:	d1e9      	bne.n	20a6 <Load_Write_PLC_List_in_NVM+0x22>
    20d2:	9d01      	ldr	r5, [sp, #4]
    20d4:	2296      	movs	r2, #150	; 0x96
    20d6:	0112      	lsls	r2, r2, #4
    20d8:	ab02      	add	r3, sp, #8
    20da:	469c      	mov	ip, r3
    20dc:	4462      	add	r2, ip
		k++;
	}
	
	for( i = 0; i < Write_PLC_List_Max; i++)
	{
		tmp_Write_PLC_List_Index[i].MAC_ID_Index.byte [1]	= page_buffer[(i * Write_PLC_List_Item_Max)];
    20de:	7833      	ldrb	r3, [r6, #0]
    20e0:	706b      	strb	r3, [r5, #1]
		tmp_Write_PLC_List_Index[i].MAC_ID_Index.byte [0]	= page_buffer[(i * Write_PLC_List_Item_Max) + 1];
    20e2:	7873      	ldrb	r3, [r6, #1]
    20e4:	702b      	strb	r3, [r5, #0]
		tmp_Write_PLC_List_Index[i].Channel_Index			= page_buffer[(i * Write_PLC_List_Item_Max) + 2];
    20e6:	78b3      	ldrb	r3, [r6, #2]
    20e8:	70ab      	strb	r3, [r5, #2]
		tmp_Write_PLC_List_Index[i].Channel_En				= page_buffer[(i * Write_PLC_List_Item_Max) + 3];
    20ea:	78f3      	ldrb	r3, [r6, #3]
    20ec:	70eb      	strb	r3, [r5, #3]
    20ee:	3604      	adds	r6, #4
    20f0:	3504      	adds	r5, #4
	for( i = 0; i < Write_PLC_List_Max; i++)
    20f2:	4296      	cmp	r6, r2
    20f4:	d1f3      	bne.n	20de <Load_Write_PLC_List_in_NVM+0x5a>
	}
}
    20f6:	4b07      	ldr	r3, [pc, #28]	; (2114 <Load_Write_PLC_List_in_NVM+0x90>)
    20f8:	449d      	add	sp, r3
    20fa:	bc04      	pop	{r2}
    20fc:	4692      	mov	sl, r2
    20fe:	bdf0      	pop	{r4, r5, r6, r7, pc}
    2100:	fffff638 	.word	0xfffff638
    2104:	00021700 	.word	0x00021700
    2108:	000002d5 	.word	0x000002d5
    210c:	20002849 	.word	0x20002849
    2110:	00023d00 	.word	0x00023d00
    2114:	000009c8 	.word	0x000009c8

00002118 <configure_nvm>:


//! [setup]
void configure_nvm(void)
{
    2118:	b500      	push	{lr}
    211a:	b083      	sub	sp, #12
{
	/* Sanity check the parameters */
	Assert(config);

	/* Write the default configuration for the NVM configuration */
	config->sleep_power_mode  = NVM_SLEEP_POWER_MODE_WAKEONACCESS;
    211c:	2200      	movs	r2, #0
    211e:	466b      	mov	r3, sp
    2120:	701a      	strb	r2, [r3, #0]
	config->manual_page_write = true;
	config->wait_states       = NVMCTRL->CTRLB.bit.RWS;
    2122:	4b07      	ldr	r3, [pc, #28]	; (2140 <configure_nvm+0x28>)
    2124:	685b      	ldr	r3, [r3, #4]
    2126:	06db      	lsls	r3, r3, #27
    2128:	0f1b      	lsrs	r3, r3, #28
    212a:	4669      	mov	r1, sp
    212c:	708b      	strb	r3, [r1, #2]
	config->disable_cache     = false;
    212e:	70ca      	strb	r2, [r1, #3]
#if (SAMC20) || (SAMC21)
	config->disable_rww_cache = false;
#endif
	config->cache_readmode    = NVM_CACHE_READMODE_NO_MISS_PENALTY;
    2130:	710a      	strb	r2, [r1, #4]
	//! [setup_2]
	nvm_get_config_defaults(&config_nvm);
	//! [setup_2]

	//! [setup_3]
	config_nvm.manual_page_write = false;
    2132:	704a      	strb	r2, [r1, #1]
	//config_nvm.manual_page_write = true;
	//! [setup_3]

	//! [setup_4]
	nvm_set_config(&config_nvm);
    2134:	4668      	mov	r0, sp
    2136:	4b03      	ldr	r3, [pc, #12]	; (2144 <configure_nvm+0x2c>)
    2138:	4798      	blx	r3
	//! [setup_4]
}
    213a:	b003      	add	sp, #12
    213c:	bd00      	pop	{pc}
    213e:	46c0      	nop			; (mov r8, r8)
    2140:	41004000 	.word	0x41004000
    2144:	00000105 	.word	0x00000105

00002148 <Load_LoRa_Profile_in_NVM>:
*/



void Load_LoRa_Profile_in_NVM(volatile LORA_DEFINE_t *tmp_LORA)
{
    2148:	b5f0      	push	{r4, r5, r6, r7, lr}
    214a:	46de      	mov	lr, fp
    214c:	4657      	mov	r7, sl
    214e:	464e      	mov	r6, r9
    2150:	4645      	mov	r5, r8
    2152:	b5e0      	push	{r5, r6, r7, lr}
    2154:	b093      	sub	sp, #76	; 0x4c
    2156:	0004      	movs	r4, r0
	UINT16u_t tmp16;
	unsigned char first_time;
	uint8_t tmp_page_buffer[NVMCTRL_PAGE_SIZE];
	do
	{
		error_code = nvm_read_buffer(
    2158:	4eaa      	ldr	r6, [pc, #680]	; (2404 <Load_LoRa_Profile_in_NVM+0x2bc>)
    215a:	4dab      	ldr	r5, [pc, #684]	; (2408 <Load_LoRa_Profile_in_NVM+0x2c0>)
    215c:	2240      	movs	r2, #64	; 0x40
    215e:	a902      	add	r1, sp, #8
    2160:	48aa      	ldr	r0, [pc, #680]	; (240c <Load_LoRa_Profile_in_NVM+0x2c4>)
    2162:	47b0      	blx	r6
    2164:	7028      	strb	r0, [r5, #0]
		525  * NVMCTRL_ROW_PAGES * NVMCTRL_PAGE_SIZE,
		tmp_page_buffer, NVMCTRL_PAGE_SIZE);
	} while (error_code == STATUS_BUSY);
    2166:	2805      	cmp	r0, #5
    2168:	d0f8      	beq.n	215c <Load_LoRa_Profile_in_NVM+0x14>
	
	if(tmp_page_buffer[tmp_LORA->NVM_offset_Value] != 0x55)
    216a:	218e      	movs	r1, #142	; 0x8e
    216c:	0089      	lsls	r1, r1, #2
    216e:	5c63      	ldrb	r3, [r4, r1]
    2170:	b2db      	uxtb	r3, r3
    2172:	aa02      	add	r2, sp, #8
    2174:	5cd2      	ldrb	r2, [r2, r3]
	else
	{
		first_time = 0;
	}
	
	tmp_LORA->MyLoRaPower = tmp_page_buffer[tmp_LORA->NVM_offset_Value + 1];
    2176:	5c63      	ldrb	r3, [r4, r1]
    2178:	a902      	add	r1, sp, #8
    217a:	468c      	mov	ip, r1
    217c:	4463      	add	r3, ip
    217e:	785b      	ldrb	r3, [r3, #1]
    2180:	73a3      	strb	r3, [r4, #14]
	if(first_time == 0)
    2182:	2a55      	cmp	r2, #85	; 0x55
    2184:	d000      	beq.n	2188 <Load_LoRa_Profile_in_NVM+0x40>
    2186:	e0da      	b.n	233e <Load_LoRa_Profile_in_NVM+0x1f6>
	{
		tmp_LORA->MyLoRaTmp[Write_LoRa_Mode_FQ_Index][7] = tmp_LORA->MyLoRaPower;
    2188:	7ba3      	ldrb	r3, [r4, #14]
    218a:	b2db      	uxtb	r3, r3
    218c:	21c5      	movs	r1, #197	; 0xc5
    218e:	5463      	strb	r3, [r4, r1]
	else
	{
		tmp_LORA->MyLoRaPower = tmp_LORA->MyLoRaTmp[Write_LoRa_Mode_FQ_Index][7];
	}
	
	tmp_LORA->MyLoRaSF = tmp_page_buffer[tmp_LORA->NVM_offset_Value + 2];
    2190:	238e      	movs	r3, #142	; 0x8e
    2192:	009b      	lsls	r3, r3, #2
    2194:	5ce3      	ldrb	r3, [r4, r3]
    2196:	4463      	add	r3, ip
    2198:	789b      	ldrb	r3, [r3, #2]
    219a:	73e3      	strb	r3, [r4, #15]
	if(first_time == 0)
	{
		tmp_LORA->MyLoRaTmp[Write_LoRa_Setting_Index][5] = tmp_LORA->MyLoRaSF;
    219c:	7be3      	ldrb	r3, [r4, #15]
    219e:	b2db      	uxtb	r3, r3
    21a0:	21de      	movs	r1, #222	; 0xde
    21a2:	5463      	strb	r3, [r4, r1]
	else
	{
		tmp_LORA->MyLoRaSF = tmp_LORA->MyLoRaTmp[Write_LoRa_Setting_Index][5];
	}
	
	tmp_LORA->MyLoRaFQ.byte[2] = tmp_page_buffer[tmp_LORA->NVM_offset_Value + 3];
    21a4:	238e      	movs	r3, #142	; 0x8e
    21a6:	009b      	lsls	r3, r3, #2
    21a8:	5ce1      	ldrb	r1, [r4, r3]
    21aa:	a802      	add	r0, sp, #8
    21ac:	4684      	mov	ip, r0
    21ae:	4461      	add	r1, ip
    21b0:	78c9      	ldrb	r1, [r1, #3]
    21b2:	75a1      	strb	r1, [r4, #22]
	tmp_LORA->MyLoRaFQ.byte[1] = tmp_page_buffer[tmp_LORA->NVM_offset_Value + 4];
    21b4:	5ce1      	ldrb	r1, [r4, r3]
    21b6:	4461      	add	r1, ip
    21b8:	7909      	ldrb	r1, [r1, #4]
    21ba:	7561      	strb	r1, [r4, #21]
	tmp_LORA->MyLoRaFQ.byte[0] = tmp_page_buffer[tmp_LORA->NVM_offset_Value + 5];
    21bc:	5ce3      	ldrb	r3, [r4, r3]
    21be:	4463      	add	r3, ip
    21c0:	795b      	ldrb	r3, [r3, #5]
    21c2:	7523      	strb	r3, [r4, #20]
	if(first_time == 0)
    21c4:	2a55      	cmp	r2, #85	; 0x55
    21c6:	d000      	beq.n	21ca <Load_LoRa_Profile_in_NVM+0x82>
    21c8:	e0ca      	b.n	2360 <Load_LoRa_Profile_in_NVM+0x218>
	{
		tmp_LORA->MyLoRaTmp[Write_LoRa_Mode_FQ_Index][4] = tmp_LORA->MyLoRaFQ.byte[2];
    21ca:	7da3      	ldrb	r3, [r4, #22]
    21cc:	b2db      	uxtb	r3, r3
    21ce:	21c2      	movs	r1, #194	; 0xc2
    21d0:	5463      	strb	r3, [r4, r1]
	{
		tmp_LORA->MyLoRaFQ.byte[2] = tmp_LORA->MyLoRaTmp[Write_LoRa_Mode_FQ_Index][4];
	}
	if(first_time == 0)
	{
		tmp_LORA->MyLoRaTmp[Write_LoRa_Mode_FQ_Index][5] = tmp_LORA->MyLoRaFQ.byte[1];
    21d2:	7d63      	ldrb	r3, [r4, #21]
    21d4:	b2db      	uxtb	r3, r3
    21d6:	3101      	adds	r1, #1
    21d8:	5463      	strb	r3, [r4, r1]
	{
		tmp_LORA->MyLoRaFQ.byte[1] = tmp_LORA->MyLoRaTmp[Write_LoRa_Mode_FQ_Index][5];
	}
	if(first_time == 0)
	{
		tmp_LORA->MyLoRaTmp[Write_LoRa_Mode_FQ_Index][6] = tmp_LORA->MyLoRaFQ.byte[0];
    21da:	7d23      	ldrb	r3, [r4, #20]
    21dc:	b2db      	uxtb	r3, r3
    21de:	3101      	adds	r1, #1
    21e0:	5463      	strb	r3, [r4, r1]
	else
	{
		tmp_LORA->MyLoRaFQ.byte[0] = tmp_LORA->MyLoRaTmp[Write_LoRa_Mode_FQ_Index][6];
	}
	
	tmp_LORA->Lora_Debug_Flag = tmp_page_buffer[tmp_LORA->NVM_offset_Value + 6];
    21e2:	208e      	movs	r0, #142	; 0x8e
    21e4:	0080      	lsls	r0, r0, #2
    21e6:	5c23      	ldrb	r3, [r4, r0]
    21e8:	4463      	add	r3, ip
    21ea:	799b      	ldrb	r3, [r3, #6]
    21ec:	2188      	movs	r1, #136	; 0x88
    21ee:	0089      	lsls	r1, r1, #2
    21f0:	5463      	strb	r3, [r4, r1]
	if(first_time == 1)
	{
		tmp_LORA->Lora_Debug_Flag = NeedDebug;
	}
	
	tmp_LORA->Lora_Debug_Flag = tmp_page_buffer[tmp_LORA->NVM_offset_Value + 6];
    21f2:	5c23      	ldrb	r3, [r4, r0]
    21f4:	4463      	add	r3, ip
    21f6:	799b      	ldrb	r3, [r3, #6]
    21f8:	5463      	strb	r3, [r4, r1]
	if(first_time == 1)
	{
		tmp_LORA->Lora_Debug_Flag = NeedDebug;
	}
	
	RESET_COUNT = tmp_page_buffer[tmp_LORA->NVM_offset_Value + 7];
    21fa:	238e      	movs	r3, #142	; 0x8e
    21fc:	009b      	lsls	r3, r3, #2
    21fe:	5ce1      	ldrb	r1, [r4, r3]
    2200:	a802      	add	r0, sp, #8
    2202:	4684      	mov	ip, r0
    2204:	4461      	add	r1, ip
    2206:	79c8      	ldrb	r0, [r1, #7]
    2208:	4981      	ldr	r1, [pc, #516]	; (2410 <Load_LoRa_Profile_in_NVM+0x2c8>)
    220a:	7008      	strb	r0, [r1, #0]
	
	tmp_LORA->UserLoRaID[0] = tmp_page_buffer[tmp_LORA->NVM_offset_Value + 8];
    220c:	5ce1      	ldrb	r1, [r4, r3]
    220e:	4461      	add	r1, ip
    2210:	7a09      	ldrb	r1, [r1, #8]
    2212:	7161      	strb	r1, [r4, #5]
	tmp_LORA->UserLoRaID[1] = tmp_page_buffer[tmp_LORA->NVM_offset_Value + 9];
    2214:	5ce1      	ldrb	r1, [r4, r3]
    2216:	4461      	add	r1, ip
    2218:	7a49      	ldrb	r1, [r1, #9]
    221a:	71a1      	strb	r1, [r4, #6]
	tmp_LORA->UserLoRaID[2] = tmp_page_buffer[tmp_LORA->NVM_offset_Value + 10];
    221c:	5ce1      	ldrb	r1, [r4, r3]
    221e:	4461      	add	r1, ip
    2220:	7a89      	ldrb	r1, [r1, #10]
    2222:	71e1      	strb	r1, [r4, #7]
	tmp_LORA->UserLoRaID[3] = tmp_page_buffer[tmp_LORA->NVM_offset_Value + 11];
    2224:	5ce1      	ldrb	r1, [r4, r3]
    2226:	4461      	add	r1, ip
    2228:	7ac9      	ldrb	r1, [r1, #11]
    222a:	7221      	strb	r1, [r4, #8]
	
	tmp_LORA->PLC_Flag = tmp_page_buffer[tmp_LORA->NVM_offset_Value + 12];
    222c:	5ce3      	ldrb	r3, [r4, r3]
    222e:	4463      	add	r3, ip
    2230:	7b1b      	ldrb	r3, [r3, #12]
    2232:	7423      	strb	r3, [r4, #16]
	if(first_time == 1)
    2234:	2a55      	cmp	r2, #85	; 0x55
    2236:	d000      	beq.n	223a <Load_LoRa_Profile_in_NVM+0xf2>
    2238:	e0b0      	b.n	239c <Load_LoRa_Profile_in_NVM+0x254>
	{
		tmp_LORA->PLC_Flag = NoPLC;
	}
	
	
	if(tmp_LORA == LORA01)
    223a:	4b76      	ldr	r3, [pc, #472]	; (2414 <Load_LoRa_Profile_in_NVM+0x2cc>)
    223c:	681b      	ldr	r3, [r3, #0]
    223e:	429c      	cmp	r4, r3
    2240:	d100      	bne.n	2244 <Load_LoRa_Profile_in_NVM+0xfc>
    2242:	e0ae      	b.n	23a2 <Load_LoRa_Profile_in_NVM+0x25a>
	
	

	
	
	uTXByte(Debug_COM, 'N');
    2244:	214e      	movs	r1, #78	; 0x4e
    2246:	4874      	ldr	r0, [pc, #464]	; (2418 <Load_LoRa_Profile_in_NVM+0x2d0>)
    2248:	4e74      	ldr	r6, [pc, #464]	; (241c <Load_LoRa_Profile_in_NVM+0x2d4>)
    224a:	47b0      	blx	r6
	uTXByte(Debug_COM, 'V');
    224c:	2156      	movs	r1, #86	; 0x56
    224e:	4872      	ldr	r0, [pc, #456]	; (2418 <Load_LoRa_Profile_in_NVM+0x2d0>)
    2250:	47b0      	blx	r6
	uTXByte(Debug_COM, 'M');
    2252:	214d      	movs	r1, #77	; 0x4d
    2254:	4870      	ldr	r0, [pc, #448]	; (2418 <Load_LoRa_Profile_in_NVM+0x2d0>)
    2256:	47b0      	blx	r6
	uTXByte(Debug_COM, ':');
    2258:	213a      	movs	r1, #58	; 0x3a
    225a:	486f      	ldr	r0, [pc, #444]	; (2418 <Load_LoRa_Profile_in_NVM+0x2d0>)
    225c:	47b0      	blx	r6
	uTXByte(Debug_COM, ' ');
    225e:	2120      	movs	r1, #32
    2260:	486d      	ldr	r0, [pc, #436]	; (2418 <Load_LoRa_Profile_in_NVM+0x2d0>)
    2262:	47b0      	blx	r6
	uart_send_ascii_byte(Debug_COM, tmp_page_buffer[tmp_LORA->NVM_offset_Value]);
    2264:	258e      	movs	r5, #142	; 0x8e
    2266:	00ad      	lsls	r5, r5, #2
    2268:	5d63      	ldrb	r3, [r4, r5]
    226a:	b2db      	uxtb	r3, r3
    226c:	aa02      	add	r2, sp, #8
    226e:	5cd1      	ldrb	r1, [r2, r3]
    2270:	4869      	ldr	r0, [pc, #420]	; (2418 <Load_LoRa_Profile_in_NVM+0x2d0>)
    2272:	4f6b      	ldr	r7, [pc, #428]	; (2420 <Load_LoRa_Profile_in_NVM+0x2d8>)
    2274:	47b8      	blx	r7
	uTXByte(Debug_COM, ' ');
    2276:	2120      	movs	r1, #32
    2278:	4867      	ldr	r0, [pc, #412]	; (2418 <Load_LoRa_Profile_in_NVM+0x2d0>)
    227a:	47b0      	blx	r6
	uart_send_ascii_byte(Debug_COM, tmp_page_buffer[tmp_LORA->NVM_offset_Value + 1]);
    227c:	5d63      	ldrb	r3, [r4, r5]
    227e:	aa02      	add	r2, sp, #8
    2280:	4694      	mov	ip, r2
    2282:	4463      	add	r3, ip
    2284:	7859      	ldrb	r1, [r3, #1]
    2286:	4864      	ldr	r0, [pc, #400]	; (2418 <Load_LoRa_Profile_in_NVM+0x2d0>)
    2288:	47b8      	blx	r7
	uTXByte(Debug_COM, ' ');
    228a:	2120      	movs	r1, #32
    228c:	4862      	ldr	r0, [pc, #392]	; (2418 <Load_LoRa_Profile_in_NVM+0x2d0>)
    228e:	47b0      	blx	r6
	uart_send_ascii_byte(Debug_COM, tmp_page_buffer[tmp_LORA->NVM_offset_Value + 2]);
    2290:	5d63      	ldrb	r3, [r4, r5]
    2292:	aa02      	add	r2, sp, #8
    2294:	4694      	mov	ip, r2
    2296:	4463      	add	r3, ip
    2298:	7899      	ldrb	r1, [r3, #2]
    229a:	485f      	ldr	r0, [pc, #380]	; (2418 <Load_LoRa_Profile_in_NVM+0x2d0>)
    229c:	47b8      	blx	r7
	uTXByte(Debug_COM, ' ');
    229e:	2120      	movs	r1, #32
    22a0:	485d      	ldr	r0, [pc, #372]	; (2418 <Load_LoRa_Profile_in_NVM+0x2d0>)
    22a2:	47b0      	blx	r6
	uart_send_ascii_byte(Debug_COM, tmp_page_buffer[tmp_LORA->NVM_offset_Value + 3]);
    22a4:	5d63      	ldrb	r3, [r4, r5]
    22a6:	aa02      	add	r2, sp, #8
    22a8:	4694      	mov	ip, r2
    22aa:	4463      	add	r3, ip
    22ac:	78d9      	ldrb	r1, [r3, #3]
    22ae:	485a      	ldr	r0, [pc, #360]	; (2418 <Load_LoRa_Profile_in_NVM+0x2d0>)
    22b0:	47b8      	blx	r7
	uart_send_ascii_byte(Debug_COM, tmp_page_buffer[tmp_LORA->NVM_offset_Value + 4]);
    22b2:	5d63      	ldrb	r3, [r4, r5]
    22b4:	aa02      	add	r2, sp, #8
    22b6:	4694      	mov	ip, r2
    22b8:	4463      	add	r3, ip
    22ba:	7919      	ldrb	r1, [r3, #4]
    22bc:	4856      	ldr	r0, [pc, #344]	; (2418 <Load_LoRa_Profile_in_NVM+0x2d0>)
    22be:	47b8      	blx	r7
	uart_send_ascii_byte(Debug_COM, tmp_page_buffer[tmp_LORA->NVM_offset_Value + 5]);
    22c0:	5d63      	ldrb	r3, [r4, r5]
    22c2:	aa02      	add	r2, sp, #8
    22c4:	4694      	mov	ip, r2
    22c6:	4463      	add	r3, ip
    22c8:	7959      	ldrb	r1, [r3, #5]
    22ca:	4853      	ldr	r0, [pc, #332]	; (2418 <Load_LoRa_Profile_in_NVM+0x2d0>)
    22cc:	47b8      	blx	r7
	uTXByte(Debug_COM, ' ');
    22ce:	2120      	movs	r1, #32
    22d0:	4851      	ldr	r0, [pc, #324]	; (2418 <Load_LoRa_Profile_in_NVM+0x2d0>)
    22d2:	47b0      	blx	r6
	uart_send_ascii_byte(Debug_COM, tmp_page_buffer[tmp_LORA->NVM_offset_Value + 6]);
    22d4:	5d63      	ldrb	r3, [r4, r5]
    22d6:	aa02      	add	r2, sp, #8
    22d8:	4694      	mov	ip, r2
    22da:	4463      	add	r3, ip
    22dc:	7999      	ldrb	r1, [r3, #6]
    22de:	484e      	ldr	r0, [pc, #312]	; (2418 <Load_LoRa_Profile_in_NVM+0x2d0>)
    22e0:	47b8      	blx	r7
	uTXByte(Debug_COM, ' ');
    22e2:	2120      	movs	r1, #32
    22e4:	484c      	ldr	r0, [pc, #304]	; (2418 <Load_LoRa_Profile_in_NVM+0x2d0>)
    22e6:	47b0      	blx	r6
	uart_send_ascii_byte(Debug_COM, tmp_page_buffer[tmp_LORA->NVM_offset_Value + 7]);
    22e8:	5d63      	ldrb	r3, [r4, r5]
    22ea:	aa02      	add	r2, sp, #8
    22ec:	4694      	mov	ip, r2
    22ee:	4463      	add	r3, ip
    22f0:	79d9      	ldrb	r1, [r3, #7]
    22f2:	4849      	ldr	r0, [pc, #292]	; (2418 <Load_LoRa_Profile_in_NVM+0x2d0>)
    22f4:	47b8      	blx	r7
	uTXByte(Debug_COM, ' ');
    22f6:	2120      	movs	r1, #32
    22f8:	4847      	ldr	r0, [pc, #284]	; (2418 <Load_LoRa_Profile_in_NVM+0x2d0>)
    22fa:	47b0      	blx	r6
	uart_send_ascii_byte(Debug_COM, tmp_LORA->UserLoRaID[0]);
    22fc:	7961      	ldrb	r1, [r4, #5]
    22fe:	b2c9      	uxtb	r1, r1
    2300:	4845      	ldr	r0, [pc, #276]	; (2418 <Load_LoRa_Profile_in_NVM+0x2d0>)
    2302:	47b8      	blx	r7
	uart_send_ascii_byte(Debug_COM, tmp_LORA->UserLoRaID[1]);
    2304:	79a1      	ldrb	r1, [r4, #6]
    2306:	b2c9      	uxtb	r1, r1
    2308:	4843      	ldr	r0, [pc, #268]	; (2418 <Load_LoRa_Profile_in_NVM+0x2d0>)
    230a:	47b8      	blx	r7
	uart_send_ascii_byte(Debug_COM, tmp_LORA->UserLoRaID[2]);
    230c:	79e1      	ldrb	r1, [r4, #7]
    230e:	b2c9      	uxtb	r1, r1
    2310:	4841      	ldr	r0, [pc, #260]	; (2418 <Load_LoRa_Profile_in_NVM+0x2d0>)
    2312:	47b8      	blx	r7
	uart_send_ascii_byte(Debug_COM, tmp_LORA->UserLoRaID[3]);
    2314:	7a21      	ldrb	r1, [r4, #8]
    2316:	b2c9      	uxtb	r1, r1
    2318:	483f      	ldr	r0, [pc, #252]	; (2418 <Load_LoRa_Profile_in_NVM+0x2d0>)
    231a:	47b8      	blx	r7
	uTXByte(Debug_COM, ' ');
    231c:	2120      	movs	r1, #32
    231e:	483e      	ldr	r0, [pc, #248]	; (2418 <Load_LoRa_Profile_in_NVM+0x2d0>)
    2320:	47b0      	blx	r6
	uart_send_ascii_byte(Debug_COM, tmp_LORA->PLC_Flag);
    2322:	7c21      	ldrb	r1, [r4, #16]
    2324:	b2c9      	uxtb	r1, r1
    2326:	483c      	ldr	r0, [pc, #240]	; (2418 <Load_LoRa_Profile_in_NVM+0x2d0>)
    2328:	47b8      	blx	r7
	uTXByte(Debug_COM, 0x0d);
    232a:	210d      	movs	r1, #13
    232c:	483a      	ldr	r0, [pc, #232]	; (2418 <Load_LoRa_Profile_in_NVM+0x2d0>)
    232e:	47b0      	blx	r6
	
}
    2330:	b013      	add	sp, #76	; 0x4c
    2332:	bc3c      	pop	{r2, r3, r4, r5}
    2334:	4690      	mov	r8, r2
    2336:	4699      	mov	r9, r3
    2338:	46a2      	mov	sl, r4
    233a:	46ab      	mov	fp, r5
    233c:	bdf0      	pop	{r4, r5, r6, r7, pc}
		tmp_LORA->MyLoRaPower = tmp_LORA->MyLoRaTmp[Write_LoRa_Mode_FQ_Index][7];
    233e:	23c5      	movs	r3, #197	; 0xc5
    2340:	5ce3      	ldrb	r3, [r4, r3]
    2342:	b2db      	uxtb	r3, r3
    2344:	73a3      	strb	r3, [r4, #14]
	tmp_LORA->MyLoRaSF = tmp_page_buffer[tmp_LORA->NVM_offset_Value + 2];
    2346:	238e      	movs	r3, #142	; 0x8e
    2348:	009b      	lsls	r3, r3, #2
    234a:	5ce3      	ldrb	r3, [r4, r3]
    234c:	a902      	add	r1, sp, #8
    234e:	468c      	mov	ip, r1
    2350:	4463      	add	r3, ip
    2352:	789b      	ldrb	r3, [r3, #2]
    2354:	73e3      	strb	r3, [r4, #15]
		tmp_LORA->MyLoRaSF = tmp_LORA->MyLoRaTmp[Write_LoRa_Setting_Index][5];
    2356:	23de      	movs	r3, #222	; 0xde
    2358:	5ce3      	ldrb	r3, [r4, r3]
    235a:	b2db      	uxtb	r3, r3
    235c:	73e3      	strb	r3, [r4, #15]
    235e:	e721      	b.n	21a4 <Load_LoRa_Profile_in_NVM+0x5c>
		tmp_LORA->MyLoRaFQ.byte[2] = tmp_LORA->MyLoRaTmp[Write_LoRa_Mode_FQ_Index][4];
    2360:	23c2      	movs	r3, #194	; 0xc2
    2362:	5ce3      	ldrb	r3, [r4, r3]
    2364:	b2db      	uxtb	r3, r3
    2366:	75a3      	strb	r3, [r4, #22]
		tmp_LORA->MyLoRaFQ.byte[1] = tmp_LORA->MyLoRaTmp[Write_LoRa_Mode_FQ_Index][5];
    2368:	23c3      	movs	r3, #195	; 0xc3
    236a:	5ce3      	ldrb	r3, [r4, r3]
    236c:	b2db      	uxtb	r3, r3
    236e:	7563      	strb	r3, [r4, #21]
		tmp_LORA->MyLoRaFQ.byte[0] = tmp_LORA->MyLoRaTmp[Write_LoRa_Mode_FQ_Index][6];
    2370:	23c4      	movs	r3, #196	; 0xc4
    2372:	5ce3      	ldrb	r3, [r4, r3]
    2374:	b2db      	uxtb	r3, r3
    2376:	7523      	strb	r3, [r4, #20]
	tmp_LORA->Lora_Debug_Flag = tmp_page_buffer[tmp_LORA->NVM_offset_Value + 6];
    2378:	218e      	movs	r1, #142	; 0x8e
    237a:	0089      	lsls	r1, r1, #2
    237c:	5c63      	ldrb	r3, [r4, r1]
    237e:	a802      	add	r0, sp, #8
    2380:	4684      	mov	ip, r0
    2382:	4463      	add	r3, ip
    2384:	7998      	ldrb	r0, [r3, #6]
    2386:	2388      	movs	r3, #136	; 0x88
    2388:	009b      	lsls	r3, r3, #2
    238a:	54e0      	strb	r0, [r4, r3]
		tmp_LORA->Lora_Debug_Flag = NeedDebug;
    238c:	2001      	movs	r0, #1
    238e:	54e0      	strb	r0, [r4, r3]
	tmp_LORA->Lora_Debug_Flag = tmp_page_buffer[tmp_LORA->NVM_offset_Value + 6];
    2390:	5c61      	ldrb	r1, [r4, r1]
    2392:	4461      	add	r1, ip
    2394:	7989      	ldrb	r1, [r1, #6]
    2396:	54e1      	strb	r1, [r4, r3]
		tmp_LORA->Lora_Debug_Flag = NeedDebug;
    2398:	54e0      	strb	r0, [r4, r3]
    239a:	e72e      	b.n	21fa <Load_LoRa_Profile_in_NVM+0xb2>
		tmp_LORA->PLC_Flag = NoPLC;
    239c:	2300      	movs	r3, #0
    239e:	7423      	strb	r3, [r4, #16]
    23a0:	e74b      	b.n	223a <Load_LoRa_Profile_in_NVM+0xf2>
    23a2:	2632      	movs	r6, #50	; 0x32
    23a4:	ab02      	add	r3, sp, #8
    23a6:	469c      	mov	ip, r3
    23a8:	4466      	add	r6, ip
	if(tmp_LORA == LORA01)
    23aa:	2500      	movs	r5, #0
			tmp16.byte[0] = tmp_page_buffer[50 + (i * 2)];
    23ac:	27ff      	movs	r7, #255	; 0xff
			if(tmp16.word != 0xffff)
    23ae:	4b1d      	ldr	r3, [pc, #116]	; (2424 <Load_LoRa_Profile_in_NVM+0x2dc>)
    23b0:	469b      	mov	fp, r3
			CH_Formula_base[i] = CH_Formula_base[i] / 1600;
    23b2:	4b1d      	ldr	r3, [pc, #116]	; (2428 <Load_LoRa_Profile_in_NVM+0x2e0>)
    23b4:	469a      	mov	sl, r3
    23b6:	4b1d      	ldr	r3, [pc, #116]	; (242c <Load_LoRa_Profile_in_NVM+0x2e4>)
    23b8:	4699      	mov	r9, r3
    23ba:	46a0      	mov	r8, r4
    23bc:	e00f      	b.n	23de <Load_LoRa_Profile_in_NVM+0x296>
				CH_Formula[i] = 0x00;	
    23be:	4b1c      	ldr	r3, [pc, #112]	; (2430 <Load_LoRa_Profile_in_NVM+0x2e8>)
    23c0:	18eb      	adds	r3, r5, r3
    23c2:	2200      	movs	r2, #0
    23c4:	601a      	str	r2, [r3, #0]
			CH_Formula_base[i] = CH_Formula_base[i] / 1600;
    23c6:	4653      	mov	r3, sl
    23c8:	18ec      	adds	r4, r5, r3
			CH_Formula_base[i] = tmp16.word * 10000;
    23ca:	4b1a      	ldr	r3, [pc, #104]	; (2434 <Load_LoRa_Profile_in_NVM+0x2ec>)
    23cc:	4358      	muls	r0, r3
			CH_Formula_base[i] = CH_Formula_base[i] / 1600;
    23ce:	21c8      	movs	r1, #200	; 0xc8
    23d0:	00c9      	lsls	r1, r1, #3
    23d2:	47c8      	blx	r9
    23d4:	6020      	str	r0, [r4, #0]
    23d6:	3602      	adds	r6, #2
    23d8:	3504      	adds	r5, #4
		for (unsigned char i = 0; i < 4; i++)
    23da:	2d10      	cmp	r5, #16
    23dc:	d00f      	beq.n	23fe <Load_LoRa_Profile_in_NVM+0x2b6>
			tmp16.byte[0] = tmp_page_buffer[50 + (i * 2)];
    23de:	7830      	ldrb	r0, [r6, #0]
    23e0:	9b00      	ldr	r3, [sp, #0]
    23e2:	43bb      	bics	r3, r7
    23e4:	4318      	orrs	r0, r3
			tmp16.byte[1] = tmp_page_buffer[51 + (i * 2)];
    23e6:	7873      	ldrb	r3, [r6, #1]
    23e8:	021b      	lsls	r3, r3, #8
    23ea:	4038      	ands	r0, r7
    23ec:	4318      	orrs	r0, r3
    23ee:	466b      	mov	r3, sp
    23f0:	8018      	strh	r0, [r3, #0]
			if(tmp16.word != 0xffff)
    23f2:	b280      	uxth	r0, r0
    23f4:	4558      	cmp	r0, fp
    23f6:	d0e2      	beq.n	23be <Load_LoRa_Profile_in_NVM+0x276>
				CH_Formula[i] = tmp16.word;
    23f8:	4b0d      	ldr	r3, [pc, #52]	; (2430 <Load_LoRa_Profile_in_NVM+0x2e8>)
    23fa:	5158      	str	r0, [r3, r5]
    23fc:	e7e3      	b.n	23c6 <Load_LoRa_Profile_in_NVM+0x27e>
    23fe:	4644      	mov	r4, r8
    2400:	e720      	b.n	2244 <Load_LoRa_Profile_in_NVM+0xfc>
    2402:	46c0      	nop			; (mov r8, r8)
    2404:	000002d5 	.word	0x000002d5
    2408:	20002849 	.word	0x20002849
    240c:	00020d00 	.word	0x00020d00
    2410:	2000287c 	.word	0x2000287c
    2414:	20001944 	.word	0x20001944
    2418:	200002f0 	.word	0x200002f0
    241c:	00005535 	.word	0x00005535
    2420:	00005555 	.word	0x00005555
    2424:	0000ffff 	.word	0x0000ffff
    2428:	200016e4 	.word	0x200016e4
    242c:	000071f9 	.word	0x000071f9
    2430:	20001948 	.word	0x20001948
    2434:	00002710 	.word	0x00002710

00002438 <Save_LoRa_Profile_in_NVM>:

void Save_LoRa_Profile_in_NVM(volatile LORA_DEFINE_t *tmp_LORA)
{
    2438:	b570      	push	{r4, r5, r6, lr}
    243a:	b090      	sub	sp, #64	; 0x40
    243c:	0004      	movs	r4, r0
	UINT16u_t tmp16;
	uint8_t tmp_page_buffer[NVMCTRL_PAGE_SIZE];
	do
	{
		error_code = nvm_read_buffer(
    243e:	4e3a      	ldr	r6, [pc, #232]	; (2528 <Save_LoRa_Profile_in_NVM+0xf0>)
    2440:	4d3a      	ldr	r5, [pc, #232]	; (252c <Save_LoRa_Profile_in_NVM+0xf4>)
    2442:	2240      	movs	r2, #64	; 0x40
    2444:	4669      	mov	r1, sp
    2446:	483a      	ldr	r0, [pc, #232]	; (2530 <Save_LoRa_Profile_in_NVM+0xf8>)
    2448:	47b0      	blx	r6
    244a:	7028      	strb	r0, [r5, #0]
		525  * NVMCTRL_ROW_PAGES * NVMCTRL_PAGE_SIZE,
		tmp_page_buffer, NVMCTRL_PAGE_SIZE);
	} while (error_code == STATUS_BUSY);
    244c:	2805      	cmp	r0, #5
    244e:	d0f8      	beq.n	2442 <Save_LoRa_Profile_in_NVM+0xa>
	
	tmp_page_buffer[tmp_LORA->NVM_offset_Value] = 0x55;
    2450:	238e      	movs	r3, #142	; 0x8e
    2452:	009b      	lsls	r3, r3, #2
    2454:	5ce2      	ldrb	r2, [r4, r3]
    2456:	b2d2      	uxtb	r2, r2
    2458:	2155      	movs	r1, #85	; 0x55
    245a:	4668      	mov	r0, sp
    245c:	5481      	strb	r1, [r0, r2]
	tmp_page_buffer[tmp_LORA->NVM_offset_Value + 1] = tmp_LORA->MyLoRaPower;
    245e:	5ce2      	ldrb	r2, [r4, r3]
    2460:	7ba1      	ldrb	r1, [r4, #14]
    2462:	446a      	add	r2, sp
    2464:	7051      	strb	r1, [r2, #1]
	tmp_page_buffer[tmp_LORA->NVM_offset_Value + 2] = tmp_LORA->MyLoRaSF;
    2466:	5ce2      	ldrb	r2, [r4, r3]
    2468:	7be1      	ldrb	r1, [r4, #15]
    246a:	446a      	add	r2, sp
    246c:	7091      	strb	r1, [r2, #2]
	tmp_page_buffer[tmp_LORA->NVM_offset_Value + 3] = tmp_LORA->MyLoRaFQ.byte[2];
    246e:	5ce2      	ldrb	r2, [r4, r3]
    2470:	7da1      	ldrb	r1, [r4, #22]
    2472:	446a      	add	r2, sp
    2474:	70d1      	strb	r1, [r2, #3]
	tmp_page_buffer[tmp_LORA->NVM_offset_Value + 4] = tmp_LORA->MyLoRaFQ.byte[1];
    2476:	5ce2      	ldrb	r2, [r4, r3]
    2478:	7d61      	ldrb	r1, [r4, #21]
    247a:	446a      	add	r2, sp
    247c:	7111      	strb	r1, [r2, #4]
	tmp_page_buffer[tmp_LORA->NVM_offset_Value + 5] = tmp_LORA->MyLoRaFQ.byte[0];
    247e:	5ce2      	ldrb	r2, [r4, r3]
    2480:	7d21      	ldrb	r1, [r4, #20]
    2482:	446a      	add	r2, sp
    2484:	7151      	strb	r1, [r2, #5]
	tmp_page_buffer[tmp_LORA->NVM_offset_Value + 6] = tmp_LORA->Lora_Debug_Flag;
    2486:	5ce2      	ldrb	r2, [r4, r3]
    2488:	2188      	movs	r1, #136	; 0x88
    248a:	0089      	lsls	r1, r1, #2
    248c:	5c61      	ldrb	r1, [r4, r1]
    248e:	446a      	add	r2, sp
    2490:	7191      	strb	r1, [r2, #6]
	tmp_page_buffer[tmp_LORA->NVM_offset_Value + 7] = RESET_COUNT + 1;
    2492:	5ce2      	ldrb	r2, [r4, r3]
    2494:	446a      	add	r2, sp
    2496:	4927      	ldr	r1, [pc, #156]	; (2534 <Save_LoRa_Profile_in_NVM+0xfc>)
    2498:	7809      	ldrb	r1, [r1, #0]
    249a:	3101      	adds	r1, #1
    249c:	71d1      	strb	r1, [r2, #7]
	tmp_page_buffer[tmp_LORA->NVM_offset_Value + 8] = tmp_LORA->MyLoRaID[0];
    249e:	5ce2      	ldrb	r2, [r4, r3]
    24a0:	7861      	ldrb	r1, [r4, #1]
    24a2:	446a      	add	r2, sp
    24a4:	7211      	strb	r1, [r2, #8]
	tmp_page_buffer[tmp_LORA->NVM_offset_Value + 9] = tmp_LORA->MyLoRaID[1];
    24a6:	5ce2      	ldrb	r2, [r4, r3]
    24a8:	78a1      	ldrb	r1, [r4, #2]
    24aa:	446a      	add	r2, sp
    24ac:	7251      	strb	r1, [r2, #9]
	tmp_page_buffer[tmp_LORA->NVM_offset_Value + 10] = tmp_LORA->MyLoRaID[2];
    24ae:	5ce2      	ldrb	r2, [r4, r3]
    24b0:	78e1      	ldrb	r1, [r4, #3]
    24b2:	446a      	add	r2, sp
    24b4:	7291      	strb	r1, [r2, #10]
	tmp_page_buffer[tmp_LORA->NVM_offset_Value + 11] = tmp_LORA->MyLoRaID[3];
    24b6:	5ce2      	ldrb	r2, [r4, r3]
    24b8:	7921      	ldrb	r1, [r4, #4]
    24ba:	446a      	add	r2, sp
    24bc:	72d1      	strb	r1, [r2, #11]
	tmp_page_buffer[tmp_LORA->NVM_offset_Value + 12] = tmp_LORA->PLC_Flag;
    24be:	5ce3      	ldrb	r3, [r4, r3]
    24c0:	7c22      	ldrb	r2, [r4, #16]
    24c2:	446b      	add	r3, sp
    24c4:	731a      	strb	r2, [r3, #12]
	
	if(tmp_LORA == LORA01)
    24c6:	4b1c      	ldr	r3, [pc, #112]	; (2538 <Save_LoRa_Profile_in_NVM+0x100>)
    24c8:	681b      	ldr	r3, [r3, #0]
    24ca:	429c      	cmp	r4, r3
    24cc:	d012      	beq.n	24f4 <Save_LoRa_Profile_in_NVM+0xbc>
		tmp_page_buffer[57] = tmp16.byte[1];
	}
	
	do
	{
		error_code = nvm_erase_row(
    24ce:	4e18      	ldr	r6, [pc, #96]	; (2530 <Save_LoRa_Profile_in_NVM+0xf8>)
    24d0:	4d1a      	ldr	r5, [pc, #104]	; (253c <Save_LoRa_Profile_in_NVM+0x104>)
    24d2:	4c16      	ldr	r4, [pc, #88]	; (252c <Save_LoRa_Profile_in_NVM+0xf4>)
    24d4:	0030      	movs	r0, r6
    24d6:	47a8      	blx	r5
    24d8:	7020      	strb	r0, [r4, #0]
		525 * NVMCTRL_ROW_PAGES * NVMCTRL_PAGE_SIZE);
	} while (error_code == STATUS_BUSY);
    24da:	2805      	cmp	r0, #5
    24dc:	d0fa      	beq.n	24d4 <Save_LoRa_Profile_in_NVM+0x9c>
	
	do
	{
		error_code = nvm_write_buffer(
    24de:	4d18      	ldr	r5, [pc, #96]	; (2540 <Save_LoRa_Profile_in_NVM+0x108>)
    24e0:	4c12      	ldr	r4, [pc, #72]	; (252c <Save_LoRa_Profile_in_NVM+0xf4>)
    24e2:	2240      	movs	r2, #64	; 0x40
    24e4:	4669      	mov	r1, sp
    24e6:	4812      	ldr	r0, [pc, #72]	; (2530 <Save_LoRa_Profile_in_NVM+0xf8>)
    24e8:	47a8      	blx	r5
    24ea:	7020      	strb	r0, [r4, #0]
		525  * NVMCTRL_ROW_PAGES * NVMCTRL_PAGE_SIZE,
		tmp_page_buffer, NVMCTRL_PAGE_SIZE);
	} while (error_code == STATUS_BUSY);
    24ec:	2805      	cmp	r0, #5
    24ee:	d0f8      	beq.n	24e2 <Save_LoRa_Profile_in_NVM+0xaa>
}
    24f0:	b010      	add	sp, #64	; 0x40
    24f2:	bd70      	pop	{r4, r5, r6, pc}
		tmp16.word = CH_Formula[0];
    24f4:	4b13      	ldr	r3, [pc, #76]	; (2544 <Save_LoRa_Profile_in_NVM+0x10c>)
    24f6:	681a      	ldr	r2, [r3, #0]
		tmp_page_buffer[50] = tmp16.byte[0];
    24f8:	2132      	movs	r1, #50	; 0x32
    24fa:	5442      	strb	r2, [r0, r1]
		tmp_page_buffer[51] = tmp16.byte[1];
    24fc:	0a12      	lsrs	r2, r2, #8
    24fe:	3101      	adds	r1, #1
    2500:	5442      	strb	r2, [r0, r1]
		tmp16.word = CH_Formula[1];
    2502:	685a      	ldr	r2, [r3, #4]
		tmp_page_buffer[52] = tmp16.byte[0];
    2504:	3101      	adds	r1, #1
    2506:	5442      	strb	r2, [r0, r1]
		tmp_page_buffer[53] = tmp16.byte[1];
    2508:	0a12      	lsrs	r2, r2, #8
    250a:	3101      	adds	r1, #1
    250c:	5442      	strb	r2, [r0, r1]
		tmp16.word = CH_Formula[2];
    250e:	689a      	ldr	r2, [r3, #8]
		tmp_page_buffer[54] = tmp16.byte[0];
    2510:	3101      	adds	r1, #1
    2512:	5442      	strb	r2, [r0, r1]
		tmp_page_buffer[55] = tmp16.byte[1];
    2514:	0a12      	lsrs	r2, r2, #8
    2516:	3101      	adds	r1, #1
    2518:	5442      	strb	r2, [r0, r1]
		tmp16.word = CH_Formula[3];
    251a:	68db      	ldr	r3, [r3, #12]
		tmp_page_buffer[56] = tmp16.byte[0];
    251c:	2238      	movs	r2, #56	; 0x38
    251e:	5483      	strb	r3, [r0, r2]
		tmp_page_buffer[57] = tmp16.byte[1];
    2520:	0a1b      	lsrs	r3, r3, #8
    2522:	3201      	adds	r2, #1
    2524:	5483      	strb	r3, [r0, r2]
    2526:	e7d2      	b.n	24ce <Save_LoRa_Profile_in_NVM+0x96>
    2528:	000002d5 	.word	0x000002d5
    252c:	20002849 	.word	0x20002849
    2530:	00020d00 	.word	0x00020d00
    2534:	2000287c 	.word	0x2000287c
    2538:	20001944 	.word	0x20001944
    253c:	00000341 	.word	0x00000341
    2540:	0000022d 	.word	0x0000022d
    2544:	20001948 	.word	0x20001948

00002548 <Save_List_in_NVM>:


void Save_List_in_NVM(volatile LORA_Dev_List_t *tmp_LORA_Dev_List_Index)
{
    2548:	b5f0      	push	{r4, r5, r6, r7, lr}
    254a:	46d6      	mov	lr, sl
    254c:	4647      	mov	r7, r8
    254e:	b580      	push	{r7, lr}
    2550:	4c20      	ldr	r4, [pc, #128]	; (25d4 <Save_List_in_NVM+0x8c>)
    2552:	44a5      	add	sp, r4
    2554:	ae02      	add	r6, sp, #8
    2556:	a998      	add	r1, sp, #608	; 0x260
    2558:	0033      	movs	r3, r6
	// Dev_List (二維) 轉換成 page_buffer (一維)
	//======================================
	for( i = 0; i < Dev_Item_MAX; i++)
	{
		j = i * Dev_List_Data_Item_Max;
		page_buffer[j] = tmp_LORA_Dev_List_Index[i].Dev_Number;
    255a:	7802      	ldrb	r2, [r0, #0]
    255c:	701a      	strb	r2, [r3, #0]
		page_buffer[j+1] = tmp_LORA_Dev_List_Index[i].Dev_En_Flag;
    255e:	7842      	ldrb	r2, [r0, #1]
    2560:	705a      	strb	r2, [r3, #1]
		page_buffer[j+2] = tmp_LORA_Dev_List_Index[i].MAC_ID.byte[0];
    2562:	7902      	ldrb	r2, [r0, #4]
    2564:	709a      	strb	r2, [r3, #2]
		page_buffer[j+3] = tmp_LORA_Dev_List_Index[i].MAC_ID.byte[1];
    2566:	7942      	ldrb	r2, [r0, #5]
    2568:	70da      	strb	r2, [r3, #3]
		page_buffer[j+4] = tmp_LORA_Dev_List_Index[i].MAC_ID.byte[2];
    256a:	7982      	ldrb	r2, [r0, #6]
    256c:	711a      	strb	r2, [r3, #4]
		page_buffer[j+5] = tmp_LORA_Dev_List_Index[i].MAC_ID.byte[3];
    256e:	79c2      	ldrb	r2, [r0, #7]
    2570:	715a      	strb	r2, [r3, #5]
    2572:	3010      	adds	r0, #16
    2574:	3306      	adds	r3, #6
	for( i = 0; i < Dev_Item_MAX; i++)
    2576:	428b      	cmp	r3, r1
    2578:	d1ef      	bne.n	255a <Save_List_in_NVM+0x12>
    257a:	23fa      	movs	r3, #250	; 0xfa
    257c:	025b      	lsls	r3, r3, #9
    257e:	9301      	str	r3, [sp, #4]
		//======================================
		// page_buffer 分次存到 tmp_page_buffer，準備存到NVM使用
		//======================================
		for(i = 0; i < NVMCTRL_PAGE_SIZE; i++)
		{
			tmp_page_buffer[i] = page_buffer[i + j];
    2580:	aca2      	add	r4, sp, #648	; 0x288
		//======================================
		// 儲存前要先erase
		//======================================
		do
		{
			error_code = nvm_erase_row(
    2582:	4b15      	ldr	r3, [pc, #84]	; (25d8 <Save_List_in_NVM+0x90>)
    2584:	4698      	mov	r8, r3
    2586:	4f15      	ldr	r7, [pc, #84]	; (25dc <Save_List_in_NVM+0x94>)
{
    2588:	2300      	movs	r3, #0
			tmp_page_buffer[i] = page_buffer[i + j];
    258a:	5cf2      	ldrb	r2, [r6, r3]
    258c:	551a      	strb	r2, [r3, r4]
		for(i = 0; i < NVMCTRL_PAGE_SIZE; i++)
    258e:	3301      	adds	r3, #1
    2590:	2b40      	cmp	r3, #64	; 0x40
    2592:	d1fa      	bne.n	258a <Save_List_in_NVM+0x42>
			error_code = nvm_erase_row(
    2594:	9801      	ldr	r0, [sp, #4]
    2596:	47c0      	blx	r8
    2598:	7038      	strb	r0, [r7, #0]
			(500 + k) * NVMCTRL_ROW_PAGES * NVMCTRL_PAGE_SIZE);
		} while (error_code == STATUS_BUSY);
    259a:	2805      	cmp	r0, #5
    259c:	d0fa      	beq.n	2594 <Save_List_in_NVM+0x4c>
		//======================================
		// 開始儲存寫入
		//======================================
		do
		{
			error_code = nvm_write_buffer(
    259e:	4b10      	ldr	r3, [pc, #64]	; (25e0 <Save_List_in_NVM+0x98>)
    25a0:	469a      	mov	sl, r3
    25a2:	4d0e      	ldr	r5, [pc, #56]	; (25dc <Save_List_in_NVM+0x94>)
    25a4:	2240      	movs	r2, #64	; 0x40
    25a6:	0021      	movs	r1, r4
    25a8:	9801      	ldr	r0, [sp, #4]
    25aa:	47d0      	blx	sl
    25ac:	7028      	strb	r0, [r5, #0]
			(500 + k)  * NVMCTRL_ROW_PAGES * NVMCTRL_PAGE_SIZE,
			tmp_page_buffer, NVMCTRL_PAGE_SIZE);
		} while (error_code == STATUS_BUSY);
    25ae:	2805      	cmp	r0, #5
    25b0:	d0f8      	beq.n	25a4 <Save_List_in_NVM+0x5c>
    25b2:	9b01      	ldr	r3, [sp, #4]
    25b4:	3301      	adds	r3, #1
    25b6:	33ff      	adds	r3, #255	; 0xff
    25b8:	001a      	movs	r2, r3
    25ba:	9301      	str	r3, [sp, #4]
    25bc:	3640      	adds	r6, #64	; 0x40
	for(j = 0; j < (NVMCTRL_PAGE_SIZE * NVM_Dev_List_Use_Page_MAX); j = j + NVMCTRL_PAGE_SIZE)
    25be:	23ff      	movs	r3, #255	; 0xff
    25c0:	025b      	lsls	r3, r3, #9
    25c2:	429a      	cmp	r2, r3
    25c4:	d1e0      	bne.n	2588 <Save_List_in_NVM+0x40>
		// K = page count，每+1 = 256 位置
		// 因為位置計算公式為 NVMCTRL_ROW_PAGES(4) * NVMCTRL_PAGE_SIZE (64) = 256個位置
		//======================================
		k++;
	}
}
    25c6:	23b3      	movs	r3, #179	; 0xb3
    25c8:	009b      	lsls	r3, r3, #2
    25ca:	449d      	add	sp, r3
    25cc:	bc0c      	pop	{r2, r3}
    25ce:	4690      	mov	r8, r2
    25d0:	469a      	mov	sl, r3
    25d2:	bdf0      	pop	{r4, r5, r6, r7, pc}
    25d4:	fffffd34 	.word	0xfffffd34
    25d8:	00000341 	.word	0x00000341
    25dc:	20002849 	.word	0x20002849
    25e0:	0000022d 	.word	0x0000022d

000025e4 <Save_Dev_Time_into_NVM>:




void Save_Dev_Time_into_NVM(volatile LORA_Dev_List_t *tmp_LORA_Dev_List_Index)
{
    25e4:	b5f0      	push	{r4, r5, r6, r7, lr}
    25e6:	46d6      	mov	lr, sl
    25e8:	4647      	mov	r7, r8
    25ea:	b580      	push	{r7, lr}
    25ec:	b0d3      	sub	sp, #332	; 0x14c
    25ee:	ae02      	add	r6, sp, #8
    25f0:	a934      	add	r1, sp, #208	; 0xd0
    25f2:	0033      	movs	r3, r6
	// Dev_List (二維) 轉換成 page_buffer (一維)
	//======================================
	for( i = 0; i < Dev_Item_MAX; i++)
	{
		j = i * Dev_Time_Data_Item_Max;
		page_buffer[j] = tmp_LORA_Dev_List_Index[i].Dev_Time.byte[1];
    25f4:	7a42      	ldrb	r2, [r0, #9]
    25f6:	701a      	strb	r2, [r3, #0]
		page_buffer[j+1] = tmp_LORA_Dev_List_Index[i].Dev_Time.byte[0];
    25f8:	7a02      	ldrb	r2, [r0, #8]
    25fa:	705a      	strb	r2, [r3, #1]
    25fc:	3010      	adds	r0, #16
    25fe:	3302      	adds	r3, #2
	for( i = 0; i < Dev_Item_MAX; i++)
    2600:	428b      	cmp	r3, r1
    2602:	d1f7      	bne.n	25f4 <Save_Dev_Time_into_NVM+0x10>
    2604:	4b14      	ldr	r3, [pc, #80]	; (2658 <Save_Dev_Time_into_NVM+0x74>)
    2606:	9301      	str	r3, [sp, #4]
		//======================================
		// page_buffer 分次存到 tmp_page_buffer，準備存到NVM使用
		//======================================
		for(i = 0; i < NVMCTRL_PAGE_SIZE; i++)
		{
			tmp_page_buffer[i] = page_buffer[i + j];
    2608:	ac42      	add	r4, sp, #264	; 0x108
		//======================================
		// 儲存前要先erase
		//======================================
		do
		{
			error_code = nvm_erase_row(
    260a:	4b14      	ldr	r3, [pc, #80]	; (265c <Save_Dev_Time_into_NVM+0x78>)
    260c:	4698      	mov	r8, r3
    260e:	4f14      	ldr	r7, [pc, #80]	; (2660 <Save_Dev_Time_into_NVM+0x7c>)
{
    2610:	2300      	movs	r3, #0
			tmp_page_buffer[i] = page_buffer[i + j];
    2612:	5cf2      	ldrb	r2, [r6, r3]
    2614:	551a      	strb	r2, [r3, r4]
		for(i = 0; i < NVMCTRL_PAGE_SIZE; i++)
    2616:	3301      	adds	r3, #1
    2618:	2b40      	cmp	r3, #64	; 0x40
    261a:	d1fa      	bne.n	2612 <Save_Dev_Time_into_NVM+0x2e>
			error_code = nvm_erase_row(
    261c:	9801      	ldr	r0, [sp, #4]
    261e:	47c0      	blx	r8
    2620:	7038      	strb	r0, [r7, #0]
			(526 + k) * NVMCTRL_ROW_PAGES * NVMCTRL_PAGE_SIZE);
		} while (error_code == STATUS_BUSY);
    2622:	2805      	cmp	r0, #5
    2624:	d0fa      	beq.n	261c <Save_Dev_Time_into_NVM+0x38>
		//======================================
		// 開始儲存寫入
		//======================================
		do
		{
			error_code = nvm_write_buffer(
    2626:	4b0f      	ldr	r3, [pc, #60]	; (2664 <Save_Dev_Time_into_NVM+0x80>)
    2628:	469a      	mov	sl, r3
    262a:	4d0d      	ldr	r5, [pc, #52]	; (2660 <Save_Dev_Time_into_NVM+0x7c>)
    262c:	2240      	movs	r2, #64	; 0x40
    262e:	0021      	movs	r1, r4
    2630:	9801      	ldr	r0, [sp, #4]
    2632:	47d0      	blx	sl
    2634:	7028      	strb	r0, [r5, #0]
			(526 + k)  * NVMCTRL_ROW_PAGES * NVMCTRL_PAGE_SIZE,
			tmp_page_buffer, NVMCTRL_PAGE_SIZE);
		} while (error_code == STATUS_BUSY);
    2636:	2805      	cmp	r0, #5
    2638:	d0f8      	beq.n	262c <Save_Dev_Time_into_NVM+0x48>
    263a:	9b01      	ldr	r3, [sp, #4]
    263c:	3301      	adds	r3, #1
    263e:	33ff      	adds	r3, #255	; 0xff
    2640:	001a      	movs	r2, r3
    2642:	9301      	str	r3, [sp, #4]
    2644:	3640      	adds	r6, #64	; 0x40
	for(j = 0; j < (NVMCTRL_PAGE_SIZE * NVM_List_Time_Use_Page_MAX); j = j + NVMCTRL_PAGE_SIZE)
    2646:	4b08      	ldr	r3, [pc, #32]	; (2668 <Save_Dev_Time_into_NVM+0x84>)
    2648:	429a      	cmp	r2, r3
    264a:	d1e1      	bne.n	2610 <Save_Dev_Time_into_NVM+0x2c>
		// K = page count，每+1 = 256 位置
		// 因為位置計算公式為 NVMCTRL_ROW_PAGES(4) * NVMCTRL_PAGE_SIZE (64) = 256個位置
		//======================================
		k++;
	}
}
    264c:	b053      	add	sp, #332	; 0x14c
    264e:	bc0c      	pop	{r2, r3}
    2650:	4690      	mov	r8, r2
    2652:	469a      	mov	sl, r3
    2654:	bdf0      	pop	{r4, r5, r6, r7, pc}
    2656:	46c0      	nop			; (mov r8, r8)
    2658:	00020e00 	.word	0x00020e00
    265c:	00000341 	.word	0x00000341
    2660:	20002849 	.word	0x20002849
    2664:	0000022d 	.word	0x0000022d
    2668:	00021200 	.word	0x00021200

0000266c <Load_Dev_Time_Form_NVM>:



void Load_Dev_Time_Form_NVM(volatile LORA_Dev_List_t *tmp_LORA_Dev_List_Index)
{
    266c:	b5f0      	push	{r4, r5, r6, r7, lr}
    266e:	46c6      	mov	lr, r8
    2670:	b500      	push	{lr}
    2672:	b0d2      	sub	sp, #328	; 0x148
    2674:	9001      	str	r0, [sp, #4]
    2676:	af02      	add	r7, sp, #8
    2678:	003c      	movs	r4, r7
    267a:	4b15      	ldr	r3, [pc, #84]	; (26d0 <Load_Dev_Time_Form_NVM+0x64>)
    267c:	9300      	str	r3, [sp, #0]
	k = 0;
	for(j = 0; j < (NVMCTRL_PAGE_SIZE * NVM_List_Time_Use_Page_MAX); j = j + NVMCTRL_PAGE_SIZE)
	{
		do
		{
			error_code = nvm_read_buffer(
    267e:	ad42      	add	r5, sp, #264	; 0x108
    2680:	4e14      	ldr	r6, [pc, #80]	; (26d4 <Load_Dev_Time_Form_NVM+0x68>)
    2682:	4b15      	ldr	r3, [pc, #84]	; (26d8 <Load_Dev_Time_Form_NVM+0x6c>)
    2684:	4698      	mov	r8, r3
    2686:	2240      	movs	r2, #64	; 0x40
    2688:	0029      	movs	r1, r5
    268a:	9800      	ldr	r0, [sp, #0]
    268c:	47b0      	blx	r6
    268e:	4643      	mov	r3, r8
    2690:	7018      	strb	r0, [r3, #0]
			(526 + k)  * NVMCTRL_ROW_PAGES * NVMCTRL_PAGE_SIZE,
			tmp_page_buffer, NVMCTRL_PAGE_SIZE);
		} while (error_code == STATUS_BUSY);
    2692:	2805      	cmp	r0, #5
    2694:	d0f7      	beq.n	2686 <Load_Dev_Time_Form_NVM+0x1a>
    2696:	2300      	movs	r3, #0
		
		for(i = 0; i < NVMCTRL_PAGE_SIZE; i++)
		{
			page_buffer[i + j] = tmp_page_buffer[i];
    2698:	5d5a      	ldrb	r2, [r3, r5]
    269a:	54e2      	strb	r2, [r4, r3]
		for(i = 0; i < NVMCTRL_PAGE_SIZE; i++)
    269c:	3301      	adds	r3, #1
    269e:	2b40      	cmp	r3, #64	; 0x40
    26a0:	d1fa      	bne.n	2698 <Load_Dev_Time_Form_NVM+0x2c>
    26a2:	3440      	adds	r4, #64	; 0x40
    26a4:	9b00      	ldr	r3, [sp, #0]
    26a6:	3301      	adds	r3, #1
    26a8:	33ff      	adds	r3, #255	; 0xff
    26aa:	001a      	movs	r2, r3
    26ac:	9300      	str	r3, [sp, #0]
	for(j = 0; j < (NVMCTRL_PAGE_SIZE * NVM_List_Time_Use_Page_MAX); j = j + NVMCTRL_PAGE_SIZE)
    26ae:	4b0b      	ldr	r3, [pc, #44]	; (26dc <Load_Dev_Time_Form_NVM+0x70>)
    26b0:	429a      	cmp	r2, r3
    26b2:	d1e8      	bne.n	2686 <Load_Dev_Time_Form_NVM+0x1a>
    26b4:	9c01      	ldr	r4, [sp, #4]
    26b6:	aa34      	add	r2, sp, #208	; 0xd0
	
	for( i = 0; i < Dev_Item_MAX; i++)
	{
		j = i * Dev_Time_Data_Item_Max;
		
		tmp_LORA_Dev_List_Index[i].Dev_Time.byte[1] = page_buffer[j];
    26b8:	783b      	ldrb	r3, [r7, #0]
    26ba:	7263      	strb	r3, [r4, #9]
		tmp_LORA_Dev_List_Index[i].Dev_Time.byte[0] = page_buffer[j+1];
    26bc:	787b      	ldrb	r3, [r7, #1]
    26be:	7223      	strb	r3, [r4, #8]
    26c0:	3702      	adds	r7, #2
    26c2:	3410      	adds	r4, #16
	for( i = 0; i < Dev_Item_MAX; i++)
    26c4:	4297      	cmp	r7, r2
    26c6:	d1f7      	bne.n	26b8 <Load_Dev_Time_Form_NVM+0x4c>
	}
}
    26c8:	b052      	add	sp, #328	; 0x148
    26ca:	bc04      	pop	{r2}
    26cc:	4690      	mov	r8, r2
    26ce:	bdf0      	pop	{r4, r5, r6, r7, pc}
    26d0:	00020e00 	.word	0x00020e00
    26d4:	000002d5 	.word	0x000002d5
    26d8:	20002849 	.word	0x20002849
    26dc:	00021200 	.word	0x00021200

000026e0 <Load_List_Form_NVM>:


void Load_List_Form_NVM(volatile LORA_Dev_List_t *tmp_LORA_Dev_List_Index)
{
    26e0:	b5f0      	push	{r4, r5, r6, r7, lr}
    26e2:	46c6      	mov	lr, r8
    26e4:	b500      	push	{lr}
    26e6:	4c1e      	ldr	r4, [pc, #120]	; (2760 <Load_List_Form_NVM+0x80>)
    26e8:	44a5      	add	sp, r4
    26ea:	9001      	str	r0, [sp, #4]
    26ec:	af02      	add	r7, sp, #8
    26ee:	003c      	movs	r4, r7
    26f0:	23fa      	movs	r3, #250	; 0xfa
    26f2:	025b      	lsls	r3, r3, #9
    26f4:	9300      	str	r3, [sp, #0]
					//	64 BYTE				24個自訂義PAGE					
	for(j = 0; j < (NVMCTRL_PAGE_SIZE * NVM_Dev_List_Use_Page_MAX); j = j + NVMCTRL_PAGE_SIZE)
	{
		do
		{
			error_code = nvm_read_buffer(	(500 + k)  * NVMCTRL_ROW_PAGES * NVMCTRL_PAGE_SIZE,
    26f6:	ada2      	add	r5, sp, #648	; 0x288
    26f8:	4e1a      	ldr	r6, [pc, #104]	; (2764 <Load_List_Form_NVM+0x84>)
    26fa:	4b1b      	ldr	r3, [pc, #108]	; (2768 <Load_List_Form_NVM+0x88>)
    26fc:	4698      	mov	r8, r3
    26fe:	2240      	movs	r2, #64	; 0x40
    2700:	0029      	movs	r1, r5
    2702:	9800      	ldr	r0, [sp, #0]
    2704:	47b0      	blx	r6
    2706:	4643      	mov	r3, r8
    2708:	7018      	strb	r0, [r3, #0]
											tmp_page_buffer, NVMCTRL_PAGE_SIZE);
		} while (error_code == STATUS_BUSY);
    270a:	2805      	cmp	r0, #5
    270c:	d0f7      	beq.n	26fe <Load_List_Form_NVM+0x1e>
    270e:	2300      	movs	r3, #0
		
		for(i = 0; i < NVMCTRL_PAGE_SIZE; i++)
		{
			page_buffer[i + j] = tmp_page_buffer[i];
    2710:	5d5a      	ldrb	r2, [r3, r5]
    2712:	54e2      	strb	r2, [r4, r3]
		for(i = 0; i < NVMCTRL_PAGE_SIZE; i++)
    2714:	3301      	adds	r3, #1
    2716:	2b40      	cmp	r3, #64	; 0x40
    2718:	d1fa      	bne.n	2710 <Load_List_Form_NVM+0x30>
    271a:	3440      	adds	r4, #64	; 0x40
    271c:	9b00      	ldr	r3, [sp, #0]
    271e:	3301      	adds	r3, #1
    2720:	33ff      	adds	r3, #255	; 0xff
    2722:	001a      	movs	r2, r3
    2724:	9300      	str	r3, [sp, #0]
	for(j = 0; j < (NVMCTRL_PAGE_SIZE * NVM_Dev_List_Use_Page_MAX); j = j + NVMCTRL_PAGE_SIZE)
    2726:	23ff      	movs	r3, #255	; 0xff
    2728:	025b      	lsls	r3, r3, #9
    272a:	429a      	cmp	r2, r3
    272c:	d1e7      	bne.n	26fe <Load_List_Form_NVM+0x1e>
    272e:	9c01      	ldr	r4, [sp, #4]
    2730:	aa98      	add	r2, sp, #608	; 0x260
	}
	
	for( i = 0; i < Dev_Item_MAX; i++)
	{
		j = i * Dev_List_Data_Item_Max;
		tmp_LORA_Dev_List_Index[i].Dev_Number = page_buffer[j];
    2732:	783b      	ldrb	r3, [r7, #0]
    2734:	7023      	strb	r3, [r4, #0]
		tmp_LORA_Dev_List_Index[i].Dev_En_Flag = page_buffer[j+1];
    2736:	787b      	ldrb	r3, [r7, #1]
    2738:	7063      	strb	r3, [r4, #1]
		tmp_LORA_Dev_List_Index[i].MAC_ID.byte[0] = page_buffer[j+2];
    273a:	78bb      	ldrb	r3, [r7, #2]
    273c:	7123      	strb	r3, [r4, #4]
		tmp_LORA_Dev_List_Index[i].MAC_ID.byte[1] = page_buffer[j+3];
    273e:	78fb      	ldrb	r3, [r7, #3]
    2740:	7163      	strb	r3, [r4, #5]
		tmp_LORA_Dev_List_Index[i].MAC_ID.byte[2] = page_buffer[j+4];
    2742:	793b      	ldrb	r3, [r7, #4]
    2744:	71a3      	strb	r3, [r4, #6]
		tmp_LORA_Dev_List_Index[i].MAC_ID.byte[3] = page_buffer[j+5];
    2746:	797b      	ldrb	r3, [r7, #5]
    2748:	71e3      	strb	r3, [r4, #7]
    274a:	3706      	adds	r7, #6
    274c:	3410      	adds	r4, #16
	for( i = 0; i < Dev_Item_MAX; i++)
    274e:	4297      	cmp	r7, r2
    2750:	d1ef      	bne.n	2732 <Load_List_Form_NVM+0x52>
	}
}
    2752:	23b2      	movs	r3, #178	; 0xb2
    2754:	009b      	lsls	r3, r3, #2
    2756:	449d      	add	sp, r3
    2758:	bc04      	pop	{r2}
    275a:	4690      	mov	r8, r2
    275c:	bdf0      	pop	{r4, r5, r6, r7, pc}
    275e:	46c0      	nop			; (mov r8, r8)
    2760:	fffffd38 	.word	0xfffffd38
    2764:	000002d5 	.word	0x000002d5
    2768:	20002849 	.word	0x20002849

0000276c <Search_list_table_index>:
unsigned char Search_list_table_index(unsigned char tmp_list_table_index, volatile LORA_Dev_List_t *tmp_LORA_Dev_List_Index)
{
	unsigned int i;
	for(i = 0; i < Dev_Item_MAX; i++)
	{
		if(tmp_LORA_Dev_List_Index[i].Dev_Number == tmp_list_table_index)
    276c:	780b      	ldrb	r3, [r1, #0]
    276e:	b2db      	uxtb	r3, r3
    2770:	4298      	cmp	r0, r3
    2772:	d00b      	beq.n	278c <Search_list_table_index+0x20>
    2774:	3110      	adds	r1, #16
	for(i = 0; i < Dev_Item_MAX; i++)
    2776:	2201      	movs	r2, #1
		if(tmp_LORA_Dev_List_Index[i].Dev_Number == tmp_list_table_index)
    2778:	780b      	ldrb	r3, [r1, #0]
    277a:	b2db      	uxtb	r3, r3
    277c:	4283      	cmp	r3, r0
    277e:	d006      	beq.n	278e <Search_list_table_index+0x22>
	for(i = 0; i < Dev_Item_MAX; i++)
    2780:	3201      	adds	r2, #1
    2782:	3110      	adds	r1, #16
    2784:	2a64      	cmp	r2, #100	; 0x64
    2786:	d1f7      	bne.n	2778 <Search_list_table_index+0xc>
		{
			return i;
		}
	}
	return Not_found_Index;
    2788:	20ff      	movs	r0, #255	; 0xff
    278a:	e001      	b.n	2790 <Search_list_table_index+0x24>
	for(i = 0; i < Dev_Item_MAX; i++)
    278c:	2200      	movs	r2, #0
			return i;
    278e:	b2d0      	uxtb	r0, r2
}
    2790:	4770      	bx	lr
	...

00002794 <Response_LORA>:
unsigned long tmp_humi;



void Response_LORA(volatile LORA_DEFINE_t *tmp_LORA, volatile LORA_Dev_List_t *tmp_LORA_Dev_List_Index)
{
    2794:	b5f0      	push	{r4, r5, r6, r7, lr}
    2796:	46c6      	mov	lr, r8
    2798:	b500      	push	{lr}
    279a:	b084      	sub	sp, #16
    279c:	0004      	movs	r4, r0
	UINT16u_t tmp_adc;
	tmp_LORA->MyLoRaTmp[Write_LoRa_TxBuffer_Index][3] = tmp_LORA->MyLoRaID[0];
    279e:	7843      	ldrb	r3, [r0, #1]
    27a0:	b2db      	uxtb	r3, r3
    27a2:	22f7      	movs	r2, #247	; 0xf7
    27a4:	5483      	strb	r3, [r0, r2]
	tmp_LORA->MyLoRaTmp[Write_LoRa_TxBuffer_Index][4] = tmp_LORA->MyLoRaID[1];
    27a6:	7883      	ldrb	r3, [r0, #2]
    27a8:	b2db      	uxtb	r3, r3
    27aa:	3201      	adds	r2, #1
    27ac:	5483      	strb	r3, [r0, r2]
	tmp_LORA->MyLoRaTmp[Write_LoRa_TxBuffer_Index][5] = tmp_LORA->MyLoRaID[2];
    27ae:	78c3      	ldrb	r3, [r0, #3]
    27b0:	b2db      	uxtb	r3, r3
    27b2:	3201      	adds	r2, #1
    27b4:	5483      	strb	r3, [r0, r2]
	tmp_LORA->MyLoRaTmp[Write_LoRa_TxBuffer_Index][6] = tmp_LORA->MyLoRaID[3];
    27b6:	7903      	ldrb	r3, [r0, #4]
    27b8:	b2db      	uxtb	r3, r3
    27ba:	3201      	adds	r2, #1
    27bc:	5483      	strb	r3, [r0, r2]
	tmp_LORA->MyLoRaTmp[Write_LoRa_TxBuffer_Index][7] = 0x00;
    27be:	2200      	movs	r2, #0
    27c0:	23fb      	movs	r3, #251	; 0xfb
    27c2:	54c2      	strb	r2, [r0, r3]
				
	tmp_LORA->MyLoRaTmp[Write_LoRa_Mode_FQ_Index][7] = tmp_LORA->MyBuffer[7];
    27c4:	3bd5      	subs	r3, #213	; 0xd5
    27c6:	5cc3      	ldrb	r3, [r0, r3]
    27c8:	b2db      	uxtb	r3, r3
    27ca:	32c5      	adds	r2, #197	; 0xc5
    27cc:	5483      	strb	r3, [r0, r2]
	tmp_LORA->MyLoRaPower = tmp_LORA->MyLoRaTmp[Write_LoRa_Mode_FQ_Index][7];
    27ce:	5c83      	ldrb	r3, [r0, r2]
    27d0:	b2db      	uxtb	r3, r3
    27d2:	7383      	strb	r3, [r0, #14]

	
			
	if(tmp_LORA->Lora_Show_Flag == true)
    27d4:	4bd9      	ldr	r3, [pc, #868]	; (2b3c <Response_LORA+0x3a8>)
    27d6:	5cc3      	ldrb	r3, [r0, r3]
    27d8:	2b01      	cmp	r3, #1
    27da:	d100      	bne.n	27de <Response_LORA+0x4a>
    27dc:	e0ee      	b.n	29bc <Response_LORA+0x228>


	//================================
	//	ū
	//================================
	tmp_adc.word = ADC_Temp_01;
    27de:	4bd8      	ldr	r3, [pc, #864]	; (2b40 <Response_LORA+0x3ac>)
    27e0:	681d      	ldr	r5, [r3, #0]
	tmp_temp = tmp_adc.word;
    27e2:	042b      	lsls	r3, r5, #16
    27e4:	0c1b      	lsrs	r3, r3, #16
    27e6:	4ad7      	ldr	r2, [pc, #860]	; (2b44 <Response_LORA+0x3b0>)
    27e8:	6013      	str	r3, [r2, #0]
	if(tmp_LORA->Lora_Show_Flag == true)
    27ea:	4bd4      	ldr	r3, [pc, #848]	; (2b3c <Response_LORA+0x3a8>)
    27ec:	5ce3      	ldrb	r3, [r4, r3]
    27ee:	2b01      	cmp	r3, #1
    27f0:	d100      	bne.n	27f4 <Response_LORA+0x60>
    27f2:	e0fa      	b.n	29ea <Response_LORA+0x256>

	//O
	//tmp_temp = 19090 - (18280*log10f(tmp_temp)) + (4095* (log10f(tmp_temp)*log10f(tmp_temp)));
	
	//pO
	tmp_temp = 53750 - (40260*log10f(tmp_temp)) + (7570* (log10f(tmp_temp)*log10f(tmp_temp)));
    27f4:	4ed3      	ldr	r6, [pc, #844]	; (2b44 <Response_LORA+0x3b0>)
    27f6:	4dd4      	ldr	r5, [pc, #848]	; (2b48 <Response_LORA+0x3b4>)
    27f8:	6830      	ldr	r0, [r6, #0]
    27fa:	47a8      	blx	r5
    27fc:	4fd3      	ldr	r7, [pc, #844]	; (2b4c <Response_LORA+0x3b8>)
    27fe:	47b8      	blx	r7
    2800:	9001      	str	r0, [sp, #4]
    2802:	6830      	ldr	r0, [r6, #0]
    2804:	47a8      	blx	r5
    2806:	47b8      	blx	r7
    2808:	9002      	str	r0, [sp, #8]
    280a:	6830      	ldr	r0, [r6, #0]
    280c:	47a8      	blx	r5
    280e:	47b8      	blx	r7
    2810:	9003      	str	r0, [sp, #12]
    2812:	4fcf      	ldr	r7, [pc, #828]	; (2b50 <Response_LORA+0x3bc>)
    2814:	49cf      	ldr	r1, [pc, #828]	; (2b54 <Response_LORA+0x3c0>)
    2816:	9801      	ldr	r0, [sp, #4]
    2818:	47b8      	blx	r7
    281a:	1c01      	adds	r1, r0, #0
    281c:	48ce      	ldr	r0, [pc, #824]	; (2b58 <Response_LORA+0x3c4>)
    281e:	4bcf      	ldr	r3, [pc, #828]	; (2b5c <Response_LORA+0x3c8>)
    2820:	4798      	blx	r3
    2822:	1c05      	adds	r5, r0, #0
    2824:	9903      	ldr	r1, [sp, #12]
    2826:	9802      	ldr	r0, [sp, #8]
    2828:	47b8      	blx	r7
    282a:	49cd      	ldr	r1, [pc, #820]	; (2b60 <Response_LORA+0x3cc>)
    282c:	47b8      	blx	r7
    282e:	1c01      	adds	r1, r0, #0
    2830:	1c28      	adds	r0, r5, #0
    2832:	4bcc      	ldr	r3, [pc, #816]	; (2b64 <Response_LORA+0x3d0>)
    2834:	4798      	blx	r3
    2836:	4bcc      	ldr	r3, [pc, #816]	; (2b68 <Response_LORA+0x3d4>)
    2838:	4798      	blx	r3
    283a:	6030      	str	r0, [r6, #0]
	//537.5 - 402.6 log10(C2) + 75.70 log10(C2)**2

	
	tmp_adc.word = tmp_temp;
	tmp_LORA->MyLoRaTmp[Write_LoRa_TxBuffer_Index][8] = tmp_adc.byte[1];
    283c:	0403      	lsls	r3, r0, #16
    283e:	0e1b      	lsrs	r3, r3, #24
    2840:	b2d9      	uxtb	r1, r3
    2842:	22fc      	movs	r2, #252	; 0xfc
    2844:	54a3      	strb	r3, [r4, r2]
	tmp_LORA->MyLoRaTmp[Write_LoRa_TxBuffer_Index][9] = tmp_adc.byte[0];
    2846:	b2c5      	uxtb	r5, r0
    2848:	23fd      	movs	r3, #253	; 0xfd
    284a:	54e5      	strb	r5, [r4, r3]
	if(tmp_LORA->Lora_Show_Flag == true)
    284c:	4bbb      	ldr	r3, [pc, #748]	; (2b3c <Response_LORA+0x3a8>)
    284e:	5ce3      	ldrb	r3, [r4, r3]
    2850:	2b01      	cmp	r3, #1
    2852:	d100      	bne.n	2856 <Response_LORA+0xc2>
    2854:	e0de      	b.n	2a14 <Response_LORA+0x280>
	}

	//================================
	//	ë
	//================================
	tmp_adc.word = ADC_Temp_02;
    2856:	4bc5      	ldr	r3, [pc, #788]	; (2b6c <Response_LORA+0x3d8>)
    2858:	681d      	ldr	r5, [r3, #0]
	tmp_humi = tmp_adc.word;
    285a:	042b      	lsls	r3, r5, #16
    285c:	0c1b      	lsrs	r3, r3, #16
    285e:	4ac4      	ldr	r2, [pc, #784]	; (2b70 <Response_LORA+0x3dc>)
    2860:	6013      	str	r3, [r2, #0]
	if(tmp_LORA->Lora_Show_Flag == true)
    2862:	4bb6      	ldr	r3, [pc, #728]	; (2b3c <Response_LORA+0x3a8>)
    2864:	5ce3      	ldrb	r3, [r4, r3]
    2866:	2b01      	cmp	r3, #1
    2868:	d100      	bne.n	286c <Response_LORA+0xd8>
    286a:	e0df      	b.n	2a2c <Response_LORA+0x298>
		uart_send_ascii_byte(Debug_COM, tmp_adc.byte[0]);
		uTXByte(Debug_COM, ']');
		uTXByte(Debug_COM, ' ');
	}
	
	if(tmp_temp < (1500 + offset_value))
    286c:	4bb5      	ldr	r3, [pc, #724]	; (2b44 <Response_LORA+0x3b0>)
    286e:	681b      	ldr	r3, [r3, #0]
    2870:	22cb      	movs	r2, #203	; 0xcb
    2872:	00d2      	lsls	r2, r2, #3
    2874:	4293      	cmp	r3, r2
    2876:	d900      	bls.n	287a <Response_LORA+0xe6>
    2878:	e0ed      	b.n	2a56 <Response_LORA+0x2c2>
	{
		// = - 12.4 + 0.0573 15
		tmp_humi = (-124000 + (573 * tmp_humi)) / 100;
    287a:	4dbd      	ldr	r5, [pc, #756]	; (2b70 <Response_LORA+0x3dc>)
    287c:	48bd      	ldr	r0, [pc, #756]	; (2b74 <Response_LORA+0x3e0>)
    287e:	682b      	ldr	r3, [r5, #0]
    2880:	4358      	muls	r0, r3
    2882:	4bbd      	ldr	r3, [pc, #756]	; (2b78 <Response_LORA+0x3e4>)
    2884:	469c      	mov	ip, r3
    2886:	4460      	add	r0, ip
    2888:	2164      	movs	r1, #100	; 0x64
    288a:	4bbc      	ldr	r3, [pc, #752]	; (2b7c <Response_LORA+0x3e8>)
    288c:	4798      	blx	r3
    288e:	6028      	str	r0, [r5, #0]
	}
	else
	{
		tmp_humi = (2900 + (48 * tmp_humi)) / 10;
	}
	tmp_adc.word = tmp_humi;
    2890:	4bb7      	ldr	r3, [pc, #732]	; (2b70 <Response_LORA+0x3dc>)
    2892:	681d      	ldr	r5, [r3, #0]
	//tmp_adc.word = hex_to_bcd(tmp_adc.word);
	tmp_LORA->MyLoRaTmp[Write_LoRa_TxBuffer_Index][10] = tmp_adc.byte[1];
    2894:	042a      	lsls	r2, r5, #16
    2896:	0e12      	lsrs	r2, r2, #24
    2898:	b2d1      	uxtb	r1, r2
    289a:	20fe      	movs	r0, #254	; 0xfe
    289c:	5422      	strb	r2, [r4, r0]
	tmp_LORA->MyLoRaTmp[Write_LoRa_TxBuffer_Index][11] = tmp_adc.byte[0];	
    289e:	b2ed      	uxtb	r5, r5
    28a0:	23ff      	movs	r3, #255	; 0xff
    28a2:	54e5      	strb	r5, [r4, r3]
	if(tmp_LORA->Lora_Show_Flag == true)
    28a4:	4ba5      	ldr	r3, [pc, #660]	; (2b3c <Response_LORA+0x3a8>)
    28a6:	5ce3      	ldrb	r3, [r4, r3]
    28a8:	2b01      	cmp	r3, #1
    28aa:	d100      	bne.n	28ae <Response_LORA+0x11a>
    28ac:	e1d3      	b.n	2c56 <Response_LORA+0x4c2>
	
	
	//================================
	//	AI
	//================================
	tmp_adc.word = ADC_Temp_03;
    28ae:	4bb4      	ldr	r3, [pc, #720]	; (2b80 <Response_LORA+0x3ec>)
    28b0:	681d      	ldr	r5, [r3, #0]
	tmp_LORA->MyLoRaTmp[Write_LoRa_TxBuffer_Index][12] = tmp_adc.byte[1];
    28b2:	042a      	lsls	r2, r5, #16
    28b4:	0e12      	lsrs	r2, r2, #24
    28b6:	b2d1      	uxtb	r1, r2
    28b8:	2080      	movs	r0, #128	; 0x80
    28ba:	0040      	lsls	r0, r0, #1
    28bc:	5422      	strb	r2, [r4, r0]
	tmp_LORA->MyLoRaTmp[Write_LoRa_TxBuffer_Index][13] = tmp_adc.byte[0];
    28be:	b2ed      	uxtb	r5, r5
    28c0:	2302      	movs	r3, #2
    28c2:	33ff      	adds	r3, #255	; 0xff
    28c4:	54e5      	strb	r5, [r4, r3]
			
	if(tmp_LORA->Lora_Show_Flag == true)
    28c6:	4b9d      	ldr	r3, [pc, #628]	; (2b3c <Response_LORA+0x3a8>)
    28c8:	5ce3      	ldrb	r3, [r4, r3]
    28ca:	2b01      	cmp	r3, #1
    28cc:	d100      	bne.n	28d0 <Response_LORA+0x13c>
    28ce:	e1ce      	b.n	2c6e <Response_LORA+0x4da>
		uart_send_ascii_byte(Debug_COM, tmp_adc.byte[0]);
		uTXByte(Debug_COM, ' ');
	}
			
	
	tmp_adc.word = ADC_Temp_04;
    28d0:	4bac      	ldr	r3, [pc, #688]	; (2b84 <Response_LORA+0x3f0>)
    28d2:	681d      	ldr	r5, [r3, #0]
	tmp_LORA->MyLoRaTmp[Write_LoRa_TxBuffer_Index][14] = tmp_adc.byte[1];
    28d4:	042a      	lsls	r2, r5, #16
    28d6:	0e12      	lsrs	r2, r2, #24
    28d8:	b2d1      	uxtb	r1, r2
    28da:	2081      	movs	r0, #129	; 0x81
    28dc:	0040      	lsls	r0, r0, #1
    28de:	5422      	strb	r2, [r4, r0]
	tmp_LORA->MyLoRaTmp[Write_LoRa_TxBuffer_Index][15] = tmp_adc.byte[0];
    28e0:	b2ed      	uxtb	r5, r5
    28e2:	2304      	movs	r3, #4
    28e4:	33ff      	adds	r3, #255	; 0xff
    28e6:	54e5      	strb	r5, [r4, r3]
	
	if(tmp_LORA->Lora_Show_Flag == true)
    28e8:	4b94      	ldr	r3, [pc, #592]	; (2b3c <Response_LORA+0x3a8>)
    28ea:	5ce3      	ldrb	r3, [r4, r3]
    28ec:	2b01      	cmp	r3, #1
    28ee:	d100      	bne.n	28f2 <Response_LORA+0x15e>
    28f0:	e1c9      	b.n	2c86 <Response_LORA+0x4f2>
		uart_send_ascii_byte(Debug_COM, tmp_adc.byte[1]);
		uart_send_ascii_byte(Debug_COM, tmp_adc.byte[0]);
		uTXByte(Debug_COM, ' ');
	}
		
	tmp_adc.word = ADC_Temp_05;
    28f2:	4ba5      	ldr	r3, [pc, #660]	; (2b88 <Response_LORA+0x3f4>)
    28f4:	681d      	ldr	r5, [r3, #0]
	tmp_LORA->MyLoRaTmp[Write_LoRa_TxBuffer_Index][16] = tmp_adc.byte[1];
    28f6:	042a      	lsls	r2, r5, #16
    28f8:	0e12      	lsrs	r2, r2, #24
    28fa:	b2d1      	uxtb	r1, r2
    28fc:	2082      	movs	r0, #130	; 0x82
    28fe:	0040      	lsls	r0, r0, #1
    2900:	5422      	strb	r2, [r4, r0]
	tmp_LORA->MyLoRaTmp[Write_LoRa_TxBuffer_Index][17] = tmp_adc.byte[0];
    2902:	b2ed      	uxtb	r5, r5
    2904:	2306      	movs	r3, #6
    2906:	33ff      	adds	r3, #255	; 0xff
    2908:	54e5      	strb	r5, [r4, r3]
			
	if(tmp_LORA->Lora_Show_Flag == true)
    290a:	4b8c      	ldr	r3, [pc, #560]	; (2b3c <Response_LORA+0x3a8>)
    290c:	5ce3      	ldrb	r3, [r4, r3]
    290e:	2b01      	cmp	r3, #1
    2910:	d100      	bne.n	2914 <Response_LORA+0x180>
    2912:	e1c4      	b.n	2c9e <Response_LORA+0x50a>
		uart_send_ascii_byte(Debug_COM, tmp_adc.byte[1]);
		uart_send_ascii_byte(Debug_COM, tmp_adc.byte[0]);
		uTXByte(Debug_COM, ' ');
	}
	
	tmp_adc.word = ADC_Temp_06;
    2914:	4b9d      	ldr	r3, [pc, #628]	; (2b8c <Response_LORA+0x3f8>)
    2916:	681d      	ldr	r5, [r3, #0]
	tmp_LORA->MyLoRaTmp[Write_LoRa_TxBuffer_Index][18] = tmp_adc.byte[1];
    2918:	042a      	lsls	r2, r5, #16
    291a:	0e12      	lsrs	r2, r2, #24
    291c:	b2d1      	uxtb	r1, r2
    291e:	2083      	movs	r0, #131	; 0x83
    2920:	0040      	lsls	r0, r0, #1
    2922:	5422      	strb	r2, [r4, r0]
	tmp_LORA->MyLoRaTmp[Write_LoRa_TxBuffer_Index][19] = tmp_adc.byte[0];
    2924:	b2ed      	uxtb	r5, r5
    2926:	2308      	movs	r3, #8
    2928:	33ff      	adds	r3, #255	; 0xff
    292a:	54e5      	strb	r5, [r4, r3]

	if(tmp_LORA->Lora_Show_Flag == true)
    292c:	4b83      	ldr	r3, [pc, #524]	; (2b3c <Response_LORA+0x3a8>)
    292e:	5ce3      	ldrb	r3, [r4, r3]
    2930:	2b01      	cmp	r3, #1
    2932:	d100      	bne.n	2936 <Response_LORA+0x1a2>
    2934:	e1bf      	b.n	2cb6 <Response_LORA+0x522>
		uart_send_ascii_byte(Debug_COM, tmp_adc.byte[0]);
		uTXByte(Debug_COM, ' ');
	}
				
				
	tmp_adc.word = ADC_LVD_Temp;
    2936:	4b96      	ldr	r3, [pc, #600]	; (2b90 <Response_LORA+0x3fc>)
    2938:	681d      	ldr	r5, [r3, #0]
	tmp_LORA->MyLoRaTmp[Write_LoRa_TxBuffer_Index][20] = tmp_adc.byte[1];
    293a:	042b      	lsls	r3, r5, #16
    293c:	0e1b      	lsrs	r3, r3, #24
    293e:	b2de      	uxtb	r6, r3
    2940:	2284      	movs	r2, #132	; 0x84
    2942:	0052      	lsls	r2, r2, #1
    2944:	54a3      	strb	r3, [r4, r2]
	tmp_LORA->MyLoRaTmp[Write_LoRa_TxBuffer_Index][21] = tmp_adc.byte[0];
    2946:	b2ed      	uxtb	r5, r5
    2948:	230a      	movs	r3, #10
    294a:	33ff      	adds	r3, #255	; 0xff
    294c:	54e5      	strb	r5, [r4, r3]
	
	if(tmp_LORA->Lora_Show_Flag == true)
    294e:	4b7b      	ldr	r3, [pc, #492]	; (2b3c <Response_LORA+0x3a8>)
    2950:	5ce3      	ldrb	r3, [r4, r3]
    2952:	2b01      	cmp	r3, #1
    2954:	d100      	bne.n	2958 <Response_LORA+0x1c4>
    2956:	e1ba      	b.n	2cce <Response_LORA+0x53a>
		uTXByte(Debug_COM, ' ');
	}
	
	
	//tmp_adc.word = ADC_PM25_Temp;	//
	tmp_adc.word = ADC_Temp_01;	//ūRaw
    2958:	4b79      	ldr	r3, [pc, #484]	; (2b40 <Response_LORA+0x3ac>)
    295a:	681d      	ldr	r5, [r3, #0]
	tmp_LORA->MyLoRaTmp[Write_LoRa_TxBuffer_Index][22] = tmp_adc.byte[1];
    295c:	042a      	lsls	r2, r5, #16
    295e:	0e12      	lsrs	r2, r2, #24
    2960:	b2d1      	uxtb	r1, r2
    2962:	2085      	movs	r0, #133	; 0x85
    2964:	0040      	lsls	r0, r0, #1
    2966:	5422      	strb	r2, [r4, r0]
	tmp_LORA->MyLoRaTmp[Write_LoRa_TxBuffer_Index][23] = tmp_adc.byte[0];
    2968:	b2ed      	uxtb	r5, r5
    296a:	230c      	movs	r3, #12
    296c:	33ff      	adds	r3, #255	; 0xff
    296e:	54e5      	strb	r5, [r4, r3]
	if(tmp_LORA->Lora_Show_Flag == true)
    2970:	4b72      	ldr	r3, [pc, #456]	; (2b3c <Response_LORA+0x3a8>)
    2972:	5ce3      	ldrb	r3, [r4, r3]
    2974:	2b01      	cmp	r3, #1
    2976:	d100      	bne.n	297a <Response_LORA+0x1e6>
    2978:	e1bb      	b.n	2cf2 <Response_LORA+0x55e>
		uart_send_ascii_byte(Debug_COM, tmp_adc.byte[1]);
		uart_send_ascii_byte(Debug_COM, tmp_adc.byte[0]);
		uTXByte(Debug_COM, 0x0d);
		uTXByte(Debug_COM, 0x0d);
	}
	tmp_LORA->MyLoRaTmp[Write_LoRa_TxBuffer_Index][24] = Version;
    297a:	226e      	movs	r2, #110	; 0x6e
    297c:	2386      	movs	r3, #134	; 0x86
    297e:	005b      	lsls	r3, r3, #1
    2980:	54e2      	strb	r2, [r4, r3]
	
	//RSSI
	tmp_LORA->MyLoRaTmp[Write_LoRa_TxBuffer_Index][25] = 0x00;
    2982:	2500      	movs	r5, #0
    2984:	230e      	movs	r3, #14
    2986:	33ff      	adds	r3, #255	; 0xff
    2988:	54e5      	strb	r5, [r4, r3]
	tmp_LORA->MyLoRaTmp[Write_LoRa_TxBuffer_Index][26] = 0x00;
    298a:	3301      	adds	r3, #1
    298c:	54e5      	strb	r5, [r4, r3]
			
	Setting_Lora_To_Tx_Mode_Func(tmp_LORA);	
    298e:	0020      	movs	r0, r4
    2990:	4b80      	ldr	r3, [pc, #512]	; (2b94 <Response_LORA+0x400>)
    2992:	4798      	blx	r3
	ADC_Temp_01 = 0;
    2994:	4b6a      	ldr	r3, [pc, #424]	; (2b40 <Response_LORA+0x3ac>)
    2996:	601d      	str	r5, [r3, #0]
	ADC_Temp_02 = 0;
    2998:	4b74      	ldr	r3, [pc, #464]	; (2b6c <Response_LORA+0x3d8>)
    299a:	601d      	str	r5, [r3, #0]
	ADC_Temp_03 = 0;
    299c:	4b78      	ldr	r3, [pc, #480]	; (2b80 <Response_LORA+0x3ec>)
    299e:	601d      	str	r5, [r3, #0]
	ADC_Temp_04 = 0;
    29a0:	4b78      	ldr	r3, [pc, #480]	; (2b84 <Response_LORA+0x3f0>)
    29a2:	601d      	str	r5, [r3, #0]
	ADC_Temp_05 = 0;
    29a4:	4b78      	ldr	r3, [pc, #480]	; (2b88 <Response_LORA+0x3f4>)
    29a6:	601d      	str	r5, [r3, #0]
	ADC_Temp_06 = 0;
    29a8:	4b78      	ldr	r3, [pc, #480]	; (2b8c <Response_LORA+0x3f8>)
    29aa:	601d      	str	r5, [r3, #0]
	ADC_LVD_Temp = 0;
    29ac:	4b78      	ldr	r3, [pc, #480]	; (2b90 <Response_LORA+0x3fc>)
    29ae:	601d      	str	r5, [r3, #0]
	ADC_PM25_Temp = 0;
    29b0:	4b79      	ldr	r3, [pc, #484]	; (2b98 <Response_LORA+0x404>)
    29b2:	601d      	str	r5, [r3, #0]
}
    29b4:	b004      	add	sp, #16
    29b6:	bc04      	pop	{r2}
    29b8:	4690      	mov	r8, r2
    29ba:	bdf0      	pop	{r4, r5, r6, r7, pc}
		uTXByte(Debug_COM, 0x0d);
    29bc:	4e77      	ldr	r6, [pc, #476]	; (2b9c <Response_LORA+0x408>)
    29be:	210d      	movs	r1, #13
    29c0:	0030      	movs	r0, r6
    29c2:	4d77      	ldr	r5, [pc, #476]	; (2ba0 <Response_LORA+0x40c>)
    29c4:	47a8      	blx	r5
		uTXByte(Debug_COM, 'Y');
    29c6:	2159      	movs	r1, #89	; 0x59
    29c8:	0030      	movs	r0, r6
    29ca:	47a8      	blx	r5
		uTXByte(Debug_COM, 'e');
    29cc:	2165      	movs	r1, #101	; 0x65
    29ce:	0030      	movs	r0, r6
    29d0:	47a8      	blx	r5
		uTXByte(Debug_COM, 's');
    29d2:	2173      	movs	r1, #115	; 0x73
    29d4:	0030      	movs	r0, r6
    29d6:	47a8      	blx	r5
		uTXByte(Debug_COM, 0x09);
    29d8:	2109      	movs	r1, #9
    29da:	0030      	movs	r0, r6
    29dc:	47a8      	blx	r5
		Print_Write_Buffer();
    29de:	4b71      	ldr	r3, [pc, #452]	; (2ba4 <Response_LORA+0x410>)
    29e0:	4798      	blx	r3
		uTXByte(Debug_COM, 0x0d);
    29e2:	210d      	movs	r1, #13
    29e4:	0030      	movs	r0, r6
    29e6:	47a8      	blx	r5
    29e8:	e6f9      	b.n	27de <Response_LORA+0x4a>
		uTXByte(Debug_COM, '[');
    29ea:	4e6c      	ldr	r6, [pc, #432]	; (2b9c <Response_LORA+0x408>)
    29ec:	215b      	movs	r1, #91	; 0x5b
    29ee:	0030      	movs	r0, r6
    29f0:	4f6b      	ldr	r7, [pc, #428]	; (2ba0 <Response_LORA+0x40c>)
    29f2:	47b8      	blx	r7
		uart_send_ascii_byte(Debug_COM, tmp_adc.byte[1]);
    29f4:	0429      	lsls	r1, r5, #16
    29f6:	0e09      	lsrs	r1, r1, #24
    29f8:	0030      	movs	r0, r6
    29fa:	4b6b      	ldr	r3, [pc, #428]	; (2ba8 <Response_LORA+0x414>)
    29fc:	4698      	mov	r8, r3
    29fe:	4798      	blx	r3
		uart_send_ascii_byte(Debug_COM, tmp_adc.byte[0]);
    2a00:	b2e9      	uxtb	r1, r5
    2a02:	0030      	movs	r0, r6
    2a04:	47c0      	blx	r8
		uTXByte(Debug_COM, ']');
    2a06:	215d      	movs	r1, #93	; 0x5d
    2a08:	0030      	movs	r0, r6
    2a0a:	47b8      	blx	r7
		uTXByte(Debug_COM, ' ');
    2a0c:	2120      	movs	r1, #32
    2a0e:	0030      	movs	r0, r6
    2a10:	47b8      	blx	r7
    2a12:	e6ef      	b.n	27f4 <Response_LORA+0x60>
		uart_send_ascii_byte(Debug_COM, tmp_adc.byte[1]);
    2a14:	4e61      	ldr	r6, [pc, #388]	; (2b9c <Response_LORA+0x408>)
    2a16:	0030      	movs	r0, r6
    2a18:	4f63      	ldr	r7, [pc, #396]	; (2ba8 <Response_LORA+0x414>)
    2a1a:	47b8      	blx	r7
		uart_send_ascii_byte(Debug_COM, tmp_adc.byte[0]);
    2a1c:	0029      	movs	r1, r5
    2a1e:	0030      	movs	r0, r6
    2a20:	47b8      	blx	r7
		uTXByte(Debug_COM, ' ');		
    2a22:	2120      	movs	r1, #32
    2a24:	0030      	movs	r0, r6
    2a26:	4b5e      	ldr	r3, [pc, #376]	; (2ba0 <Response_LORA+0x40c>)
    2a28:	4798      	blx	r3
    2a2a:	e714      	b.n	2856 <Response_LORA+0xc2>
		uTXByte(Debug_COM, '[');
    2a2c:	4e5b      	ldr	r6, [pc, #364]	; (2b9c <Response_LORA+0x408>)
    2a2e:	215b      	movs	r1, #91	; 0x5b
    2a30:	0030      	movs	r0, r6
    2a32:	4f5b      	ldr	r7, [pc, #364]	; (2ba0 <Response_LORA+0x40c>)
    2a34:	47b8      	blx	r7
		uart_send_ascii_byte(Debug_COM, tmp_adc.byte[1]);
    2a36:	0429      	lsls	r1, r5, #16
    2a38:	0e09      	lsrs	r1, r1, #24
    2a3a:	0030      	movs	r0, r6
    2a3c:	4b5a      	ldr	r3, [pc, #360]	; (2ba8 <Response_LORA+0x414>)
    2a3e:	4698      	mov	r8, r3
    2a40:	4798      	blx	r3
		uart_send_ascii_byte(Debug_COM, tmp_adc.byte[0]);
    2a42:	b2e9      	uxtb	r1, r5
    2a44:	0030      	movs	r0, r6
    2a46:	47c0      	blx	r8
		uTXByte(Debug_COM, ']');
    2a48:	215d      	movs	r1, #93	; 0x5d
    2a4a:	0030      	movs	r0, r6
    2a4c:	47b8      	blx	r7
		uTXByte(Debug_COM, ' ');
    2a4e:	2120      	movs	r1, #32
    2a50:	0030      	movs	r0, r6
    2a52:	47b8      	blx	r7
    2a54:	e70a      	b.n	286c <Response_LORA+0xd8>
	else if(tmp_temp < (1750 + offset_value))
    2a56:	4a55      	ldr	r2, [pc, #340]	; (2bac <Response_LORA+0x418>)
    2a58:	4293      	cmp	r3, r2
    2a5a:	d80c      	bhi.n	2a76 <Response_LORA+0x2e2>
		tmp_humi = (-10400 + (56 * tmp_humi)) / 10;
    2a5c:	4d44      	ldr	r5, [pc, #272]	; (2b70 <Response_LORA+0x3dc>)
    2a5e:	682b      	ldr	r3, [r5, #0]
    2a60:	00d8      	lsls	r0, r3, #3
    2a62:	1ac0      	subs	r0, r0, r3
    2a64:	00c0      	lsls	r0, r0, #3
    2a66:	4b52      	ldr	r3, [pc, #328]	; (2bb0 <Response_LORA+0x41c>)
    2a68:	469c      	mov	ip, r3
    2a6a:	4460      	add	r0, ip
    2a6c:	210a      	movs	r1, #10
    2a6e:	4b43      	ldr	r3, [pc, #268]	; (2b7c <Response_LORA+0x3e8>)
    2a70:	4798      	blx	r3
    2a72:	6028      	str	r0, [r5, #0]
    2a74:	e70c      	b.n	2890 <Response_LORA+0xfc>
	else if(tmp_temp < (2000 + offset_value))
    2a76:	4a4f      	ldr	r2, [pc, #316]	; (2bb4 <Response_LORA+0x420>)
    2a78:	4293      	cmp	r3, r2
    2a7a:	d80d      	bhi.n	2a98 <Response_LORA+0x304>
		tmp_humi = (-8200 + (55 * tmp_humi)) / 10;
    2a7c:	4d3c      	ldr	r5, [pc, #240]	; (2b70 <Response_LORA+0x3dc>)
    2a7e:	682b      	ldr	r3, [r5, #0]
    2a80:	00d8      	lsls	r0, r3, #3
    2a82:	1ac0      	subs	r0, r0, r3
    2a84:	00c0      	lsls	r0, r0, #3
    2a86:	1ac0      	subs	r0, r0, r3
    2a88:	4b4b      	ldr	r3, [pc, #300]	; (2bb8 <Response_LORA+0x424>)
    2a8a:	469c      	mov	ip, r3
    2a8c:	4460      	add	r0, ip
    2a8e:	210a      	movs	r1, #10
    2a90:	4b3a      	ldr	r3, [pc, #232]	; (2b7c <Response_LORA+0x3e8>)
    2a92:	4798      	blx	r3
    2a94:	6028      	str	r0, [r5, #0]
    2a96:	e6fb      	b.n	2890 <Response_LORA+0xfc>
	else if(tmp_temp < (2250 + offset_value))
    2a98:	4a48      	ldr	r2, [pc, #288]	; (2bbc <Response_LORA+0x428>)
    2a9a:	4293      	cmp	r3, r2
    2a9c:	d80b      	bhi.n	2ab6 <Response_LORA+0x322>
		tmp_humi = (-7350 + (54 * tmp_humi)) / 10;
    2a9e:	4d34      	ldr	r5, [pc, #208]	; (2b70 <Response_LORA+0x3dc>)
    2aa0:	2036      	movs	r0, #54	; 0x36
    2aa2:	682b      	ldr	r3, [r5, #0]
    2aa4:	4358      	muls	r0, r3
    2aa6:	4b46      	ldr	r3, [pc, #280]	; (2bc0 <Response_LORA+0x42c>)
    2aa8:	469c      	mov	ip, r3
    2aaa:	4460      	add	r0, ip
    2aac:	210a      	movs	r1, #10
    2aae:	4b33      	ldr	r3, [pc, #204]	; (2b7c <Response_LORA+0x3e8>)
    2ab0:	4798      	blx	r3
    2ab2:	6028      	str	r0, [r5, #0]
    2ab4:	e6ec      	b.n	2890 <Response_LORA+0xfc>
	else if(tmp_temp < (2500 + offset_value))
    2ab6:	22a4      	movs	r2, #164	; 0xa4
    2ab8:	0112      	lsls	r2, r2, #4
    2aba:	4293      	cmp	r3, r2
    2abc:	d80d      	bhi.n	2ada <Response_LORA+0x346>
		tmp_humi = (-64700 + (543 * tmp_humi)) / 100;
    2abe:	4d2c      	ldr	r5, [pc, #176]	; (2b70 <Response_LORA+0x3dc>)
    2ac0:	682b      	ldr	r3, [r5, #0]
    2ac2:	0118      	lsls	r0, r3, #4
    2ac4:	18c0      	adds	r0, r0, r3
    2ac6:	0140      	lsls	r0, r0, #5
    2ac8:	1ac0      	subs	r0, r0, r3
    2aca:	4b3e      	ldr	r3, [pc, #248]	; (2bc4 <Response_LORA+0x430>)
    2acc:	469c      	mov	ip, r3
    2ace:	4460      	add	r0, ip
    2ad0:	2164      	movs	r1, #100	; 0x64
    2ad2:	4b2a      	ldr	r3, [pc, #168]	; (2b7c <Response_LORA+0x3e8>)
    2ad4:	4798      	blx	r3
    2ad6:	6028      	str	r0, [r5, #0]
    2ad8:	e6da      	b.n	2890 <Response_LORA+0xfc>
	else if(tmp_temp < (2750 + offset_value))
    2ada:	4a3b      	ldr	r2, [pc, #236]	; (2bc8 <Response_LORA+0x434>)
    2adc:	4293      	cmp	r3, r2
    2ade:	d80b      	bhi.n	2af8 <Response_LORA+0x364>
		tmp_humi = (-4100 + (53 * tmp_humi)) / 10;
    2ae0:	4d23      	ldr	r5, [pc, #140]	; (2b70 <Response_LORA+0x3dc>)
    2ae2:	2035      	movs	r0, #53	; 0x35
    2ae4:	682b      	ldr	r3, [r5, #0]
    2ae6:	4358      	muls	r0, r3
    2ae8:	4b38      	ldr	r3, [pc, #224]	; (2bcc <Response_LORA+0x438>)
    2aea:	469c      	mov	ip, r3
    2aec:	4460      	add	r0, ip
    2aee:	210a      	movs	r1, #10
    2af0:	4b22      	ldr	r3, [pc, #136]	; (2b7c <Response_LORA+0x3e8>)
    2af2:	4798      	blx	r3
    2af4:	6028      	str	r0, [r5, #0]
    2af6:	e6cb      	b.n	2890 <Response_LORA+0xfc>
	else if(tmp_temp < (3000 + offset_value))
    2af8:	4a35      	ldr	r2, [pc, #212]	; (2bd0 <Response_LORA+0x43c>)
    2afa:	4293      	cmp	r3, r2
    2afc:	d80d      	bhi.n	2b1a <Response_LORA+0x386>
		tmp_humi = (-1810 + (51 * tmp_humi)) / 10;
    2afe:	4d1c      	ldr	r5, [pc, #112]	; (2b70 <Response_LORA+0x3dc>)
    2b00:	682b      	ldr	r3, [r5, #0]
    2b02:	0058      	lsls	r0, r3, #1
    2b04:	18c0      	adds	r0, r0, r3
    2b06:	0103      	lsls	r3, r0, #4
    2b08:	18c0      	adds	r0, r0, r3
    2b0a:	4b32      	ldr	r3, [pc, #200]	; (2bd4 <Response_LORA+0x440>)
    2b0c:	469c      	mov	ip, r3
    2b0e:	4460      	add	r0, ip
    2b10:	210a      	movs	r1, #10
    2b12:	4b1a      	ldr	r3, [pc, #104]	; (2b7c <Response_LORA+0x3e8>)
    2b14:	4798      	blx	r3
    2b16:	6028      	str	r0, [r5, #0]
    2b18:	e6ba      	b.n	2890 <Response_LORA+0xfc>
	else if(tmp_temp < (3250 + offset_value))
    2b1a:	4a2f      	ldr	r2, [pc, #188]	; (2bd8 <Response_LORA+0x444>)
    2b1c:	4293      	cmp	r3, r2
    2b1e:	d85d      	bhi.n	2bdc <Response_LORA+0x448>
		tmp_humi = (1600 + (50 * tmp_humi)) / 10;
    2b20:	4d13      	ldr	r5, [pc, #76]	; (2b70 <Response_LORA+0x3dc>)
    2b22:	2032      	movs	r0, #50	; 0x32
    2b24:	682b      	ldr	r3, [r5, #0]
    2b26:	4358      	muls	r0, r3
    2b28:	23c8      	movs	r3, #200	; 0xc8
    2b2a:	00db      	lsls	r3, r3, #3
    2b2c:	469c      	mov	ip, r3
    2b2e:	4460      	add	r0, ip
    2b30:	210a      	movs	r1, #10
    2b32:	4b12      	ldr	r3, [pc, #72]	; (2b7c <Response_LORA+0x3e8>)
    2b34:	4798      	blx	r3
    2b36:	6028      	str	r0, [r5, #0]
    2b38:	e6aa      	b.n	2890 <Response_LORA+0xfc>
    2b3a:	46c0      	nop			; (mov r8, r8)
    2b3c:	00000226 	.word	0x00000226
    2b40:	20002844 	.word	0x20002844
    2b44:	200031ec 	.word	0x200031ec
    2b48:	00008369 	.word	0x00008369
    2b4c:	00006d6d 	.word	0x00006d6d
    2b50:	00007ce1 	.word	0x00007ce1
    2b54:	471d4400 	.word	0x471d4400
    2b58:	4751f600 	.word	0x4751f600
    2b5c:	00007f21 	.word	0x00007f21
    2b60:	45ec9000 	.word	0x45ec9000
    2b64:	000075dd 	.word	0x000075dd
    2b68:	000075ad 	.word	0x000075ad
    2b6c:	20000f6c 	.word	0x20000f6c
    2b70:	200031e8 	.word	0x200031e8
    2b74:	0000023d 	.word	0x0000023d
    2b78:	fffe1ba0 	.word	0xfffe1ba0
    2b7c:	000071f9 	.word	0x000071f9
    2b80:	200016d4 	.word	0x200016d4
    2b84:	200016dc 	.word	0x200016dc
    2b88:	200016e0 	.word	0x200016e0
    2b8c:	20002870 	.word	0x20002870
    2b90:	20001980 	.word	0x20001980
    2b94:	0000410d 	.word	0x0000410d
    2b98:	200019a0 	.word	0x200019a0
    2b9c:	200002f0 	.word	0x200002f0
    2ba0:	00005535 	.word	0x00005535
    2ba4:	00005581 	.word	0x00005581
    2ba8:	00005555 	.word	0x00005555
    2bac:	00000752 	.word	0x00000752
    2bb0:	ffffd760 	.word	0xffffd760
    2bb4:	0000084c 	.word	0x0000084c
    2bb8:	ffffdff8 	.word	0xffffdff8
    2bbc:	00000946 	.word	0x00000946
    2bc0:	ffffe34a 	.word	0xffffe34a
    2bc4:	ffff0344 	.word	0xffff0344
    2bc8:	00000b3a 	.word	0x00000b3a
    2bcc:	ffffeffc 	.word	0xffffeffc
    2bd0:	00000c34 	.word	0x00000c34
    2bd4:	fffff8ee 	.word	0xfffff8ee
    2bd8:	00000d2e 	.word	0x00000d2e
	else if(tmp_temp < (3500 + offset_value))
    2bdc:	4a4c      	ldr	r2, [pc, #304]	; (2d10 <Response_LORA+0x57c>)
    2bde:	4293      	cmp	r3, r2
    2be0:	d80d      	bhi.n	2bfe <Response_LORA+0x46a>
		tmp_humi = (2090 + (49 * tmp_humi)) / 10;
    2be2:	4d4c      	ldr	r5, [pc, #304]	; (2d14 <Response_LORA+0x580>)
    2be4:	682b      	ldr	r3, [r5, #0]
    2be6:	00d8      	lsls	r0, r3, #3
    2be8:	1ac3      	subs	r3, r0, r3
    2bea:	00d8      	lsls	r0, r3, #3
    2bec:	1ac0      	subs	r0, r0, r3
    2bee:	4b4a      	ldr	r3, [pc, #296]	; (2d18 <Response_LORA+0x584>)
    2bf0:	469c      	mov	ip, r3
    2bf2:	4460      	add	r0, ip
    2bf4:	210a      	movs	r1, #10
    2bf6:	4b49      	ldr	r3, [pc, #292]	; (2d1c <Response_LORA+0x588>)
    2bf8:	4798      	blx	r3
    2bfa:	6028      	str	r0, [r5, #0]
    2bfc:	e648      	b.n	2890 <Response_LORA+0xfc>
	else if(tmp_temp < (3750 + offset_value))
    2bfe:	4a48      	ldr	r2, [pc, #288]	; (2d20 <Response_LORA+0x58c>)
    2c00:	4293      	cmp	r3, r2
    2c02:	d80d      	bhi.n	2c20 <Response_LORA+0x48c>
		tmp_humi = (2470 + (49 * tmp_humi)) / 10;
    2c04:	4d43      	ldr	r5, [pc, #268]	; (2d14 <Response_LORA+0x580>)
    2c06:	682b      	ldr	r3, [r5, #0]
    2c08:	00d8      	lsls	r0, r3, #3
    2c0a:	1ac3      	subs	r3, r0, r3
    2c0c:	00d8      	lsls	r0, r3, #3
    2c0e:	1ac0      	subs	r0, r0, r3
    2c10:	4b44      	ldr	r3, [pc, #272]	; (2d24 <Response_LORA+0x590>)
    2c12:	469c      	mov	ip, r3
    2c14:	4460      	add	r0, ip
    2c16:	210a      	movs	r1, #10
    2c18:	4b40      	ldr	r3, [pc, #256]	; (2d1c <Response_LORA+0x588>)
    2c1a:	4798      	blx	r3
    2c1c:	6028      	str	r0, [r5, #0]
    2c1e:	e637      	b.n	2890 <Response_LORA+0xfc>
	else if(tmp_temp < (4000 + offset_value))
    2c20:	4a41      	ldr	r2, [pc, #260]	; (2d28 <Response_LORA+0x594>)
    2c22:	4293      	cmp	r3, r2
    2c24:	d80b      	bhi.n	2c3e <Response_LORA+0x4aa>
		tmp_humi = (2900 + (48 * tmp_humi)) / 10;
    2c26:	4d3b      	ldr	r5, [pc, #236]	; (2d14 <Response_LORA+0x580>)
    2c28:	2030      	movs	r0, #48	; 0x30
    2c2a:	682b      	ldr	r3, [r5, #0]
    2c2c:	4358      	muls	r0, r3
    2c2e:	4b3f      	ldr	r3, [pc, #252]	; (2d2c <Response_LORA+0x598>)
    2c30:	469c      	mov	ip, r3
    2c32:	4460      	add	r0, ip
    2c34:	210a      	movs	r1, #10
    2c36:	4b39      	ldr	r3, [pc, #228]	; (2d1c <Response_LORA+0x588>)
    2c38:	4798      	blx	r3
    2c3a:	6028      	str	r0, [r5, #0]
    2c3c:	e628      	b.n	2890 <Response_LORA+0xfc>
		tmp_humi = (2900 + (48 * tmp_humi)) / 10;
    2c3e:	4d35      	ldr	r5, [pc, #212]	; (2d14 <Response_LORA+0x580>)
    2c40:	2030      	movs	r0, #48	; 0x30
    2c42:	682b      	ldr	r3, [r5, #0]
    2c44:	4358      	muls	r0, r3
    2c46:	4b39      	ldr	r3, [pc, #228]	; (2d2c <Response_LORA+0x598>)
    2c48:	469c      	mov	ip, r3
    2c4a:	4460      	add	r0, ip
    2c4c:	210a      	movs	r1, #10
    2c4e:	4b33      	ldr	r3, [pc, #204]	; (2d1c <Response_LORA+0x588>)
    2c50:	4798      	blx	r3
    2c52:	6028      	str	r0, [r5, #0]
    2c54:	e61c      	b.n	2890 <Response_LORA+0xfc>
		uart_send_ascii_byte(Debug_COM, tmp_adc.byte[1]);
    2c56:	4e36      	ldr	r6, [pc, #216]	; (2d30 <Response_LORA+0x59c>)
    2c58:	0030      	movs	r0, r6
    2c5a:	4f36      	ldr	r7, [pc, #216]	; (2d34 <Response_LORA+0x5a0>)
    2c5c:	47b8      	blx	r7
		uart_send_ascii_byte(Debug_COM, tmp_adc.byte[0]);
    2c5e:	0029      	movs	r1, r5
    2c60:	0030      	movs	r0, r6
    2c62:	47b8      	blx	r7
		uTXByte(Debug_COM, ' ');
    2c64:	2120      	movs	r1, #32
    2c66:	0030      	movs	r0, r6
    2c68:	4b33      	ldr	r3, [pc, #204]	; (2d38 <Response_LORA+0x5a4>)
    2c6a:	4798      	blx	r3
    2c6c:	e61f      	b.n	28ae <Response_LORA+0x11a>
		uart_send_ascii_byte(Debug_COM, tmp_adc.byte[1]);
    2c6e:	4e30      	ldr	r6, [pc, #192]	; (2d30 <Response_LORA+0x59c>)
    2c70:	0030      	movs	r0, r6
    2c72:	4f30      	ldr	r7, [pc, #192]	; (2d34 <Response_LORA+0x5a0>)
    2c74:	47b8      	blx	r7
		uart_send_ascii_byte(Debug_COM, tmp_adc.byte[0]);
    2c76:	0029      	movs	r1, r5
    2c78:	0030      	movs	r0, r6
    2c7a:	47b8      	blx	r7
		uTXByte(Debug_COM, ' ');
    2c7c:	2120      	movs	r1, #32
    2c7e:	0030      	movs	r0, r6
    2c80:	4b2d      	ldr	r3, [pc, #180]	; (2d38 <Response_LORA+0x5a4>)
    2c82:	4798      	blx	r3
    2c84:	e624      	b.n	28d0 <Response_LORA+0x13c>
		uart_send_ascii_byte(Debug_COM, tmp_adc.byte[1]);
    2c86:	4e2a      	ldr	r6, [pc, #168]	; (2d30 <Response_LORA+0x59c>)
    2c88:	0030      	movs	r0, r6
    2c8a:	4f2a      	ldr	r7, [pc, #168]	; (2d34 <Response_LORA+0x5a0>)
    2c8c:	47b8      	blx	r7
		uart_send_ascii_byte(Debug_COM, tmp_adc.byte[0]);
    2c8e:	0029      	movs	r1, r5
    2c90:	0030      	movs	r0, r6
    2c92:	47b8      	blx	r7
		uTXByte(Debug_COM, ' ');
    2c94:	2120      	movs	r1, #32
    2c96:	0030      	movs	r0, r6
    2c98:	4b27      	ldr	r3, [pc, #156]	; (2d38 <Response_LORA+0x5a4>)
    2c9a:	4798      	blx	r3
    2c9c:	e629      	b.n	28f2 <Response_LORA+0x15e>
		uart_send_ascii_byte(Debug_COM, tmp_adc.byte[1]);
    2c9e:	4e24      	ldr	r6, [pc, #144]	; (2d30 <Response_LORA+0x59c>)
    2ca0:	0030      	movs	r0, r6
    2ca2:	4f24      	ldr	r7, [pc, #144]	; (2d34 <Response_LORA+0x5a0>)
    2ca4:	47b8      	blx	r7
		uart_send_ascii_byte(Debug_COM, tmp_adc.byte[0]);
    2ca6:	0029      	movs	r1, r5
    2ca8:	0030      	movs	r0, r6
    2caa:	47b8      	blx	r7
		uTXByte(Debug_COM, ' ');
    2cac:	2120      	movs	r1, #32
    2cae:	0030      	movs	r0, r6
    2cb0:	4b21      	ldr	r3, [pc, #132]	; (2d38 <Response_LORA+0x5a4>)
    2cb2:	4798      	blx	r3
    2cb4:	e62e      	b.n	2914 <Response_LORA+0x180>
		uart_send_ascii_byte(Debug_COM, tmp_adc.byte[1]);
    2cb6:	4e1e      	ldr	r6, [pc, #120]	; (2d30 <Response_LORA+0x59c>)
    2cb8:	0030      	movs	r0, r6
    2cba:	4f1e      	ldr	r7, [pc, #120]	; (2d34 <Response_LORA+0x5a0>)
    2cbc:	47b8      	blx	r7
		uart_send_ascii_byte(Debug_COM, tmp_adc.byte[0]);
    2cbe:	0029      	movs	r1, r5
    2cc0:	0030      	movs	r0, r6
    2cc2:	47b8      	blx	r7
		uTXByte(Debug_COM, ' ');
    2cc4:	2120      	movs	r1, #32
    2cc6:	0030      	movs	r0, r6
    2cc8:	4b1b      	ldr	r3, [pc, #108]	; (2d38 <Response_LORA+0x5a4>)
    2cca:	4798      	blx	r3
    2ccc:	e633      	b.n	2936 <Response_LORA+0x1a2>
		uTXByte(Debug_COM, '(');
    2cce:	2128      	movs	r1, #40	; 0x28
    2cd0:	4817      	ldr	r0, [pc, #92]	; (2d30 <Response_LORA+0x59c>)
    2cd2:	4f19      	ldr	r7, [pc, #100]	; (2d38 <Response_LORA+0x5a4>)
    2cd4:	47b8      	blx	r7
		uart_send_ascii_byte(Debug_COM, tmp_adc.byte[1]);
    2cd6:	0031      	movs	r1, r6
    2cd8:	4815      	ldr	r0, [pc, #84]	; (2d30 <Response_LORA+0x59c>)
    2cda:	4e16      	ldr	r6, [pc, #88]	; (2d34 <Response_LORA+0x5a0>)
    2cdc:	47b0      	blx	r6
		uart_send_ascii_byte(Debug_COM, tmp_adc.byte[0]);
    2cde:	0029      	movs	r1, r5
    2ce0:	4813      	ldr	r0, [pc, #76]	; (2d30 <Response_LORA+0x59c>)
    2ce2:	47b0      	blx	r6
		uTXByte(Debug_COM, ')');
    2ce4:	2129      	movs	r1, #41	; 0x29
    2ce6:	4812      	ldr	r0, [pc, #72]	; (2d30 <Response_LORA+0x59c>)
    2ce8:	47b8      	blx	r7
		uTXByte(Debug_COM, ' ');
    2cea:	2120      	movs	r1, #32
    2cec:	4810      	ldr	r0, [pc, #64]	; (2d30 <Response_LORA+0x59c>)
    2cee:	47b8      	blx	r7
    2cf0:	e632      	b.n	2958 <Response_LORA+0x1c4>
		uart_send_ascii_byte(Debug_COM, tmp_adc.byte[1]);
    2cf2:	4e0f      	ldr	r6, [pc, #60]	; (2d30 <Response_LORA+0x59c>)
    2cf4:	0030      	movs	r0, r6
    2cf6:	4f0f      	ldr	r7, [pc, #60]	; (2d34 <Response_LORA+0x5a0>)
    2cf8:	47b8      	blx	r7
		uart_send_ascii_byte(Debug_COM, tmp_adc.byte[0]);
    2cfa:	0029      	movs	r1, r5
    2cfc:	0030      	movs	r0, r6
    2cfe:	47b8      	blx	r7
		uTXByte(Debug_COM, 0x0d);
    2d00:	210d      	movs	r1, #13
    2d02:	0030      	movs	r0, r6
    2d04:	4d0c      	ldr	r5, [pc, #48]	; (2d38 <Response_LORA+0x5a4>)
    2d06:	47a8      	blx	r5
		uTXByte(Debug_COM, 0x0d);
    2d08:	210d      	movs	r1, #13
    2d0a:	0030      	movs	r0, r6
    2d0c:	47a8      	blx	r5
    2d0e:	e634      	b.n	297a <Response_LORA+0x1e6>
    2d10:	00000e28 	.word	0x00000e28
    2d14:	200031e8 	.word	0x200031e8
    2d18:	0000082a 	.word	0x0000082a
    2d1c:	000071f9 	.word	0x000071f9
    2d20:	00000f22 	.word	0x00000f22
    2d24:	000009a6 	.word	0x000009a6
    2d28:	0000101c 	.word	0x0000101c
    2d2c:	00000b54 	.word	0x00000b54
    2d30:	200002f0 	.word	0x200002f0
    2d34:	00005555 	.word	0x00005555
    2d38:	00005535 	.word	0x00005535

00002d3c <Wait_RX_IRQ_Index_Func>:


void Wait_RX_IRQ_Index_Func(volatile LORA_DEFINE_t *tmp_LORA)
{
    2d3c:	b510      	push	{r4, lr}
    2d3e:	0004      	movs	r4, r0
	if(tmp_LORA->LoRa_IRQ_Flag == 1)
    2d40:	4b08      	ldr	r3, [pc, #32]	; (2d64 <Wait_RX_IRQ_Index_Func+0x28>)
    2d42:	5cc3      	ldrb	r3, [r0, r3]
    2d44:	2b01      	cmp	r3, #1
    2d46:	d000      	beq.n	2d4a <Wait_RX_IRQ_Index_Func+0xe>
	{
		LED_R_ON
		wdt_reset_count();
		change_and_check(&(tmp_LORA->NowStatus), Read_LoRa_RxBuffer_Index);
	}
}
    2d48:	bd10      	pop	{r4, pc}
    2d4a:	2280      	movs	r2, #128	; 0x80
    2d4c:	0512      	lsls	r2, r2, #20
    2d4e:	4b06      	ldr	r3, [pc, #24]	; (2d68 <Wait_RX_IRQ_Index_Func+0x2c>)
    2d50:	615a      	str	r2, [r3, #20]
		wdt_reset_count();
    2d52:	4b06      	ldr	r3, [pc, #24]	; (2d6c <Wait_RX_IRQ_Index_Func+0x30>)
    2d54:	4798      	blx	r3
		change_and_check(&(tmp_LORA->NowStatus), Read_LoRa_RxBuffer_Index);
    2d56:	4b06      	ldr	r3, [pc, #24]	; (2d70 <Wait_RX_IRQ_Index_Func+0x34>)
    2d58:	18e0      	adds	r0, r4, r3
    2d5a:	2106      	movs	r1, #6
    2d5c:	4b05      	ldr	r3, [pc, #20]	; (2d74 <Wait_RX_IRQ_Index_Func+0x38>)
    2d5e:	4798      	blx	r3
}
    2d60:	e7f2      	b.n	2d48 <Wait_RX_IRQ_Index_Func+0xc>
    2d62:	46c0      	nop			; (mov r8, r8)
    2d64:	00000223 	.word	0x00000223
    2d68:	41004400 	.word	0x41004400
    2d6c:	00003ea1 	.word	0x00003ea1
    2d70:	0000021d 	.word	0x0000021d
    2d74:	000040f9 	.word	0x000040f9

00002d78 <HexTomA>:




unsigned int HexTomA(unsigned int tmpVal)
{
    2d78:	b510      	push	{r4, lr}
	unsigned long tmp32;
	tmp32 = (unsigned long*)tmpVal;
	tmp32 = (tmp32 * 525) / 1000;
    2d7a:	4b08      	ldr	r3, [pc, #32]	; (2d9c <HexTomA+0x24>)
    2d7c:	4358      	muls	r0, r3
    2d7e:	21fa      	movs	r1, #250	; 0xfa
    2d80:	0089      	lsls	r1, r1, #2
    2d82:	4b07      	ldr	r3, [pc, #28]	; (2da0 <HexTomA+0x28>)
    2d84:	4798      	blx	r3
    2d86:	23c8      	movs	r3, #200	; 0xc8
    2d88:	005b      	lsls	r3, r3, #1
    2d8a:	4298      	cmp	r0, r3
    2d8c:	d200      	bcs.n	2d90 <HexTomA+0x18>
    2d8e:	0018      	movs	r0, r3
	if(tmp32 < 400)		tmp32 = 400;
	if(tmp32 > 2000)	tmp32 = 2000;
	return (unsigned int*)tmp32;
    2d90:	23fa      	movs	r3, #250	; 0xfa
    2d92:	00db      	lsls	r3, r3, #3
    2d94:	4298      	cmp	r0, r3
    2d96:	d900      	bls.n	2d9a <HexTomA+0x22>
    2d98:	0018      	movs	r0, r3
}
    2d9a:	bd10      	pop	{r4, pc}
    2d9c:	0000020d 	.word	0x0000020d
    2da0:	000071f9 	.word	0x000071f9

00002da4 <sensor_main_func>:

void sensor_main_func(void)
{
    2da4:	b5f0      	push	{r4, r5, r6, r7, lr}
    2da6:	46d6      	mov	lr, sl
    2da8:	464f      	mov	r7, r9
    2daa:	4646      	mov	r6, r8
    2dac:	b5c0      	push	{r6, r7, lr}
	unsigned long tmpVal;
	unsigned int tmp16;
	//Dust_function();
	uTXByte(ETC_COM, 0x30);
    2dae:	4db4      	ldr	r5, [pc, #720]	; (3080 <sensor_main_func+0x2dc>)
    2db0:	2130      	movs	r1, #48	; 0x30
    2db2:	0028      	movs	r0, r5
    2db4:	4cb3      	ldr	r4, [pc, #716]	; (3084 <sensor_main_func+0x2e0>)
    2db6:	47a0      	blx	r4
	uTXByte(ETC_COM, 0x0d);
    2db8:	210d      	movs	r1, #13
    2dba:	0028      	movs	r0, r5
    2dbc:	47a0      	blx	r4
	
	Sensor_Module_Time_Count = 0;
    2dbe:	2300      	movs	r3, #0
    2dc0:	4ab1      	ldr	r2, [pc, #708]	; (3088 <sensor_main_func+0x2e4>)
    2dc2:	6013      	str	r3, [r2, #0]
	Sensor_Module_RX_Count = 0;
    2dc4:	4ab1      	ldr	r2, [pc, #708]	; (308c <sensor_main_func+0x2e8>)
    2dc6:	7013      	strb	r3, [r2, #0]
	while(Sensor_Module_RX_Count != Sensor_Module_RX_Count_Max)
	{
		usart_read_buffer_job(&MyUart04, (uint8_t *)Sensor_Module_buffer, MAX_RX_BUFFER_LENGTH);
    2dc8:	4db1      	ldr	r5, [pc, #708]	; (3090 <sensor_main_func+0x2ec>)
    2dca:	4cad      	ldr	r4, [pc, #692]	; (3080 <sensor_main_func+0x2dc>)
    2dcc:	4eb1      	ldr	r6, [pc, #708]	; (3094 <sensor_main_func+0x2f0>)
    2dce:	2201      	movs	r2, #1
    2dd0:	0029      	movs	r1, r5
    2dd2:	0020      	movs	r0, r4
    2dd4:	47b0      	blx	r6
		//uTXByte(Debug_COM, Dust_buffer[0]);
		if(Sensor_Module_Time_Count == Sensor_Module_TimeOut_Max)
    2dd6:	4bac      	ldr	r3, [pc, #688]	; (3088 <sensor_main_func+0x2e4>)
    2dd8:	681b      	ldr	r3, [r3, #0]
    2dda:	2b05      	cmp	r3, #5
    2ddc:	d100      	bne.n	2de0 <sensor_main_func+0x3c>
    2dde:	e0e1      	b.n	2fa4 <sensor_main_func+0x200>
	while(Sensor_Module_RX_Count != Sensor_Module_RX_Count_Max)
    2de0:	4baa      	ldr	r3, [pc, #680]	; (308c <sensor_main_func+0x2e8>)
    2de2:	781b      	ldrb	r3, [r3, #0]
    2de4:	2b18      	cmp	r3, #24
    2de6:	d1f2      	bne.n	2dce <sensor_main_func+0x2a>
    2de8:	4cab      	ldr	r4, [pc, #684]	; (3098 <sensor_main_func+0x2f4>)
    2dea:	0027      	movs	r7, r4
    2dec:	3718      	adds	r7, #24
		}
	}
	
	for(unsigned char i = 0; i< Sensor_Module_RX_Count_Max; i++)
	{
		uTXByte(Debug_COM, Sensor_Module_Data[i]);
    2dee:	4eab      	ldr	r6, [pc, #684]	; (309c <sensor_main_func+0x2f8>)
    2df0:	4da4      	ldr	r5, [pc, #656]	; (3084 <sensor_main_func+0x2e0>)
    2df2:	7821      	ldrb	r1, [r4, #0]
    2df4:	0030      	movs	r0, r6
    2df6:	47a8      	blx	r5
    2df8:	3401      	adds	r4, #1
	for(unsigned char i = 0; i< Sensor_Module_RX_Count_Max; i++)
    2dfa:	42bc      	cmp	r4, r7
    2dfc:	d1f9      	bne.n	2df2 <sensor_main_func+0x4e>
	}
	uTXByte(Debug_COM, 0x0d);
    2dfe:	210d      	movs	r1, #13
    2e00:	48a6      	ldr	r0, [pc, #664]	; (309c <sensor_main_func+0x2f8>)
    2e02:	4ba0      	ldr	r3, [pc, #640]	; (3084 <sensor_main_func+0x2e0>)
    2e04:	4798      	blx	r3
	
	ADC_Raw_01 = adc_get_val(ADC_USER_01);
    2e06:	2000      	movs	r0, #0
    2e08:	4ca5      	ldr	r4, [pc, #660]	; (30a0 <sensor_main_func+0x2fc>)
    2e0a:	47a0      	blx	r4
    2e0c:	4ba5      	ldr	r3, [pc, #660]	; (30a4 <sensor_main_func+0x300>)
    2e0e:	6018      	str	r0, [r3, #0]
	ADC_Raw_02 = adc_get_val(ADC_USER_02);
    2e10:	2001      	movs	r0, #1
    2e12:	47a0      	blx	r4
    2e14:	4ba4      	ldr	r3, [pc, #656]	; (30a8 <sensor_main_func+0x304>)
    2e16:	6018      	str	r0, [r3, #0]
	ADC_Raw_03 = adc_get_val(ADC_USER_03);
    2e18:	2004      	movs	r0, #4
    2e1a:	47a0      	blx	r4
    2e1c:	4ba3      	ldr	r3, [pc, #652]	; (30ac <sensor_main_func+0x308>)
    2e1e:	6018      	str	r0, [r3, #0]
	ADC_Raw_04 = adc_get_val(ADC_USER_04);
    2e20:	2005      	movs	r0, #5
    2e22:	47a0      	blx	r4
    2e24:	4ba2      	ldr	r3, [pc, #648]	; (30b0 <sensor_main_func+0x30c>)
    2e26:	6018      	str	r0, [r3, #0]
	ADC_Raw_05 = adc_get_val(ADC_USER_05);
    2e28:	2006      	movs	r0, #6
    2e2a:	47a0      	blx	r4
    2e2c:	4ba1      	ldr	r3, [pc, #644]	; (30b4 <sensor_main_func+0x310>)
    2e2e:	6018      	str	r0, [r3, #0]
	ADC_Raw_06 = adc_get_val(ADC_USER_06);
    2e30:	2007      	movs	r0, #7
    2e32:	47a0      	blx	r4
    2e34:	4ba0      	ldr	r3, [pc, #640]	; (30b8 <sensor_main_func+0x314>)
    2e36:	6018      	str	r0, [r3, #0]
	
	if(LORA01->Lora_Show_Flag == true)
    2e38:	4ba0      	ldr	r3, [pc, #640]	; (30bc <sensor_main_func+0x318>)
    2e3a:	681a      	ldr	r2, [r3, #0]
    2e3c:	4ba0      	ldr	r3, [pc, #640]	; (30c0 <sensor_main_func+0x31c>)
    2e3e:	5cd3      	ldrb	r3, [r2, r3]
    2e40:	2b01      	cmp	r3, #1
    2e42:	d100      	bne.n	2e46 <sensor_main_func+0xa2>
    2e44:	e0bd      	b.n	2fc2 <sensor_main_func+0x21e>
		uTXByte(Debug_COM, ' ');
		uTXByte(Debug_COM, '|');
		uTXByte(Debug_COM, ' ');
	}
	
	if(ADC_Temp_01 == 0)
    2e46:	4b9f      	ldr	r3, [pc, #636]	; (30c4 <sensor_main_func+0x320>)
    2e48:	681b      	ldr	r3, [r3, #0]
    2e4a:	2b00      	cmp	r3, #0
    2e4c:	d000      	beq.n	2e50 <sensor_main_func+0xac>
    2e4e:	e108      	b.n	3062 <sensor_main_func+0x2be>
		ADC_Temp_01 = ADC_Raw_01;
    2e50:	4b94      	ldr	r3, [pc, #592]	; (30a4 <sensor_main_func+0x300>)
    2e52:	681a      	ldr	r2, [r3, #0]
    2e54:	4b9b      	ldr	r3, [pc, #620]	; (30c4 <sensor_main_func+0x320>)
    2e56:	601a      	str	r2, [r3, #0]
	else
		ADC_Temp_01 = (ADC_Temp_01 + ADC_Raw_01)/2;
	
	if(ADC_Temp_02 == 0)
    2e58:	4b9b      	ldr	r3, [pc, #620]	; (30c8 <sensor_main_func+0x324>)
    2e5a:	681b      	ldr	r3, [r3, #0]
    2e5c:	2b00      	cmp	r3, #0
    2e5e:	d000      	beq.n	2e62 <sensor_main_func+0xbe>
    2e60:	e106      	b.n	3070 <sensor_main_func+0x2cc>
		ADC_Temp_02 = ADC_Raw_02;
    2e62:	4b91      	ldr	r3, [pc, #580]	; (30a8 <sensor_main_func+0x304>)
    2e64:	681a      	ldr	r2, [r3, #0]
    2e66:	4b98      	ldr	r3, [pc, #608]	; (30c8 <sensor_main_func+0x324>)
    2e68:	601a      	str	r2, [r3, #0]
	else
		ADC_Temp_02 = (ADC_Temp_02 + ADC_Raw_02)/2;
	
	
	tmpVal = HexTomA(ADC_Raw_03) - 400;
    2e6a:	4f90      	ldr	r7, [pc, #576]	; (30ac <sensor_main_func+0x308>)
    2e6c:	6838      	ldr	r0, [r7, #0]
    2e6e:	4e97      	ldr	r6, [pc, #604]	; (30cc <sensor_main_func+0x328>)
    2e70:	47b0      	blx	r6
    2e72:	3891      	subs	r0, #145	; 0x91
    2e74:	38ff      	subs	r0, #255	; 0xff
	ADC_Raw_03 = (unsigned int*)((tmpVal * CH_Formula_base[0]) / 10000);
    2e76:	4d96      	ldr	r5, [pc, #600]	; (30d0 <sensor_main_func+0x32c>)
    2e78:	682b      	ldr	r3, [r5, #0]
    2e7a:	4358      	muls	r0, r3
    2e7c:	4c95      	ldr	r4, [pc, #596]	; (30d4 <sensor_main_func+0x330>)
    2e7e:	4996      	ldr	r1, [pc, #600]	; (30d8 <sensor_main_func+0x334>)
    2e80:	47a0      	blx	r4
    2e82:	4681      	mov	r9, r0
    2e84:	6038      	str	r0, [r7, #0]
	
	tmpVal = HexTomA(ADC_Raw_04) - 400;
    2e86:	4f8a      	ldr	r7, [pc, #552]	; (30b0 <sensor_main_func+0x30c>)
    2e88:	6838      	ldr	r0, [r7, #0]
    2e8a:	47b0      	blx	r6
    2e8c:	3891      	subs	r0, #145	; 0x91
    2e8e:	38ff      	subs	r0, #255	; 0xff
	ADC_Raw_04 = (unsigned int*)((tmpVal * CH_Formula_base[1]) / 10000);
    2e90:	686b      	ldr	r3, [r5, #4]
    2e92:	4358      	muls	r0, r3
    2e94:	4990      	ldr	r1, [pc, #576]	; (30d8 <sensor_main_func+0x334>)
    2e96:	47a0      	blx	r4
    2e98:	4680      	mov	r8, r0
    2e9a:	6038      	str	r0, [r7, #0]
	
	tmpVal = HexTomA(ADC_Raw_05) - 400;
    2e9c:	4b85      	ldr	r3, [pc, #532]	; (30b4 <sensor_main_func+0x310>)
    2e9e:	469a      	mov	sl, r3
    2ea0:	6818      	ldr	r0, [r3, #0]
    2ea2:	47b0      	blx	r6
    2ea4:	3891      	subs	r0, #145	; 0x91
    2ea6:	38ff      	subs	r0, #255	; 0xff
	ADC_Raw_05 = (unsigned int*)((tmpVal * CH_Formula_base[2]) / 10000);
    2ea8:	68ab      	ldr	r3, [r5, #8]
    2eaa:	4358      	muls	r0, r3
    2eac:	498a      	ldr	r1, [pc, #552]	; (30d8 <sensor_main_func+0x334>)
    2eae:	47a0      	blx	r4
    2eb0:	0007      	movs	r7, r0
    2eb2:	4653      	mov	r3, sl
    2eb4:	6018      	str	r0, [r3, #0]
	
	tmpVal = HexTomA(ADC_Raw_06) - 400;
    2eb6:	4b80      	ldr	r3, [pc, #512]	; (30b8 <sensor_main_func+0x314>)
    2eb8:	469a      	mov	sl, r3
    2eba:	6818      	ldr	r0, [r3, #0]
    2ebc:	47b0      	blx	r6
    2ebe:	0003      	movs	r3, r0
    2ec0:	3b91      	subs	r3, #145	; 0x91
    2ec2:	3bff      	subs	r3, #255	; 0xff
	ADC_Raw_06 = (unsigned int*)((tmpVal * CH_Formula_base[3]) / 10000);
    2ec4:	68e8      	ldr	r0, [r5, #12]
    2ec6:	4358      	muls	r0, r3
    2ec8:	4983      	ldr	r1, [pc, #524]	; (30d8 <sensor_main_func+0x334>)
    2eca:	47a0      	blx	r4
    2ecc:	4653      	mov	r3, sl
    2ece:	6018      	str	r0, [r3, #0]
	
	if(ADC_Raw_03 > ADC_Temp_03) ADC_Temp_03 = ADC_Raw_03;
    2ed0:	4b82      	ldr	r3, [pc, #520]	; (30dc <sensor_main_func+0x338>)
    2ed2:	681b      	ldr	r3, [r3, #0]
    2ed4:	4599      	cmp	r9, r3
    2ed6:	d902      	bls.n	2ede <sensor_main_func+0x13a>
    2ed8:	4b80      	ldr	r3, [pc, #512]	; (30dc <sensor_main_func+0x338>)
    2eda:	464a      	mov	r2, r9
    2edc:	601a      	str	r2, [r3, #0]
	if(ADC_Raw_04 > ADC_Temp_04) ADC_Temp_04 = ADC_Raw_04;
    2ede:	4b80      	ldr	r3, [pc, #512]	; (30e0 <sensor_main_func+0x33c>)
    2ee0:	681b      	ldr	r3, [r3, #0]
    2ee2:	4598      	cmp	r8, r3
    2ee4:	d902      	bls.n	2eec <sensor_main_func+0x148>
    2ee6:	4b7e      	ldr	r3, [pc, #504]	; (30e0 <sensor_main_func+0x33c>)
    2ee8:	4642      	mov	r2, r8
    2eea:	601a      	str	r2, [r3, #0]
	if(ADC_Raw_05 > ADC_Temp_05) ADC_Temp_05 = ADC_Raw_05;
    2eec:	4b7d      	ldr	r3, [pc, #500]	; (30e4 <sensor_main_func+0x340>)
    2eee:	681b      	ldr	r3, [r3, #0]
    2ef0:	429f      	cmp	r7, r3
    2ef2:	d901      	bls.n	2ef8 <sensor_main_func+0x154>
    2ef4:	4b7b      	ldr	r3, [pc, #492]	; (30e4 <sensor_main_func+0x340>)
    2ef6:	601f      	str	r7, [r3, #0]
	if(ADC_Raw_06 > ADC_Temp_06) ADC_Temp_06 = ADC_Raw_06;
    2ef8:	4b7b      	ldr	r3, [pc, #492]	; (30e8 <sensor_main_func+0x344>)
    2efa:	681b      	ldr	r3, [r3, #0]
    2efc:	4298      	cmp	r0, r3
    2efe:	d901      	bls.n	2f04 <sensor_main_func+0x160>
    2f00:	4b79      	ldr	r3, [pc, #484]	; (30e8 <sensor_main_func+0x344>)
    2f02:	6018      	str	r0, [r3, #0]
	
	if(LORA01->Lora_Show_Flag == true)
    2f04:	4b6d      	ldr	r3, [pc, #436]	; (30bc <sensor_main_func+0x318>)
    2f06:	681a      	ldr	r2, [r3, #0]
    2f08:	4b6d      	ldr	r3, [pc, #436]	; (30c0 <sensor_main_func+0x31c>)
    2f0a:	5cd3      	ldrb	r3, [r2, r3]
    2f0c:	2b01      	cmp	r3, #1
    2f0e:	d14f      	bne.n	2fb0 <sensor_main_func+0x20c>
	{
		uart_send_word(Debug_COM, hex_to_bcd(ADC_Raw_01));
    2f10:	4b64      	ldr	r3, [pc, #400]	; (30a4 <sensor_main_func+0x300>)
    2f12:	6818      	ldr	r0, [r3, #0]
    2f14:	4f75      	ldr	r7, [pc, #468]	; (30ec <sensor_main_func+0x348>)
    2f16:	47b8      	blx	r7
    2f18:	0001      	movs	r1, r0
    2f1a:	4c60      	ldr	r4, [pc, #384]	; (309c <sensor_main_func+0x2f8>)
    2f1c:	0020      	movs	r0, r4
    2f1e:	4e74      	ldr	r6, [pc, #464]	; (30f0 <sensor_main_func+0x34c>)
    2f20:	47b0      	blx	r6
		uTXByte(Debug_COM, ' ');
    2f22:	2120      	movs	r1, #32
    2f24:	0020      	movs	r0, r4
    2f26:	4d57      	ldr	r5, [pc, #348]	; (3084 <sensor_main_func+0x2e0>)
    2f28:	47a8      	blx	r5
		uart_send_word(Debug_COM, hex_to_bcd(ADC_Raw_02));
    2f2a:	4b5f      	ldr	r3, [pc, #380]	; (30a8 <sensor_main_func+0x304>)
    2f2c:	6818      	ldr	r0, [r3, #0]
    2f2e:	47b8      	blx	r7
    2f30:	0001      	movs	r1, r0
    2f32:	0020      	movs	r0, r4
    2f34:	47b0      	blx	r6
		uTXByte(Debug_COM, ' ');
    2f36:	2120      	movs	r1, #32
    2f38:	0020      	movs	r0, r4
    2f3a:	47a8      	blx	r5
		uart_send_word(Debug_COM, hex_to_bcd(ADC_Raw_03));
    2f3c:	4b5b      	ldr	r3, [pc, #364]	; (30ac <sensor_main_func+0x308>)
    2f3e:	6818      	ldr	r0, [r3, #0]
    2f40:	47b8      	blx	r7
    2f42:	0001      	movs	r1, r0
    2f44:	0020      	movs	r0, r4
    2f46:	47b0      	blx	r6
		uTXByte(Debug_COM, ' ');
    2f48:	2120      	movs	r1, #32
    2f4a:	0020      	movs	r0, r4
    2f4c:	47a8      	blx	r5
		uart_send_word(Debug_COM, hex_to_bcd(ADC_Raw_04));
    2f4e:	4b58      	ldr	r3, [pc, #352]	; (30b0 <sensor_main_func+0x30c>)
    2f50:	6818      	ldr	r0, [r3, #0]
    2f52:	47b8      	blx	r7
    2f54:	0001      	movs	r1, r0
    2f56:	0020      	movs	r0, r4
    2f58:	47b0      	blx	r6
		uTXByte(Debug_COM, ' ');
    2f5a:	2120      	movs	r1, #32
    2f5c:	0020      	movs	r0, r4
    2f5e:	47a8      	blx	r5
		uart_send_word(Debug_COM, hex_to_bcd(ADC_Raw_05));
    2f60:	4b54      	ldr	r3, [pc, #336]	; (30b4 <sensor_main_func+0x310>)
    2f62:	6818      	ldr	r0, [r3, #0]
    2f64:	47b8      	blx	r7
    2f66:	0001      	movs	r1, r0
    2f68:	0020      	movs	r0, r4
    2f6a:	47b0      	blx	r6
		uTXByte(Debug_COM, ' ');
    2f6c:	2120      	movs	r1, #32
    2f6e:	0020      	movs	r0, r4
    2f70:	47a8      	blx	r5
		uart_send_word(Debug_COM, hex_to_bcd(ADC_Raw_06));
    2f72:	4b51      	ldr	r3, [pc, #324]	; (30b8 <sensor_main_func+0x314>)
    2f74:	6818      	ldr	r0, [r3, #0]
    2f76:	47b8      	blx	r7
    2f78:	0001      	movs	r1, r0
    2f7a:	0020      	movs	r0, r4
    2f7c:	47b0      	blx	r6
		uTXByte(Debug_COM, ' ');
    2f7e:	2120      	movs	r1, #32
    2f80:	0020      	movs	r0, r4
    2f82:	47a8      	blx	r5
		uTXByte(Debug_COM, '{');
    2f84:	217b      	movs	r1, #123	; 0x7b
    2f86:	0020      	movs	r0, r4
    2f88:	47a8      	blx	r5
		uart_send_word(Debug_COM, hex_to_bcd(ADC_PM25_Temp));
    2f8a:	4b5a      	ldr	r3, [pc, #360]	; (30f4 <sensor_main_func+0x350>)
    2f8c:	6818      	ldr	r0, [r3, #0]
    2f8e:	47b8      	blx	r7
    2f90:	0001      	movs	r1, r0
    2f92:	0020      	movs	r0, r4
    2f94:	47b0      	blx	r6
		uTXByte(Debug_COM, '}');
    2f96:	217d      	movs	r1, #125	; 0x7d
    2f98:	0020      	movs	r0, r4
    2f9a:	47a8      	blx	r5
		uTXByte(Debug_COM, 0x0d);
    2f9c:	210d      	movs	r1, #13
    2f9e:	0020      	movs	r0, r4
    2fa0:	47a8      	blx	r5
    2fa2:	e005      	b.n	2fb0 <sensor_main_func+0x20c>
			if(LORA01->Lora_Show_Flag == true)	uart_str("Dust Time Out\r\0");
    2fa4:	4b45      	ldr	r3, [pc, #276]	; (30bc <sensor_main_func+0x318>)
    2fa6:	681a      	ldr	r2, [r3, #0]
    2fa8:	4b45      	ldr	r3, [pc, #276]	; (30c0 <sensor_main_func+0x31c>)
    2faa:	5cd3      	ldrb	r3, [r2, r3]
    2fac:	2b01      	cmp	r3, #1
    2fae:	d004      	beq.n	2fba <sensor_main_func+0x216>
	}
	
}
    2fb0:	bc1c      	pop	{r2, r3, r4}
    2fb2:	4690      	mov	r8, r2
    2fb4:	4699      	mov	r9, r3
    2fb6:	46a2      	mov	sl, r4
    2fb8:	bdf0      	pop	{r4, r5, r6, r7, pc}
			if(LORA01->Lora_Show_Flag == true)	uart_str("Dust Time Out\r\0");
    2fba:	484f      	ldr	r0, [pc, #316]	; (30f8 <sensor_main_func+0x354>)
    2fbc:	4b4f      	ldr	r3, [pc, #316]	; (30fc <sensor_main_func+0x358>)
    2fbe:	4798      	blx	r3
    2fc0:	e7f6      	b.n	2fb0 <sensor_main_func+0x20c>
		uart_send_word(Debug_COM, hex_to_bcd(ADC_Raw_01));
    2fc2:	4b38      	ldr	r3, [pc, #224]	; (30a4 <sensor_main_func+0x300>)
    2fc4:	6818      	ldr	r0, [r3, #0]
    2fc6:	4f49      	ldr	r7, [pc, #292]	; (30ec <sensor_main_func+0x348>)
    2fc8:	47b8      	blx	r7
    2fca:	0001      	movs	r1, r0
    2fcc:	4c33      	ldr	r4, [pc, #204]	; (309c <sensor_main_func+0x2f8>)
    2fce:	0020      	movs	r0, r4
    2fd0:	4e47      	ldr	r6, [pc, #284]	; (30f0 <sensor_main_func+0x34c>)
    2fd2:	47b0      	blx	r6
		uTXByte(Debug_COM, ' ');
    2fd4:	2120      	movs	r1, #32
    2fd6:	0020      	movs	r0, r4
    2fd8:	4d2a      	ldr	r5, [pc, #168]	; (3084 <sensor_main_func+0x2e0>)
    2fda:	47a8      	blx	r5
		uart_send_word(Debug_COM, hex_to_bcd(ADC_Raw_02));
    2fdc:	4b32      	ldr	r3, [pc, #200]	; (30a8 <sensor_main_func+0x304>)
    2fde:	6818      	ldr	r0, [r3, #0]
    2fe0:	47b8      	blx	r7
    2fe2:	0001      	movs	r1, r0
    2fe4:	0020      	movs	r0, r4
    2fe6:	47b0      	blx	r6
		uTXByte(Debug_COM, ' ');
    2fe8:	2120      	movs	r1, #32
    2fea:	0020      	movs	r0, r4
    2fec:	47a8      	blx	r5
		uart_send_word(Debug_COM, hex_to_bcd(ADC_Raw_03));
    2fee:	4b2f      	ldr	r3, [pc, #188]	; (30ac <sensor_main_func+0x308>)
    2ff0:	6818      	ldr	r0, [r3, #0]
    2ff2:	47b8      	blx	r7
    2ff4:	0001      	movs	r1, r0
    2ff6:	0020      	movs	r0, r4
    2ff8:	47b0      	blx	r6
		uTXByte(Debug_COM, ' ');
    2ffa:	2120      	movs	r1, #32
    2ffc:	0020      	movs	r0, r4
    2ffe:	47a8      	blx	r5
		uart_send_word(Debug_COM, hex_to_bcd(ADC_Raw_04));
    3000:	4b2b      	ldr	r3, [pc, #172]	; (30b0 <sensor_main_func+0x30c>)
    3002:	6818      	ldr	r0, [r3, #0]
    3004:	47b8      	blx	r7
    3006:	0001      	movs	r1, r0
    3008:	0020      	movs	r0, r4
    300a:	47b0      	blx	r6
		uTXByte(Debug_COM, ' ');
    300c:	2120      	movs	r1, #32
    300e:	0020      	movs	r0, r4
    3010:	47a8      	blx	r5
		uart_send_word(Debug_COM, hex_to_bcd(ADC_Raw_05));
    3012:	4b28      	ldr	r3, [pc, #160]	; (30b4 <sensor_main_func+0x310>)
    3014:	6818      	ldr	r0, [r3, #0]
    3016:	47b8      	blx	r7
    3018:	0001      	movs	r1, r0
    301a:	0020      	movs	r0, r4
    301c:	47b0      	blx	r6
		uTXByte(Debug_COM, ' ');
    301e:	2120      	movs	r1, #32
    3020:	0020      	movs	r0, r4
    3022:	47a8      	blx	r5
		uart_send_word(Debug_COM, hex_to_bcd(ADC_Raw_06));
    3024:	4b24      	ldr	r3, [pc, #144]	; (30b8 <sensor_main_func+0x314>)
    3026:	6818      	ldr	r0, [r3, #0]
    3028:	47b8      	blx	r7
    302a:	0001      	movs	r1, r0
    302c:	0020      	movs	r0, r4
    302e:	47b0      	blx	r6
		uTXByte(Debug_COM, ' ');
    3030:	2120      	movs	r1, #32
    3032:	0020      	movs	r0, r4
    3034:	47a8      	blx	r5
		uTXByte(Debug_COM, '{');
    3036:	217b      	movs	r1, #123	; 0x7b
    3038:	0020      	movs	r0, r4
    303a:	47a8      	blx	r5
			uart_send_word(Debug_COM, hex_to_bcd(ADC_PM25_Temp));
    303c:	4b2d      	ldr	r3, [pc, #180]	; (30f4 <sensor_main_func+0x350>)
    303e:	6818      	ldr	r0, [r3, #0]
    3040:	47b8      	blx	r7
    3042:	0001      	movs	r1, r0
    3044:	0020      	movs	r0, r4
    3046:	47b0      	blx	r6
		uTXByte(Debug_COM, '}');
    3048:	217d      	movs	r1, #125	; 0x7d
    304a:	0020      	movs	r0, r4
    304c:	47a8      	blx	r5
		uTXByte(Debug_COM, ' ');
    304e:	2120      	movs	r1, #32
    3050:	0020      	movs	r0, r4
    3052:	47a8      	blx	r5
		uTXByte(Debug_COM, '|');
    3054:	217c      	movs	r1, #124	; 0x7c
    3056:	0020      	movs	r0, r4
    3058:	47a8      	blx	r5
		uTXByte(Debug_COM, ' ');
    305a:	2120      	movs	r1, #32
    305c:	0020      	movs	r0, r4
    305e:	47a8      	blx	r5
    3060:	e6f1      	b.n	2e46 <sensor_main_func+0xa2>
		ADC_Temp_01 = (ADC_Temp_01 + ADC_Raw_01)/2;
    3062:	4a10      	ldr	r2, [pc, #64]	; (30a4 <sensor_main_func+0x300>)
    3064:	6812      	ldr	r2, [r2, #0]
    3066:	189b      	adds	r3, r3, r2
    3068:	085b      	lsrs	r3, r3, #1
    306a:	4a16      	ldr	r2, [pc, #88]	; (30c4 <sensor_main_func+0x320>)
    306c:	6013      	str	r3, [r2, #0]
    306e:	e6f3      	b.n	2e58 <sensor_main_func+0xb4>
		ADC_Temp_02 = (ADC_Temp_02 + ADC_Raw_02)/2;
    3070:	4a0d      	ldr	r2, [pc, #52]	; (30a8 <sensor_main_func+0x304>)
    3072:	6812      	ldr	r2, [r2, #0]
    3074:	189b      	adds	r3, r3, r2
    3076:	085b      	lsrs	r3, r3, #1
    3078:	4a13      	ldr	r2, [pc, #76]	; (30c8 <sensor_main_func+0x324>)
    307a:	6013      	str	r3, [r2, #0]
    307c:	e6f5      	b.n	2e6a <sensor_main_func+0xc6>
    307e:	46c0      	nop			; (mov r8, r8)
    3080:	2000284c 	.word	0x2000284c
    3084:	00005535 	.word	0x00005535
    3088:	20000f68 	.word	0x20000f68
    308c:	200016d8 	.word	0x200016d8
    3090:	200003a8 	.word	0x200003a8
    3094:	0000608d 	.word	0x0000608d
    3098:	20001984 	.word	0x20001984
    309c:	200002f0 	.word	0x200002f0
    30a0:	00003365 	.word	0x00003365
    30a4:	200015b4 	.word	0x200015b4
    30a8:	20000314 	.word	0x20000314
    30ac:	200015b0 	.word	0x200015b0
    30b0:	2000193c 	.word	0x2000193c
    30b4:	20000d10 	.word	0x20000d10
    30b8:	20001958 	.word	0x20001958
    30bc:	20001944 	.word	0x20001944
    30c0:	00000226 	.word	0x00000226
    30c4:	20002844 	.word	0x20002844
    30c8:	20000f6c 	.word	0x20000f6c
    30cc:	00002d79 	.word	0x00002d79
    30d0:	200016e4 	.word	0x200016e4
    30d4:	000071f9 	.word	0x000071f9
    30d8:	00002710 	.word	0x00002710
    30dc:	200016d4 	.word	0x200016d4
    30e0:	200016dc 	.word	0x200016dc
    30e4:	200016e0 	.word	0x200016e0
    30e8:	20002870 	.word	0x20002870
    30ec:	000057f5 	.word	0x000057f5
    30f0:	000055c9 	.word	0x000055c9
    30f4:	200019a0 	.word	0x200019a0
    30f8:	00008810 	.word	0x00008810
    30fc:	00003101 	.word	0x00003101

00003100 <uart_str>:




void uart_str(const char *tmp_ptr)
{
    3100:	b570      	push	{r4, r5, r6, lr}
	char *ptr;
	ptr = tmp_ptr;
	while(*ptr != '\0')
    3102:	7801      	ldrb	r1, [r0, #0]
    3104:	2900      	cmp	r1, #0
    3106:	d008      	beq.n	311a <uart_str+0x1a>
    3108:	0004      	movs	r4, r0
	{
		uTXByte(Debug_COM, *ptr);
    310a:	4e04      	ldr	r6, [pc, #16]	; (311c <uart_str+0x1c>)
    310c:	4d04      	ldr	r5, [pc, #16]	; (3120 <uart_str+0x20>)
    310e:	0030      	movs	r0, r6
    3110:	47a8      	blx	r5
		ptr++;
    3112:	3401      	adds	r4, #1
	while(*ptr != '\0')
    3114:	7821      	ldrb	r1, [r4, #0]
    3116:	2900      	cmp	r1, #0
    3118:	d1f9      	bne.n	310e <uart_str+0xe>
	}
}
    311a:	bd70      	pop	{r4, r5, r6, pc}
    311c:	200002f0 	.word	0x200002f0
    3120:	00005535 	.word	0x00005535

00003124 <Print_Lora_number>:


void Print_Lora_number(volatile LORA_DEFINE_t *tmp_LORA)
{
    3124:	b510      	push	{r4, lr}
	if(tmp_LORA == LORA01)
    3126:	4b06      	ldr	r3, [pc, #24]	; (3140 <Print_Lora_number+0x1c>)
    3128:	681b      	ldr	r3, [r3, #0]
    312a:	4283      	cmp	r3, r0
    312c:	d003      	beq.n	3136 <Print_Lora_number+0x12>
		uart_str(&Msg_LoRA01[0]);
	else
		uart_str(&Msg_LoRA02[0]);
    312e:	4805      	ldr	r0, [pc, #20]	; (3144 <Print_Lora_number+0x20>)
    3130:	4b05      	ldr	r3, [pc, #20]	; (3148 <Print_Lora_number+0x24>)
    3132:	4798      	blx	r3
}
    3134:	bd10      	pop	{r4, pc}
		uart_str(&Msg_LoRA01[0]);
    3136:	4805      	ldr	r0, [pc, #20]	; (314c <Print_Lora_number+0x28>)
    3138:	4b03      	ldr	r3, [pc, #12]	; (3148 <Print_Lora_number+0x24>)
    313a:	4798      	blx	r3
    313c:	e7fa      	b.n	3134 <Print_Lora_number+0x10>
    313e:	46c0      	nop			; (mov r8, r8)
    3140:	20001944 	.word	0x20001944
    3144:	00008874 	.word	0x00008874
    3148:	00003101 	.word	0x00003101
    314c:	0000886c 	.word	0x0000886c

00003150 <Print_Line_Msg>:

void Print_Line_Msg(void)
{
    3150:	b510      	push	{r4, lr}
	uart_str(&Msg_Desh[0]);
    3152:	4802      	ldr	r0, [pc, #8]	; (315c <Print_Line_Msg+0xc>)
    3154:	4b02      	ldr	r3, [pc, #8]	; (3160 <Print_Line_Msg+0x10>)
    3156:	4798      	blx	r3
}
    3158:	bd10      	pop	{r4, pc}
    315a:	46c0      	nop			; (mov r8, r8)
    315c:	00008840 	.word	0x00008840
    3160:	00003101 	.word	0x00003101

00003164 <Print_Start_Msg>:



void Print_Start_Msg(void)
{
    3164:	b510      	push	{r4, lr}
	uart_str(&Msg_Power_ON_START[0]);
    3166:	4803      	ldr	r0, [pc, #12]	; (3174 <Print_Start_Msg+0x10>)
    3168:	4b03      	ldr	r3, [pc, #12]	; (3178 <Print_Start_Msg+0x14>)
    316a:	4798      	blx	r3
	Print_Line_Msg();
    316c:	4b03      	ldr	r3, [pc, #12]	; (317c <Print_Start_Msg+0x18>)
    316e:	4798      	blx	r3
}
    3170:	bd10      	pop	{r4, pc}
    3172:	46c0      	nop			; (mov r8, r8)
    3174:	0000887c 	.word	0x0000887c
    3178:	00003101 	.word	0x00003101
    317c:	00003151 	.word	0x00003151

00003180 <Print_Find_Msg>:


void Print_Find_Msg(void)
{
    3180:	b510      	push	{r4, lr}
	uart_str(&Msg_FoundIt[0]);
    3182:	4802      	ldr	r0, [pc, #8]	; (318c <Print_Find_Msg+0xc>)
    3184:	4b02      	ldr	r3, [pc, #8]	; (3190 <Print_Find_Msg+0x10>)
    3186:	4798      	blx	r3
}
    3188:	bd10      	pop	{r4, pc}
    318a:	46c0      	nop			; (mov r8, r8)
    318c:	0000885c 	.word	0x0000885c
    3190:	00003101 	.word	0x00003101

00003194 <Print_Enable_CMD_Msg>:

void Print_Enable_CMD_Msg(void)
{
    3194:	b510      	push	{r4, lr}
	uTXByte(Debug_COM, 'E');
    3196:	2145      	movs	r1, #69	; 0x45
    3198:	4801      	ldr	r0, [pc, #4]	; (31a0 <Print_Enable_CMD_Msg+0xc>)
    319a:	4b02      	ldr	r3, [pc, #8]	; (31a4 <Print_Enable_CMD_Msg+0x10>)
    319c:	4798      	blx	r3
}
    319e:	bd10      	pop	{r4, pc}
    31a0:	200002f0 	.word	0x200002f0
    31a4:	00005535 	.word	0x00005535

000031a8 <Print_Disable_CMD_Msg>:

void Print_Disable_CMD_Msg(void)
{
    31a8:	b510      	push	{r4, lr}
	uTXByte(Debug_COM, ' ');
    31aa:	2120      	movs	r1, #32
    31ac:	4801      	ldr	r0, [pc, #4]	; (31b4 <Print_Disable_CMD_Msg+0xc>)
    31ae:	4b02      	ldr	r3, [pc, #8]	; (31b8 <Print_Disable_CMD_Msg+0x10>)
    31b0:	4798      	blx	r3
}
    31b2:	bd10      	pop	{r4, pc}
    31b4:	200002f0 	.word	0x200002f0
    31b8:	00005535 	.word	0x00005535

000031bc <Print_Dev_Time_Value>:

void Print_Dev_Time_Value(unsigned char tmp_index, volatile LORA_Dev_List_t *tmp_LORA_Dev_List_Index)
{
    31bc:	b5f8      	push	{r3, r4, r5, r6, r7, lr}
    31be:	0007      	movs	r7, r0
    31c0:	000c      	movs	r4, r1
	UINT16u_t tmp16;
	uTXByte(Debug_COM, ' ');
    31c2:	4d0a      	ldr	r5, [pc, #40]	; (31ec <Print_Dev_Time_Value+0x30>)
    31c4:	2120      	movs	r1, #32
    31c6:	0028      	movs	r0, r5
    31c8:	4e09      	ldr	r6, [pc, #36]	; (31f0 <Print_Dev_Time_Value+0x34>)
    31ca:	47b0      	blx	r6
	tmp16.byte[1] = tmp_LORA_Dev_List_Index[tmp_index].Dev_Time.byte[1];
    31cc:	0139      	lsls	r1, r7, #4
    31ce:	1861      	adds	r1, r4, r1
    31d0:	7a4b      	ldrb	r3, [r1, #9]
	tmp16.byte[0] = tmp_LORA_Dev_List_Index[tmp_index].Dev_Time.byte[0];
    31d2:	7a08      	ldrb	r0, [r1, #8]
    31d4:	021b      	lsls	r3, r3, #8
	uart_send_word(Debug_COM, hex_to_bcd(tmp16.word));
    31d6:	4318      	orrs	r0, r3
    31d8:	4b06      	ldr	r3, [pc, #24]	; (31f4 <Print_Dev_Time_Value+0x38>)
    31da:	4798      	blx	r3
    31dc:	0001      	movs	r1, r0
    31de:	0028      	movs	r0, r5
    31e0:	4b05      	ldr	r3, [pc, #20]	; (31f8 <Print_Dev_Time_Value+0x3c>)
    31e2:	4798      	blx	r3
	uTXByte(Debug_COM, ' ');
    31e4:	2120      	movs	r1, #32
    31e6:	0028      	movs	r0, r5
    31e8:	47b0      	blx	r6
}
    31ea:	bdf8      	pop	{r3, r4, r5, r6, r7, pc}
    31ec:	200002f0 	.word	0x200002f0
    31f0:	00005535 	.word	0x00005535
    31f4:	000057f5 	.word	0x000057f5
    31f8:	000055c9 	.word	0x000055c9

000031fc <Print_One_Form_List_Table>:

void Print_One_Form_List_Table(unsigned char tmp_index, volatile LORA_Dev_List_t *tmp_LORA_Dev_List_Index)
{
    31fc:	b5f0      	push	{r4, r5, r6, r7, lr}
    31fe:	b083      	sub	sp, #12
    3200:	0004      	movs	r4, r0
    3202:	000e      	movs	r6, r1
	uart_str("No.\0");
    3204:	4820      	ldr	r0, [pc, #128]	; (3288 <Print_One_Form_List_Table+0x8c>)
    3206:	4b21      	ldr	r3, [pc, #132]	; (328c <Print_One_Form_List_Table+0x90>)
    3208:	4798      	blx	r3
	uart_send_word_for_ListNumber(Debug_COM, hex_to_bcd(tmp_LORA_Dev_List_Index[tmp_index].Dev_Number));
    320a:	9400      	str	r4, [sp, #0]
    320c:	0125      	lsls	r5, r4, #4
    320e:	9601      	str	r6, [sp, #4]
    3210:	46b4      	mov	ip, r6
    3212:	4465      	add	r5, ip
    3214:	7828      	ldrb	r0, [r5, #0]
    3216:	b2c0      	uxtb	r0, r0
    3218:	4b1d      	ldr	r3, [pc, #116]	; (3290 <Print_One_Form_List_Table+0x94>)
    321a:	4798      	blx	r3
    321c:	0001      	movs	r1, r0
    321e:	4c1d      	ldr	r4, [pc, #116]	; (3294 <Print_One_Form_List_Table+0x98>)
    3220:	0020      	movs	r0, r4
    3222:	4b1d      	ldr	r3, [pc, #116]	; (3298 <Print_One_Form_List_Table+0x9c>)
    3224:	4798      	blx	r3
	uTXByte(Debug_COM, ' ');
    3226:	2120      	movs	r1, #32
    3228:	0020      	movs	r0, r4
    322a:	4e1c      	ldr	r6, [pc, #112]	; (329c <Print_One_Form_List_Table+0xa0>)
    322c:	47b0      	blx	r6
	uart_send_ascii_byte(Debug_COM, tmp_LORA_Dev_List_Index[tmp_index].MAC_ID.byte[0]);
    322e:	7929      	ldrb	r1, [r5, #4]
    3230:	b2c9      	uxtb	r1, r1
    3232:	0020      	movs	r0, r4
    3234:	4f1a      	ldr	r7, [pc, #104]	; (32a0 <Print_One_Form_List_Table+0xa4>)
    3236:	47b8      	blx	r7
	uart_send_ascii_byte(Debug_COM, tmp_LORA_Dev_List_Index[tmp_index].MAC_ID.byte[1]);
    3238:	7969      	ldrb	r1, [r5, #5]
    323a:	b2c9      	uxtb	r1, r1
    323c:	0020      	movs	r0, r4
    323e:	47b8      	blx	r7
	uart_send_ascii_byte(Debug_COM, tmp_LORA_Dev_List_Index[tmp_index].MAC_ID.byte[2]);
    3240:	79a9      	ldrb	r1, [r5, #6]
    3242:	b2c9      	uxtb	r1, r1
    3244:	0020      	movs	r0, r4
    3246:	47b8      	blx	r7
	uart_send_ascii_byte(Debug_COM, tmp_LORA_Dev_List_Index[tmp_index].MAC_ID.byte[3]);
    3248:	79e9      	ldrb	r1, [r5, #7]
    324a:	b2c9      	uxtb	r1, r1
    324c:	0020      	movs	r0, r4
    324e:	47b8      	blx	r7
	uTXByte(Debug_COM, ' ');
    3250:	2120      	movs	r1, #32
    3252:	0020      	movs	r0, r4
    3254:	47b0      	blx	r6
	Print_Dev_Time_Value(tmp_index, tmp_LORA_Dev_List_Index);
    3256:	9901      	ldr	r1, [sp, #4]
    3258:	9800      	ldr	r0, [sp, #0]
    325a:	4b12      	ldr	r3, [pc, #72]	; (32a4 <Print_One_Form_List_Table+0xa8>)
    325c:	4798      	blx	r3
	uTXByte(Debug_COM, ' ');
    325e:	2120      	movs	r1, #32
    3260:	0020      	movs	r0, r4
    3262:	47b0      	blx	r6
	uTXByte(Debug_COM, '[');
    3264:	215b      	movs	r1, #91	; 0x5b
    3266:	0020      	movs	r0, r4
    3268:	47b0      	blx	r6
	if(tmp_LORA_Dev_List_Index[tmp_index].Dev_En_Flag == Dev_EN)
    326a:	786b      	ldrb	r3, [r5, #1]
    326c:	2b01      	cmp	r3, #1
    326e:	d007      	beq.n	3280 <Print_One_Form_List_Table+0x84>
	{
		Print_Enable_CMD_Msg();
	}
	else
	{
		Print_Disable_CMD_Msg();
    3270:	4b0d      	ldr	r3, [pc, #52]	; (32a8 <Print_One_Form_List_Table+0xac>)
    3272:	4798      	blx	r3
	}
	uTXByte(Debug_COM, ']');
    3274:	215d      	movs	r1, #93	; 0x5d
    3276:	4807      	ldr	r0, [pc, #28]	; (3294 <Print_One_Form_List_Table+0x98>)
    3278:	4b08      	ldr	r3, [pc, #32]	; (329c <Print_One_Form_List_Table+0xa0>)
    327a:	4798      	blx	r3
}
    327c:	b003      	add	sp, #12
    327e:	bdf0      	pop	{r4, r5, r6, r7, pc}
		Print_Enable_CMD_Msg();
    3280:	4b0a      	ldr	r3, [pc, #40]	; (32ac <Print_One_Form_List_Table+0xb0>)
    3282:	4798      	blx	r3
    3284:	e7f6      	b.n	3274 <Print_One_Form_List_Table+0x78>
    3286:	46c0      	nop			; (mov r8, r8)
    3288:	00008820 	.word	0x00008820
    328c:	00003101 	.word	0x00003101
    3290:	000057f5 	.word	0x000057f5
    3294:	200002f0 	.word	0x200002f0
    3298:	00005615 	.word	0x00005615
    329c:	00005535 	.word	0x00005535
    32a0:	00005555 	.word	0x00005555
    32a4:	000031bd 	.word	0x000031bd
    32a8:	000031a9 	.word	0x000031a9
    32ac:	00003195 	.word	0x00003195

000032b0 <Print_Arrow_Right>:



void Print_Arrow_Right(void)
{
    32b0:	b510      	push	{r4, lr}
	uart_str(&Msg_Arrow_Right[0]);
    32b2:	4802      	ldr	r0, [pc, #8]	; (32bc <Print_Arrow_Right+0xc>)
    32b4:	4b02      	ldr	r3, [pc, #8]	; (32c0 <Print_Arrow_Right+0x10>)
    32b6:	4798      	blx	r3
}
    32b8:	bd10      	pop	{r4, pc}
    32ba:	46c0      	nop			; (mov r8, r8)
    32bc:	00008838 	.word	0x00008838
    32c0:	00003101 	.word	0x00003101

000032c4 <watchdog_early_warning_callback>:


void watchdog_early_warning_callback(void)
{
	
}
    32c4:	4770      	bx	lr
	...

000032c8 <configure_wdt>:

void configure_wdt(void)
{
    32c8:	b500      	push	{lr}
    32ca:	b083      	sub	sp, #12
{
	/* Sanity check arguments */
	Assert(config);

	/* Default configuration values */
	config->always_on            = false;
    32cc:	2300      	movs	r3, #0
    32ce:	466a      	mov	r2, sp
    32d0:	7013      	strb	r3, [r2, #0]
	config->enable               = true;
    32d2:	2201      	movs	r2, #1
    32d4:	4669      	mov	r1, sp
    32d6:	704a      	strb	r2, [r1, #1]
#if !(SAML21) && !(SAML22) && !(SAMC20) && !(SAMC21) && !(SAMR30)
	config->clock_source         = GCLK_GENERATOR_4;
    32d8:	3203      	adds	r2, #3
    32da:	708a      	strb	r2, [r1, #2]
#endif
	config->timeout_period       = WDT_PERIOD_16384CLK;
	config->window_period        = WDT_PERIOD_NONE;
    32dc:	710b      	strb	r3, [r1, #4]
	config_wdt.always_on            = false;
#if !((SAML21) || (SAMC21) || (SAML22) || (SAMR30))
	config_wdt.clock_source         = GCLK_GENERATOR_4;
#endif
	//config_wdt.timeout_period       = WDT_PERIOD_4096CLK;
	config_wdt.timeout_period       = WDT_PERIOD_8192CLK;
    32de:	330b      	adds	r3, #11
    32e0:	70cb      	strb	r3, [r1, #3]
	config_wdt.early_warning_period = WDT_PERIOD_2048CLK;
    32e2:	3b02      	subs	r3, #2
    32e4:	714b      	strb	r3, [r1, #5]
	//! [setup_3]

	/* Initialize and enable the Watchdog with the user settings */
	//! [setup_4]
	wdt_set_config(&config_wdt);
    32e6:	4668      	mov	r0, sp
    32e8:	4b01      	ldr	r3, [pc, #4]	; (32f0 <configure_wdt+0x28>)
    32ea:	4798      	blx	r3
	//! [setup_4]
}
    32ec:	b003      	add	sp, #12
    32ee:	bd00      	pop	{pc}
    32f0:	00003da1 	.word	0x00003da1

000032f4 <configure_wdt_callbacks>:

void configure_wdt_callbacks(void)
{
    32f4:	b510      	push	{r4, lr}
	//! [setup_5]
	wdt_register_callback(watchdog_early_warning_callback,
    32f6:	2100      	movs	r1, #0
    32f8:	4803      	ldr	r0, [pc, #12]	; (3308 <configure_wdt_callbacks+0x14>)
    32fa:	4b04      	ldr	r3, [pc, #16]	; (330c <configure_wdt_callbacks+0x18>)
    32fc:	4798      	blx	r3
		WDT_CALLBACK_EARLY_WARNING);
	//! [setup_5]

	//! [setup_6]
	wdt_enable_callback(WDT_CALLBACK_EARLY_WARNING);
    32fe:	2000      	movs	r0, #0
    3300:	4b03      	ldr	r3, [pc, #12]	; (3310 <configure_wdt_callbacks+0x1c>)
    3302:	4798      	blx	r3
	//! [setup_6]
}
    3304:	bd10      	pop	{r4, pc}
    3306:	46c0      	nop			; (mov r8, r8)
    3308:	000032c5 	.word	0x000032c5
    330c:	00003eb9 	.word	0x00003eb9
    3310:	00003ecd 	.word	0x00003ecd

00003314 <configure_adc>:



//! [setup]
void configure_adc(void)
{
    3314:	b510      	push	{r4, lr}
    3316:	b08c      	sub	sp, #48	; 0x30
	//! [setup_config]
	struct adc_config config_adc;
	//! [setup_config]
	//! [setup_config_defaults]
	adc_get_config_defaults(&config_adc);
    3318:	4668      	mov	r0, sp
    331a:	4b0e      	ldr	r3, [pc, #56]	; (3354 <configure_adc+0x40>)
    331c:	4798      	blx	r3
	//! [setup_config_defaults]

	//! [setup_set_config]
	adc_init(&adc_instance, ADC, &config_adc);
    331e:	4c0e      	ldr	r4, [pc, #56]	; (3358 <configure_adc+0x44>)
    3320:	466a      	mov	r2, sp
    3322:	490e      	ldr	r1, [pc, #56]	; (335c <configure_adc+0x48>)
    3324:	0020      	movs	r0, r4
    3326:	4b0e      	ldr	r3, [pc, #56]	; (3360 <configure_adc+0x4c>)
    3328:	4798      	blx	r3
		struct adc_module *const module_inst)
{
	Assert(module_inst);
	Assert(module_inst->hw);

	Adc *const adc_module = module_inst->hw;
    332a:	6822      	ldr	r2, [r4, #0]
	/* Sanity check arguments */
	Assert(module_inst);

	Adc *const adc_module = module_inst->hw;

	if (adc_module->STATUS.reg & ADC_STATUS_SYNCBUSY) {
    332c:	7e53      	ldrb	r3, [r2, #25]

	while (adc_is_syncing(module_inst)) {
    332e:	b25b      	sxtb	r3, r3
    3330:	2b00      	cmp	r3, #0
    3332:	dbfb      	blt.n	332c <configure_adc+0x18>
		system_interrupt_enable(SYSTEM_INTERRUPT_MODULE_ADC);
#   endif
#endif

	/* Disbale interrupt */
	adc_module->INTENCLR.reg = ADC_INTENCLR_MASK;
    3334:	230f      	movs	r3, #15
    3336:	7593      	strb	r3, [r2, #22]
	/* Clear interrupt flag */
	adc_module->INTFLAG.reg = ADC_INTFLAG_MASK;
    3338:	7613      	strb	r3, [r2, #24]

	adc_module->CTRLA.reg |= ADC_CTRLA_ENABLE;
    333a:	7813      	ldrb	r3, [r2, #0]
    333c:	2102      	movs	r1, #2
    333e:	430b      	orrs	r3, r1
    3340:	7013      	strb	r3, [r2, #0]
	Adc *const adc_module = module_inst->hw;
    3342:	4b05      	ldr	r3, [pc, #20]	; (3358 <configure_adc+0x44>)
    3344:	681a      	ldr	r2, [r3, #0]
	if (adc_module->STATUS.reg & ADC_STATUS_SYNCBUSY) {
    3346:	7e53      	ldrb	r3, [r2, #25]

	while (adc_is_syncing(module_inst)) {
    3348:	b25b      	sxtb	r3, r3
    334a:	2b00      	cmp	r3, #0
    334c:	dbfb      	blt.n	3346 <configure_adc+0x32>
	//! [setup_set_config]

	//! [setup_enable]
	adc_enable(&adc_instance);
	//! [setup_enable]
}
    334e:	b00c      	add	sp, #48	; 0x30
    3350:	bd10      	pop	{r4, pc}
    3352:	46c0      	nop			; (mov r8, r8)
    3354:	000033f1 	.word	0x000033f1
    3358:	20002874 	.word	0x20002874
    335c:	42004000 	.word	0x42004000
    3360:	00003439 	.word	0x00003439

00003364 <adc_get_val>:
//! [setup]


uint16_t  adc_get_val(enum adc_positive_input adc_pin )
{
    3364:	b530      	push	{r4, r5, lr}
	static uint16_t result;
	adc_instance.hw->INPUTCTRL.reg &=~ ADC_INPUTCTRL_MUXPOS_Msk;
    3366:	4b20      	ldr	r3, [pc, #128]	; (33e8 <adc_get_val+0x84>)
    3368:	6819      	ldr	r1, [r3, #0]
    336a:	690b      	ldr	r3, [r1, #16]
    336c:	221f      	movs	r2, #31
    336e:	4393      	bics	r3, r2
    3370:	610b      	str	r3, [r1, #16]
	adc_instance.hw->INPUTCTRL.reg |= (adc_pin<<ADC_INPUTCTRL_MUXPOS_Pos);
    3372:	690b      	ldr	r3, [r1, #16]
    3374:	4318      	orrs	r0, r3
    3376:	6108      	str	r0, [r1, #16]
    3378:	7e4b      	ldrb	r3, [r1, #25]
	Assert(module_inst);
	Assert(module_inst->hw);

	Adc *const adc_module = module_inst->hw;

	while (adc_is_syncing(module_inst)) {
    337a:	b25b      	sxtb	r3, r3
    337c:	2b00      	cmp	r3, #0
    337e:	dbfb      	blt.n	3378 <adc_get_val+0x14>
		/* Wait for synchronization */
	}

	adc_module->SWTRIG.reg |= ADC_SWTRIG_START;
    3380:	7b0b      	ldrb	r3, [r1, #12]
    3382:	2202      	movs	r2, #2
    3384:	4313      	orrs	r3, r2
    3386:	730b      	strb	r3, [r1, #12]
    3388:	7e4b      	ldrb	r3, [r1, #25]

	while (adc_is_syncing(module_inst)) {
    338a:	b25b      	sxtb	r3, r3
    338c:	2b00      	cmp	r3, #0
    338e:	dbfb      	blt.n	3388 <adc_get_val+0x24>
	if (int_flags & ADC_INTFLAG_RESRDY) {
    3390:	2001      	movs	r0, #1
	if (int_flags & ADC_INTFLAG_WINMON) {
    3392:	2504      	movs	r5, #4
		status_flags |= ADC_STATUS_WINDOW;
    3394:	2402      	movs	r4, #2
    3396:	e001      	b.n	339c <adc_get_val+0x38>
{
	Assert(module_inst);
	Assert(module_inst->hw);
	Assert(result);

	if (!(adc_get_status(module_inst) & ADC_STATUS_RESULT_READY)) {
    3398:	4210      	tst	r0, r2
    339a:	d10a      	bne.n	33b2 <adc_get_val+0x4e>
	uint32_t int_flags = adc_module->INTFLAG.reg;
    339c:	7e0b      	ldrb	r3, [r1, #24]
    339e:	b2db      	uxtb	r3, r3
	if (int_flags & ADC_INTFLAG_RESRDY) {
    33a0:	0002      	movs	r2, r0
    33a2:	401a      	ands	r2, r3
	if (int_flags & ADC_INTFLAG_WINMON) {
    33a4:	421d      	tst	r5, r3
    33a6:	d000      	beq.n	33aa <adc_get_val+0x46>
		status_flags |= ADC_STATUS_WINDOW;
    33a8:	4322      	orrs	r2, r4
	if (int_flags & ADC_INTFLAG_OVERRUN) {
    33aa:	421c      	tst	r4, r3
    33ac:	d0f4      	beq.n	3398 <adc_get_val+0x34>
		status_flags |= ADC_STATUS_OVERRUN;
    33ae:	432a      	orrs	r2, r5
    33b0:	e7f2      	b.n	3398 <adc_get_val+0x34>
    33b2:	7e4b      	ldrb	r3, [r1, #25]
	}

	Adc *const adc_module = module_inst->hw;

#if (SAMD) || (SAMHA1) || (SAMR21)
	while (adc_is_syncing(module_inst)) {
    33b4:	b25b      	sxtb	r3, r3
    33b6:	2b00      	cmp	r3, #0
    33b8:	dbfb      	blt.n	33b2 <adc_get_val+0x4e>
		/* Wait for synchronization */
	}
#endif

	/* Get ADC result */
	*result = adc_module->RESULT.reg;
    33ba:	8b48      	ldrh	r0, [r1, #26]
    33bc:	b280      	uxth	r0, r0
    33be:	4b0b      	ldr	r3, [pc, #44]	; (33ec <adc_get_val+0x88>)
    33c0:	8018      	strh	r0, [r3, #0]
	adc_module->INTFLAG.reg = int_flags;
    33c2:	2301      	movs	r3, #1
    33c4:	760b      	strb	r3, [r1, #24]
	uint32_t int_flags = adc_module->INTFLAG.reg;
    33c6:	7e0a      	ldrb	r2, [r1, #24]
    33c8:	b2d2      	uxtb	r2, r2
	if (int_flags & ADC_INTFLAG_RESRDY) {
    33ca:	4013      	ands	r3, r2
	if (int_flags & ADC_INTFLAG_WINMON) {
    33cc:	0754      	lsls	r4, r2, #29
    33ce:	d501      	bpl.n	33d4 <adc_get_val+0x70>
		status_flags |= ADC_STATUS_WINDOW;
    33d0:	2402      	movs	r4, #2
    33d2:	4323      	orrs	r3, r4
	if (int_flags & ADC_INTFLAG_OVERRUN) {
    33d4:	0792      	lsls	r2, r2, #30
    33d6:	d501      	bpl.n	33dc <adc_get_val+0x78>
		status_flags |= ADC_STATUS_OVERRUN;
    33d8:	2204      	movs	r2, #4
    33da:	4313      	orrs	r3, r2

	/* Reset ready flag */
	adc_clear_status(module_inst, ADC_STATUS_RESULT_READY);

	if (adc_get_status(module_inst) & ADC_STATUS_OVERRUN) {
    33dc:	075b      	lsls	r3, r3, #29
    33de:	d501      	bpl.n	33e4 <adc_get_val+0x80>
	adc_module->INTFLAG.reg = int_flags;
    33e0:	2302      	movs	r3, #2
    33e2:	760b      	strb	r3, [r1, #24]
	do {
		/* Wait for conversion to be done and read out result */
	} while (adc_read(&adc_instance, &result) == STATUS_BUSY);

	return result;
}
    33e4:	bd30      	pop	{r4, r5, pc}
    33e6:	46c0      	nop			; (mov r8, r8)
    33e8:	20002874 	.word	0x20002874
    33ec:	20000252 	.word	0x20000252

000033f0 <adc_get_config_defaults>:
    33f0:	b510      	push	{r4, lr}
    33f2:	2200      	movs	r2, #0
    33f4:	2300      	movs	r3, #0
    33f6:	7002      	strb	r2, [r0, #0]
    33f8:	7042      	strb	r2, [r0, #1]
    33fa:	2100      	movs	r1, #0
    33fc:	8042      	strh	r2, [r0, #2]
    33fe:	7101      	strb	r1, [r0, #4]
    3400:	7603      	strb	r3, [r0, #24]
    3402:	6202      	str	r2, [r0, #32]
    3404:	61c2      	str	r2, [r0, #28]
    3406:	6082      	str	r2, [r0, #8]
    3408:	2407      	movs	r4, #7
    340a:	7304      	strb	r4, [r0, #12]
    340c:	24c0      	movs	r4, #192	; 0xc0
    340e:	0164      	lsls	r4, r4, #5
    3410:	81c4      	strh	r4, [r0, #14]
    3412:	7403      	strb	r3, [r0, #16]
    3414:	7443      	strb	r3, [r0, #17]
    3416:	7483      	strb	r3, [r0, #18]
    3418:	74c3      	strb	r3, [r0, #19]
    341a:	7503      	strb	r3, [r0, #20]
    341c:	242a      	movs	r4, #42	; 0x2a
    341e:	5503      	strb	r3, [r0, r4]
    3420:	7543      	strb	r3, [r0, #21]
    3422:	7583      	strb	r3, [r0, #22]
    3424:	3c06      	subs	r4, #6
    3426:	5503      	strb	r3, [r0, r4]
    3428:	84c2      	strh	r2, [r0, #38]	; 0x26
    342a:	8502      	strh	r2, [r0, #40]	; 0x28
    342c:	75c1      	strb	r1, [r0, #23]
    342e:	232b      	movs	r3, #43	; 0x2b
    3430:	54c1      	strb	r1, [r0, r3]
    3432:	3301      	adds	r3, #1
    3434:	54c1      	strb	r1, [r0, r3]
    3436:	bd10      	pop	{r4, pc}

00003438 <adc_init>:
    3438:	b5f0      	push	{r4, r5, r6, r7, lr}
    343a:	46de      	mov	lr, fp
    343c:	4657      	mov	r7, sl
    343e:	464e      	mov	r6, r9
    3440:	4645      	mov	r5, r8
    3442:	b5e0      	push	{r5, r6, r7, lr}
    3444:	b097      	sub	sp, #92	; 0x5c
    3446:	0007      	movs	r7, r0
    3448:	0016      	movs	r6, r2
    344a:	6001      	str	r1, [r0, #0]
    344c:	4ac9      	ldr	r2, [pc, #804]	; (3774 <adc_init+0x33c>)
    344e:	6a10      	ldr	r0, [r2, #32]
    3450:	2380      	movs	r3, #128	; 0x80
    3452:	025b      	lsls	r3, r3, #9
    3454:	4303      	orrs	r3, r0
    3456:	6213      	str	r3, [r2, #32]
    3458:	780b      	ldrb	r3, [r1, #0]
    345a:	2005      	movs	r0, #5
    345c:	07db      	lsls	r3, r3, #31
    345e:	d506      	bpl.n	346e <adc_init+0x36>
    3460:	b017      	add	sp, #92	; 0x5c
    3462:	bc3c      	pop	{r2, r3, r4, r5}
    3464:	4690      	mov	r8, r2
    3466:	4699      	mov	r9, r3
    3468:	46a2      	mov	sl, r4
    346a:	46ab      	mov	fp, r5
    346c:	bdf0      	pop	{r4, r5, r6, r7, pc}
    346e:	780b      	ldrb	r3, [r1, #0]
    3470:	3017      	adds	r0, #23
    3472:	079b      	lsls	r3, r3, #30
    3474:	d4f4      	bmi.n	3460 <adc_init+0x28>
    3476:	7873      	ldrb	r3, [r6, #1]
    3478:	713b      	strb	r3, [r7, #4]
    347a:	2b00      	cmp	r3, #0
    347c:	d104      	bne.n	3488 <adc_init+0x50>
    347e:	4abe      	ldr	r2, [pc, #760]	; (3778 <adc_init+0x340>)
    3480:	6c13      	ldr	r3, [r2, #64]	; 0x40
    3482:	2104      	movs	r1, #4
    3484:	430b      	orrs	r3, r1
    3486:	6413      	str	r3, [r2, #64]	; 0x40
    3488:	4bbc      	ldr	r3, [pc, #752]	; (377c <adc_init+0x344>)
    348a:	681b      	ldr	r3, [r3, #0]
    348c:	041b      	lsls	r3, r3, #16
    348e:	0f1b      	lsrs	r3, r3, #28
    3490:	4698      	mov	r8, r3
    3492:	683b      	ldr	r3, [r7, #0]
    3494:	469b      	mov	fp, r3
    3496:	7833      	ldrb	r3, [r6, #0]
    3498:	466a      	mov	r2, sp
    349a:	7013      	strb	r3, [r2, #0]
    349c:	4669      	mov	r1, sp
    349e:	2017      	movs	r0, #23
    34a0:	4bb7      	ldr	r3, [pc, #732]	; (3780 <adc_init+0x348>)
    34a2:	4798      	blx	r3
    34a4:	2017      	movs	r0, #23
    34a6:	4bb7      	ldr	r3, [pc, #732]	; (3784 <adc_init+0x34c>)
    34a8:	4798      	blx	r3
    34aa:	232c      	movs	r3, #44	; 0x2c
    34ac:	5cf2      	ldrb	r2, [r6, r3]
    34ae:	2a00      	cmp	r2, #0
    34b0:	d05a      	beq.n	3568 <adc_init+0x130>
    34b2:	3b01      	subs	r3, #1
    34b4:	5cf5      	ldrb	r5, [r6, r3]
    34b6:	7b33      	ldrb	r3, [r6, #12]
    34b8:	18eb      	adds	r3, r5, r3
    34ba:	b2db      	uxtb	r3, r3
    34bc:	18d1      	adds	r1, r2, r3
    34be:	b2c9      	uxtb	r1, r1
    34c0:	428b      	cmp	r3, r1
    34c2:	d227      	bcs.n	3514 <adc_init+0xdc>
    34c4:	1952      	adds	r2, r2, r5
    34c6:	b2d3      	uxtb	r3, r2
    34c8:	4699      	mov	r9, r3
    34ca:	4baf      	ldr	r3, [pc, #700]	; (3788 <adc_init+0x350>)
    34cc:	469a      	mov	sl, r3
    34ce:	0033      	movs	r3, r6
    34d0:	464e      	mov	r6, r9
    34d2:	46b9      	mov	r9, r7
    34d4:	001f      	movs	r7, r3
    34d6:	e003      	b.n	34e0 <adc_init+0xa8>
    34d8:	3501      	adds	r5, #1
    34da:	b2ed      	uxtb	r5, r5
    34dc:	42ae      	cmp	r6, r5
    34de:	d017      	beq.n	3510 <adc_init+0xd8>
    34e0:	240f      	movs	r4, #15
    34e2:	402c      	ands	r4, r5
    34e4:	7b3b      	ldrb	r3, [r7, #12]
    34e6:	18e4      	adds	r4, r4, r3
    34e8:	2250      	movs	r2, #80	; 0x50
    34ea:	49a8      	ldr	r1, [pc, #672]	; (378c <adc_init+0x354>)
    34ec:	a802      	add	r0, sp, #8
    34ee:	47d0      	blx	sl
    34f0:	2c13      	cmp	r4, #19
    34f2:	d8f1      	bhi.n	34d8 <adc_init+0xa0>
    34f4:	00a4      	lsls	r4, r4, #2
    34f6:	ab02      	add	r3, sp, #8
    34f8:	58e0      	ldr	r0, [r4, r3]
    34fa:	a901      	add	r1, sp, #4
    34fc:	2300      	movs	r3, #0
    34fe:	704b      	strb	r3, [r1, #1]
    3500:	70cb      	strb	r3, [r1, #3]
    3502:	708b      	strb	r3, [r1, #2]
    3504:	3301      	adds	r3, #1
    3506:	700b      	strb	r3, [r1, #0]
    3508:	b2c0      	uxtb	r0, r0
    350a:	4ba1      	ldr	r3, [pc, #644]	; (3790 <adc_init+0x358>)
    350c:	4798      	blx	r3
    350e:	e7e3      	b.n	34d8 <adc_init+0xa0>
    3510:	003e      	movs	r6, r7
    3512:	464f      	mov	r7, r9
    3514:	89f4      	ldrh	r4, [r6, #14]
    3516:	2250      	movs	r2, #80	; 0x50
    3518:	499c      	ldr	r1, [pc, #624]	; (378c <adc_init+0x354>)
    351a:	a802      	add	r0, sp, #8
    351c:	4b9a      	ldr	r3, [pc, #616]	; (3788 <adc_init+0x350>)
    351e:	4798      	blx	r3
    3520:	2c13      	cmp	r4, #19
    3522:	d913      	bls.n	354c <adc_init+0x114>
    3524:	7d73      	ldrb	r3, [r6, #21]
    3526:	009b      	lsls	r3, r3, #2
    3528:	b2db      	uxtb	r3, r3
    352a:	465a      	mov	r2, fp
    352c:	7013      	strb	r3, [r2, #0]
    352e:	7db3      	ldrb	r3, [r6, #22]
    3530:	01db      	lsls	r3, r3, #7
    3532:	7872      	ldrb	r2, [r6, #1]
    3534:	4313      	orrs	r3, r2
    3536:	b2db      	uxtb	r3, r3
    3538:	465a      	mov	r2, fp
    353a:	7053      	strb	r3, [r2, #1]
    353c:	7933      	ldrb	r3, [r6, #4]
    353e:	2b34      	cmp	r3, #52	; 0x34
    3540:	d900      	bls.n	3544 <adc_init+0x10c>
    3542:	e18c      	b.n	385e <adc_init+0x426>
    3544:	009b      	lsls	r3, r3, #2
    3546:	4a93      	ldr	r2, [pc, #588]	; (3794 <adc_init+0x35c>)
    3548:	58d3      	ldr	r3, [r2, r3]
    354a:	469f      	mov	pc, r3
    354c:	00a4      	lsls	r4, r4, #2
    354e:	ab02      	add	r3, sp, #8
    3550:	58e0      	ldr	r0, [r4, r3]
    3552:	a901      	add	r1, sp, #4
    3554:	2300      	movs	r3, #0
    3556:	704b      	strb	r3, [r1, #1]
    3558:	70cb      	strb	r3, [r1, #3]
    355a:	708b      	strb	r3, [r1, #2]
    355c:	3301      	adds	r3, #1
    355e:	700b      	strb	r3, [r1, #0]
    3560:	b2c0      	uxtb	r0, r0
    3562:	4b8b      	ldr	r3, [pc, #556]	; (3790 <adc_init+0x358>)
    3564:	4798      	blx	r3
    3566:	e7dd      	b.n	3524 <adc_init+0xec>
    3568:	7b34      	ldrb	r4, [r6, #12]
    356a:	2250      	movs	r2, #80	; 0x50
    356c:	4987      	ldr	r1, [pc, #540]	; (378c <adc_init+0x354>)
    356e:	a802      	add	r0, sp, #8
    3570:	4b85      	ldr	r3, [pc, #532]	; (3788 <adc_init+0x350>)
    3572:	4798      	blx	r3
    3574:	2c13      	cmp	r4, #19
    3576:	d915      	bls.n	35a4 <adc_init+0x16c>
    3578:	89f4      	ldrh	r4, [r6, #14]
    357a:	2250      	movs	r2, #80	; 0x50
    357c:	4983      	ldr	r1, [pc, #524]	; (378c <adc_init+0x354>)
    357e:	a802      	add	r0, sp, #8
    3580:	4b81      	ldr	r3, [pc, #516]	; (3788 <adc_init+0x350>)
    3582:	4798      	blx	r3
    3584:	2c13      	cmp	r4, #19
    3586:	d8cd      	bhi.n	3524 <adc_init+0xec>
    3588:	00a4      	lsls	r4, r4, #2
    358a:	ab02      	add	r3, sp, #8
    358c:	58e0      	ldr	r0, [r4, r3]
    358e:	a901      	add	r1, sp, #4
    3590:	2300      	movs	r3, #0
    3592:	704b      	strb	r3, [r1, #1]
    3594:	70cb      	strb	r3, [r1, #3]
    3596:	708b      	strb	r3, [r1, #2]
    3598:	3301      	adds	r3, #1
    359a:	700b      	strb	r3, [r1, #0]
    359c:	b2c0      	uxtb	r0, r0
    359e:	4b7c      	ldr	r3, [pc, #496]	; (3790 <adc_init+0x358>)
    35a0:	4798      	blx	r3
    35a2:	e7bf      	b.n	3524 <adc_init+0xec>
    35a4:	00a4      	lsls	r4, r4, #2
    35a6:	ab02      	add	r3, sp, #8
    35a8:	58e0      	ldr	r0, [r4, r3]
    35aa:	a901      	add	r1, sp, #4
    35ac:	2300      	movs	r3, #0
    35ae:	704b      	strb	r3, [r1, #1]
    35b0:	70cb      	strb	r3, [r1, #3]
    35b2:	708b      	strb	r3, [r1, #2]
    35b4:	3301      	adds	r3, #1
    35b6:	700b      	strb	r3, [r1, #0]
    35b8:	b2c0      	uxtb	r0, r0
    35ba:	4b75      	ldr	r3, [pc, #468]	; (3790 <adc_init+0x358>)
    35bc:	4798      	blx	r3
    35be:	e7db      	b.n	3578 <adc_init+0x140>
    35c0:	2304      	movs	r3, #4
    35c2:	2410      	movs	r4, #16
    35c4:	2102      	movs	r1, #2
    35c6:	e022      	b.n	360e <adc_init+0x1d6>
    35c8:	7c71      	ldrb	r1, [r6, #17]
    35ca:	7c33      	ldrb	r3, [r6, #16]
    35cc:	2410      	movs	r4, #16
    35ce:	e01e      	b.n	360e <adc_init+0x1d6>
    35d0:	4643      	mov	r3, r8
    35d2:	2b02      	cmp	r3, #2
    35d4:	d800      	bhi.n	35d8 <adc_init+0x1a0>
    35d6:	e0c4      	b.n	3762 <adc_init+0x32a>
    35d8:	2306      	movs	r3, #6
    35da:	2410      	movs	r4, #16
    35dc:	2101      	movs	r1, #1
    35de:	e016      	b.n	360e <adc_init+0x1d6>
    35e0:	4643      	mov	r3, r8
    35e2:	2b02      	cmp	r3, #2
    35e4:	d800      	bhi.n	35e8 <adc_init+0x1b0>
    35e6:	e0c0      	b.n	376a <adc_init+0x332>
    35e8:	2308      	movs	r3, #8
    35ea:	2410      	movs	r4, #16
    35ec:	2100      	movs	r1, #0
    35ee:	e00e      	b.n	360e <adc_init+0x1d6>
    35f0:	2300      	movs	r3, #0
    35f2:	2430      	movs	r4, #48	; 0x30
    35f4:	2100      	movs	r1, #0
    35f6:	e00a      	b.n	360e <adc_init+0x1d6>
    35f8:	2300      	movs	r3, #0
    35fa:	2420      	movs	r4, #32
    35fc:	2100      	movs	r1, #0
    35fe:	e006      	b.n	360e <adc_init+0x1d6>
    3600:	2300      	movs	r3, #0
    3602:	2400      	movs	r4, #0
    3604:	2100      	movs	r1, #0
    3606:	e002      	b.n	360e <adc_init+0x1d6>
    3608:	2302      	movs	r3, #2
    360a:	2410      	movs	r4, #16
    360c:	2101      	movs	r1, #1
    360e:	0109      	lsls	r1, r1, #4
    3610:	2270      	movs	r2, #112	; 0x70
    3612:	400a      	ands	r2, r1
    3614:	4313      	orrs	r3, r2
    3616:	465a      	mov	r2, fp
    3618:	7093      	strb	r3, [r2, #2]
    361a:	7df3      	ldrb	r3, [r6, #23]
    361c:	2017      	movs	r0, #23
    361e:	2b3f      	cmp	r3, #63	; 0x3f
    3620:	d900      	bls.n	3624 <adc_init+0x1ec>
    3622:	e71d      	b.n	3460 <adc_init+0x28>
    3624:	70d3      	strb	r3, [r2, #3]
    3626:	683a      	ldr	r2, [r7, #0]
    3628:	7e53      	ldrb	r3, [r2, #25]
    362a:	b25b      	sxtb	r3, r3
    362c:	2b00      	cmp	r3, #0
    362e:	dbfb      	blt.n	3628 <adc_init+0x1f0>
    3630:	7cf3      	ldrb	r3, [r6, #19]
    3632:	8872      	ldrh	r2, [r6, #2]
    3634:	4313      	orrs	r3, r2
    3636:	2224      	movs	r2, #36	; 0x24
    3638:	5cb2      	ldrb	r2, [r6, r2]
    363a:	00d2      	lsls	r2, r2, #3
    363c:	4313      	orrs	r3, r2
    363e:	7d32      	ldrb	r2, [r6, #20]
    3640:	0092      	lsls	r2, r2, #2
    3642:	4313      	orrs	r3, r2
    3644:	7cb2      	ldrb	r2, [r6, #18]
    3646:	0052      	lsls	r2, r2, #1
    3648:	4313      	orrs	r3, r2
    364a:	4323      	orrs	r3, r4
    364c:	465a      	mov	r2, fp
    364e:	8093      	strh	r3, [r2, #4]
    3650:	7e33      	ldrb	r3, [r6, #24]
    3652:	2b00      	cmp	r3, #0
    3654:	d020      	beq.n	3698 <adc_init+0x260>
    3656:	2c10      	cmp	r4, #16
    3658:	d100      	bne.n	365c <adc_init+0x224>
    365a:	e0e2      	b.n	3822 <adc_init+0x3ea>
    365c:	d800      	bhi.n	3660 <adc_init+0x228>
    365e:	e0a1      	b.n	37a4 <adc_init+0x36c>
    3660:	2c20      	cmp	r4, #32
    3662:	d100      	bne.n	3666 <adc_init+0x22e>
    3664:	e0bf      	b.n	37e6 <adc_init+0x3ae>
    3666:	2c30      	cmp	r4, #48	; 0x30
    3668:	d116      	bne.n	3698 <adc_init+0x260>
    366a:	7cf2      	ldrb	r2, [r6, #19]
    366c:	2a00      	cmp	r2, #0
    366e:	d00a      	beq.n	3686 <adc_init+0x24e>
    3670:	69f2      	ldr	r2, [r6, #28]
    3672:	3280      	adds	r2, #128	; 0x80
    3674:	2017      	movs	r0, #23
    3676:	2aff      	cmp	r2, #255	; 0xff
    3678:	d900      	bls.n	367c <adc_init+0x244>
    367a:	e6f1      	b.n	3460 <adc_init+0x28>
    367c:	6a32      	ldr	r2, [r6, #32]
    367e:	3280      	adds	r2, #128	; 0x80
    3680:	2aff      	cmp	r2, #255	; 0xff
    3682:	d900      	bls.n	3686 <adc_init+0x24e>
    3684:	e6ec      	b.n	3460 <adc_init+0x28>
    3686:	2017      	movs	r0, #23
    3688:	69f2      	ldr	r2, [r6, #28]
    368a:	2aff      	cmp	r2, #255	; 0xff
    368c:	dd00      	ble.n	3690 <adc_init+0x258>
    368e:	e6e7      	b.n	3460 <adc_init+0x28>
    3690:	6a32      	ldr	r2, [r6, #32]
    3692:	2aff      	cmp	r2, #255	; 0xff
    3694:	dd00      	ble.n	3698 <adc_init+0x260>
    3696:	e6e3      	b.n	3460 <adc_init+0x28>
    3698:	6839      	ldr	r1, [r7, #0]
    369a:	7e4a      	ldrb	r2, [r1, #25]
    369c:	b252      	sxtb	r2, r2
    369e:	2a00      	cmp	r2, #0
    36a0:	dbfb      	blt.n	369a <adc_init+0x262>
    36a2:	465a      	mov	r2, fp
    36a4:	7213      	strb	r3, [r2, #8]
    36a6:	683a      	ldr	r2, [r7, #0]
    36a8:	7e53      	ldrb	r3, [r2, #25]
    36aa:	b25b      	sxtb	r3, r3
    36ac:	2b00      	cmp	r3, #0
    36ae:	dbfb      	blt.n	36a8 <adc_init+0x270>
    36b0:	8bb3      	ldrh	r3, [r6, #28]
    36b2:	465a      	mov	r2, fp
    36b4:	8393      	strh	r3, [r2, #28]
    36b6:	683a      	ldr	r2, [r7, #0]
    36b8:	7e53      	ldrb	r3, [r2, #25]
    36ba:	b25b      	sxtb	r3, r3
    36bc:	2b00      	cmp	r3, #0
    36be:	dbfb      	blt.n	36b8 <adc_init+0x280>
    36c0:	8c33      	ldrh	r3, [r6, #32]
    36c2:	465a      	mov	r2, fp
    36c4:	8413      	strh	r3, [r2, #32]
    36c6:	232c      	movs	r3, #44	; 0x2c
    36c8:	5cf3      	ldrb	r3, [r6, r3]
    36ca:	2b00      	cmp	r3, #0
    36cc:	d005      	beq.n	36da <adc_init+0x2a2>
    36ce:	3b01      	subs	r3, #1
    36d0:	b2db      	uxtb	r3, r3
    36d2:	2017      	movs	r0, #23
    36d4:	2b0f      	cmp	r3, #15
    36d6:	d900      	bls.n	36da <adc_init+0x2a2>
    36d8:	e6c2      	b.n	3460 <adc_init+0x28>
    36da:	222b      	movs	r2, #43	; 0x2b
    36dc:	5cb1      	ldrb	r1, [r6, r2]
    36de:	2017      	movs	r0, #23
    36e0:	290f      	cmp	r1, #15
    36e2:	d900      	bls.n	36e6 <adc_init+0x2ae>
    36e4:	e6bc      	b.n	3460 <adc_init+0x28>
    36e6:	6838      	ldr	r0, [r7, #0]
    36e8:	7e42      	ldrb	r2, [r0, #25]
    36ea:	b252      	sxtb	r2, r2
    36ec:	2a00      	cmp	r2, #0
    36ee:	dbfb      	blt.n	36e8 <adc_init+0x2b0>
    36f0:	89f2      	ldrh	r2, [r6, #14]
    36f2:	7b30      	ldrb	r0, [r6, #12]
    36f4:	4302      	orrs	r2, r0
    36f6:	68b0      	ldr	r0, [r6, #8]
    36f8:	4302      	orrs	r2, r0
    36fa:	0509      	lsls	r1, r1, #20
    36fc:	430a      	orrs	r2, r1
    36fe:	041b      	lsls	r3, r3, #16
    3700:	4313      	orrs	r3, r2
    3702:	465a      	mov	r2, fp
    3704:	6113      	str	r3, [r2, #16]
    3706:	232a      	movs	r3, #42	; 0x2a
    3708:	5cf3      	ldrb	r3, [r6, r3]
    370a:	7513      	strb	r3, [r2, #20]
    370c:	230f      	movs	r3, #15
    370e:	7593      	strb	r3, [r2, #22]
    3710:	3315      	adds	r3, #21
    3712:	5cf3      	ldrb	r3, [r6, r3]
    3714:	2b00      	cmp	r3, #0
    3716:	d012      	beq.n	373e <adc_init+0x306>
    3718:	8cf3      	ldrh	r3, [r6, #38]	; 0x26
    371a:	4a1f      	ldr	r2, [pc, #124]	; (3798 <adc_init+0x360>)
    371c:	2017      	movs	r0, #23
    371e:	4293      	cmp	r3, r2
    3720:	d900      	bls.n	3724 <adc_init+0x2ec>
    3722:	e69d      	b.n	3460 <adc_init+0x28>
    3724:	465a      	mov	r2, fp
    3726:	8493      	strh	r3, [r2, #36]	; 0x24
    3728:	8d32      	ldrh	r2, [r6, #40]	; 0x28
    372a:	2380      	movs	r3, #128	; 0x80
    372c:	011b      	lsls	r3, r3, #4
    372e:	18d3      	adds	r3, r2, r3
    3730:	4919      	ldr	r1, [pc, #100]	; (3798 <adc_init+0x360>)
    3732:	b29b      	uxth	r3, r3
    3734:	428b      	cmp	r3, r1
    3736:	d900      	bls.n	373a <adc_init+0x302>
    3738:	e692      	b.n	3460 <adc_init+0x28>
    373a:	465b      	mov	r3, fp
    373c:	84da      	strh	r2, [r3, #38]	; 0x26
    373e:	4b17      	ldr	r3, [pc, #92]	; (379c <adc_init+0x364>)
    3740:	681b      	ldr	r3, [r3, #0]
    3742:	015b      	lsls	r3, r3, #5
    3744:	22e0      	movs	r2, #224	; 0xe0
    3746:	00d2      	lsls	r2, r2, #3
    3748:	4013      	ands	r3, r2
    374a:	4a15      	ldr	r2, [pc, #84]	; (37a0 <adc_init+0x368>)
    374c:	6851      	ldr	r1, [r2, #4]
    374e:	0149      	lsls	r1, r1, #5
    3750:	6812      	ldr	r2, [r2, #0]
    3752:	0ed2      	lsrs	r2, r2, #27
    3754:	430a      	orrs	r2, r1
    3756:	b2d2      	uxtb	r2, r2
    3758:	4313      	orrs	r3, r2
    375a:	465a      	mov	r2, fp
    375c:	8513      	strh	r3, [r2, #40]	; 0x28
    375e:	2000      	movs	r0, #0
    3760:	e67e      	b.n	3460 <adc_init+0x28>
    3762:	2306      	movs	r3, #6
    3764:	2410      	movs	r4, #16
    3766:	2103      	movs	r1, #3
    3768:	e751      	b.n	360e <adc_init+0x1d6>
    376a:	2308      	movs	r3, #8
    376c:	2410      	movs	r4, #16
    376e:	2104      	movs	r1, #4
    3770:	e74d      	b.n	360e <adc_init+0x1d6>
    3772:	46c0      	nop			; (mov r8, r8)
    3774:	40000400 	.word	0x40000400
    3778:	40000800 	.word	0x40000800
    377c:	41002018 	.word	0x41002018
    3780:	00006625 	.word	0x00006625
    3784:	00006599 	.word	0x00006599
    3788:	0000863d 	.word	0x0000863d
    378c:	00008964 	.word	0x00008964
    3790:	0000674d 	.word	0x0000674d
    3794:	00008890 	.word	0x00008890
    3798:	00000fff 	.word	0x00000fff
    379c:	00806024 	.word	0x00806024
    37a0:	00806020 	.word	0x00806020
    37a4:	2c00      	cmp	r4, #0
    37a6:	d000      	beq.n	37aa <adc_init+0x372>
    37a8:	e776      	b.n	3698 <adc_init+0x260>
    37aa:	7cf2      	ldrb	r2, [r6, #19]
    37ac:	2a00      	cmp	r2, #0
    37ae:	d00f      	beq.n	37d0 <adc_init+0x398>
    37b0:	69f2      	ldr	r2, [r6, #28]
    37b2:	2180      	movs	r1, #128	; 0x80
    37b4:	0109      	lsls	r1, r1, #4
    37b6:	468c      	mov	ip, r1
    37b8:	4462      	add	r2, ip
    37ba:	492a      	ldr	r1, [pc, #168]	; (3864 <adc_init+0x42c>)
    37bc:	2017      	movs	r0, #23
    37be:	428a      	cmp	r2, r1
    37c0:	d900      	bls.n	37c4 <adc_init+0x38c>
    37c2:	e64d      	b.n	3460 <adc_init+0x28>
    37c4:	6a32      	ldr	r2, [r6, #32]
    37c6:	4462      	add	r2, ip
    37c8:	4926      	ldr	r1, [pc, #152]	; (3864 <adc_init+0x42c>)
    37ca:	428a      	cmp	r2, r1
    37cc:	d900      	bls.n	37d0 <adc_init+0x398>
    37ce:	e647      	b.n	3460 <adc_init+0x28>
    37d0:	4a24      	ldr	r2, [pc, #144]	; (3864 <adc_init+0x42c>)
    37d2:	2017      	movs	r0, #23
    37d4:	69f1      	ldr	r1, [r6, #28]
    37d6:	4291      	cmp	r1, r2
    37d8:	dd00      	ble.n	37dc <adc_init+0x3a4>
    37da:	e641      	b.n	3460 <adc_init+0x28>
    37dc:	6a31      	ldr	r1, [r6, #32]
    37de:	4291      	cmp	r1, r2
    37e0:	dd00      	ble.n	37e4 <adc_init+0x3ac>
    37e2:	e63d      	b.n	3460 <adc_init+0x28>
    37e4:	e758      	b.n	3698 <adc_init+0x260>
    37e6:	7cf2      	ldrb	r2, [r6, #19]
    37e8:	2a00      	cmp	r2, #0
    37ea:	d00f      	beq.n	380c <adc_init+0x3d4>
    37ec:	69f2      	ldr	r2, [r6, #28]
    37ee:	2180      	movs	r1, #128	; 0x80
    37f0:	0089      	lsls	r1, r1, #2
    37f2:	468c      	mov	ip, r1
    37f4:	4462      	add	r2, ip
    37f6:	491c      	ldr	r1, [pc, #112]	; (3868 <adc_init+0x430>)
    37f8:	2017      	movs	r0, #23
    37fa:	428a      	cmp	r2, r1
    37fc:	d900      	bls.n	3800 <adc_init+0x3c8>
    37fe:	e62f      	b.n	3460 <adc_init+0x28>
    3800:	6a32      	ldr	r2, [r6, #32]
    3802:	4462      	add	r2, ip
    3804:	4918      	ldr	r1, [pc, #96]	; (3868 <adc_init+0x430>)
    3806:	428a      	cmp	r2, r1
    3808:	d900      	bls.n	380c <adc_init+0x3d4>
    380a:	e629      	b.n	3460 <adc_init+0x28>
    380c:	4a16      	ldr	r2, [pc, #88]	; (3868 <adc_init+0x430>)
    380e:	2017      	movs	r0, #23
    3810:	69f1      	ldr	r1, [r6, #28]
    3812:	4291      	cmp	r1, r2
    3814:	dd00      	ble.n	3818 <adc_init+0x3e0>
    3816:	e623      	b.n	3460 <adc_init+0x28>
    3818:	6a31      	ldr	r1, [r6, #32]
    381a:	4291      	cmp	r1, r2
    381c:	dd00      	ble.n	3820 <adc_init+0x3e8>
    381e:	e61f      	b.n	3460 <adc_init+0x28>
    3820:	e73a      	b.n	3698 <adc_init+0x260>
    3822:	7cf2      	ldrb	r2, [r6, #19]
    3824:	2a00      	cmp	r2, #0
    3826:	d00f      	beq.n	3848 <adc_init+0x410>
    3828:	69f2      	ldr	r2, [r6, #28]
    382a:	2180      	movs	r1, #128	; 0x80
    382c:	0209      	lsls	r1, r1, #8
    382e:	468c      	mov	ip, r1
    3830:	4462      	add	r2, ip
    3832:	490e      	ldr	r1, [pc, #56]	; (386c <adc_init+0x434>)
    3834:	2017      	movs	r0, #23
    3836:	428a      	cmp	r2, r1
    3838:	d900      	bls.n	383c <adc_init+0x404>
    383a:	e611      	b.n	3460 <adc_init+0x28>
    383c:	6a32      	ldr	r2, [r6, #32]
    383e:	4462      	add	r2, ip
    3840:	490a      	ldr	r1, [pc, #40]	; (386c <adc_init+0x434>)
    3842:	428a      	cmp	r2, r1
    3844:	d900      	bls.n	3848 <adc_init+0x410>
    3846:	e60b      	b.n	3460 <adc_init+0x28>
    3848:	4a08      	ldr	r2, [pc, #32]	; (386c <adc_init+0x434>)
    384a:	2017      	movs	r0, #23
    384c:	69f1      	ldr	r1, [r6, #28]
    384e:	4291      	cmp	r1, r2
    3850:	dd00      	ble.n	3854 <adc_init+0x41c>
    3852:	e605      	b.n	3460 <adc_init+0x28>
    3854:	6a31      	ldr	r1, [r6, #32]
    3856:	4291      	cmp	r1, r2
    3858:	dd00      	ble.n	385c <adc_init+0x424>
    385a:	e601      	b.n	3460 <adc_init+0x28>
    385c:	e71c      	b.n	3698 <adc_init+0x260>
    385e:	2017      	movs	r0, #23
    3860:	e5fe      	b.n	3460 <adc_init+0x28>
    3862:	46c0      	nop			; (mov r8, r8)
    3864:	00000fff 	.word	0x00000fff
    3868:	000003ff 	.word	0x000003ff
    386c:	0000ffff 	.word	0x0000ffff

00003870 <extint_register_callback>:
    3870:	2317      	movs	r3, #23
    3872:	2a00      	cmp	r2, #0
    3874:	d001      	beq.n	387a <extint_register_callback+0xa>
    3876:	0018      	movs	r0, r3
    3878:	4770      	bx	lr
    387a:	008b      	lsls	r3, r1, #2
    387c:	4a06      	ldr	r2, [pc, #24]	; (3898 <extint_register_callback+0x28>)
    387e:	589b      	ldr	r3, [r3, r2]
    3880:	2b00      	cmp	r3, #0
    3882:	d003      	beq.n	388c <extint_register_callback+0x1c>
    3884:	4283      	cmp	r3, r0
    3886:	d005      	beq.n	3894 <extint_register_callback+0x24>
    3888:	231d      	movs	r3, #29
    388a:	e7f4      	b.n	3876 <extint_register_callback+0x6>
    388c:	0089      	lsls	r1, r1, #2
    388e:	5088      	str	r0, [r1, r2]
    3890:	2300      	movs	r3, #0
    3892:	e7f0      	b.n	3876 <extint_register_callback+0x6>
    3894:	2300      	movs	r3, #0
    3896:	e7ee      	b.n	3876 <extint_register_callback+0x6>
    3898:	200031f4 	.word	0x200031f4

0000389c <extint_chan_enable_callback>:
    389c:	2317      	movs	r3, #23
    389e:	2900      	cmp	r1, #0
    38a0:	d001      	beq.n	38a6 <extint_chan_enable_callback+0xa>
    38a2:	0018      	movs	r0, r3
    38a4:	4770      	bx	lr
    38a6:	2200      	movs	r2, #0
    38a8:	281f      	cmp	r0, #31
    38aa:	d800      	bhi.n	38ae <extint_chan_enable_callback+0x12>
    38ac:	4a02      	ldr	r2, [pc, #8]	; (38b8 <extint_chan_enable_callback+0x1c>)
    38ae:	2301      	movs	r3, #1
    38b0:	4083      	lsls	r3, r0
    38b2:	60d3      	str	r3, [r2, #12]
    38b4:	2300      	movs	r3, #0
    38b6:	e7f4      	b.n	38a2 <extint_chan_enable_callback+0x6>
    38b8:	40001800 	.word	0x40001800

000038bc <EIC_Handler>:
    38bc:	b570      	push	{r4, r5, r6, lr}
    38be:	2200      	movs	r2, #0
    38c0:	4b10      	ldr	r3, [pc, #64]	; (3904 <EIC_Handler+0x48>)
    38c2:	701a      	strb	r2, [r3, #0]
    38c4:	2300      	movs	r3, #0
    38c6:	4910      	ldr	r1, [pc, #64]	; (3908 <EIC_Handler+0x4c>)
    38c8:	251f      	movs	r5, #31
    38ca:	4e10      	ldr	r6, [pc, #64]	; (390c <EIC_Handler+0x50>)
    38cc:	4c0d      	ldr	r4, [pc, #52]	; (3904 <EIC_Handler+0x48>)
    38ce:	e00a      	b.n	38e6 <EIC_Handler+0x2a>
    38d0:	490d      	ldr	r1, [pc, #52]	; (3908 <EIC_Handler+0x4c>)
    38d2:	e008      	b.n	38e6 <EIC_Handler+0x2a>
    38d4:	7823      	ldrb	r3, [r4, #0]
    38d6:	3301      	adds	r3, #1
    38d8:	b2db      	uxtb	r3, r3
    38da:	7023      	strb	r3, [r4, #0]
    38dc:	2b0f      	cmp	r3, #15
    38de:	d810      	bhi.n	3902 <EIC_Handler+0x46>
    38e0:	2100      	movs	r1, #0
    38e2:	2b1f      	cmp	r3, #31
    38e4:	d9f4      	bls.n	38d0 <EIC_Handler+0x14>
    38e6:	0028      	movs	r0, r5
    38e8:	4018      	ands	r0, r3
    38ea:	2201      	movs	r2, #1
    38ec:	4082      	lsls	r2, r0
    38ee:	6908      	ldr	r0, [r1, #16]
    38f0:	4210      	tst	r0, r2
    38f2:	d0ef      	beq.n	38d4 <EIC_Handler+0x18>
    38f4:	610a      	str	r2, [r1, #16]
    38f6:	009b      	lsls	r3, r3, #2
    38f8:	599b      	ldr	r3, [r3, r6]
    38fa:	2b00      	cmp	r3, #0
    38fc:	d0ea      	beq.n	38d4 <EIC_Handler+0x18>
    38fe:	4798      	blx	r3
    3900:	e7e8      	b.n	38d4 <EIC_Handler+0x18>
    3902:	bd70      	pop	{r4, r5, r6, pc}
    3904:	200031f0 	.word	0x200031f0
    3908:	40001800 	.word	0x40001800
    390c:	200031f4 	.word	0x200031f4

00003910 <_extint_enable>:
    3910:	4a04      	ldr	r2, [pc, #16]	; (3924 <_extint_enable+0x14>)
    3912:	7813      	ldrb	r3, [r2, #0]
    3914:	2102      	movs	r1, #2
    3916:	430b      	orrs	r3, r1
    3918:	7013      	strb	r3, [r2, #0]
    391a:	7853      	ldrb	r3, [r2, #1]
    391c:	b25b      	sxtb	r3, r3
    391e:	2b00      	cmp	r3, #0
    3920:	dbfb      	blt.n	391a <_extint_enable+0xa>
    3922:	4770      	bx	lr
    3924:	40001800 	.word	0x40001800

00003928 <_system_extint_init>:
    3928:	b500      	push	{lr}
    392a:	b083      	sub	sp, #12
    392c:	4a12      	ldr	r2, [pc, #72]	; (3978 <_system_extint_init+0x50>)
    392e:	6993      	ldr	r3, [r2, #24]
    3930:	2140      	movs	r1, #64	; 0x40
    3932:	430b      	orrs	r3, r1
    3934:	6193      	str	r3, [r2, #24]
    3936:	a901      	add	r1, sp, #4
    3938:	2300      	movs	r3, #0
    393a:	700b      	strb	r3, [r1, #0]
    393c:	2003      	movs	r0, #3
    393e:	4b0f      	ldr	r3, [pc, #60]	; (397c <_system_extint_init+0x54>)
    3940:	4798      	blx	r3
    3942:	2003      	movs	r0, #3
    3944:	4b0e      	ldr	r3, [pc, #56]	; (3980 <_system_extint_init+0x58>)
    3946:	4798      	blx	r3
    3948:	4a0e      	ldr	r2, [pc, #56]	; (3984 <_system_extint_init+0x5c>)
    394a:	7813      	ldrb	r3, [r2, #0]
    394c:	2101      	movs	r1, #1
    394e:	430b      	orrs	r3, r1
    3950:	7013      	strb	r3, [r2, #0]
    3952:	7853      	ldrb	r3, [r2, #1]
    3954:	b25b      	sxtb	r3, r3
    3956:	2b00      	cmp	r3, #0
    3958:	dbfb      	blt.n	3952 <_system_extint_init+0x2a>
    395a:	4b0b      	ldr	r3, [pc, #44]	; (3988 <_system_extint_init+0x60>)
    395c:	0019      	movs	r1, r3
    395e:	3140      	adds	r1, #64	; 0x40
    3960:	2200      	movs	r2, #0
    3962:	c304      	stmia	r3!, {r2}
    3964:	4299      	cmp	r1, r3
    3966:	d1fc      	bne.n	3962 <_system_extint_init+0x3a>
    3968:	2210      	movs	r2, #16
    396a:	4b08      	ldr	r3, [pc, #32]	; (398c <_system_extint_init+0x64>)
    396c:	601a      	str	r2, [r3, #0]
    396e:	4b08      	ldr	r3, [pc, #32]	; (3990 <_system_extint_init+0x68>)
    3970:	4798      	blx	r3
    3972:	b003      	add	sp, #12
    3974:	bd00      	pop	{pc}
    3976:	46c0      	nop			; (mov r8, r8)
    3978:	40000400 	.word	0x40000400
    397c:	00006625 	.word	0x00006625
    3980:	00006599 	.word	0x00006599
    3984:	40001800 	.word	0x40001800
    3988:	200031f4 	.word	0x200031f4
    398c:	e000e100 	.word	0xe000e100
    3990:	00003911 	.word	0x00003911

00003994 <extint_chan_get_config_defaults>:
    3994:	2300      	movs	r3, #0
    3996:	6003      	str	r3, [r0, #0]
    3998:	6043      	str	r3, [r0, #4]
    399a:	2201      	movs	r2, #1
    399c:	7202      	strb	r2, [r0, #8]
    399e:	7242      	strb	r2, [r0, #9]
    39a0:	7283      	strb	r3, [r0, #10]
    39a2:	3302      	adds	r3, #2
    39a4:	72c3      	strb	r3, [r0, #11]
    39a6:	4770      	bx	lr

000039a8 <extint_chan_set_config>:
    39a8:	b5f0      	push	{r4, r5, r6, r7, lr}
    39aa:	b083      	sub	sp, #12
    39ac:	0005      	movs	r5, r0
    39ae:	000c      	movs	r4, r1
    39b0:	a901      	add	r1, sp, #4
    39b2:	2300      	movs	r3, #0
    39b4:	704b      	strb	r3, [r1, #1]
    39b6:	70cb      	strb	r3, [r1, #3]
    39b8:	7923      	ldrb	r3, [r4, #4]
    39ba:	700b      	strb	r3, [r1, #0]
    39bc:	7a23      	ldrb	r3, [r4, #8]
    39be:	708b      	strb	r3, [r1, #2]
    39c0:	7820      	ldrb	r0, [r4, #0]
    39c2:	4b15      	ldr	r3, [pc, #84]	; (3a18 <extint_chan_set_config+0x70>)
    39c4:	4798      	blx	r3
    39c6:	2000      	movs	r0, #0
    39c8:	2d1f      	cmp	r5, #31
    39ca:	d800      	bhi.n	39ce <extint_chan_set_config+0x26>
    39cc:	4813      	ldr	r0, [pc, #76]	; (3a1c <extint_chan_set_config+0x74>)
    39ce:	2207      	movs	r2, #7
    39d0:	402a      	ands	r2, r5
    39d2:	0092      	lsls	r2, r2, #2
    39d4:	7ae7      	ldrb	r7, [r4, #11]
    39d6:	7aa3      	ldrb	r3, [r4, #10]
    39d8:	2b00      	cmp	r3, #0
    39da:	d001      	beq.n	39e0 <extint_chan_set_config+0x38>
    39dc:	2308      	movs	r3, #8
    39de:	431f      	orrs	r7, r3
    39e0:	08eb      	lsrs	r3, r5, #3
    39e2:	009b      	lsls	r3, r3, #2
    39e4:	18c3      	adds	r3, r0, r3
    39e6:	6999      	ldr	r1, [r3, #24]
    39e8:	260f      	movs	r6, #15
    39ea:	4096      	lsls	r6, r2
    39ec:	43b1      	bics	r1, r6
    39ee:	4097      	lsls	r7, r2
    39f0:	003a      	movs	r2, r7
    39f2:	430a      	orrs	r2, r1
    39f4:	619a      	str	r2, [r3, #24]
    39f6:	7a63      	ldrb	r3, [r4, #9]
    39f8:	2b00      	cmp	r3, #0
    39fa:	d106      	bne.n	3a0a <extint_chan_set_config+0x62>
    39fc:	6943      	ldr	r3, [r0, #20]
    39fe:	2201      	movs	r2, #1
    3a00:	40aa      	lsls	r2, r5
    3a02:	4393      	bics	r3, r2
    3a04:	6143      	str	r3, [r0, #20]
    3a06:	b003      	add	sp, #12
    3a08:	bdf0      	pop	{r4, r5, r6, r7, pc}
    3a0a:	6942      	ldr	r2, [r0, #20]
    3a0c:	2301      	movs	r3, #1
    3a0e:	40ab      	lsls	r3, r5
    3a10:	4313      	orrs	r3, r2
    3a12:	6143      	str	r3, [r0, #20]
    3a14:	e7f7      	b.n	3a06 <extint_chan_set_config+0x5e>
    3a16:	46c0      	nop			; (mov r8, r8)
    3a18:	0000674d 	.word	0x0000674d
    3a1c:	40001800 	.word	0x40001800

00003a20 <tc_register_callback>:
    3a20:	1c93      	adds	r3, r2, #2
    3a22:	009b      	lsls	r3, r3, #2
    3a24:	5019      	str	r1, [r3, r0]
    3a26:	2a02      	cmp	r2, #2
    3a28:	d009      	beq.n	3a3e <tc_register_callback+0x1e>
    3a2a:	2a03      	cmp	r2, #3
    3a2c:	d00c      	beq.n	3a48 <tc_register_callback+0x28>
    3a2e:	2301      	movs	r3, #1
    3a30:	4093      	lsls	r3, r2
    3a32:	001a      	movs	r2, r3
    3a34:	7e03      	ldrb	r3, [r0, #24]
    3a36:	4313      	orrs	r3, r2
    3a38:	7603      	strb	r3, [r0, #24]
    3a3a:	2000      	movs	r0, #0
    3a3c:	4770      	bx	lr
    3a3e:	7e03      	ldrb	r3, [r0, #24]
    3a40:	2210      	movs	r2, #16
    3a42:	4313      	orrs	r3, r2
    3a44:	7603      	strb	r3, [r0, #24]
    3a46:	e7f8      	b.n	3a3a <tc_register_callback+0x1a>
    3a48:	7e03      	ldrb	r3, [r0, #24]
    3a4a:	2220      	movs	r2, #32
    3a4c:	4313      	orrs	r3, r2
    3a4e:	7603      	strb	r3, [r0, #24]
    3a50:	e7f3      	b.n	3a3a <tc_register_callback+0x1a>
	...

00003a54 <_tc_interrupt_handler>:
    3a54:	b570      	push	{r4, r5, r6, lr}
    3a56:	0080      	lsls	r0, r0, #2
    3a58:	4b16      	ldr	r3, [pc, #88]	; (3ab4 <_tc_interrupt_handler+0x60>)
    3a5a:	58c4      	ldr	r4, [r0, r3]
    3a5c:	6823      	ldr	r3, [r4, #0]
    3a5e:	7b9d      	ldrb	r5, [r3, #14]
    3a60:	7e22      	ldrb	r2, [r4, #24]
    3a62:	7e63      	ldrb	r3, [r4, #25]
    3a64:	4013      	ands	r3, r2
    3a66:	401d      	ands	r5, r3
    3a68:	07eb      	lsls	r3, r5, #31
    3a6a:	d406      	bmi.n	3a7a <_tc_interrupt_handler+0x26>
    3a6c:	07ab      	lsls	r3, r5, #30
    3a6e:	d40b      	bmi.n	3a88 <_tc_interrupt_handler+0x34>
    3a70:	06eb      	lsls	r3, r5, #27
    3a72:	d410      	bmi.n	3a96 <_tc_interrupt_handler+0x42>
    3a74:	06ab      	lsls	r3, r5, #26
    3a76:	d415      	bmi.n	3aa4 <_tc_interrupt_handler+0x50>
    3a78:	bd70      	pop	{r4, r5, r6, pc}
    3a7a:	0020      	movs	r0, r4
    3a7c:	68a3      	ldr	r3, [r4, #8]
    3a7e:	4798      	blx	r3
    3a80:	2301      	movs	r3, #1
    3a82:	6822      	ldr	r2, [r4, #0]
    3a84:	7393      	strb	r3, [r2, #14]
    3a86:	e7f1      	b.n	3a6c <_tc_interrupt_handler+0x18>
    3a88:	0020      	movs	r0, r4
    3a8a:	68e3      	ldr	r3, [r4, #12]
    3a8c:	4798      	blx	r3
    3a8e:	2302      	movs	r3, #2
    3a90:	6822      	ldr	r2, [r4, #0]
    3a92:	7393      	strb	r3, [r2, #14]
    3a94:	e7ec      	b.n	3a70 <_tc_interrupt_handler+0x1c>
    3a96:	0020      	movs	r0, r4
    3a98:	6923      	ldr	r3, [r4, #16]
    3a9a:	4798      	blx	r3
    3a9c:	2310      	movs	r3, #16
    3a9e:	6822      	ldr	r2, [r4, #0]
    3aa0:	7393      	strb	r3, [r2, #14]
    3aa2:	e7e7      	b.n	3a74 <_tc_interrupt_handler+0x20>
    3aa4:	0020      	movs	r0, r4
    3aa6:	6963      	ldr	r3, [r4, #20]
    3aa8:	4798      	blx	r3
    3aaa:	6823      	ldr	r3, [r4, #0]
    3aac:	2220      	movs	r2, #32
    3aae:	739a      	strb	r2, [r3, #14]
    3ab0:	e7e2      	b.n	3a78 <_tc_interrupt_handler+0x24>
    3ab2:	46c0      	nop			; (mov r8, r8)
    3ab4:	20003234 	.word	0x20003234

00003ab8 <TC0_Handler>:
    3ab8:	b510      	push	{r4, lr}
    3aba:	2000      	movs	r0, #0
    3abc:	4b01      	ldr	r3, [pc, #4]	; (3ac4 <TC0_Handler+0xc>)
    3abe:	4798      	blx	r3
    3ac0:	bd10      	pop	{r4, pc}
    3ac2:	46c0      	nop			; (mov r8, r8)
    3ac4:	00003a55 	.word	0x00003a55

00003ac8 <TC1_Handler>:
    3ac8:	b510      	push	{r4, lr}
    3aca:	2001      	movs	r0, #1
    3acc:	4b01      	ldr	r3, [pc, #4]	; (3ad4 <TC1_Handler+0xc>)
    3ace:	4798      	blx	r3
    3ad0:	bd10      	pop	{r4, pc}
    3ad2:	46c0      	nop			; (mov r8, r8)
    3ad4:	00003a55 	.word	0x00003a55

00003ad8 <TC2_Handler>:
    3ad8:	b510      	push	{r4, lr}
    3ada:	2002      	movs	r0, #2
    3adc:	4b01      	ldr	r3, [pc, #4]	; (3ae4 <TC2_Handler+0xc>)
    3ade:	4798      	blx	r3
    3ae0:	bd10      	pop	{r4, pc}
    3ae2:	46c0      	nop			; (mov r8, r8)
    3ae4:	00003a55 	.word	0x00003a55

00003ae8 <TC3_Handler>:
    3ae8:	b510      	push	{r4, lr}
    3aea:	2003      	movs	r0, #3
    3aec:	4b01      	ldr	r3, [pc, #4]	; (3af4 <TC3_Handler+0xc>)
    3aee:	4798      	blx	r3
    3af0:	bd10      	pop	{r4, pc}
    3af2:	46c0      	nop			; (mov r8, r8)
    3af4:	00003a55 	.word	0x00003a55

00003af8 <TC4_Handler>:
    3af8:	b510      	push	{r4, lr}
    3afa:	2004      	movs	r0, #4
    3afc:	4b01      	ldr	r3, [pc, #4]	; (3b04 <TC4_Handler+0xc>)
    3afe:	4798      	blx	r3
    3b00:	bd10      	pop	{r4, pc}
    3b02:	46c0      	nop			; (mov r8, r8)
    3b04:	00003a55 	.word	0x00003a55

00003b08 <TC5_Handler>:
    3b08:	b510      	push	{r4, lr}
    3b0a:	2005      	movs	r0, #5
    3b0c:	4b01      	ldr	r3, [pc, #4]	; (3b14 <TC5_Handler+0xc>)
    3b0e:	4798      	blx	r3
    3b10:	bd10      	pop	{r4, pc}
    3b12:	46c0      	nop			; (mov r8, r8)
    3b14:	00003a55 	.word	0x00003a55

00003b18 <_tc_get_inst_index>:
    3b18:	b530      	push	{r4, r5, lr}
    3b1a:	b087      	sub	sp, #28
    3b1c:	4b0b      	ldr	r3, [pc, #44]	; (3b4c <_tc_get_inst_index+0x34>)
    3b1e:	466a      	mov	r2, sp
    3b20:	cb32      	ldmia	r3!, {r1, r4, r5}
    3b22:	c232      	stmia	r2!, {r1, r4, r5}
    3b24:	cb32      	ldmia	r3!, {r1, r4, r5}
    3b26:	c232      	stmia	r2!, {r1, r4, r5}
    3b28:	9b00      	ldr	r3, [sp, #0]
    3b2a:	4298      	cmp	r0, r3
    3b2c:	d00b      	beq.n	3b46 <_tc_get_inst_index+0x2e>
    3b2e:	2301      	movs	r3, #1
    3b30:	009a      	lsls	r2, r3, #2
    3b32:	4669      	mov	r1, sp
    3b34:	5852      	ldr	r2, [r2, r1]
    3b36:	4282      	cmp	r2, r0
    3b38:	d006      	beq.n	3b48 <_tc_get_inst_index+0x30>
    3b3a:	3301      	adds	r3, #1
    3b3c:	2b06      	cmp	r3, #6
    3b3e:	d1f7      	bne.n	3b30 <_tc_get_inst_index+0x18>
    3b40:	2000      	movs	r0, #0
    3b42:	b007      	add	sp, #28
    3b44:	bd30      	pop	{r4, r5, pc}
    3b46:	2300      	movs	r3, #0
    3b48:	b2d8      	uxtb	r0, r3
    3b4a:	e7fa      	b.n	3b42 <_tc_get_inst_index+0x2a>
    3b4c:	000089b4 	.word	0x000089b4

00003b50 <tc_init>:
    3b50:	b5f0      	push	{r4, r5, r6, r7, lr}
    3b52:	46c6      	mov	lr, r8
    3b54:	b500      	push	{lr}
    3b56:	b088      	sub	sp, #32
    3b58:	0004      	movs	r4, r0
    3b5a:	000d      	movs	r5, r1
    3b5c:	0016      	movs	r6, r2
    3b5e:	0008      	movs	r0, r1
    3b60:	4b88      	ldr	r3, [pc, #544]	; (3d84 <tc_init+0x234>)
    3b62:	4798      	blx	r3
    3b64:	4680      	mov	r8, r0
    3b66:	ab06      	add	r3, sp, #24
    3b68:	2213      	movs	r2, #19
    3b6a:	701a      	strb	r2, [r3, #0]
    3b6c:	705a      	strb	r2, [r3, #1]
    3b6e:	3201      	adds	r2, #1
    3b70:	709a      	strb	r2, [r3, #2]
    3b72:	70da      	strb	r2, [r3, #3]
    3b74:	3201      	adds	r2, #1
    3b76:	711a      	strb	r2, [r3, #4]
    3b78:	715a      	strb	r2, [r3, #5]
    3b7a:	aa03      	add	r2, sp, #12
    3b7c:	4b82      	ldr	r3, [pc, #520]	; (3d88 <tc_init+0x238>)
    3b7e:	3318      	adds	r3, #24
    3b80:	cb83      	ldmia	r3!, {r0, r1, r7}
    3b82:	c283      	stmia	r2!, {r0, r1, r7}
    3b84:	2300      	movs	r3, #0
    3b86:	60a3      	str	r3, [r4, #8]
    3b88:	60e3      	str	r3, [r4, #12]
    3b8a:	6123      	str	r3, [r4, #16]
    3b8c:	6163      	str	r3, [r4, #20]
    3b8e:	7623      	strb	r3, [r4, #24]
    3b90:	7663      	strb	r3, [r4, #25]
    3b92:	4643      	mov	r3, r8
    3b94:	009a      	lsls	r2, r3, #2
    3b96:	4b7d      	ldr	r3, [pc, #500]	; (3d8c <tc_init+0x23c>)
    3b98:	50d4      	str	r4, [r2, r3]
    3b9a:	6025      	str	r5, [r4, #0]
    3b9c:	78b3      	ldrb	r3, [r6, #2]
    3b9e:	2b08      	cmp	r3, #8
    3ba0:	d008      	beq.n	3bb4 <tc_init+0x64>
    3ba2:	7123      	strb	r3, [r4, #4]
    3ba4:	882b      	ldrh	r3, [r5, #0]
    3ba6:	2005      	movs	r0, #5
    3ba8:	07db      	lsls	r3, r3, #31
    3baa:	d508      	bpl.n	3bbe <tc_init+0x6e>
    3bac:	b008      	add	sp, #32
    3bae:	bc04      	pop	{r2}
    3bb0:	4690      	mov	r8, r2
    3bb2:	bdf0      	pop	{r4, r5, r6, r7, pc}
    3bb4:	2017      	movs	r0, #23
    3bb6:	4642      	mov	r2, r8
    3bb8:	07d2      	lsls	r2, r2, #31
    3bba:	d4f7      	bmi.n	3bac <tc_init+0x5c>
    3bbc:	e7f1      	b.n	3ba2 <tc_init+0x52>
    3bbe:	7beb      	ldrb	r3, [r5, #15]
    3bc0:	3017      	adds	r0, #23
    3bc2:	06db      	lsls	r3, r3, #27
    3bc4:	d4f2      	bmi.n	3bac <tc_init+0x5c>
    3bc6:	882b      	ldrh	r3, [r5, #0]
    3bc8:	079b      	lsls	r3, r3, #30
    3bca:	d4ef      	bmi.n	3bac <tc_init+0x5c>
    3bcc:	7c33      	ldrb	r3, [r6, #16]
    3bce:	2b00      	cmp	r3, #0
    3bd0:	d000      	beq.n	3bd4 <tc_init+0x84>
    3bd2:	e07b      	b.n	3ccc <tc_init+0x17c>
    3bd4:	7f33      	ldrb	r3, [r6, #28]
    3bd6:	2b00      	cmp	r3, #0
    3bd8:	d000      	beq.n	3bdc <tc_init+0x8c>
    3bda:	e083      	b.n	3ce4 <tc_init+0x194>
    3bdc:	496c      	ldr	r1, [pc, #432]	; (3d90 <tc_init+0x240>)
    3bde:	6a08      	ldr	r0, [r1, #32]
    3be0:	4643      	mov	r3, r8
    3be2:	005a      	lsls	r2, r3, #1
    3be4:	ab03      	add	r3, sp, #12
    3be6:	5ad3      	ldrh	r3, [r2, r3]
    3be8:	4303      	orrs	r3, r0
    3bea:	620b      	str	r3, [r1, #32]
    3bec:	78b3      	ldrb	r3, [r6, #2]
    3bee:	2b08      	cmp	r3, #8
    3bf0:	d100      	bne.n	3bf4 <tc_init+0xa4>
    3bf2:	e087      	b.n	3d04 <tc_init+0x1b4>
    3bf4:	a901      	add	r1, sp, #4
    3bf6:	7833      	ldrb	r3, [r6, #0]
    3bf8:	700b      	strb	r3, [r1, #0]
    3bfa:	ab06      	add	r3, sp, #24
    3bfc:	4642      	mov	r2, r8
    3bfe:	5c9f      	ldrb	r7, [r3, r2]
    3c00:	0038      	movs	r0, r7
    3c02:	4b64      	ldr	r3, [pc, #400]	; (3d94 <tc_init+0x244>)
    3c04:	4798      	blx	r3
    3c06:	0038      	movs	r0, r7
    3c08:	4b63      	ldr	r3, [pc, #396]	; (3d98 <tc_init+0x248>)
    3c0a:	4798      	blx	r3
    3c0c:	8931      	ldrh	r1, [r6, #8]
    3c0e:	88b3      	ldrh	r3, [r6, #4]
    3c10:	430b      	orrs	r3, r1
    3c12:	78b1      	ldrb	r1, [r6, #2]
    3c14:	79b2      	ldrb	r2, [r6, #6]
    3c16:	4311      	orrs	r1, r2
    3c18:	4319      	orrs	r1, r3
    3c1a:	7873      	ldrb	r3, [r6, #1]
    3c1c:	2b00      	cmp	r3, #0
    3c1e:	d002      	beq.n	3c26 <tc_init+0xd6>
    3c20:	2380      	movs	r3, #128	; 0x80
    3c22:	011b      	lsls	r3, r3, #4
    3c24:	4319      	orrs	r1, r3
    3c26:	6822      	ldr	r2, [r4, #0]
    3c28:	7bd3      	ldrb	r3, [r2, #15]
    3c2a:	b25b      	sxtb	r3, r3
    3c2c:	2b00      	cmp	r3, #0
    3c2e:	dbfb      	blt.n	3c28 <tc_init+0xd8>
    3c30:	8029      	strh	r1, [r5, #0]
    3c32:	7b71      	ldrb	r1, [r6, #13]
    3c34:	1e4b      	subs	r3, r1, #1
    3c36:	4199      	sbcs	r1, r3
    3c38:	0089      	lsls	r1, r1, #2
    3c3a:	7bb3      	ldrb	r3, [r6, #14]
    3c3c:	2b00      	cmp	r3, #0
    3c3e:	d001      	beq.n	3c44 <tc_init+0xf4>
    3c40:	2301      	movs	r3, #1
    3c42:	4319      	orrs	r1, r3
    3c44:	6822      	ldr	r2, [r4, #0]
    3c46:	7bd3      	ldrb	r3, [r2, #15]
    3c48:	b25b      	sxtb	r3, r3
    3c4a:	2b00      	cmp	r3, #0
    3c4c:	dbfb      	blt.n	3c46 <tc_init+0xf6>
    3c4e:	23ff      	movs	r3, #255	; 0xff
    3c50:	712b      	strb	r3, [r5, #4]
    3c52:	2900      	cmp	r1, #0
    3c54:	d005      	beq.n	3c62 <tc_init+0x112>
    3c56:	6822      	ldr	r2, [r4, #0]
    3c58:	7bd3      	ldrb	r3, [r2, #15]
    3c5a:	b25b      	sxtb	r3, r3
    3c5c:	2b00      	cmp	r3, #0
    3c5e:	dbfb      	blt.n	3c58 <tc_init+0x108>
    3c60:	7169      	strb	r1, [r5, #5]
    3c62:	7ab1      	ldrb	r1, [r6, #10]
    3c64:	7af3      	ldrb	r3, [r6, #11]
    3c66:	2b00      	cmp	r3, #0
    3c68:	d001      	beq.n	3c6e <tc_init+0x11e>
    3c6a:	2310      	movs	r3, #16
    3c6c:	4319      	orrs	r1, r3
    3c6e:	7b33      	ldrb	r3, [r6, #12]
    3c70:	2b00      	cmp	r3, #0
    3c72:	d001      	beq.n	3c78 <tc_init+0x128>
    3c74:	2320      	movs	r3, #32
    3c76:	4319      	orrs	r1, r3
    3c78:	6822      	ldr	r2, [r4, #0]
    3c7a:	7bd3      	ldrb	r3, [r2, #15]
    3c7c:	b25b      	sxtb	r3, r3
    3c7e:	2b00      	cmp	r3, #0
    3c80:	dbfb      	blt.n	3c7a <tc_init+0x12a>
    3c82:	71a9      	strb	r1, [r5, #6]
    3c84:	6822      	ldr	r2, [r4, #0]
    3c86:	7bd3      	ldrb	r3, [r2, #15]
    3c88:	b25b      	sxtb	r3, r3
    3c8a:	2b00      	cmp	r3, #0
    3c8c:	dbfb      	blt.n	3c86 <tc_init+0x136>
    3c8e:	7923      	ldrb	r3, [r4, #4]
    3c90:	2b04      	cmp	r3, #4
    3c92:	d040      	beq.n	3d16 <tc_init+0x1c6>
    3c94:	2b08      	cmp	r3, #8
    3c96:	d05f      	beq.n	3d58 <tc_init+0x208>
    3c98:	2017      	movs	r0, #23
    3c9a:	2b00      	cmp	r3, #0
    3c9c:	d000      	beq.n	3ca0 <tc_init+0x150>
    3c9e:	e785      	b.n	3bac <tc_init+0x5c>
    3ca0:	7bd3      	ldrb	r3, [r2, #15]
    3ca2:	b25b      	sxtb	r3, r3
    3ca4:	2b00      	cmp	r3, #0
    3ca6:	dbfb      	blt.n	3ca0 <tc_init+0x150>
    3ca8:	8d33      	ldrh	r3, [r6, #40]	; 0x28
    3caa:	822b      	strh	r3, [r5, #16]
    3cac:	6822      	ldr	r2, [r4, #0]
    3cae:	7bd3      	ldrb	r3, [r2, #15]
    3cb0:	b25b      	sxtb	r3, r3
    3cb2:	2b00      	cmp	r3, #0
    3cb4:	dbfb      	blt.n	3cae <tc_init+0x15e>
    3cb6:	8d73      	ldrh	r3, [r6, #42]	; 0x2a
    3cb8:	832b      	strh	r3, [r5, #24]
    3cba:	6822      	ldr	r2, [r4, #0]
    3cbc:	7bd3      	ldrb	r3, [r2, #15]
    3cbe:	b25b      	sxtb	r3, r3
    3cc0:	2b00      	cmp	r3, #0
    3cc2:	dbfb      	blt.n	3cbc <tc_init+0x16c>
    3cc4:	8db3      	ldrh	r3, [r6, #44]	; 0x2c
    3cc6:	836b      	strh	r3, [r5, #26]
    3cc8:	2000      	movs	r0, #0
    3cca:	e76f      	b.n	3bac <tc_init+0x5c>
    3ccc:	a902      	add	r1, sp, #8
    3cce:	2301      	movs	r3, #1
    3cd0:	708b      	strb	r3, [r1, #2]
    3cd2:	2200      	movs	r2, #0
    3cd4:	70ca      	strb	r2, [r1, #3]
    3cd6:	7e32      	ldrb	r2, [r6, #24]
    3cd8:	700a      	strb	r2, [r1, #0]
    3cda:	704b      	strb	r3, [r1, #1]
    3cdc:	7d30      	ldrb	r0, [r6, #20]
    3cde:	4b2f      	ldr	r3, [pc, #188]	; (3d9c <tc_init+0x24c>)
    3ce0:	4798      	blx	r3
    3ce2:	e777      	b.n	3bd4 <tc_init+0x84>
    3ce4:	a902      	add	r1, sp, #8
    3ce6:	2301      	movs	r3, #1
    3ce8:	708b      	strb	r3, [r1, #2]
    3cea:	2200      	movs	r2, #0
    3cec:	70ca      	strb	r2, [r1, #3]
    3cee:	3224      	adds	r2, #36	; 0x24
    3cf0:	18b2      	adds	r2, r6, r2
    3cf2:	7812      	ldrb	r2, [r2, #0]
    3cf4:	700a      	strb	r2, [r1, #0]
    3cf6:	704b      	strb	r3, [r1, #1]
    3cf8:	331f      	adds	r3, #31
    3cfa:	18f3      	adds	r3, r6, r3
    3cfc:	7818      	ldrb	r0, [r3, #0]
    3cfe:	4b27      	ldr	r3, [pc, #156]	; (3d9c <tc_init+0x24c>)
    3d00:	4798      	blx	r3
    3d02:	e76b      	b.n	3bdc <tc_init+0x8c>
    3d04:	6a08      	ldr	r0, [r1, #32]
    3d06:	4643      	mov	r3, r8
    3d08:	1c5a      	adds	r2, r3, #1
    3d0a:	0052      	lsls	r2, r2, #1
    3d0c:	ab03      	add	r3, sp, #12
    3d0e:	5ad3      	ldrh	r3, [r2, r3]
    3d10:	4303      	orrs	r3, r0
    3d12:	620b      	str	r3, [r1, #32]
    3d14:	e76e      	b.n	3bf4 <tc_init+0xa4>
    3d16:	7bd3      	ldrb	r3, [r2, #15]
    3d18:	b25b      	sxtb	r3, r3
    3d1a:	2b00      	cmp	r3, #0
    3d1c:	dbfb      	blt.n	3d16 <tc_init+0x1c6>
    3d1e:	2328      	movs	r3, #40	; 0x28
    3d20:	5cf3      	ldrb	r3, [r6, r3]
    3d22:	742b      	strb	r3, [r5, #16]
    3d24:	6822      	ldr	r2, [r4, #0]
    3d26:	7bd3      	ldrb	r3, [r2, #15]
    3d28:	b25b      	sxtb	r3, r3
    3d2a:	2b00      	cmp	r3, #0
    3d2c:	dbfb      	blt.n	3d26 <tc_init+0x1d6>
    3d2e:	2329      	movs	r3, #41	; 0x29
    3d30:	5cf3      	ldrb	r3, [r6, r3]
    3d32:	752b      	strb	r3, [r5, #20]
    3d34:	6822      	ldr	r2, [r4, #0]
    3d36:	7bd3      	ldrb	r3, [r2, #15]
    3d38:	b25b      	sxtb	r3, r3
    3d3a:	2b00      	cmp	r3, #0
    3d3c:	dbfb      	blt.n	3d36 <tc_init+0x1e6>
    3d3e:	232a      	movs	r3, #42	; 0x2a
    3d40:	5cf3      	ldrb	r3, [r6, r3]
    3d42:	762b      	strb	r3, [r5, #24]
    3d44:	6822      	ldr	r2, [r4, #0]
    3d46:	7bd3      	ldrb	r3, [r2, #15]
    3d48:	b25b      	sxtb	r3, r3
    3d4a:	2b00      	cmp	r3, #0
    3d4c:	dbfb      	blt.n	3d46 <tc_init+0x1f6>
    3d4e:	232b      	movs	r3, #43	; 0x2b
    3d50:	5cf3      	ldrb	r3, [r6, r3]
    3d52:	766b      	strb	r3, [r5, #25]
    3d54:	2000      	movs	r0, #0
    3d56:	e729      	b.n	3bac <tc_init+0x5c>
    3d58:	7bd3      	ldrb	r3, [r2, #15]
    3d5a:	b25b      	sxtb	r3, r3
    3d5c:	2b00      	cmp	r3, #0
    3d5e:	dbfb      	blt.n	3d58 <tc_init+0x208>
    3d60:	6ab3      	ldr	r3, [r6, #40]	; 0x28
    3d62:	612b      	str	r3, [r5, #16]
    3d64:	6822      	ldr	r2, [r4, #0]
    3d66:	7bd3      	ldrb	r3, [r2, #15]
    3d68:	b25b      	sxtb	r3, r3
    3d6a:	2b00      	cmp	r3, #0
    3d6c:	dbfb      	blt.n	3d66 <tc_init+0x216>
    3d6e:	6af3      	ldr	r3, [r6, #44]	; 0x2c
    3d70:	61ab      	str	r3, [r5, #24]
    3d72:	6822      	ldr	r2, [r4, #0]
    3d74:	7bd3      	ldrb	r3, [r2, #15]
    3d76:	b25b      	sxtb	r3, r3
    3d78:	2b00      	cmp	r3, #0
    3d7a:	dbfb      	blt.n	3d74 <tc_init+0x224>
    3d7c:	6b33      	ldr	r3, [r6, #48]	; 0x30
    3d7e:	61eb      	str	r3, [r5, #28]
    3d80:	2000      	movs	r0, #0
    3d82:	e713      	b.n	3bac <tc_init+0x5c>
    3d84:	00003b19 	.word	0x00003b19
    3d88:	000089b4 	.word	0x000089b4
    3d8c:	20003234 	.word	0x20003234
    3d90:	40000400 	.word	0x40000400
    3d94:	00006625 	.word	0x00006625
    3d98:	00006599 	.word	0x00006599
    3d9c:	0000674d 	.word	0x0000674d

00003da0 <wdt_set_config>:
    3da0:	b510      	push	{r4, lr}
    3da2:	b082      	sub	sp, #8
    3da4:	0004      	movs	r4, r0
    3da6:	4a39      	ldr	r2, [pc, #228]	; (3e8c <wdt_set_config+0xec>)
    3da8:	6993      	ldr	r3, [r2, #24]
    3daa:	2110      	movs	r1, #16
    3dac:	430b      	orrs	r3, r1
    3dae:	6193      	str	r3, [r2, #24]
    3db0:	4b37      	ldr	r3, [pc, #220]	; (3e90 <wdt_set_config+0xf0>)
    3db2:	781b      	ldrb	r3, [r3, #0]
    3db4:	b25b      	sxtb	r3, r3
    3db6:	2010      	movs	r0, #16
    3db8:	2b00      	cmp	r3, #0
    3dba:	db03      	blt.n	3dc4 <wdt_set_config+0x24>
    3dbc:	78e3      	ldrb	r3, [r4, #3]
    3dbe:	3007      	adds	r0, #7
    3dc0:	2b00      	cmp	r3, #0
    3dc2:	d101      	bne.n	3dc8 <wdt_set_config+0x28>
    3dc4:	b002      	add	sp, #8
    3dc6:	bd10      	pop	{r4, pc}
    3dc8:	7922      	ldrb	r2, [r4, #4]
    3dca:	429a      	cmp	r2, r3
    3dcc:	d8fa      	bhi.n	3dc4 <wdt_set_config+0x24>
    3dce:	7962      	ldrb	r2, [r4, #5]
    3dd0:	429a      	cmp	r2, r3
    3dd2:	d8f7      	bhi.n	3dc4 <wdt_set_config+0x24>
    3dd4:	4a2e      	ldr	r2, [pc, #184]	; (3e90 <wdt_set_config+0xf0>)
    3dd6:	7813      	ldrb	r3, [r2, #0]
    3dd8:	390e      	subs	r1, #14
    3dda:	438b      	bics	r3, r1
    3ddc:	7013      	strb	r3, [r2, #0]
    3dde:	79d3      	ldrb	r3, [r2, #7]
    3de0:	b25b      	sxtb	r3, r3
    3de2:	2b00      	cmp	r3, #0
    3de4:	dbfb      	blt.n	3dde <wdt_set_config+0x3e>
    3de6:	7863      	ldrb	r3, [r4, #1]
    3de8:	2000      	movs	r0, #0
    3dea:	2b00      	cmp	r3, #0
    3dec:	d0ea      	beq.n	3dc4 <wdt_set_config+0x24>
    3dee:	a901      	add	r1, sp, #4
    3df0:	78a3      	ldrb	r3, [r4, #2]
    3df2:	700b      	strb	r3, [r1, #0]
    3df4:	3001      	adds	r0, #1
    3df6:	4b27      	ldr	r3, [pc, #156]	; (3e94 <wdt_set_config+0xf4>)
    3df8:	4798      	blx	r3
    3dfa:	2001      	movs	r0, #1
    3dfc:	4b26      	ldr	r3, [pc, #152]	; (3e98 <wdt_set_config+0xf8>)
    3dfe:	4798      	blx	r3
    3e00:	7823      	ldrb	r3, [r4, #0]
    3e02:	2b00      	cmp	r3, #0
    3e04:	d127      	bne.n	3e56 <wdt_set_config+0xb6>
    3e06:	78e3      	ldrb	r3, [r4, #3]
    3e08:	3b01      	subs	r3, #1
    3e0a:	7922      	ldrb	r2, [r4, #4]
    3e0c:	2a00      	cmp	r2, #0
    3e0e:	d026      	beq.n	3e5e <wdt_set_config+0xbe>
    3e10:	491f      	ldr	r1, [pc, #124]	; (3e90 <wdt_set_config+0xf0>)
    3e12:	780a      	ldrb	r2, [r1, #0]
    3e14:	2004      	movs	r0, #4
    3e16:	4302      	orrs	r2, r0
    3e18:	700a      	strb	r2, [r1, #0]
    3e1a:	7922      	ldrb	r2, [r4, #4]
    3e1c:	3a01      	subs	r2, #1
    3e1e:	4082      	lsls	r2, r0
    3e20:	4313      	orrs	r3, r2
    3e22:	491b      	ldr	r1, [pc, #108]	; (3e90 <wdt_set_config+0xf0>)
    3e24:	79ca      	ldrb	r2, [r1, #7]
    3e26:	b252      	sxtb	r2, r2
    3e28:	2a00      	cmp	r2, #0
    3e2a:	dbfb      	blt.n	3e24 <wdt_set_config+0x84>
    3e2c:	b2db      	uxtb	r3, r3
    3e2e:	4a18      	ldr	r2, [pc, #96]	; (3e90 <wdt_set_config+0xf0>)
    3e30:	7053      	strb	r3, [r2, #1]
    3e32:	7963      	ldrb	r3, [r4, #5]
    3e34:	2b00      	cmp	r3, #0
    3e36:	d118      	bne.n	3e6a <wdt_set_config+0xca>
    3e38:	7823      	ldrb	r3, [r4, #0]
    3e3a:	2b00      	cmp	r3, #0
    3e3c:	d01f      	beq.n	3e7e <wdt_set_config+0xde>
    3e3e:	4a14      	ldr	r2, [pc, #80]	; (3e90 <wdt_set_config+0xf0>)
    3e40:	7813      	ldrb	r3, [r2, #0]
    3e42:	2180      	movs	r1, #128	; 0x80
    3e44:	430b      	orrs	r3, r1
    3e46:	7013      	strb	r3, [r2, #0]
    3e48:	4a11      	ldr	r2, [pc, #68]	; (3e90 <wdt_set_config+0xf0>)
    3e4a:	79d3      	ldrb	r3, [r2, #7]
    3e4c:	b25b      	sxtb	r3, r3
    3e4e:	2b00      	cmp	r3, #0
    3e50:	dbfb      	blt.n	3e4a <wdt_set_config+0xaa>
    3e52:	2000      	movs	r0, #0
    3e54:	e7b6      	b.n	3dc4 <wdt_set_config+0x24>
    3e56:	2001      	movs	r0, #1
    3e58:	4b10      	ldr	r3, [pc, #64]	; (3e9c <wdt_set_config+0xfc>)
    3e5a:	4798      	blx	r3
    3e5c:	e7d3      	b.n	3e06 <wdt_set_config+0x66>
    3e5e:	490c      	ldr	r1, [pc, #48]	; (3e90 <wdt_set_config+0xf0>)
    3e60:	780a      	ldrb	r2, [r1, #0]
    3e62:	2004      	movs	r0, #4
    3e64:	4382      	bics	r2, r0
    3e66:	700a      	strb	r2, [r1, #0]
    3e68:	e7db      	b.n	3e22 <wdt_set_config+0x82>
    3e6a:	0011      	movs	r1, r2
    3e6c:	79ca      	ldrb	r2, [r1, #7]
    3e6e:	b252      	sxtb	r2, r2
    3e70:	2a00      	cmp	r2, #0
    3e72:	dbfb      	blt.n	3e6c <wdt_set_config+0xcc>
    3e74:	3b01      	subs	r3, #1
    3e76:	b2db      	uxtb	r3, r3
    3e78:	4a05      	ldr	r2, [pc, #20]	; (3e90 <wdt_set_config+0xf0>)
    3e7a:	7093      	strb	r3, [r2, #2]
    3e7c:	e7dc      	b.n	3e38 <wdt_set_config+0x98>
    3e7e:	4a04      	ldr	r2, [pc, #16]	; (3e90 <wdt_set_config+0xf0>)
    3e80:	7813      	ldrb	r3, [r2, #0]
    3e82:	2102      	movs	r1, #2
    3e84:	430b      	orrs	r3, r1
    3e86:	7013      	strb	r3, [r2, #0]
    3e88:	e7de      	b.n	3e48 <wdt_set_config+0xa8>
    3e8a:	46c0      	nop			; (mov r8, r8)
    3e8c:	40000400 	.word	0x40000400
    3e90:	40001000 	.word	0x40001000
    3e94:	00006625 	.word	0x00006625
    3e98:	00006599 	.word	0x00006599
    3e9c:	00006641 	.word	0x00006641

00003ea0 <wdt_reset_count>:
    3ea0:	22a5      	movs	r2, #165	; 0xa5
    3ea2:	4b04      	ldr	r3, [pc, #16]	; (3eb4 <wdt_reset_count+0x14>)
    3ea4:	721a      	strb	r2, [r3, #8]
    3ea6:	001a      	movs	r2, r3
    3ea8:	79d3      	ldrb	r3, [r2, #7]
    3eaa:	b25b      	sxtb	r3, r3
    3eac:	2b00      	cmp	r3, #0
    3eae:	dbfb      	blt.n	3ea8 <wdt_reset_count+0x8>
    3eb0:	4770      	bx	lr
    3eb2:	46c0      	nop			; (mov r8, r8)
    3eb4:	40001000 	.word	0x40001000

00003eb8 <wdt_register_callback>:
    3eb8:	2900      	cmp	r1, #0
    3eba:	d001      	beq.n	3ec0 <wdt_register_callback+0x8>
    3ebc:	2017      	movs	r0, #23
    3ebe:	4770      	bx	lr
    3ec0:	4b01      	ldr	r3, [pc, #4]	; (3ec8 <wdt_register_callback+0x10>)
    3ec2:	6018      	str	r0, [r3, #0]
    3ec4:	2000      	movs	r0, #0
    3ec6:	e7fa      	b.n	3ebe <wdt_register_callback+0x6>
    3ec8:	2000324c 	.word	0x2000324c

00003ecc <wdt_enable_callback>:
    3ecc:	2800      	cmp	r0, #0
    3ece:	d001      	beq.n	3ed4 <wdt_enable_callback+0x8>
    3ed0:	2017      	movs	r0, #23
    3ed2:	4770      	bx	lr
    3ed4:	2201      	movs	r2, #1
    3ed6:	4b03      	ldr	r3, [pc, #12]	; (3ee4 <wdt_enable_callback+0x18>)
    3ed8:	715a      	strb	r2, [r3, #5]
    3eda:	3203      	adds	r2, #3
    3edc:	4b02      	ldr	r3, [pc, #8]	; (3ee8 <wdt_enable_callback+0x1c>)
    3ede:	601a      	str	r2, [r3, #0]
    3ee0:	e7f7      	b.n	3ed2 <wdt_enable_callback+0x6>
    3ee2:	46c0      	nop			; (mov r8, r8)
    3ee4:	40001000 	.word	0x40001000
    3ee8:	e000e100 	.word	0xe000e100

00003eec <WDT_Handler>:
    3eec:	b510      	push	{r4, lr}
    3eee:	2201      	movs	r2, #1
    3ef0:	4b03      	ldr	r3, [pc, #12]	; (3f00 <WDT_Handler+0x14>)
    3ef2:	719a      	strb	r2, [r3, #6]
    3ef4:	4b03      	ldr	r3, [pc, #12]	; (3f04 <WDT_Handler+0x18>)
    3ef6:	681b      	ldr	r3, [r3, #0]
    3ef8:	2b00      	cmp	r3, #0
    3efa:	d000      	beq.n	3efe <WDT_Handler+0x12>
    3efc:	4798      	blx	r3
    3efe:	bd10      	pop	{r4, pc}
    3f00:	40001000 	.word	0x40001000
    3f04:	2000324c 	.word	0x2000324c

00003f08 <LORA01_extint_detection_callback>:
}


unsigned char tmp_data;
void LORA01_extint_detection_callback(void)
{
    3f08:	b510      	push	{r4, lr}
	if(LORA01->LoRa_IRQ_Flag == 0)
    3f0a:	4b07      	ldr	r3, [pc, #28]	; (3f28 <LORA01_extint_detection_callback+0x20>)
    3f0c:	6818      	ldr	r0, [r3, #0]
    3f0e:	4b07      	ldr	r3, [pc, #28]	; (3f2c <LORA01_extint_detection_callback+0x24>)
    3f10:	5cc3      	ldrb	r3, [r0, r3]
    3f12:	2b00      	cmp	r3, #0
    3f14:	d000      	beq.n	3f18 <LORA01_extint_detection_callback+0x10>
	{
		change_and_check(&(LORA01->LoRa_IRQ_Flag), 1);
	}
}
    3f16:	bd10      	pop	{r4, pc}
		change_and_check(&(LORA01->LoRa_IRQ_Flag), 1);
    3f18:	4b04      	ldr	r3, [pc, #16]	; (3f2c <LORA01_extint_detection_callback+0x24>)
    3f1a:	469c      	mov	ip, r3
    3f1c:	4460      	add	r0, ip
    3f1e:	2101      	movs	r1, #1
    3f20:	4b03      	ldr	r3, [pc, #12]	; (3f30 <LORA01_extint_detection_callback+0x28>)
    3f22:	4798      	blx	r3
}
    3f24:	e7f7      	b.n	3f16 <LORA01_extint_detection_callback+0xe>
    3f26:	46c0      	nop			; (mov r8, r8)
    3f28:	20001944 	.word	0x20001944
    3f2c:	00000223 	.word	0x00000223
    3f30:	000040f9 	.word	0x000040f9

00003f34 <LORA02_extint_detection_callback>:

void LORA02_extint_detection_callback(void)
{
    3f34:	b510      	push	{r4, lr}
	if(LORA02->LoRa_IRQ_Flag == 0)
    3f36:	4b07      	ldr	r3, [pc, #28]	; (3f54 <LORA02_extint_detection_callback+0x20>)
    3f38:	6818      	ldr	r0, [r3, #0]
    3f3a:	4b07      	ldr	r3, [pc, #28]	; (3f58 <LORA02_extint_detection_callback+0x24>)
    3f3c:	5cc3      	ldrb	r3, [r0, r3]
    3f3e:	2b00      	cmp	r3, #0
    3f40:	d000      	beq.n	3f44 <LORA02_extint_detection_callback+0x10>
	{
		change_and_check(&(LORA02->LoRa_IRQ_Flag), 1);
	}
}
    3f42:	bd10      	pop	{r4, pc}
		change_and_check(&(LORA02->LoRa_IRQ_Flag), 1);
    3f44:	4b04      	ldr	r3, [pc, #16]	; (3f58 <LORA02_extint_detection_callback+0x24>)
    3f46:	469c      	mov	ip, r3
    3f48:	4460      	add	r0, ip
    3f4a:	2101      	movs	r1, #1
    3f4c:	4b03      	ldr	r3, [pc, #12]	; (3f5c <LORA02_extint_detection_callback+0x28>)
    3f4e:	4798      	blx	r3
}
    3f50:	e7f7      	b.n	3f42 <LORA02_extint_detection_callback+0xe>
    3f52:	46c0      	nop			; (mov r8, r8)
    3f54:	20000d18 	.word	0x20000d18
    3f58:	00000223 	.word	0x00000223
    3f5c:	000040f9 	.word	0x000040f9

00003f60 <configure_extint_channel>:
{
    3f60:	b5f0      	push	{r4, r5, r6, r7, lr}
    3f62:	b085      	sub	sp, #20
	extint_chan_get_config_defaults(&config_extint_chan);
    3f64:	ac01      	add	r4, sp, #4
    3f66:	0020      	movs	r0, r4
    3f68:	4b0b      	ldr	r3, [pc, #44]	; (3f98 <configure_extint_channel+0x38>)
    3f6a:	4798      	blx	r3
	config_extint_chan.gpio_pin           = PIN_PA11A_EIC_EXTINT11;
    3f6c:	230b      	movs	r3, #11
    3f6e:	9301      	str	r3, [sp, #4]
	config_extint_chan.gpio_pin_mux       = MUX_PA11A_EIC_EXTINT11;
    3f70:	2500      	movs	r5, #0
    3f72:	6065      	str	r5, [r4, #4]
	config_extint_chan.gpio_pin_pull      = EXTINT_PULL_NONE;
    3f74:	7225      	strb	r5, [r4, #8]
	config_extint_chan.detection_criteria = EXTINT_DETECT_RISING;
    3f76:	2701      	movs	r7, #1
    3f78:	72e7      	strb	r7, [r4, #11]
	extint_chan_set_config(PIN_PA11, &config_extint_chan);
    3f7a:	0021      	movs	r1, r4
    3f7c:	200b      	movs	r0, #11
    3f7e:	4e07      	ldr	r6, [pc, #28]	; (3f9c <configure_extint_channel+0x3c>)
    3f80:	47b0      	blx	r6
	config_extint_chan.gpio_pin           = PIN_PA07A_EIC_EXTINT7;
    3f82:	2307      	movs	r3, #7
    3f84:	9301      	str	r3, [sp, #4]
	config_extint_chan.gpio_pin_mux       = MUX_PA07A_EIC_EXTINT7;
    3f86:	6065      	str	r5, [r4, #4]
	config_extint_chan.gpio_pin_pull      = EXTINT_PULL_NONE;
    3f88:	7225      	strb	r5, [r4, #8]
	config_extint_chan.detection_criteria = EXTINT_DETECT_RISING;
    3f8a:	72e7      	strb	r7, [r4, #11]
	extint_chan_set_config(PIN_PA07, &config_extint_chan);
    3f8c:	0021      	movs	r1, r4
    3f8e:	2007      	movs	r0, #7
    3f90:	47b0      	blx	r6
}
    3f92:	b005      	add	sp, #20
    3f94:	bdf0      	pop	{r4, r5, r6, r7, pc}
    3f96:	46c0      	nop			; (mov r8, r8)
    3f98:	00003995 	.word	0x00003995
    3f9c:	000039a9 	.word	0x000039a9

00003fa0 <configure_extint_callbacks>:
{
    3fa0:	b570      	push	{r4, r5, r6, lr}
	extint_register_callback(LORA01_extint_detection_callback, PIN_PA11, EXTINT_CALLBACK_TYPE_DETECT);
    3fa2:	2200      	movs	r2, #0
    3fa4:	210b      	movs	r1, #11
    3fa6:	4807      	ldr	r0, [pc, #28]	; (3fc4 <configure_extint_callbacks+0x24>)
    3fa8:	4d07      	ldr	r5, [pc, #28]	; (3fc8 <configure_extint_callbacks+0x28>)
    3faa:	47a8      	blx	r5
	extint_chan_enable_callback(PIN_PA11, EXTINT_CALLBACK_TYPE_DETECT);
    3fac:	2100      	movs	r1, #0
    3fae:	200b      	movs	r0, #11
    3fb0:	4c06      	ldr	r4, [pc, #24]	; (3fcc <configure_extint_callbacks+0x2c>)
    3fb2:	47a0      	blx	r4
	extint_register_callback(LORA02_extint_detection_callback, PIN_PA07, EXTINT_CALLBACK_TYPE_DETECT);
    3fb4:	2200      	movs	r2, #0
    3fb6:	2107      	movs	r1, #7
    3fb8:	4805      	ldr	r0, [pc, #20]	; (3fd0 <configure_extint_callbacks+0x30>)
    3fba:	47a8      	blx	r5
	extint_chan_enable_callback(PIN_PA07, EXTINT_CALLBACK_TYPE_DETECT);
    3fbc:	2100      	movs	r1, #0
    3fbe:	2007      	movs	r0, #7
    3fc0:	47a0      	blx	r4
}
    3fc2:	bd70      	pop	{r4, r5, r6, pc}
    3fc4:	00003f09 	.word	0x00003f09
    3fc8:	00003871 	.word	0x00003871
    3fcc:	0000389d 	.word	0x0000389d
    3fd0:	00003f35 	.word	0x00003f35

00003fd4 <Reset_LoRa_Func>:
#include <stdio.h>
#include "myDefine.h"


void Reset_LoRa_Func(volatile LORA_DEFINE_t *tmp_LORA)
{
    3fd4:	b5f8      	push	{r3, r4, r5, r6, r7, lr}
    3fd6:	0004      	movs	r4, r0
	
	if(tmp_LORA == LORA01)
    3fd8:	4b3f      	ldr	r3, [pc, #252]	; (40d8 <Reset_LoRa_Func+0x104>)
    3fda:	681b      	ldr	r3, [r3, #0]
    3fdc:	4283      	cmp	r3, r0
    3fde:	d004      	beq.n	3fea <Reset_LoRa_Func+0x16>
		change_and_check(&(tmp_LORA->LoRa_TxRx_Mode_Flag), SetRx);
		change_and_check(&(tmp_LORA->LoRa_Tx_Send_Time_Out_Count), 0);
		change_and_check(&(tmp_LORA->LoRa_IRQ_Flag), 0);
		
	}
	else if(tmp_LORA == LORA02)
    3fe0:	4b3e      	ldr	r3, [pc, #248]	; (40dc <Reset_LoRa_Func+0x108>)
    3fe2:	681b      	ldr	r3, [r3, #0]
    3fe4:	4298      	cmp	r0, r3
    3fe6:	d03b      	beq.n	4060 <Reset_LoRa_Func+0x8c>
		change_and_check(&(tmp_LORA->LoRa_TxRx_Mode_Flag), SetRx);
		change_and_check(&(tmp_LORA->LoRa_Tx_Send_Time_Out_Count), 0);
		change_and_check(&(tmp_LORA->LoRa_IRQ_Flag), 0);
		tmp_LORA->f_count = 0;
	}
}
    3fe8:	bdf8      	pop	{r3, r4, r5, r6, r7, pc}
		LORA01_Reset_Func(false);
    3fea:	2000      	movs	r0, #0
    3fec:	4f3c      	ldr	r7, [pc, #240]	; (40e0 <Reset_LoRa_Func+0x10c>)
    3fee:	47b8      	blx	r7
		delay_ms(500);
    3ff0:	26fa      	movs	r6, #250	; 0xfa
    3ff2:	0076      	lsls	r6, r6, #1
    3ff4:	0030      	movs	r0, r6
    3ff6:	4d3b      	ldr	r5, [pc, #236]	; (40e4 <Reset_LoRa_Func+0x110>)
    3ff8:	47a8      	blx	r5
		LORA01_Reset_Func(true);
    3ffa:	2001      	movs	r0, #1
    3ffc:	47b8      	blx	r7
		delay_ms(500);
    3ffe:	0030      	movs	r0, r6
    4000:	47a8      	blx	r5
		tmp_LORA->f_count = 0;
    4002:	2200      	movs	r2, #0
    4004:	238f      	movs	r3, #143	; 0x8f
    4006:	009b      	lsls	r3, r3, #2
    4008:	50e2      	str	r2, [r4, r3]

void change_and_check(volatile unsigned char *tmp_LORA, unsigned char tmp_status)
{
	while(*tmp_LORA != tmp_status)
    400a:	4b37      	ldr	r3, [pc, #220]	; (40e8 <Reset_LoRa_Func+0x114>)
    400c:	5ce3      	ldrb	r3, [r4, r3]
    400e:	2b00      	cmp	r3, #0
    4010:	d005      	beq.n	401e <Reset_LoRa_Func+0x4a>
	{
		*tmp_LORA = tmp_status;
    4012:	4b35      	ldr	r3, [pc, #212]	; (40e8 <Reset_LoRa_Func+0x114>)
    4014:	2100      	movs	r1, #0
    4016:	54e1      	strb	r1, [r4, r3]
	while(*tmp_LORA != tmp_status)
    4018:	5ce2      	ldrb	r2, [r4, r3]
    401a:	2a00      	cmp	r2, #0
    401c:	d1fb      	bne.n	4016 <Reset_LoRa_Func+0x42>
    401e:	4b33      	ldr	r3, [pc, #204]	; (40ec <Reset_LoRa_Func+0x118>)
    4020:	5ce3      	ldrb	r3, [r4, r3]
    4022:	2b03      	cmp	r3, #3
    4024:	d005      	beq.n	4032 <Reset_LoRa_Func+0x5e>
		*tmp_LORA = tmp_status;
    4026:	4b31      	ldr	r3, [pc, #196]	; (40ec <Reset_LoRa_Func+0x118>)
    4028:	2103      	movs	r1, #3
    402a:	54e1      	strb	r1, [r4, r3]
	while(*tmp_LORA != tmp_status)
    402c:	5ce2      	ldrb	r2, [r4, r3]
    402e:	2a03      	cmp	r2, #3
    4030:	d1fb      	bne.n	402a <Reset_LoRa_Func+0x56>
    4032:	238a      	movs	r3, #138	; 0x8a
    4034:	009b      	lsls	r3, r3, #2
    4036:	5ce3      	ldrb	r3, [r4, r3]
    4038:	2b00      	cmp	r3, #0
    403a:	d006      	beq.n	404a <Reset_LoRa_Func+0x76>
		*tmp_LORA = tmp_status;
    403c:	238a      	movs	r3, #138	; 0x8a
    403e:	009b      	lsls	r3, r3, #2
    4040:	2100      	movs	r1, #0
    4042:	54e1      	strb	r1, [r4, r3]
	while(*tmp_LORA != tmp_status)
    4044:	5ce2      	ldrb	r2, [r4, r3]
    4046:	2a00      	cmp	r2, #0
    4048:	d1fb      	bne.n	4042 <Reset_LoRa_Func+0x6e>
    404a:	4b29      	ldr	r3, [pc, #164]	; (40f0 <Reset_LoRa_Func+0x11c>)
    404c:	5ce3      	ldrb	r3, [r4, r3]
    404e:	2b00      	cmp	r3, #0
    4050:	d0ca      	beq.n	3fe8 <Reset_LoRa_Func+0x14>
		*tmp_LORA = tmp_status;
    4052:	4b27      	ldr	r3, [pc, #156]	; (40f0 <Reset_LoRa_Func+0x11c>)
    4054:	2100      	movs	r1, #0
    4056:	54e1      	strb	r1, [r4, r3]
	while(*tmp_LORA != tmp_status)
    4058:	5ce2      	ldrb	r2, [r4, r3]
    405a:	2a00      	cmp	r2, #0
    405c:	d1fb      	bne.n	4056 <Reset_LoRa_Func+0x82>
    405e:	e7c3      	b.n	3fe8 <Reset_LoRa_Func+0x14>
		LORA02_Reset_Func(false);
    4060:	2000      	movs	r0, #0
    4062:	4f24      	ldr	r7, [pc, #144]	; (40f4 <Reset_LoRa_Func+0x120>)
    4064:	47b8      	blx	r7
		delay_ms(500);
    4066:	26fa      	movs	r6, #250	; 0xfa
    4068:	0076      	lsls	r6, r6, #1
    406a:	0030      	movs	r0, r6
    406c:	4d1d      	ldr	r5, [pc, #116]	; (40e4 <Reset_LoRa_Func+0x110>)
    406e:	47a8      	blx	r5
		LORA02_Reset_Func(true);
    4070:	2001      	movs	r0, #1
    4072:	47b8      	blx	r7
		delay_ms(500);
    4074:	0030      	movs	r0, r6
    4076:	47a8      	blx	r5
	while(*tmp_LORA != tmp_status)
    4078:	4b1b      	ldr	r3, [pc, #108]	; (40e8 <Reset_LoRa_Func+0x114>)
    407a:	5ce3      	ldrb	r3, [r4, r3]
    407c:	2b00      	cmp	r3, #0
    407e:	d005      	beq.n	408c <Reset_LoRa_Func+0xb8>
		*tmp_LORA = tmp_status;
    4080:	4b19      	ldr	r3, [pc, #100]	; (40e8 <Reset_LoRa_Func+0x114>)
    4082:	2100      	movs	r1, #0
    4084:	54e1      	strb	r1, [r4, r3]
	while(*tmp_LORA != tmp_status)
    4086:	5ce2      	ldrb	r2, [r4, r3]
    4088:	2a00      	cmp	r2, #0
    408a:	d1fb      	bne.n	4084 <Reset_LoRa_Func+0xb0>
    408c:	4b17      	ldr	r3, [pc, #92]	; (40ec <Reset_LoRa_Func+0x118>)
    408e:	5ce3      	ldrb	r3, [r4, r3]
    4090:	2b03      	cmp	r3, #3
    4092:	d005      	beq.n	40a0 <Reset_LoRa_Func+0xcc>
		*tmp_LORA = tmp_status;
    4094:	4b15      	ldr	r3, [pc, #84]	; (40ec <Reset_LoRa_Func+0x118>)
    4096:	2103      	movs	r1, #3
    4098:	54e1      	strb	r1, [r4, r3]
	while(*tmp_LORA != tmp_status)
    409a:	5ce2      	ldrb	r2, [r4, r3]
    409c:	2a03      	cmp	r2, #3
    409e:	d1fb      	bne.n	4098 <Reset_LoRa_Func+0xc4>
    40a0:	238a      	movs	r3, #138	; 0x8a
    40a2:	009b      	lsls	r3, r3, #2
    40a4:	5ce3      	ldrb	r3, [r4, r3]
    40a6:	2b00      	cmp	r3, #0
    40a8:	d006      	beq.n	40b8 <Reset_LoRa_Func+0xe4>
		*tmp_LORA = tmp_status;
    40aa:	238a      	movs	r3, #138	; 0x8a
    40ac:	009b      	lsls	r3, r3, #2
    40ae:	2100      	movs	r1, #0
    40b0:	54e1      	strb	r1, [r4, r3]
	while(*tmp_LORA != tmp_status)
    40b2:	5ce2      	ldrb	r2, [r4, r3]
    40b4:	2a00      	cmp	r2, #0
    40b6:	d1fb      	bne.n	40b0 <Reset_LoRa_Func+0xdc>
    40b8:	4b0d      	ldr	r3, [pc, #52]	; (40f0 <Reset_LoRa_Func+0x11c>)
    40ba:	5ce3      	ldrb	r3, [r4, r3]
    40bc:	2b00      	cmp	r3, #0
    40be:	d005      	beq.n	40cc <Reset_LoRa_Func+0xf8>
		*tmp_LORA = tmp_status;
    40c0:	4b0b      	ldr	r3, [pc, #44]	; (40f0 <Reset_LoRa_Func+0x11c>)
    40c2:	2100      	movs	r1, #0
    40c4:	54e1      	strb	r1, [r4, r3]
	while(*tmp_LORA != tmp_status)
    40c6:	5ce2      	ldrb	r2, [r4, r3]
    40c8:	2a00      	cmp	r2, #0
    40ca:	d1fb      	bne.n	40c4 <Reset_LoRa_Func+0xf0>
		tmp_LORA->f_count = 0;
    40cc:	2200      	movs	r2, #0
    40ce:	238f      	movs	r3, #143	; 0x8f
    40d0:	009b      	lsls	r3, r3, #2
    40d2:	50e2      	str	r2, [r4, r3]
}
    40d4:	e788      	b.n	3fe8 <Reset_LoRa_Func+0x14>
    40d6:	46c0      	nop			; (mov r8, r8)
    40d8:	20001944 	.word	0x20001944
    40dc:	20000d18 	.word	0x20000d18
    40e0:	0000191d 	.word	0x0000191d
    40e4:	00005941 	.word	0x00005941
    40e8:	0000021d 	.word	0x0000021d
    40ec:	0000022a 	.word	0x0000022a
    40f0:	00000223 	.word	0x00000223
    40f4:	00001939 	.word	0x00001939

000040f8 <change_and_check>:
	while(*tmp_LORA != tmp_status)
    40f8:	7803      	ldrb	r3, [r0, #0]
    40fa:	b2db      	uxtb	r3, r3
    40fc:	4299      	cmp	r1, r3
    40fe:	d004      	beq.n	410a <change_and_check+0x12>
		*tmp_LORA = tmp_status;
    4100:	7001      	strb	r1, [r0, #0]
	while(*tmp_LORA != tmp_status)
    4102:	7803      	ldrb	r3, [r0, #0]
    4104:	b2db      	uxtb	r3, r3
    4106:	428b      	cmp	r3, r1
    4108:	d1fa      	bne.n	4100 <change_and_check+0x8>
	}
}
    410a:	4770      	bx	lr

0000410c <Setting_Lora_To_Tx_Mode_Func>:

void Setting_Lora_To_Tx_Mode_Func(volatile LORA_DEFINE_t *tmp_LORA)
{	
	tmp_LORA->NowStatus = Write_LoRa_Setting_Index;
    410c:	2204      	movs	r2, #4
    410e:	4b04      	ldr	r3, [pc, #16]	; (4120 <Setting_Lora_To_Tx_Mode_Func+0x14>)
    4110:	54c2      	strb	r2, [r0, r3]
	tmp_LORA->LoRa_TxRx_Mode_Flag = SetTx;
    4112:	3a02      	subs	r2, #2
    4114:	4b03      	ldr	r3, [pc, #12]	; (4124 <Setting_Lora_To_Tx_Mode_Func+0x18>)
    4116:	54c2      	strb	r2, [r0, r3]
	tmp_LORA->LoRa_Rx_Flag = LoraRxNoData;
    4118:	2200      	movs	r2, #0
    411a:	3b06      	subs	r3, #6
    411c:	54c2      	strb	r2, [r0, r3]
	//change_and_check(&(tmp_LORA->NowStatus), Write_LoRa_Setting_Index);
	//change_and_check(&(tmp_LORA->LoRa_TxRx_Mode_Flag), SetTx);
	//change_and_check(&(tmp_LORA->LoRa_Rx_Flag), LoraRxNoData);	
}
    411e:	4770      	bx	lr
    4120:	0000021d 	.word	0x0000021d
    4124:	0000022a 	.word	0x0000022a

00004128 <WaitRxData_Func>:

void WaitRxData_Func(volatile LORA_DEFINE_t *tmp_LORA)
{
    4128:	b5f8      	push	{r3, r4, r5, r6, r7, lr}
    412a:	0004      	movs	r4, r0
	tmp_LORA->f_count =  0;
    412c:	2200      	movs	r2, #0
    412e:	238f      	movs	r3, #143	; 0x8f
    4130:	009b      	lsls	r3, r3, #2
    4132:	50c2      	str	r2, [r0, r3]
	while(1)
	{
		usart_read_buffer_job(tmp_LORA->DevUART, (uint8_t *)tmp_LORA->rx_buffer, MAX_RX_BUFFER_LENGTH);
    4134:	0005      	movs	r5, r0
    4136:	351c      	adds	r5, #28
    4138:	4f26      	ldr	r7, [pc, #152]	; (41d4 <WaitRxData_Func+0xac>)
		if(tmp_LORA->f_count < Lora_CMD_Timeout) //尚未Time Out
    413a:	001e      	movs	r6, r3
		usart_read_buffer_job(tmp_LORA->DevUART, (uint8_t *)tmp_LORA->rx_buffer, MAX_RX_BUFFER_LENGTH);
    413c:	69a0      	ldr	r0, [r4, #24]
    413e:	2201      	movs	r2, #1
    4140:	0029      	movs	r1, r5
    4142:	47b8      	blx	r7
		if(tmp_LORA->f_count < Lora_CMD_Timeout) //尚未Time Out
    4144:	59a2      	ldr	r2, [r4, r6]
    4146:	23f4      	movs	r3, #244	; 0xf4
    4148:	33ff      	adds	r3, #255	; 0xff
    414a:	429a      	cmp	r2, r3
    414c:	d815      	bhi.n	417a <WaitRxData_Func+0x52>
		{
			if(tmp_LORA->MyBufferCount >= tmp_LORA->UserRxCountMax) //若資料長度如預期長度
    414e:	7fa3      	ldrb	r3, [r4, #30]
    4150:	7f62      	ldrb	r2, [r4, #29]
    4152:	b2db      	uxtb	r3, r3
    4154:	4293      	cmp	r3, r2
    4156:	d3f1      	bcc.n	413c <WaitRxData_Func+0x14>
			{
				tmp_LORA->Lora_TimeOut_Count = 0;						//清除TimeOutCount
    4158:	2300      	movs	r3, #0
    415a:	228d      	movs	r2, #141	; 0x8d
    415c:	0092      	lsls	r2, r2, #2
    415e:	50a3      	str	r3, [r4, r2]
				tmp_LORA->f_count = 0;
    4160:	3208      	adds	r2, #8
    4162:	50a3      	str	r3, [r4, r2]
	while(*tmp_LORA != tmp_status)
    4164:	4b1c      	ldr	r3, [pc, #112]	; (41d8 <WaitRxData_Func+0xb0>)
    4166:	5ce3      	ldrb	r3, [r4, r3]
    4168:	2b68      	cmp	r3, #104	; 0x68
    416a:	d02e      	beq.n	41ca <WaitRxData_Func+0xa2>
		*tmp_LORA = tmp_status;
    416c:	4b1a      	ldr	r3, [pc, #104]	; (41d8 <WaitRxData_Func+0xb0>)
    416e:	2168      	movs	r1, #104	; 0x68
    4170:	54e1      	strb	r1, [r4, r3]
	while(*tmp_LORA != tmp_status)
    4172:	5ce2      	ldrb	r2, [r4, r3]
    4174:	2a68      	cmp	r2, #104	; 0x68
    4176:	d1fb      	bne.n	4170 <WaitRxData_Func+0x48>
    4178:	e027      	b.n	41ca <WaitRxData_Func+0xa2>
				break;
			}
		}
		else  //Time Out
		{
			tmp_LORA->Lora_TimeOut_Count = ++tmp_LORA->Lora_TimeOut_Count;
    417a:	238d      	movs	r3, #141	; 0x8d
    417c:	009b      	lsls	r3, r3, #2
    417e:	58e2      	ldr	r2, [r4, r3]
    4180:	3201      	adds	r2, #1
    4182:	50e2      	str	r2, [r4, r3]
    4184:	50e2      	str	r2, [r4, r3]
			//change_and_check(&(tmp_LORA->Lora_TimeOut_Count), ( ++tmp_LORA->Lora_TimeOut_Count ));
			if(tmp_LORA->Lora_TimeOut_Count < 3)	//若Time Out 3次以下
    4186:	58e3      	ldr	r3, [r4, r3]
    4188:	2b02      	cmp	r3, #2
    418a:	d81f      	bhi.n	41cc <WaitRxData_Func+0xa4>
			{
				change_and_check(&(tmp_LORA->NowStatus), tmp_LORA->LastStatus); //重傳上一次的指令
    418c:	4b13      	ldr	r3, [pc, #76]	; (41dc <WaitRxData_Func+0xb4>)
    418e:	5ce2      	ldrb	r2, [r4, r3]
    4190:	b2d2      	uxtb	r2, r2
	while(*tmp_LORA != tmp_status)
    4192:	4b11      	ldr	r3, [pc, #68]	; (41d8 <WaitRxData_Func+0xb0>)
    4194:	5ce3      	ldrb	r3, [r4, r3]
    4196:	b2db      	uxtb	r3, r3
    4198:	4293      	cmp	r3, r2
    419a:	d005      	beq.n	41a8 <WaitRxData_Func+0x80>
		*tmp_LORA = tmp_status;
    419c:	490e      	ldr	r1, [pc, #56]	; (41d8 <WaitRxData_Func+0xb0>)
    419e:	5462      	strb	r2, [r4, r1]
	while(*tmp_LORA != tmp_status)
    41a0:	5c63      	ldrb	r3, [r4, r1]
    41a2:	b2db      	uxtb	r3, r3
    41a4:	429a      	cmp	r2, r3
    41a6:	d1fa      	bne.n	419e <WaitRxData_Func+0x76>
				uTXByte(Debug_COM, '(');
    41a8:	4e0d      	ldr	r6, [pc, #52]	; (41e0 <WaitRxData_Func+0xb8>)
    41aa:	2128      	movs	r1, #40	; 0x28
    41ac:	0030      	movs	r0, r6
    41ae:	4d0d      	ldr	r5, [pc, #52]	; (41e4 <WaitRxData_Func+0xbc>)
    41b0:	47a8      	blx	r5
				uTXByte(Debug_COM, 'T');
    41b2:	2154      	movs	r1, #84	; 0x54
    41b4:	0030      	movs	r0, r6
    41b6:	47a8      	blx	r5
				uTXByte(Debug_COM, ')');
    41b8:	2129      	movs	r1, #41	; 0x29
    41ba:	0030      	movs	r0, r6
    41bc:	47a8      	blx	r5
			}
			else //Time Out超過3次，重新開啟LoRa
			{
				Reset_LoRa_Func(tmp_LORA);
			}
			Print_Who_Lora(tmp_LORA);
    41be:	0020      	movs	r0, r4
    41c0:	4b09      	ldr	r3, [pc, #36]	; (41e8 <WaitRxData_Func+0xc0>)
    41c2:	4798      	blx	r3
			Print_Time_Out_Msg(tmp_LORA);
    41c4:	0020      	movs	r0, r4
    41c6:	4b09      	ldr	r3, [pc, #36]	; (41ec <WaitRxData_Func+0xc4>)
    41c8:	4798      	blx	r3
			break;
		}
	}
}
    41ca:	bdf8      	pop	{r3, r4, r5, r6, r7, pc}
				Reset_LoRa_Func(tmp_LORA);
    41cc:	0020      	movs	r0, r4
    41ce:	4b08      	ldr	r3, [pc, #32]	; (41f0 <WaitRxData_Func+0xc8>)
    41d0:	4798      	blx	r3
    41d2:	e7f4      	b.n	41be <WaitRxData_Func+0x96>
    41d4:	0000608d 	.word	0x0000608d
    41d8:	0000021d 	.word	0x0000021d
    41dc:	0000021e 	.word	0x0000021e
    41e0:	200002f0 	.word	0x200002f0
    41e4:	00005535 	.word	0x00005535
    41e8:	00004c05 	.word	0x00004c05
    41ec:	00004ca9 	.word	0x00004ca9
    41f0:	00003fd5 	.word	0x00003fd5

000041f4 <UartToLora>:
{
	return (tmpA ^ tmpB);
}

void UartToLora(volatile LORA_DEFINE_t *tmp_LORA, unsigned char Myindex)
{
    41f4:	b5f0      	push	{r4, r5, r6, r7, lr}
    41f6:	46ce      	mov	lr, r9
    41f8:	4647      	mov	r7, r8
    41fa:	b580      	push	{r7, lr}
    41fc:	b083      	sub	sp, #12
    41fe:	0007      	movs	r7, r0
    4200:	4688      	mov	r8, r1
	unsigned char XORtmp;
	unsigned char i;
	volatile unsigned char j;
	//計算要傳給Lora模組的CRC
	XORtmp = 0x00;
	j = tmp_LORA->MyLoRaTmpCount[Myindex];
    4202:	1843      	adds	r3, r0, r1
    4204:	335d      	adds	r3, #93	; 0x5d
    4206:	781b      	ldrb	r3, [r3, #0]
    4208:	b2db      	uxtb	r3, r3
    420a:	466a      	mov	r2, sp
    420c:	71d3      	strb	r3, [r2, #7]
	//change_and_check(&j, tmp_LORA->MyLoRaTmpCount[Myindex]);
	for(i = 0; i < j; i++)
    420e:	79d5      	ldrb	r5, [r2, #7]
    4210:	b2ed      	uxtb	r5, r5
    4212:	2d00      	cmp	r5, #0
    4214:	d012      	beq.n	423c <UartToLora+0x48>
    4216:	2300      	movs	r3, #0
    4218:	2500      	movs	r5, #0
	{
		XORtmp = MyXORFunc(XORtmp, tmp_LORA->MyLoRaTmp[Myindex][i]);
    421a:	0048      	lsls	r0, r1, #1
    421c:	4440      	add	r0, r8
    421e:	00c2      	lsls	r2, r0, #3
    4220:	1880      	adds	r0, r0, r2
    4222:	1838      	adds	r0, r7, r0
	for(i = 0; i < j; i++)
    4224:	466a      	mov	r2, sp
    4226:	1dd1      	adds	r1, r2, #7
		XORtmp = MyXORFunc(XORtmp, tmp_LORA->MyLoRaTmp[Myindex][i]);
    4228:	18c2      	adds	r2, r0, r3
    422a:	326d      	adds	r2, #109	; 0x6d
    422c:	7812      	ldrb	r2, [r2, #0]
	return (tmpA ^ tmpB);
    422e:	4055      	eors	r5, r2
	for(i = 0; i < j; i++)
    4230:	3301      	adds	r3, #1
    4232:	b2db      	uxtb	r3, r3
    4234:	780a      	ldrb	r2, [r1, #0]
    4236:	b2d2      	uxtb	r2, r2
    4238:	429a      	cmp	r2, r3
    423a:	d8f5      	bhi.n	4228 <UartToLora+0x34>
	}
	
	//開始將資料傳給Lora模組
	change_and_check(&(j), tmp_LORA->MyLoRaTmpCount[Myindex]);
    423c:	4643      	mov	r3, r8
    423e:	18fb      	adds	r3, r7, r3
    4240:	335d      	adds	r3, #93	; 0x5d
    4242:	781a      	ldrb	r2, [r3, #0]
    4244:	b2d2      	uxtb	r2, r2
	while(*tmp_LORA != tmp_status)
    4246:	466b      	mov	r3, sp
    4248:	3307      	adds	r3, #7
    424a:	781b      	ldrb	r3, [r3, #0]
    424c:	b2db      	uxtb	r3, r3
    424e:	429a      	cmp	r2, r3
    4250:	d006      	beq.n	4260 <UartToLora+0x6c>
		*tmp_LORA = tmp_status;
    4252:	466b      	mov	r3, sp
    4254:	1dd9      	adds	r1, r3, #7
    4256:	700a      	strb	r2, [r1, #0]
	while(*tmp_LORA != tmp_status)
    4258:	780b      	ldrb	r3, [r1, #0]
    425a:	b2db      	uxtb	r3, r3
    425c:	429a      	cmp	r2, r3
    425e:	d1fa      	bne.n	4256 <UartToLora+0x62>
	for(i = 0; i < j; i++)
    4260:	466b      	mov	r3, sp
    4262:	3307      	adds	r3, #7
    4264:	781b      	ldrb	r3, [r3, #0]
    4266:	2b00      	cmp	r3, #0
    4268:	d016      	beq.n	4298 <UartToLora+0xa4>
    426a:	2400      	movs	r4, #0
	{
		uTXByte(tmp_LORA->DevUART, tmp_LORA->MyLoRaTmp[Myindex][i]);
    426c:	4643      	mov	r3, r8
    426e:	005e      	lsls	r6, r3, #1
    4270:	4446      	add	r6, r8
    4272:	00f3      	lsls	r3, r6, #3
    4274:	18f6      	adds	r6, r6, r3
    4276:	19be      	adds	r6, r7, r6
    4278:	4b2c      	ldr	r3, [pc, #176]	; (432c <UartToLora+0x138>)
    427a:	4699      	mov	r9, r3
    427c:	69b8      	ldr	r0, [r7, #24]
    427e:	1933      	adds	r3, r6, r4
    4280:	336d      	adds	r3, #109	; 0x6d
    4282:	7819      	ldrb	r1, [r3, #0]
    4284:	b2c9      	uxtb	r1, r1
    4286:	47c8      	blx	r9
	for(i = 0; i < j; i++)
    4288:	3401      	adds	r4, #1
    428a:	b2e4      	uxtb	r4, r4
    428c:	466b      	mov	r3, sp
    428e:	3307      	adds	r3, #7
    4290:	781b      	ldrb	r3, [r3, #0]
    4292:	b2db      	uxtb	r3, r3
    4294:	42a3      	cmp	r3, r4
    4296:	d8f1      	bhi.n	427c <UartToLora+0x88>
	}
	//傳送資料的CRC
	uTXByte(tmp_LORA->DevUART, XORtmp);
    4298:	69b8      	ldr	r0, [r7, #24]
    429a:	0029      	movs	r1, r5
    429c:	4b23      	ldr	r3, [pc, #140]	; (432c <UartToLora+0x138>)
    429e:	4798      	blx	r3
	
	
	//=============================
	//	Debug Mode
	//=============================
	if(tmp_LORA->Lora_Debug_Flag == 1)
    42a0:	2388      	movs	r3, #136	; 0x88
    42a2:	009b      	lsls	r3, r3, #2
    42a4:	5cfb      	ldrb	r3, [r7, r3]
    42a6:	2b01      	cmp	r3, #1
    42a8:	d004      	beq.n	42b4 <UartToLora+0xc0>
			uTXByte(Debug_COM, ' ');
		}
		uart_send_ascii_byte(Debug_COM, XORtmp);
		uTXByte(Debug_COM, 0x0d);
	}
}
    42aa:	b003      	add	sp, #12
    42ac:	bc0c      	pop	{r2, r3}
    42ae:	4690      	mov	r8, r2
    42b0:	4699      	mov	r9, r3
    42b2:	bdf0      	pop	{r4, r5, r6, r7, pc}
		change_and_check(&(j), tmp_LORA->MyLoRaTmpCount[Myindex]);
    42b4:	4643      	mov	r3, r8
    42b6:	18fb      	adds	r3, r7, r3
    42b8:	335d      	adds	r3, #93	; 0x5d
    42ba:	781a      	ldrb	r2, [r3, #0]
    42bc:	b2d2      	uxtb	r2, r2
	while(*tmp_LORA != tmp_status)
    42be:	466b      	mov	r3, sp
    42c0:	3307      	adds	r3, #7
    42c2:	781b      	ldrb	r3, [r3, #0]
    42c4:	b2db      	uxtb	r3, r3
    42c6:	429a      	cmp	r2, r3
    42c8:	d006      	beq.n	42d8 <UartToLora+0xe4>
		*tmp_LORA = tmp_status;
    42ca:	466b      	mov	r3, sp
    42cc:	1dd9      	adds	r1, r3, #7
    42ce:	700a      	strb	r2, [r1, #0]
	while(*tmp_LORA != tmp_status)
    42d0:	780b      	ldrb	r3, [r1, #0]
    42d2:	b2db      	uxtb	r3, r3
    42d4:	429a      	cmp	r2, r3
    42d6:	d1fa      	bne.n	42ce <UartToLora+0xda>
		for(i = 0; i < j; i++)
    42d8:	466b      	mov	r3, sp
    42da:	3307      	adds	r3, #7
    42dc:	781b      	ldrb	r3, [r3, #0]
    42de:	2b00      	cmp	r3, #0
    42e0:	d01a      	beq.n	4318 <UartToLora+0x124>
    42e2:	2400      	movs	r4, #0
			uart_send_ascii_byte(Debug_COM, tmp_LORA->MyLoRaTmp[Myindex][i]);
    42e4:	4643      	mov	r3, r8
    42e6:	005b      	lsls	r3, r3, #1
    42e8:	4443      	add	r3, r8
    42ea:	00da      	lsls	r2, r3, #3
    42ec:	189b      	adds	r3, r3, r2
    42ee:	18ff      	adds	r7, r7, r3
    42f0:	4e0f      	ldr	r6, [pc, #60]	; (4330 <UartToLora+0x13c>)
    42f2:	193b      	adds	r3, r7, r4
    42f4:	336d      	adds	r3, #109	; 0x6d
    42f6:	7819      	ldrb	r1, [r3, #0]
    42f8:	b2c9      	uxtb	r1, r1
    42fa:	0030      	movs	r0, r6
    42fc:	4b0d      	ldr	r3, [pc, #52]	; (4334 <UartToLora+0x140>)
    42fe:	4798      	blx	r3
			uTXByte(Debug_COM, ' ');
    4300:	2120      	movs	r1, #32
    4302:	0030      	movs	r0, r6
    4304:	4b09      	ldr	r3, [pc, #36]	; (432c <UartToLora+0x138>)
    4306:	4798      	blx	r3
		for(i = 0; i < j; i++)
    4308:	3401      	adds	r4, #1
    430a:	b2e4      	uxtb	r4, r4
    430c:	466b      	mov	r3, sp
    430e:	3307      	adds	r3, #7
    4310:	781b      	ldrb	r3, [r3, #0]
    4312:	b2db      	uxtb	r3, r3
    4314:	42a3      	cmp	r3, r4
    4316:	d8ec      	bhi.n	42f2 <UartToLora+0xfe>
		uart_send_ascii_byte(Debug_COM, XORtmp);
    4318:	4c05      	ldr	r4, [pc, #20]	; (4330 <UartToLora+0x13c>)
    431a:	0029      	movs	r1, r5
    431c:	0020      	movs	r0, r4
    431e:	4b05      	ldr	r3, [pc, #20]	; (4334 <UartToLora+0x140>)
    4320:	4798      	blx	r3
		uTXByte(Debug_COM, 0x0d);
    4322:	210d      	movs	r1, #13
    4324:	0020      	movs	r0, r4
    4326:	4b01      	ldr	r3, [pc, #4]	; (432c <UartToLora+0x138>)
    4328:	4798      	blx	r3
}
    432a:	e7be      	b.n	42aa <UartToLora+0xb6>
    432c:	00005535 	.word	0x00005535
    4330:	200002f0 	.word	0x200002f0
    4334:	00005555 	.word	0x00005555

00004338 <Write_LoRa_TxBuffer>:

//寫入資料
void Write_LoRa_TxBuffer(volatile LORA_DEFINE_t *tmp_LORA)
{
    4338:	b510      	push	{r4, lr}
    433a:	0004      	movs	r4, r0
	while(*tmp_LORA != tmp_status)
    433c:	7f83      	ldrb	r3, [r0, #30]
    433e:	2b00      	cmp	r3, #0
    4340:	d004      	beq.n	434c <Write_LoRa_TxBuffer+0x14>
		*tmp_LORA = tmp_status;
    4342:	2200      	movs	r2, #0
    4344:	77a2      	strb	r2, [r4, #30]
	while(*tmp_LORA != tmp_status)
    4346:	7fa3      	ldrb	r3, [r4, #30]
    4348:	2b00      	cmp	r3, #0
    434a:	d1fb      	bne.n	4344 <Write_LoRa_TxBuffer+0xc>
    434c:	7f63      	ldrb	r3, [r4, #29]
    434e:	2b04      	cmp	r3, #4
    4350:	d004      	beq.n	435c <Write_LoRa_TxBuffer+0x24>
		*tmp_LORA = tmp_status;
    4352:	2204      	movs	r2, #4
    4354:	7762      	strb	r2, [r4, #29]
	while(*tmp_LORA != tmp_status)
    4356:	7f63      	ldrb	r3, [r4, #29]
    4358:	2b04      	cmp	r3, #4
    435a:	d1fb      	bne.n	4354 <Write_LoRa_TxBuffer+0x1c>
	change_and_check(&(tmp_LORA->MyBufferCount), 0);
	change_and_check(&(tmp_LORA->UserRxCountMax), 4);
	UartToLora(tmp_LORA, Write_LoRa_TxBuffer_Index);
    435c:	2105      	movs	r1, #5
    435e:	0020      	movs	r0, r4
    4360:	4b02      	ldr	r3, [pc, #8]	; (436c <Write_LoRa_TxBuffer+0x34>)
    4362:	4798      	blx	r3
	WaitRxData_Func(tmp_LORA);
    4364:	0020      	movs	r0, r4
    4366:	4b02      	ldr	r3, [pc, #8]	; (4370 <Write_LoRa_TxBuffer+0x38>)
    4368:	4798      	blx	r3
}
    436a:	bd10      	pop	{r4, pc}
    436c:	000041f5 	.word	0x000041f5
    4370:	00004129 	.word	0x00004129

00004374 <Read_LoRa_RxBuffer>:


//讀取資料
void Read_LoRa_RxBuffer(volatile LORA_DEFINE_t *tmp_LORA)
{
    4374:	b510      	push	{r4, lr}
    4376:	0004      	movs	r4, r0
	while(*tmp_LORA != tmp_status)
    4378:	7f83      	ldrb	r3, [r0, #30]
    437a:	2b00      	cmp	r3, #0
    437c:	d004      	beq.n	4388 <Read_LoRa_RxBuffer+0x14>
		*tmp_LORA = tmp_status;
    437e:	2200      	movs	r2, #0
    4380:	77a2      	strb	r2, [r4, #30]
	while(*tmp_LORA != tmp_status)
    4382:	7fa3      	ldrb	r3, [r4, #30]
    4384:	2b00      	cmp	r3, #0
    4386:	d1fb      	bne.n	4380 <Read_LoRa_RxBuffer+0xc>
    4388:	7f63      	ldrb	r3, [r4, #29]
    438a:	2b1d      	cmp	r3, #29
    438c:	d004      	beq.n	4398 <Read_LoRa_RxBuffer+0x24>
		*tmp_LORA = tmp_status;
    438e:	221d      	movs	r2, #29
    4390:	7762      	strb	r2, [r4, #29]
	while(*tmp_LORA != tmp_status)
    4392:	7f63      	ldrb	r3, [r4, #29]
    4394:	2b1d      	cmp	r3, #29
    4396:	d1fb      	bne.n	4390 <Read_LoRa_RxBuffer+0x1c>
	change_and_check(&(tmp_LORA->MyBufferCount), 0);
	change_and_check(&(tmp_LORA->UserRxCountMax), 29);
	UartToLora(tmp_LORA, Read_LoRa_RxBuffer_Index);
    4398:	2106      	movs	r1, #6
    439a:	0020      	movs	r0, r4
    439c:	4b02      	ldr	r3, [pc, #8]	; (43a8 <Read_LoRa_RxBuffer+0x34>)
    439e:	4798      	blx	r3
	WaitRxData_Func(tmp_LORA);
    43a0:	0020      	movs	r0, r4
    43a2:	4b02      	ldr	r3, [pc, #8]	; (43ac <Read_LoRa_RxBuffer+0x38>)
    43a4:	4798      	blx	r3
}
    43a6:	bd10      	pop	{r4, pc}
    43a8:	000041f5 	.word	0x000041f5
    43ac:	00004129 	.word	0x00004129

000043b0 <Write_LoRa_Mode_FQ>:
	WaitRxData_Func(tmp_LORA);
}

//設定模式與頻率
void Write_LoRa_Mode_FQ(volatile LORA_DEFINE_t *tmp_LORA, unsigned char tmpMode)
{
    43b0:	b510      	push	{r4, lr}
    43b2:	0004      	movs	r4, r0
	while(*tmp_LORA != tmp_status)
    43b4:	7f83      	ldrb	r3, [r0, #30]
    43b6:	2b00      	cmp	r3, #0
    43b8:	d004      	beq.n	43c4 <Write_LoRa_Mode_FQ+0x14>
		*tmp_LORA = tmp_status;
    43ba:	2200      	movs	r2, #0
    43bc:	77a2      	strb	r2, [r4, #30]
	while(*tmp_LORA != tmp_status)
    43be:	7fa3      	ldrb	r3, [r4, #30]
    43c0:	2b00      	cmp	r3, #0
    43c2:	d1fb      	bne.n	43bc <Write_LoRa_Mode_FQ+0xc>
    43c4:	7f63      	ldrb	r3, [r4, #29]
    43c6:	2b04      	cmp	r3, #4
    43c8:	d004      	beq.n	43d4 <Write_LoRa_Mode_FQ+0x24>
		*tmp_LORA = tmp_status;
    43ca:	2204      	movs	r2, #4
    43cc:	7762      	strb	r2, [r4, #29]
	while(*tmp_LORA != tmp_status)
    43ce:	7f63      	ldrb	r3, [r4, #29]
    43d0:	2b04      	cmp	r3, #4
    43d2:	d1fb      	bne.n	43cc <Write_LoRa_Mode_FQ+0x1c>
    43d4:	23c1      	movs	r3, #193	; 0xc1
    43d6:	5ce3      	ldrb	r3, [r4, r3]
    43d8:	b2db      	uxtb	r3, r3
    43da:	428b      	cmp	r3, r1
    43dc:	d005      	beq.n	43ea <Write_LoRa_Mode_FQ+0x3a>
		*tmp_LORA = tmp_status;
    43de:	22c1      	movs	r2, #193	; 0xc1
    43e0:	54a1      	strb	r1, [r4, r2]
	while(*tmp_LORA != tmp_status)
    43e2:	5ca3      	ldrb	r3, [r4, r2]
    43e4:	b2db      	uxtb	r3, r3
    43e6:	4299      	cmp	r1, r3
    43e8:	d1fa      	bne.n	43e0 <Write_LoRa_Mode_FQ+0x30>
	change_and_check(&(tmp_LORA->MyBufferCount), 0);
	change_and_check(&(tmp_LORA->UserRxCountMax), 4);
	change_and_check(&(tmp_LORA->MyLoRaTmp[Write_LoRa_Mode_FQ_Index][3]), tmpMode);
	UartToLora(tmp_LORA, Write_LoRa_Mode_FQ_Index);
    43ea:	2103      	movs	r1, #3
    43ec:	0020      	movs	r0, r4
    43ee:	4b03      	ldr	r3, [pc, #12]	; (43fc <Write_LoRa_Mode_FQ+0x4c>)
    43f0:	4798      	blx	r3
	WaitRxData_Func(tmp_LORA);
    43f2:	0020      	movs	r0, r4
    43f4:	4b02      	ldr	r3, [pc, #8]	; (4400 <Write_LoRa_Mode_FQ+0x50>)
    43f6:	4798      	blx	r3
}
    43f8:	bd10      	pop	{r4, pc}
    43fa:	46c0      	nop			; (mov r8, r8)
    43fc:	000041f5 	.word	0x000041f5
    4400:	00004129 	.word	0x00004129

00004404 <Write_LoRa_Setting>:

//設定Lora參數
void Write_LoRa_Setting(volatile LORA_DEFINE_t *tmp_LORA)
{
    4404:	b510      	push	{r4, lr}
    4406:	0004      	movs	r4, r0
	while(*tmp_LORA != tmp_status)
    4408:	7f83      	ldrb	r3, [r0, #30]
    440a:	2b00      	cmp	r3, #0
    440c:	d004      	beq.n	4418 <Write_LoRa_Setting+0x14>
		*tmp_LORA = tmp_status;
    440e:	2200      	movs	r2, #0
    4410:	77a2      	strb	r2, [r4, #30]
	while(*tmp_LORA != tmp_status)
    4412:	7fa3      	ldrb	r3, [r4, #30]
    4414:	2b00      	cmp	r3, #0
    4416:	d1fb      	bne.n	4410 <Write_LoRa_Setting+0xc>
    4418:	7f63      	ldrb	r3, [r4, #29]
    441a:	2b04      	cmp	r3, #4
    441c:	d004      	beq.n	4428 <Write_LoRa_Setting+0x24>
		*tmp_LORA = tmp_status;
    441e:	2204      	movs	r2, #4
    4420:	7762      	strb	r2, [r4, #29]
	while(*tmp_LORA != tmp_status)
    4422:	7f63      	ldrb	r3, [r4, #29]
    4424:	2b04      	cmp	r3, #4
    4426:	d1fb      	bne.n	4420 <Write_LoRa_Setting+0x1c>
	change_and_check(&(tmp_LORA->MyBufferCount), 0);
	change_and_check(&(tmp_LORA->UserRxCountMax), 4);
	UartToLora(tmp_LORA, Write_LoRa_Setting_Index);
    4428:	2104      	movs	r1, #4
    442a:	0020      	movs	r0, r4
    442c:	4b02      	ldr	r3, [pc, #8]	; (4438 <Write_LoRa_Setting+0x34>)
    442e:	4798      	blx	r3
	WaitRxData_Func(tmp_LORA);
    4430:	0020      	movs	r0, r4
    4432:	4b02      	ldr	r3, [pc, #8]	; (443c <Write_LoRa_Setting+0x38>)
    4434:	4798      	blx	r3
}
    4436:	bd10      	pop	{r4, pc}
    4438:	000041f5 	.word	0x000041f5
    443c:	00004129 	.word	0x00004129

00004440 <Read_LoRa_ID>:
	WaitRxData_Func(tmp_LORA);
}

//讀取FW版本、Chip ID
void Read_LoRa_ID(volatile LORA_DEFINE_t *tmp_LORA)
{
    4440:	b510      	push	{r4, lr}
    4442:	0004      	movs	r4, r0
	while(*tmp_LORA != tmp_status)
    4444:	7f83      	ldrb	r3, [r0, #30]
    4446:	2b00      	cmp	r3, #0
    4448:	d004      	beq.n	4454 <Read_LoRa_ID+0x14>
		*tmp_LORA = tmp_status;
    444a:	2200      	movs	r2, #0
    444c:	77a2      	strb	r2, [r4, #30]
	while(*tmp_LORA != tmp_status)
    444e:	7fa3      	ldrb	r3, [r4, #30]
    4450:	2b00      	cmp	r3, #0
    4452:	d1fb      	bne.n	444c <Read_LoRa_ID+0xc>
    4454:	7f63      	ldrb	r3, [r4, #29]
    4456:	2b09      	cmp	r3, #9
    4458:	d004      	beq.n	4464 <Read_LoRa_ID+0x24>
		*tmp_LORA = tmp_status;
    445a:	2209      	movs	r2, #9
    445c:	7762      	strb	r2, [r4, #29]
	while(*tmp_LORA != tmp_status)
    445e:	7f63      	ldrb	r3, [r4, #29]
    4460:	2b09      	cmp	r3, #9
    4462:	d1fb      	bne.n	445c <Read_LoRa_ID+0x1c>
	change_and_check(&(tmp_LORA->MyBufferCount), 0);
	change_and_check(&(tmp_LORA->UserRxCountMax), 9);
	UartToLora(tmp_LORA, Read_LoRa_ID_Index);
    4464:	2100      	movs	r1, #0
    4466:	0020      	movs	r0, r4
    4468:	4b02      	ldr	r3, [pc, #8]	; (4474 <Read_LoRa_ID+0x34>)
    446a:	4798      	blx	r3
	WaitRxData_Func(tmp_LORA);
    446c:	0020      	movs	r0, r4
    446e:	4b02      	ldr	r3, [pc, #8]	; (4478 <Read_LoRa_ID+0x38>)
    4470:	4798      	blx	r3
}
    4472:	bd10      	pop	{r4, pc}
    4474:	000041f5 	.word	0x000041f5
    4478:	00004129 	.word	0x00004129

0000447c <Reset_LoRa>:



//重置、初始化
void Reset_LoRa(volatile LORA_DEFINE_t *tmp_LORA)
{
    447c:	b510      	push	{r4, lr}
    447e:	0004      	movs	r4, r0
	while(*tmp_LORA != tmp_status)
    4480:	7f83      	ldrb	r3, [r0, #30]
    4482:	2b00      	cmp	r3, #0
    4484:	d004      	beq.n	4490 <Reset_LoRa+0x14>
		*tmp_LORA = tmp_status;
    4486:	2200      	movs	r2, #0
    4488:	77a2      	strb	r2, [r4, #30]
	while(*tmp_LORA != tmp_status)
    448a:	7fa3      	ldrb	r3, [r4, #30]
    448c:	2b00      	cmp	r3, #0
    448e:	d1fb      	bne.n	4488 <Reset_LoRa+0xc>
    4490:	7f63      	ldrb	r3, [r4, #29]
    4492:	2b04      	cmp	r3, #4
    4494:	d004      	beq.n	44a0 <Reset_LoRa+0x24>
		*tmp_LORA = tmp_status;
    4496:	2204      	movs	r2, #4
    4498:	7762      	strb	r2, [r4, #29]
	while(*tmp_LORA != tmp_status)
    449a:	7f63      	ldrb	r3, [r4, #29]
    449c:	2b04      	cmp	r3, #4
    449e:	d1fb      	bne.n	4498 <Reset_LoRa+0x1c>
	change_and_check(&(tmp_LORA->MyBufferCount), 0);
	change_and_check(&(tmp_LORA->UserRxCountMax), 4);
	UartToLora(tmp_LORA, Reset_LoRa_Index);
    44a0:	2101      	movs	r1, #1
    44a2:	0020      	movs	r0, r4
    44a4:	4b02      	ldr	r3, [pc, #8]	; (44b0 <Reset_LoRa+0x34>)
    44a6:	4798      	blx	r3
	WaitRxData_Func(tmp_LORA);
    44a8:	0020      	movs	r0, r4
    44aa:	4b02      	ldr	r3, [pc, #8]	; (44b4 <Reset_LoRa+0x38>)
    44ac:	4798      	blx	r3
}
    44ae:	bd10      	pop	{r4, pc}
    44b0:	000041f5 	.word	0x000041f5
    44b4:	00004129 	.word	0x00004129

000044b8 <Catch_LoRa_ID>:




void Catch_LoRa_ID(volatile LORA_DEFINE_t *tmp_LORA)
{
    44b8:	b530      	push	{r4, r5, lr}
	tmp_LORA->MyLoRaFW = tmp_LORA->MyBuffer[4];
    44ba:	2323      	movs	r3, #35	; 0x23
    44bc:	5cc3      	ldrb	r3, [r0, r3]
    44be:	b2db      	uxtb	r3, r3
    44c0:	7003      	strb	r3, [r0, #0]
	
	tmp_LORA->MyLoRaID[0] = tmp_LORA->MyBuffer[5];
    44c2:	2524      	movs	r5, #36	; 0x24
    44c4:	5d43      	ldrb	r3, [r0, r5]
    44c6:	b2db      	uxtb	r3, r3
    44c8:	7043      	strb	r3, [r0, #1]
	tmp_LORA->MyLoRaID[1] = tmp_LORA->MyBuffer[6];
    44ca:	2425      	movs	r4, #37	; 0x25
    44cc:	5d03      	ldrb	r3, [r0, r4]
    44ce:	b2db      	uxtb	r3, r3
    44d0:	7083      	strb	r3, [r0, #2]
	tmp_LORA->MyLoRaID[2] = tmp_LORA->MyBuffer[7];
    44d2:	2126      	movs	r1, #38	; 0x26
    44d4:	5c43      	ldrb	r3, [r0, r1]
    44d6:	b2db      	uxtb	r3, r3
    44d8:	70c3      	strb	r3, [r0, #3]
	tmp_LORA->MyLoRaID[3] = tmp_LORA->MyBuffer[8];
    44da:	2227      	movs	r2, #39	; 0x27
    44dc:	5c83      	ldrb	r3, [r0, r2]
    44de:	b2db      	uxtb	r3, r3
    44e0:	7103      	strb	r3, [r0, #4]

	tmp_LORA->LoRaID[0] = tmp_LORA->MyBuffer[5];
    44e2:	5d43      	ldrb	r3, [r0, r5]
    44e4:	b2db      	uxtb	r3, r3
    44e6:	7243      	strb	r3, [r0, #9]
	tmp_LORA->LoRaID[1] = tmp_LORA->MyBuffer[6];
    44e8:	5d03      	ldrb	r3, [r0, r4]
    44ea:	b2db      	uxtb	r3, r3
    44ec:	7283      	strb	r3, [r0, #10]
	tmp_LORA->LoRaID[2] = tmp_LORA->MyBuffer[7];
    44ee:	5c43      	ldrb	r3, [r0, r1]
    44f0:	b2db      	uxtb	r3, r3
    44f2:	72c3      	strb	r3, [r0, #11]
	tmp_LORA->LoRaID[3] = tmp_LORA->MyBuffer[8];
    44f4:	5c83      	ldrb	r3, [r0, r2]
    44f6:	b2db      	uxtb	r3, r3
    44f8:	7303      	strb	r3, [r0, #12]
	
	if(	tmp_LORA->UserLoRaID[0] == 0xFF &&
    44fa:	7943      	ldrb	r3, [r0, #5]
    44fc:	b2db      	uxtb	r3, r3
    44fe:	2bff      	cmp	r3, #255	; 0xff
    4500:	d011      	beq.n	4526 <Catch_LoRa_ID+0x6e>
		tmp_LORA->UserLoRaID[3] == 0xFF)
	{
		return;
	}
	
	if(	tmp_LORA->UserLoRaID[0] != tmp_LORA->MyLoRaID[0] || 
    4502:	7943      	ldrb	r3, [r0, #5]
    4504:	7842      	ldrb	r2, [r0, #1]
    4506:	b2db      	uxtb	r3, r3
    4508:	4293      	cmp	r3, r2
    450a:	d019      	beq.n	4540 <Catch_LoRa_ID+0x88>
		tmp_LORA->UserLoRaID[1] != tmp_LORA->MyLoRaID[1] ||
		tmp_LORA->UserLoRaID[2] != tmp_LORA->MyLoRaID[2] ||
		tmp_LORA->UserLoRaID[3] != tmp_LORA->MyLoRaID[3])
	{
		tmp_LORA->MyLoRaID[0] = tmp_LORA->UserLoRaID[0];
    450c:	7943      	ldrb	r3, [r0, #5]
    450e:	b2db      	uxtb	r3, r3
    4510:	7043      	strb	r3, [r0, #1]
		tmp_LORA->MyLoRaID[1] = tmp_LORA->UserLoRaID[1];
    4512:	7983      	ldrb	r3, [r0, #6]
    4514:	b2db      	uxtb	r3, r3
    4516:	7083      	strb	r3, [r0, #2]
		tmp_LORA->MyLoRaID[2] = tmp_LORA->UserLoRaID[2];
    4518:	79c3      	ldrb	r3, [r0, #7]
    451a:	b2db      	uxtb	r3, r3
    451c:	70c3      	strb	r3, [r0, #3]
		tmp_LORA->MyLoRaID[3] = tmp_LORA->UserLoRaID[3];
    451e:	7a03      	ldrb	r3, [r0, #8]
    4520:	b2db      	uxtb	r3, r3
    4522:	7103      	strb	r3, [r0, #4]
	}


}
    4524:	bd30      	pop	{r4, r5, pc}
		tmp_LORA->UserLoRaID[1] == 0xFF &&
    4526:	7983      	ldrb	r3, [r0, #6]
    4528:	b2db      	uxtb	r3, r3
	if(	tmp_LORA->UserLoRaID[0] == 0xFF &&
    452a:	2bff      	cmp	r3, #255	; 0xff
    452c:	d1e9      	bne.n	4502 <Catch_LoRa_ID+0x4a>
		tmp_LORA->UserLoRaID[2] == 0xFF &&
    452e:	79c3      	ldrb	r3, [r0, #7]
    4530:	b2db      	uxtb	r3, r3
		tmp_LORA->UserLoRaID[1] == 0xFF &&
    4532:	2bff      	cmp	r3, #255	; 0xff
    4534:	d1e5      	bne.n	4502 <Catch_LoRa_ID+0x4a>
		tmp_LORA->UserLoRaID[3] == 0xFF)
    4536:	7a03      	ldrb	r3, [r0, #8]
    4538:	b2db      	uxtb	r3, r3
		tmp_LORA->UserLoRaID[2] == 0xFF &&
    453a:	2bff      	cmp	r3, #255	; 0xff
    453c:	d1e1      	bne.n	4502 <Catch_LoRa_ID+0x4a>
    453e:	e7f1      	b.n	4524 <Catch_LoRa_ID+0x6c>
		tmp_LORA->UserLoRaID[1] != tmp_LORA->MyLoRaID[1] ||
    4540:	7983      	ldrb	r3, [r0, #6]
    4542:	7882      	ldrb	r2, [r0, #2]
    4544:	b2db      	uxtb	r3, r3
	if(	tmp_LORA->UserLoRaID[0] != tmp_LORA->MyLoRaID[0] || 
    4546:	4293      	cmp	r3, r2
    4548:	d1e0      	bne.n	450c <Catch_LoRa_ID+0x54>
		tmp_LORA->UserLoRaID[2] != tmp_LORA->MyLoRaID[2] ||
    454a:	79c3      	ldrb	r3, [r0, #7]
    454c:	78c2      	ldrb	r2, [r0, #3]
    454e:	b2db      	uxtb	r3, r3
		tmp_LORA->UserLoRaID[1] != tmp_LORA->MyLoRaID[1] ||
    4550:	4293      	cmp	r3, r2
    4552:	d1db      	bne.n	450c <Catch_LoRa_ID+0x54>
		tmp_LORA->UserLoRaID[3] != tmp_LORA->MyLoRaID[3])
    4554:	7a03      	ldrb	r3, [r0, #8]
    4556:	7902      	ldrb	r2, [r0, #4]
    4558:	b2db      	uxtb	r3, r3
		tmp_LORA->UserLoRaID[2] != tmp_LORA->MyLoRaID[2] ||
    455a:	4293      	cmp	r3, r2
    455c:	d1d6      	bne.n	450c <Catch_LoRa_ID+0x54>
    455e:	e7e1      	b.n	4524 <Catch_LoRa_ID+0x6c>

00004560 <Lora_CMD_Func>:
{
    4560:	b5f0      	push	{r4, r5, r6, r7, lr}
    4562:	b083      	sub	sp, #12
    4564:	0004      	movs	r4, r0
	usart_read_buffer_job(tmp_LORA->DevUART, (uint8_t *)tmp_LORA->rx_buffer, MAX_RX_BUFFER_LENGTH);
    4566:	6980      	ldr	r0, [r0, #24]
    4568:	0021      	movs	r1, r4
    456a:	311c      	adds	r1, #28
    456c:	2201      	movs	r2, #1
    456e:	4bbd      	ldr	r3, [pc, #756]	; (4864 <Lora_CMD_Func+0x304>)
    4570:	4798      	blx	r3
	wdt_reset_count();
    4572:	4bbd      	ldr	r3, [pc, #756]	; (4868 <Lora_CMD_Func+0x308>)
    4574:	4798      	blx	r3
	switch(tmp_LORA->NowStatus)
    4576:	4bbd      	ldr	r3, [pc, #756]	; (486c <Lora_CMD_Func+0x30c>)
    4578:	5ce3      	ldrb	r3, [r4, r3]
    457a:	b2db      	uxtb	r3, r3
    457c:	2b73      	cmp	r3, #115	; 0x73
    457e:	d868      	bhi.n	4652 <Lora_CMD_Func+0xf2>
    4580:	009b      	lsls	r3, r3, #2
    4582:	4abb      	ldr	r2, [pc, #748]	; (4870 <Lora_CMD_Func+0x310>)
    4584:	58d3      	ldr	r3, [r2, r3]
    4586:	469f      	mov	pc, r3
	while(*tmp_LORA != tmp_status)
    4588:	4bba      	ldr	r3, [pc, #744]	; (4874 <Lora_CMD_Func+0x314>)
    458a:	5ce3      	ldrb	r3, [r4, r3]
    458c:	2b01      	cmp	r3, #1
    458e:	d005      	beq.n	459c <Lora_CMD_Func+0x3c>
		*tmp_LORA = tmp_status;
    4590:	4bb8      	ldr	r3, [pc, #736]	; (4874 <Lora_CMD_Func+0x314>)
    4592:	2101      	movs	r1, #1
    4594:	54e1      	strb	r1, [r4, r3]
	while(*tmp_LORA != tmp_status)
    4596:	5ce2      	ldrb	r2, [r4, r3]
    4598:	2a01      	cmp	r2, #1
    459a:	d1fb      	bne.n	4594 <Lora_CMD_Func+0x34>
			tmp_LORA->f_count = 0;
    459c:	2200      	movs	r2, #0
    459e:	238f      	movs	r3, #143	; 0x8f
    45a0:	009b      	lsls	r3, r3, #2
    45a2:	50e2      	str	r2, [r4, r3]
			switch(tmp_LORA->LoRa_TxRx_Mode_Flag)
    45a4:	4bb4      	ldr	r3, [pc, #720]	; (4878 <Lora_CMD_Func+0x318>)
    45a6:	5ce3      	ldrb	r3, [r4, r3]
    45a8:	b2db      	uxtb	r3, r3
    45aa:	2b03      	cmp	r3, #3
    45ac:	d100      	bne.n	45b0 <Lora_CMD_Func+0x50>
    45ae:	e263      	b.n	4a78 <Lora_CMD_Func+0x518>
    45b0:	2b04      	cmp	r3, #4
    45b2:	d100      	bne.n	45b6 <Lora_CMD_Func+0x56>
    45b4:	e254      	b.n	4a60 <Lora_CMD_Func+0x500>
    45b6:	2b02      	cmp	r3, #2
    45b8:	d14b      	bne.n	4652 <Lora_CMD_Func+0xf2>
	while(*tmp_LORA != tmp_status)
    45ba:	4bac      	ldr	r3, [pc, #688]	; (486c <Lora_CMD_Func+0x30c>)
    45bc:	5ce3      	ldrb	r3, [r4, r3]
    45be:	2b05      	cmp	r3, #5
    45c0:	d047      	beq.n	4652 <Lora_CMD_Func+0xf2>
		*tmp_LORA = tmp_status;
    45c2:	4baa      	ldr	r3, [pc, #680]	; (486c <Lora_CMD_Func+0x30c>)
    45c4:	2105      	movs	r1, #5
    45c6:	54e1      	strb	r1, [r4, r3]
	while(*tmp_LORA != tmp_status)
    45c8:	5ce2      	ldrb	r2, [r4, r3]
    45ca:	2a05      	cmp	r2, #5
    45cc:	d1fb      	bne.n	45c6 <Lora_CMD_Func+0x66>
    45ce:	e040      	b.n	4652 <Lora_CMD_Func+0xf2>
    45d0:	4ba8      	ldr	r3, [pc, #672]	; (4874 <Lora_CMD_Func+0x314>)
    45d2:	5ce3      	ldrb	r3, [r4, r3]
    45d4:	2b00      	cmp	r3, #0
    45d6:	d005      	beq.n	45e4 <Lora_CMD_Func+0x84>
		*tmp_LORA = tmp_status;
    45d8:	4ba6      	ldr	r3, [pc, #664]	; (4874 <Lora_CMD_Func+0x314>)
    45da:	2100      	movs	r1, #0
    45dc:	54e1      	strb	r1, [r4, r3]
	while(*tmp_LORA != tmp_status)
    45de:	5ce2      	ldrb	r2, [r4, r3]
    45e0:	2a00      	cmp	r2, #0
    45e2:	d1fb      	bne.n	45dc <Lora_CMD_Func+0x7c>
			Catch_LoRa_ID(tmp_LORA);
    45e4:	0020      	movs	r0, r4
    45e6:	4ba5      	ldr	r3, [pc, #660]	; (487c <Lora_CMD_Func+0x31c>)
    45e8:	4798      	blx	r3
				Print_Who_Lora(tmp_LORA);
    45ea:	0020      	movs	r0, r4
    45ec:	4ba4      	ldr	r3, [pc, #656]	; (4880 <Lora_CMD_Func+0x320>)
    45ee:	4798      	blx	r3
	while(*tmp_LORA != tmp_status)
    45f0:	4b9e      	ldr	r3, [pc, #632]	; (486c <Lora_CMD_Func+0x30c>)
    45f2:	5ce3      	ldrb	r3, [r4, r3]
    45f4:	2b01      	cmp	r3, #1
    45f6:	d005      	beq.n	4604 <Lora_CMD_Func+0xa4>
		*tmp_LORA = tmp_status;
    45f8:	4b9c      	ldr	r3, [pc, #624]	; (486c <Lora_CMD_Func+0x30c>)
    45fa:	2101      	movs	r1, #1
    45fc:	54e1      	strb	r1, [r4, r3]
	while(*tmp_LORA != tmp_status)
    45fe:	5ce2      	ldrb	r2, [r4, r3]
    4600:	2a01      	cmp	r2, #1
    4602:	d1fb      	bne.n	45fc <Lora_CMD_Func+0x9c>
    4604:	4b9b      	ldr	r3, [pc, #620]	; (4874 <Lora_CMD_Func+0x314>)
    4606:	5ce3      	ldrb	r3, [r4, r3]
    4608:	2b00      	cmp	r3, #0
    460a:	d005      	beq.n	4618 <Lora_CMD_Func+0xb8>
		*tmp_LORA = tmp_status;
    460c:	4b99      	ldr	r3, [pc, #612]	; (4874 <Lora_CMD_Func+0x314>)
    460e:	2100      	movs	r1, #0
    4610:	54e1      	strb	r1, [r4, r3]
	while(*tmp_LORA != tmp_status)
    4612:	5ce2      	ldrb	r2, [r4, r3]
    4614:	2a00      	cmp	r2, #0
    4616:	d1fb      	bne.n	4610 <Lora_CMD_Func+0xb0>
    4618:	4b9a      	ldr	r3, [pc, #616]	; (4884 <Lora_CMD_Func+0x324>)
    461a:	5ce3      	ldrb	r3, [r4, r3]
    461c:	2b01      	cmp	r3, #1
    461e:	d005      	beq.n	462c <Lora_CMD_Func+0xcc>
		*tmp_LORA = tmp_status;
    4620:	4b98      	ldr	r3, [pc, #608]	; (4884 <Lora_CMD_Func+0x324>)
    4622:	2101      	movs	r1, #1
    4624:	54e1      	strb	r1, [r4, r3]
	while(*tmp_LORA != tmp_status)
    4626:	5ce2      	ldrb	r2, [r4, r3]
    4628:	2a01      	cmp	r2, #1
    462a:	d1fb      	bne.n	4624 <Lora_CMD_Func+0xc4>
    462c:	4b96      	ldr	r3, [pc, #600]	; (4888 <Lora_CMD_Func+0x328>)
    462e:	5ce3      	ldrb	r3, [r4, r3]
    4630:	2b04      	cmp	r3, #4
    4632:	d005      	beq.n	4640 <Lora_CMD_Func+0xe0>
		*tmp_LORA = tmp_status;
    4634:	4b94      	ldr	r3, [pc, #592]	; (4888 <Lora_CMD_Func+0x328>)
    4636:	2104      	movs	r1, #4
    4638:	54e1      	strb	r1, [r4, r3]
	while(*tmp_LORA != tmp_status)
    463a:	5ce2      	ldrb	r2, [r4, r3]
    463c:	2a04      	cmp	r2, #4
    463e:	d1fb      	bne.n	4638 <Lora_CMD_Func+0xd8>
				Print_Who_Lora(tmp_LORA);
    4640:	0020      	movs	r0, r4
    4642:	4b8f      	ldr	r3, [pc, #572]	; (4880 <Lora_CMD_Func+0x320>)
    4644:	4798      	blx	r3
				Print_Reset_LoRa_Msg(tmp_LORA);
    4646:	0020      	movs	r0, r4
    4648:	4b90      	ldr	r3, [pc, #576]	; (488c <Lora_CMD_Func+0x32c>)
    464a:	4798      	blx	r3
			Reset_LoRa(tmp_LORA);
    464c:	0020      	movs	r0, r4
    464e:	4b90      	ldr	r3, [pc, #576]	; (4890 <Lora_CMD_Func+0x330>)
    4650:	4798      	blx	r3
}
    4652:	b003      	add	sp, #12
    4654:	bdf0      	pop	{r4, r5, r6, r7, pc}
	while(*tmp_LORA != tmp_status)
    4656:	4b8f      	ldr	r3, [pc, #572]	; (4894 <Lora_CMD_Func+0x334>)
    4658:	5ce3      	ldrb	r3, [r4, r3]
    465a:	2b00      	cmp	r3, #0
    465c:	d005      	beq.n	466a <Lora_CMD_Func+0x10a>
		*tmp_LORA = tmp_status;
    465e:	4b8d      	ldr	r3, [pc, #564]	; (4894 <Lora_CMD_Func+0x334>)
    4660:	2100      	movs	r1, #0
    4662:	54e1      	strb	r1, [r4, r3]
	while(*tmp_LORA != tmp_status)
    4664:	5ce2      	ldrb	r2, [r4, r3]
    4666:	2a00      	cmp	r2, #0
    4668:	d1fb      	bne.n	4662 <Lora_CMD_Func+0x102>
				Print_Who_Lora(tmp_LORA);
    466a:	0020      	movs	r0, r4
    466c:	4b84      	ldr	r3, [pc, #528]	; (4880 <Lora_CMD_Func+0x320>)
    466e:	4798      	blx	r3
				Print_Reset_IRQ_Flag_Msg(tmp_LORA);
    4670:	0020      	movs	r0, r4
    4672:	4b89      	ldr	r3, [pc, #548]	; (4898 <Lora_CMD_Func+0x338>)
    4674:	4798      	blx	r3
	while(*tmp_LORA != tmp_status)
    4676:	4b7d      	ldr	r3, [pc, #500]	; (486c <Lora_CMD_Func+0x30c>)
    4678:	5ce3      	ldrb	r3, [r4, r3]
    467a:	2b74      	cmp	r3, #116	; 0x74
    467c:	d005      	beq.n	468a <Lora_CMD_Func+0x12a>
		*tmp_LORA = tmp_status;
    467e:	4b7b      	ldr	r3, [pc, #492]	; (486c <Lora_CMD_Func+0x30c>)
    4680:	2174      	movs	r1, #116	; 0x74
    4682:	54e1      	strb	r1, [r4, r3]
	while(*tmp_LORA != tmp_status)
    4684:	5ce2      	ldrb	r2, [r4, r3]
    4686:	2a74      	cmp	r2, #116	; 0x74
    4688:	d1fb      	bne.n	4682 <Lora_CMD_Func+0x122>
			tmp_LORA->f_count = 0;
    468a:	2200      	movs	r2, #0
    468c:	238f      	movs	r3, #143	; 0x8f
    468e:	009b      	lsls	r3, r3, #2
    4690:	50e2      	str	r2, [r4, r3]
		port_base->OUTSET.reg = pin_mask;
    4692:	2280      	movs	r2, #128	; 0x80
    4694:	0512      	lsls	r2, r2, #20
    4696:	4b81      	ldr	r3, [pc, #516]	; (489c <Lora_CMD_Func+0x33c>)
    4698:	619a      	str	r2, [r3, #24]
    469a:	e7da      	b.n	4652 <Lora_CMD_Func+0xf2>
	while(*tmp_LORA != tmp_status)
    469c:	4b79      	ldr	r3, [pc, #484]	; (4884 <Lora_CMD_Func+0x324>)
    469e:	5ce3      	ldrb	r3, [r4, r3]
    46a0:	2b06      	cmp	r3, #6
    46a2:	d005      	beq.n	46b0 <Lora_CMD_Func+0x150>
		*tmp_LORA = tmp_status;
    46a4:	4b77      	ldr	r3, [pc, #476]	; (4884 <Lora_CMD_Func+0x324>)
    46a6:	2106      	movs	r1, #6
    46a8:	54e1      	strb	r1, [r4, r3]
	while(*tmp_LORA != tmp_status)
    46aa:	5ce2      	ldrb	r2, [r4, r3]
    46ac:	2a06      	cmp	r2, #6
    46ae:	d1fb      	bne.n	46a8 <Lora_CMD_Func+0x148>
    46b0:	4b75      	ldr	r3, [pc, #468]	; (4888 <Lora_CMD_Func+0x328>)
    46b2:	5ce3      	ldrb	r3, [r4, r3]
    46b4:	2b64      	cmp	r3, #100	; 0x64
    46b6:	d005      	beq.n	46c4 <Lora_CMD_Func+0x164>
		*tmp_LORA = tmp_status;
    46b8:	4b73      	ldr	r3, [pc, #460]	; (4888 <Lora_CMD_Func+0x328>)
    46ba:	2164      	movs	r1, #100	; 0x64
    46bc:	54e1      	strb	r1, [r4, r3]
	while(*tmp_LORA != tmp_status)
    46be:	5ce2      	ldrb	r2, [r4, r3]
    46c0:	2a64      	cmp	r2, #100	; 0x64
    46c2:	d1fb      	bne.n	46bc <Lora_CMD_Func+0x15c>
				Print_Who_Lora(tmp_LORA);
    46c4:	0020      	movs	r0, r4
    46c6:	4b6e      	ldr	r3, [pc, #440]	; (4880 <Lora_CMD_Func+0x320>)
    46c8:	4798      	blx	r3
				Print_Read_LoRa_RxBuffer_Msg(tmp_LORA);
    46ca:	0020      	movs	r0, r4
    46cc:	4b74      	ldr	r3, [pc, #464]	; (48a0 <Lora_CMD_Func+0x340>)
    46ce:	4798      	blx	r3
			Read_LoRa_RxBuffer(tmp_LORA);
    46d0:	0020      	movs	r0, r4
    46d2:	4b74      	ldr	r3, [pc, #464]	; (48a4 <Lora_CMD_Func+0x344>)
    46d4:	4798      	blx	r3
			break;
    46d6:	e7bc      	b.n	4652 <Lora_CMD_Func+0xf2>
	while(*tmp_LORA != tmp_status)
    46d8:	4b66      	ldr	r3, [pc, #408]	; (4874 <Lora_CMD_Func+0x314>)
    46da:	5ce3      	ldrb	r3, [r4, r3]
    46dc:	2b00      	cmp	r3, #0
    46de:	d005      	beq.n	46ec <Lora_CMD_Func+0x18c>
		*tmp_LORA = tmp_status;
    46e0:	4b64      	ldr	r3, [pc, #400]	; (4874 <Lora_CMD_Func+0x314>)
    46e2:	2100      	movs	r1, #0
    46e4:	54e1      	strb	r1, [r4, r3]
	while(*tmp_LORA != tmp_status)
    46e6:	5ce2      	ldrb	r2, [r4, r3]
    46e8:	2a00      	cmp	r2, #0
    46ea:	d1fb      	bne.n	46e4 <Lora_CMD_Func+0x184>
    46ec:	4b65      	ldr	r3, [pc, #404]	; (4884 <Lora_CMD_Func+0x324>)
    46ee:	5ce3      	ldrb	r3, [r4, r3]
    46f0:	2b04      	cmp	r3, #4
    46f2:	d005      	beq.n	4700 <Lora_CMD_Func+0x1a0>
		*tmp_LORA = tmp_status;
    46f4:	4b63      	ldr	r3, [pc, #396]	; (4884 <Lora_CMD_Func+0x324>)
    46f6:	2104      	movs	r1, #4
    46f8:	54e1      	strb	r1, [r4, r3]
	while(*tmp_LORA != tmp_status)
    46fa:	5ce2      	ldrb	r2, [r4, r3]
    46fc:	2a04      	cmp	r2, #4
    46fe:	d1fb      	bne.n	46f8 <Lora_CMD_Func+0x198>
    4700:	4b61      	ldr	r3, [pc, #388]	; (4888 <Lora_CMD_Func+0x328>)
    4702:	5ce3      	ldrb	r3, [r4, r3]
    4704:	2b03      	cmp	r3, #3
    4706:	d005      	beq.n	4714 <Lora_CMD_Func+0x1b4>
		*tmp_LORA = tmp_status;
    4708:	4b5f      	ldr	r3, [pc, #380]	; (4888 <Lora_CMD_Func+0x328>)
    470a:	2103      	movs	r1, #3
    470c:	54e1      	strb	r1, [r4, r3]
	while(*tmp_LORA != tmp_status)
    470e:	5ce2      	ldrb	r2, [r4, r3]
    4710:	2a03      	cmp	r2, #3
    4712:	d1fb      	bne.n	470c <Lora_CMD_Func+0x1ac>
				Print_Who_Lora(tmp_LORA);		
    4714:	0020      	movs	r0, r4
    4716:	4b5a      	ldr	r3, [pc, #360]	; (4880 <Lora_CMD_Func+0x320>)
    4718:	4798      	blx	r3
				Print_Write_LoRa_Setting_Msg(tmp_LORA);
    471a:	0020      	movs	r0, r4
    471c:	4b62      	ldr	r3, [pc, #392]	; (48a8 <Lora_CMD_Func+0x348>)
    471e:	4798      	blx	r3
			Write_LoRa_Setting(tmp_LORA);
    4720:	0020      	movs	r0, r4
    4722:	4b62      	ldr	r3, [pc, #392]	; (48ac <Lora_CMD_Func+0x34c>)
    4724:	4798      	blx	r3
			break;						
    4726:	e794      	b.n	4652 <Lora_CMD_Func+0xf2>
	while(*tmp_LORA != tmp_status)
    4728:	4b52      	ldr	r3, [pc, #328]	; (4874 <Lora_CMD_Func+0x314>)
    472a:	5ce3      	ldrb	r3, [r4, r3]
    472c:	2b00      	cmp	r3, #0
    472e:	d005      	beq.n	473c <Lora_CMD_Func+0x1dc>
		*tmp_LORA = tmp_status;
    4730:	4b50      	ldr	r3, [pc, #320]	; (4874 <Lora_CMD_Func+0x314>)
    4732:	2100      	movs	r1, #0
    4734:	54e1      	strb	r1, [r4, r3]
	while(*tmp_LORA != tmp_status)
    4736:	5ce2      	ldrb	r2, [r4, r3]
    4738:	2a00      	cmp	r2, #0
    473a:	d1fb      	bne.n	4734 <Lora_CMD_Func+0x1d4>
    473c:	4b51      	ldr	r3, [pc, #324]	; (4884 <Lora_CMD_Func+0x324>)
    473e:	5ce3      	ldrb	r3, [r4, r3]
    4740:	2b03      	cmp	r3, #3
    4742:	d005      	beq.n	4750 <Lora_CMD_Func+0x1f0>
		*tmp_LORA = tmp_status;
    4744:	4b4f      	ldr	r3, [pc, #316]	; (4884 <Lora_CMD_Func+0x324>)
    4746:	2103      	movs	r1, #3
    4748:	54e1      	strb	r1, [r4, r3]
	while(*tmp_LORA != tmp_status)
    474a:	5ce2      	ldrb	r2, [r4, r3]
    474c:	2a03      	cmp	r2, #3
    474e:	d1fb      	bne.n	4748 <Lora_CMD_Func+0x1e8>
    4750:	4b4d      	ldr	r3, [pc, #308]	; (4888 <Lora_CMD_Func+0x328>)
    4752:	5ce3      	ldrb	r3, [r4, r3]
    4754:	2b72      	cmp	r3, #114	; 0x72
    4756:	d005      	beq.n	4764 <Lora_CMD_Func+0x204>
		*tmp_LORA = tmp_status;
    4758:	4b4b      	ldr	r3, [pc, #300]	; (4888 <Lora_CMD_Func+0x328>)
    475a:	2172      	movs	r1, #114	; 0x72
    475c:	54e1      	strb	r1, [r4, r3]
	while(*tmp_LORA != tmp_status)
    475e:	5ce2      	ldrb	r2, [r4, r3]
    4760:	2a72      	cmp	r2, #114	; 0x72
    4762:	d1fb      	bne.n	475c <Lora_CMD_Func+0x1fc>
				Print_Who_Lora(tmp_LORA);
    4764:	0020      	movs	r0, r4
    4766:	4b46      	ldr	r3, [pc, #280]	; (4880 <Lora_CMD_Func+0x320>)
    4768:	4798      	blx	r3
				Print_Write_LoRa_Mode_FQ_Msg(tmp_LORA);
    476a:	0020      	movs	r0, r4
    476c:	4b50      	ldr	r3, [pc, #320]	; (48b0 <Lora_CMD_Func+0x350>)
    476e:	4798      	blx	r3
			switch(tmp_LORA->LoRa_TxRx_Mode_Flag)
    4770:	4b41      	ldr	r3, [pc, #260]	; (4878 <Lora_CMD_Func+0x318>)
    4772:	5ce3      	ldrb	r3, [r4, r3]
    4774:	b2db      	uxtb	r3, r3
    4776:	2b03      	cmp	r3, #3
    4778:	d100      	bne.n	477c <Lora_CMD_Func+0x21c>
    477a:	e167      	b.n	4a4c <Lora_CMD_Func+0x4ec>
    477c:	2b04      	cmp	r3, #4
    477e:	d100      	bne.n	4782 <Lora_CMD_Func+0x222>
    4780:	e169      	b.n	4a56 <Lora_CMD_Func+0x4f6>
    4782:	2b02      	cmp	r3, #2
    4784:	d000      	beq.n	4788 <Lora_CMD_Func+0x228>
    4786:	e764      	b.n	4652 <Lora_CMD_Func+0xf2>
					Write_LoRa_Mode_FQ(tmp_LORA, SetTx);
    4788:	2102      	movs	r1, #2
    478a:	0020      	movs	r0, r4
    478c:	4b49      	ldr	r3, [pc, #292]	; (48b4 <Lora_CMD_Func+0x354>)
    478e:	4798      	blx	r3
					break;
    4790:	e75f      	b.n	4652 <Lora_CMD_Func+0xf2>
			Print_Who_Lora(tmp_LORA);
    4792:	0020      	movs	r0, r4
    4794:	4b3a      	ldr	r3, [pc, #232]	; (4880 <Lora_CMD_Func+0x320>)
    4796:	4798      	blx	r3
			Print_Delay_LoRa_CMD_Msg(tmp_LORA);
    4798:	0020      	movs	r0, r4
    479a:	4b47      	ldr	r3, [pc, #284]	; (48b8 <Lora_CMD_Func+0x358>)
    479c:	4798      	blx	r3
	while(*tmp_LORA != tmp_status)
    479e:	4b33      	ldr	r3, [pc, #204]	; (486c <Lora_CMD_Func+0x30c>)
    47a0:	5ce3      	ldrb	r3, [r4, r3]
    47a2:	2b6b      	cmp	r3, #107	; 0x6b
    47a4:	d100      	bne.n	47a8 <Lora_CMD_Func+0x248>
    47a6:	e754      	b.n	4652 <Lora_CMD_Func+0xf2>
		*tmp_LORA = tmp_status;
    47a8:	4b30      	ldr	r3, [pc, #192]	; (486c <Lora_CMD_Func+0x30c>)
    47aa:	216b      	movs	r1, #107	; 0x6b
    47ac:	54e1      	strb	r1, [r4, r3]
	while(*tmp_LORA != tmp_status)
    47ae:	5ce2      	ldrb	r2, [r4, r3]
    47b0:	2a6b      	cmp	r2, #107	; 0x6b
    47b2:	d1fb      	bne.n	47ac <Lora_CMD_Func+0x24c>
    47b4:	e74d      	b.n	4652 <Lora_CMD_Func+0xf2>
			if(tmp_LORA->f_count > Lora_CMD_Delay_Count_Max)
    47b6:	238f      	movs	r3, #143	; 0x8f
    47b8:	009b      	lsls	r3, r3, #2
    47ba:	58e3      	ldr	r3, [r4, r3]
    47bc:	2b14      	cmp	r3, #20
    47be:	d800      	bhi.n	47c2 <Lora_CMD_Func+0x262>
    47c0:	e747      	b.n	4652 <Lora_CMD_Func+0xf2>
				if(tmp_LORA->Lora_CRC_Flag == CRCisOK)
    47c2:	4b3e      	ldr	r3, [pc, #248]	; (48bc <Lora_CMD_Func+0x35c>)
    47c4:	5ce3      	ldrb	r3, [r4, r3]
    47c6:	2b00      	cmp	r3, #0
    47c8:	d02d      	beq.n	4826 <Lora_CMD_Func+0x2c6>
					change_and_check(&(tmp_LORA->LoRa_CRC_Count), ( ++tmp_LORA->LoRa_CRC_Count ));
    47ca:	4b3d      	ldr	r3, [pc, #244]	; (48c0 <Lora_CMD_Func+0x360>)
    47cc:	5ce2      	ldrb	r2, [r4, r3]
    47ce:	3201      	adds	r2, #1
    47d0:	b2d2      	uxtb	r2, r2
    47d2:	54e2      	strb	r2, [r4, r3]
	while(*tmp_LORA != tmp_status)
    47d4:	5ce3      	ldrb	r3, [r4, r3]
    47d6:	b2db      	uxtb	r3, r3
    47d8:	429a      	cmp	r2, r3
    47da:	d005      	beq.n	47e8 <Lora_CMD_Func+0x288>
		*tmp_LORA = tmp_status;
    47dc:	4938      	ldr	r1, [pc, #224]	; (48c0 <Lora_CMD_Func+0x360>)
    47de:	5462      	strb	r2, [r4, r1]
	while(*tmp_LORA != tmp_status)
    47e0:	5c63      	ldrb	r3, [r4, r1]
    47e2:	b2db      	uxtb	r3, r3
    47e4:	429a      	cmp	r2, r3
    47e6:	d1fa      	bne.n	47de <Lora_CMD_Func+0x27e>
					if(tmp_LORA->LoRa_CRC_Count < 3)
    47e8:	4b35      	ldr	r3, [pc, #212]	; (48c0 <Lora_CMD_Func+0x360>)
    47ea:	5ce3      	ldrb	r3, [r4, r3]
    47ec:	b2db      	uxtb	r3, r3
    47ee:	2b02      	cmp	r3, #2
    47f0:	d833      	bhi.n	485a <Lora_CMD_Func+0x2fa>
						change_and_check(&(tmp_LORA->NowStatus), tmp_LORA->LastStatus);
    47f2:	4b24      	ldr	r3, [pc, #144]	; (4884 <Lora_CMD_Func+0x324>)
    47f4:	5ce2      	ldrb	r2, [r4, r3]
    47f6:	b2d2      	uxtb	r2, r2
	while(*tmp_LORA != tmp_status)
    47f8:	4b1c      	ldr	r3, [pc, #112]	; (486c <Lora_CMD_Func+0x30c>)
    47fa:	5ce3      	ldrb	r3, [r4, r3]
    47fc:	b2db      	uxtb	r3, r3
    47fe:	429a      	cmp	r2, r3
    4800:	d005      	beq.n	480e <Lora_CMD_Func+0x2ae>
		*tmp_LORA = tmp_status;
    4802:	491a      	ldr	r1, [pc, #104]	; (486c <Lora_CMD_Func+0x30c>)
    4804:	5462      	strb	r2, [r4, r1]
	while(*tmp_LORA != tmp_status)
    4806:	5c63      	ldrb	r3, [r4, r1]
    4808:	b2db      	uxtb	r3, r3
    480a:	429a      	cmp	r2, r3
    480c:	d1fa      	bne.n	4804 <Lora_CMD_Func+0x2a4>
						uTXByte(Debug_COM, '(');
    480e:	4d2d      	ldr	r5, [pc, #180]	; (48c4 <Lora_CMD_Func+0x364>)
    4810:	2128      	movs	r1, #40	; 0x28
    4812:	0028      	movs	r0, r5
    4814:	4c2c      	ldr	r4, [pc, #176]	; (48c8 <Lora_CMD_Func+0x368>)
    4816:	47a0      	blx	r4
						uTXByte(Debug_COM, 'C');
    4818:	2143      	movs	r1, #67	; 0x43
    481a:	0028      	movs	r0, r5
    481c:	47a0      	blx	r4
						uTXByte(Debug_COM, ')');
    481e:	2129      	movs	r1, #41	; 0x29
    4820:	0028      	movs	r0, r5
    4822:	47a0      	blx	r4
    4824:	e715      	b.n	4652 <Lora_CMD_Func+0xf2>
					change_and_check(&(tmp_LORA->NowStatus)	, tmp_LORA->NextStatus);
    4826:	4b18      	ldr	r3, [pc, #96]	; (4888 <Lora_CMD_Func+0x328>)
    4828:	5ce2      	ldrb	r2, [r4, r3]
    482a:	b2d2      	uxtb	r2, r2
	while(*tmp_LORA != tmp_status)
    482c:	4b0f      	ldr	r3, [pc, #60]	; (486c <Lora_CMD_Func+0x30c>)
    482e:	5ce3      	ldrb	r3, [r4, r3]
    4830:	b2db      	uxtb	r3, r3
    4832:	429a      	cmp	r2, r3
    4834:	d005      	beq.n	4842 <Lora_CMD_Func+0x2e2>
		*tmp_LORA = tmp_status;
    4836:	490d      	ldr	r1, [pc, #52]	; (486c <Lora_CMD_Func+0x30c>)
    4838:	5462      	strb	r2, [r4, r1]
	while(*tmp_LORA != tmp_status)
    483a:	5c63      	ldrb	r3, [r4, r1]
    483c:	b2db      	uxtb	r3, r3
    483e:	429a      	cmp	r2, r3
    4840:	d1fa      	bne.n	4838 <Lora_CMD_Func+0x2d8>
    4842:	4b1f      	ldr	r3, [pc, #124]	; (48c0 <Lora_CMD_Func+0x360>)
    4844:	5ce3      	ldrb	r3, [r4, r3]
    4846:	2b00      	cmp	r3, #0
    4848:	d100      	bne.n	484c <Lora_CMD_Func+0x2ec>
    484a:	e702      	b.n	4652 <Lora_CMD_Func+0xf2>
		*tmp_LORA = tmp_status;
    484c:	4b1c      	ldr	r3, [pc, #112]	; (48c0 <Lora_CMD_Func+0x360>)
    484e:	2100      	movs	r1, #0
    4850:	54e1      	strb	r1, [r4, r3]
	while(*tmp_LORA != tmp_status)
    4852:	5ce2      	ldrb	r2, [r4, r3]
    4854:	2a00      	cmp	r2, #0
    4856:	d1fb      	bne.n	4850 <Lora_CMD_Func+0x2f0>
    4858:	e6fb      	b.n	4652 <Lora_CMD_Func+0xf2>
						Reset_LoRa_Func(tmp_LORA);
    485a:	0020      	movs	r0, r4
    485c:	4b1b      	ldr	r3, [pc, #108]	; (48cc <Lora_CMD_Func+0x36c>)
    485e:	4798      	blx	r3
    4860:	e6f7      	b.n	4652 <Lora_CMD_Func+0xf2>
    4862:	46c0      	nop			; (mov r8, r8)
    4864:	0000608d 	.word	0x0000608d
    4868:	00003ea1 	.word	0x00003ea1
    486c:	0000021d 	.word	0x0000021d
    4870:	000089d8 	.word	0x000089d8
    4874:	00000221 	.word	0x00000221
    4878:	0000022a 	.word	0x0000022a
    487c:	000044b9 	.word	0x000044b9
    4880:	00004c05 	.word	0x00004c05
    4884:	0000021e 	.word	0x0000021e
    4888:	0000021f 	.word	0x0000021f
    488c:	00004ee9 	.word	0x00004ee9
    4890:	0000447d 	.word	0x0000447d
    4894:	00000223 	.word	0x00000223
    4898:	00004f69 	.word	0x00004f69
    489c:	41004400 	.word	0x41004400
    48a0:	00004f49 	.word	0x00004f49
    48a4:	00004375 	.word	0x00004375
    48a8:	00004f29 	.word	0x00004f29
    48ac:	00004405 	.word	0x00004405
    48b0:	00004f09 	.word	0x00004f09
    48b4:	000043b1 	.word	0x000043b1
    48b8:	00004c89 	.word	0x00004c89
    48bc:	00000222 	.word	0x00000222
    48c0:	00000229 	.word	0x00000229
    48c4:	200002f0 	.word	0x200002f0
    48c8:	00005535 	.word	0x00005535
    48cc:	00003fd5 	.word	0x00003fd5
			Print_Who_Lora(tmp_LORA);
    48d0:	0020      	movs	r0, r4
    48d2:	4ba5      	ldr	r3, [pc, #660]	; (4b68 <Lora_CMD_Func+0x608>)
    48d4:	4798      	blx	r3
			if(tmp_LORA->Lora_Debug_Flag == 1)
    48d6:	2388      	movs	r3, #136	; 0x88
    48d8:	009b      	lsls	r3, r3, #2
    48da:	5ce3      	ldrb	r3, [r4, r3]
    48dc:	2b01      	cmp	r3, #1
    48de:	d009      	beq.n	48f4 <Lora_CMD_Func+0x394>
			XORtmp = 0x00;
    48e0:	2200      	movs	r2, #0
    48e2:	466b      	mov	r3, sp
    48e4:	71da      	strb	r2, [r3, #7]
			for(i = 0; i < (tmp_LORA->MyBufferCount - 1); i++)
    48e6:	7fa3      	ldrb	r3, [r4, #30]
    48e8:	3b01      	subs	r3, #1
    48ea:	2b00      	cmp	r3, #0
    48ec:	dd25      	ble.n	493a <Lora_CMD_Func+0x3da>
    48ee:	2600      	movs	r6, #0
    48f0:	2500      	movs	r5, #0
    48f2:	e012      	b.n	491a <Lora_CMD_Func+0x3ba>
				uTXByte(Debug_COM, 0x09);
    48f4:	2109      	movs	r1, #9
    48f6:	489d      	ldr	r0, [pc, #628]	; (4b6c <Lora_CMD_Func+0x60c>)
    48f8:	4b9d      	ldr	r3, [pc, #628]	; (4b70 <Lora_CMD_Func+0x610>)
    48fa:	4798      	blx	r3
    48fc:	e7f0      	b.n	48e0 <Lora_CMD_Func+0x380>
				XORtmp = XORtmp ^ tmp_LORA->MyBuffer[i];
    48fe:	19a6      	adds	r6, r4, r6
    4900:	7ff1      	ldrb	r1, [r6, #31]
    4902:	466b      	mov	r3, sp
    4904:	1dda      	adds	r2, r3, #7
    4906:	79db      	ldrb	r3, [r3, #7]
    4908:	404b      	eors	r3, r1
    490a:	7013      	strb	r3, [r2, #0]
			for(i = 0; i < (tmp_LORA->MyBufferCount - 1); i++)
    490c:	3501      	adds	r5, #1
    490e:	b2ed      	uxtb	r5, r5
    4910:	002e      	movs	r6, r5
    4912:	7fa3      	ldrb	r3, [r4, #30]
    4914:	3b01      	subs	r3, #1
    4916:	429d      	cmp	r5, r3
    4918:	da0f      	bge.n	493a <Lora_CMD_Func+0x3da>
				if(tmp_LORA->Lora_Debug_Flag == 1)
    491a:	2388      	movs	r3, #136	; 0x88
    491c:	009b      	lsls	r3, r3, #2
    491e:	5ce3      	ldrb	r3, [r4, r3]
    4920:	2b01      	cmp	r3, #1
    4922:	d1ec      	bne.n	48fe <Lora_CMD_Func+0x39e>
					uart_send_ascii_byte(Debug_COM, tmp_LORA->MyBuffer[i]);
    4924:	19a3      	adds	r3, r4, r6
    4926:	7fd9      	ldrb	r1, [r3, #31]
    4928:	b2c9      	uxtb	r1, r1
    492a:	4890      	ldr	r0, [pc, #576]	; (4b6c <Lora_CMD_Func+0x60c>)
    492c:	4b91      	ldr	r3, [pc, #580]	; (4b74 <Lora_CMD_Func+0x614>)
    492e:	4798      	blx	r3
					uTXByte(Debug_COM, ' ');
    4930:	2120      	movs	r1, #32
    4932:	488e      	ldr	r0, [pc, #568]	; (4b6c <Lora_CMD_Func+0x60c>)
    4934:	4b8e      	ldr	r3, [pc, #568]	; (4b70 <Lora_CMD_Func+0x610>)
    4936:	4798      	blx	r3
    4938:	e7e1      	b.n	48fe <Lora_CMD_Func+0x39e>
			if(tmp_LORA->Lora_Debug_Flag == 1)
    493a:	2388      	movs	r3, #136	; 0x88
    493c:	009b      	lsls	r3, r3, #2
    493e:	5ce3      	ldrb	r3, [r4, r3]
    4940:	2b01      	cmp	r3, #1
    4942:	d026      	beq.n	4992 <Lora_CMD_Func+0x432>
			if(tmp_LORA->MyBuffer[(tmp_LORA->MyBufferCount - 1)] != XORtmp) //如果CRC錯誤
    4944:	7fa3      	ldrb	r3, [r4, #30]
    4946:	3b01      	subs	r3, #1
    4948:	18e3      	adds	r3, r4, r3
    494a:	7fdb      	ldrb	r3, [r3, #31]
    494c:	466a      	mov	r2, sp
    494e:	3207      	adds	r2, #7
    4950:	7812      	ldrb	r2, [r2, #0]
    4952:	b2db      	uxtb	r3, r3
    4954:	4293      	cmp	r3, r2
    4956:	d03f      	beq.n	49d8 <Lora_CMD_Func+0x478>
				Print_CRC_ERROR(tmp_LORA);	
    4958:	0020      	movs	r0, r4
    495a:	4b87      	ldr	r3, [pc, #540]	; (4b78 <Lora_CMD_Func+0x618>)
    495c:	4798      	blx	r3
	while(*tmp_LORA != tmp_status)
    495e:	4b87      	ldr	r3, [pc, #540]	; (4b7c <Lora_CMD_Func+0x61c>)
    4960:	5ce3      	ldrb	r3, [r4, r3]
    4962:	2b01      	cmp	r3, #1
    4964:	d005      	beq.n	4972 <Lora_CMD_Func+0x412>
		*tmp_LORA = tmp_status;
    4966:	4b85      	ldr	r3, [pc, #532]	; (4b7c <Lora_CMD_Func+0x61c>)
    4968:	2101      	movs	r1, #1
    496a:	54e1      	strb	r1, [r4, r3]
	while(*tmp_LORA != tmp_status)
    496c:	5ce2      	ldrb	r2, [r4, r3]
    496e:	2a01      	cmp	r2, #1
    4970:	d1fb      	bne.n	496a <Lora_CMD_Func+0x40a>
			tmp_LORA->f_count = 0;
    4972:	2200      	movs	r2, #0
    4974:	238f      	movs	r3, #143	; 0x8f
    4976:	009b      	lsls	r3, r3, #2
    4978:	50e2      	str	r2, [r4, r3]
	while(*tmp_LORA != tmp_status)
    497a:	4b81      	ldr	r3, [pc, #516]	; (4b80 <Lora_CMD_Func+0x620>)
    497c:	5ce3      	ldrb	r3, [r4, r3]
    497e:	2b71      	cmp	r3, #113	; 0x71
    4980:	d100      	bne.n	4984 <Lora_CMD_Func+0x424>
    4982:	e666      	b.n	4652 <Lora_CMD_Func+0xf2>
		*tmp_LORA = tmp_status;
    4984:	4b7e      	ldr	r3, [pc, #504]	; (4b80 <Lora_CMD_Func+0x620>)
    4986:	2171      	movs	r1, #113	; 0x71
    4988:	54e1      	strb	r1, [r4, r3]
	while(*tmp_LORA != tmp_status)
    498a:	5ce2      	ldrb	r2, [r4, r3]
    498c:	2a71      	cmp	r2, #113	; 0x71
    498e:	d1fb      	bne.n	4988 <Lora_CMD_Func+0x428>
    4990:	e65f      	b.n	4652 <Lora_CMD_Func+0xf2>
				uTXByte(Debug_COM, '-');
    4992:	4d76      	ldr	r5, [pc, #472]	; (4b6c <Lora_CMD_Func+0x60c>)
    4994:	212d      	movs	r1, #45	; 0x2d
    4996:	0028      	movs	r0, r5
    4998:	4e75      	ldr	r6, [pc, #468]	; (4b70 <Lora_CMD_Func+0x610>)
    499a:	47b0      	blx	r6
				uTXByte(Debug_COM, ' ');
    499c:	2120      	movs	r1, #32
    499e:	0028      	movs	r0, r5
    49a0:	47b0      	blx	r6
				uart_send_ascii_byte(Debug_COM, tmp_LORA->MyBuffer[(tmp_LORA->MyBufferCount-1)]);
    49a2:	7fa3      	ldrb	r3, [r4, #30]
    49a4:	3b01      	subs	r3, #1
    49a6:	18e3      	adds	r3, r4, r3
    49a8:	7fd9      	ldrb	r1, [r3, #31]
    49aa:	b2c9      	uxtb	r1, r1
    49ac:	0028      	movs	r0, r5
    49ae:	4f71      	ldr	r7, [pc, #452]	; (4b74 <Lora_CMD_Func+0x614>)
    49b0:	47b8      	blx	r7
				uTXByte(Debug_COM, ' ');
    49b2:	2120      	movs	r1, #32
    49b4:	0028      	movs	r0, r5
    49b6:	47b0      	blx	r6
				uart_send_ascii_byte(Debug_COM, tmp_LORA->MyBufferCount);
    49b8:	7fa1      	ldrb	r1, [r4, #30]
    49ba:	b2c9      	uxtb	r1, r1
    49bc:	0028      	movs	r0, r5
    49be:	47b8      	blx	r7
				uTXByte(Debug_COM, ' ');
    49c0:	2120      	movs	r1, #32
    49c2:	0028      	movs	r0, r5
    49c4:	47b0      	blx	r6
				uart_send_ascii_byte(Debug_COM, XORtmp);
    49c6:	466b      	mov	r3, sp
    49c8:	79d9      	ldrb	r1, [r3, #7]
    49ca:	b2c9      	uxtb	r1, r1
    49cc:	0028      	movs	r0, r5
    49ce:	47b8      	blx	r7
				uTXByte(Debug_COM, ' ');
    49d0:	2120      	movs	r1, #32
    49d2:	0028      	movs	r0, r5
    49d4:	47b0      	blx	r6
    49d6:	e7b5      	b.n	4944 <Lora_CMD_Func+0x3e4>
				Print_CRC_OK(tmp_LORA);
    49d8:	0020      	movs	r0, r4
    49da:	4b6a      	ldr	r3, [pc, #424]	; (4b84 <Lora_CMD_Func+0x624>)
    49dc:	4798      	blx	r3
	while(*tmp_LORA != tmp_status)
    49de:	4b67      	ldr	r3, [pc, #412]	; (4b7c <Lora_CMD_Func+0x61c>)
    49e0:	5ce3      	ldrb	r3, [r4, r3]
    49e2:	2b00      	cmp	r3, #0
    49e4:	d0c5      	beq.n	4972 <Lora_CMD_Func+0x412>
		*tmp_LORA = tmp_status;
    49e6:	4b65      	ldr	r3, [pc, #404]	; (4b7c <Lora_CMD_Func+0x61c>)
    49e8:	2100      	movs	r1, #0
    49ea:	54e1      	strb	r1, [r4, r3]
	while(*tmp_LORA != tmp_status)
    49ec:	5ce2      	ldrb	r2, [r4, r3]
    49ee:	2a00      	cmp	r2, #0
    49f0:	d1fb      	bne.n	49ea <Lora_CMD_Func+0x48a>
    49f2:	e7be      	b.n	4972 <Lora_CMD_Func+0x412>
			tmp_LORA->f_count = 0;
    49f4:	2200      	movs	r2, #0
    49f6:	238f      	movs	r3, #143	; 0x8f
    49f8:	009b      	lsls	r3, r3, #2
    49fa:	50e2      	str	r2, [r4, r3]
	while(*tmp_LORA != tmp_status)
    49fc:	4b62      	ldr	r3, [pc, #392]	; (4b88 <Lora_CMD_Func+0x628>)
    49fe:	5ce3      	ldrb	r3, [r4, r3]
    4a00:	2b00      	cmp	r3, #0
    4a02:	d005      	beq.n	4a10 <Lora_CMD_Func+0x4b0>
		*tmp_LORA = tmp_status;
    4a04:	4b60      	ldr	r3, [pc, #384]	; (4b88 <Lora_CMD_Func+0x628>)
    4a06:	2100      	movs	r1, #0
    4a08:	54e1      	strb	r1, [r4, r3]
	while(*tmp_LORA != tmp_status)
    4a0a:	5ce2      	ldrb	r2, [r4, r3]
    4a0c:	2a00      	cmp	r2, #0
    4a0e:	d1fb      	bne.n	4a08 <Lora_CMD_Func+0x4a8>
    4a10:	4b5e      	ldr	r3, [pc, #376]	; (4b8c <Lora_CMD_Func+0x62c>)
    4a12:	5ce3      	ldrb	r3, [r4, r3]
    4a14:	2b00      	cmp	r3, #0
    4a16:	d005      	beq.n	4a24 <Lora_CMD_Func+0x4c4>
		*tmp_LORA = tmp_status;
    4a18:	4b5c      	ldr	r3, [pc, #368]	; (4b8c <Lora_CMD_Func+0x62c>)
    4a1a:	2100      	movs	r1, #0
    4a1c:	54e1      	strb	r1, [r4, r3]
	while(*tmp_LORA != tmp_status)
    4a1e:	5ce2      	ldrb	r2, [r4, r3]
    4a20:	2a00      	cmp	r2, #0
    4a22:	d1fb      	bne.n	4a1c <Lora_CMD_Func+0x4bc>
    4a24:	4b5a      	ldr	r3, [pc, #360]	; (4b90 <Lora_CMD_Func+0x630>)
    4a26:	5ce3      	ldrb	r3, [r4, r3]
    4a28:	2b69      	cmp	r3, #105	; 0x69
    4a2a:	d005      	beq.n	4a38 <Lora_CMD_Func+0x4d8>
		*tmp_LORA = tmp_status;
    4a2c:	4b58      	ldr	r3, [pc, #352]	; (4b90 <Lora_CMD_Func+0x630>)
    4a2e:	2169      	movs	r1, #105	; 0x69
    4a30:	54e1      	strb	r1, [r4, r3]
	while(*tmp_LORA != tmp_status)
    4a32:	5ce2      	ldrb	r2, [r4, r3]
    4a34:	2a69      	cmp	r2, #105	; 0x69
    4a36:	d1fb      	bne.n	4a30 <Lora_CMD_Func+0x4d0>
				Print_Who_Lora(tmp_LORA);
    4a38:	0020      	movs	r0, r4
    4a3a:	4b4b      	ldr	r3, [pc, #300]	; (4b68 <Lora_CMD_Func+0x608>)
    4a3c:	4798      	blx	r3
				Print_Read_LoRa_ID_Msg(tmp_LORA);
    4a3e:	0020      	movs	r0, r4
    4a40:	4b54      	ldr	r3, [pc, #336]	; (4b94 <Lora_CMD_Func+0x634>)
    4a42:	4798      	blx	r3
			Read_LoRa_ID(tmp_LORA);			//送出Read_LoRa_ID後，再進入WaitRxData等待Uart回傳
    4a44:	0020      	movs	r0, r4
    4a46:	4b54      	ldr	r3, [pc, #336]	; (4b98 <Lora_CMD_Func+0x638>)
    4a48:	4798      	blx	r3
			break;						
    4a4a:	e602      	b.n	4652 <Lora_CMD_Func+0xf2>
					Write_LoRa_Mode_FQ(tmp_LORA, SetRx);
    4a4c:	2103      	movs	r1, #3
    4a4e:	0020      	movs	r0, r4
    4a50:	4b52      	ldr	r3, [pc, #328]	; (4b9c <Lora_CMD_Func+0x63c>)
    4a52:	4798      	blx	r3
					break;
    4a54:	e5fd      	b.n	4652 <Lora_CMD_Func+0xf2>
					Write_LoRa_Mode_FQ(tmp_LORA, SetRx);
    4a56:	2103      	movs	r1, #3
    4a58:	0020      	movs	r0, r4
    4a5a:	4b50      	ldr	r3, [pc, #320]	; (4b9c <Lora_CMD_Func+0x63c>)
    4a5c:	4798      	blx	r3
					break;
    4a5e:	e5f8      	b.n	4652 <Lora_CMD_Func+0xf2>
	while(*tmp_LORA != tmp_status)
    4a60:	4b47      	ldr	r3, [pc, #284]	; (4b80 <Lora_CMD_Func+0x620>)
    4a62:	5ce3      	ldrb	r3, [r4, r3]
    4a64:	2b66      	cmp	r3, #102	; 0x66
    4a66:	d100      	bne.n	4a6a <Lora_CMD_Func+0x50a>
    4a68:	e5f3      	b.n	4652 <Lora_CMD_Func+0xf2>
		*tmp_LORA = tmp_status;
    4a6a:	4b45      	ldr	r3, [pc, #276]	; (4b80 <Lora_CMD_Func+0x620>)
    4a6c:	2166      	movs	r1, #102	; 0x66
    4a6e:	54e1      	strb	r1, [r4, r3]
	while(*tmp_LORA != tmp_status)
    4a70:	5ce2      	ldrb	r2, [r4, r3]
    4a72:	2a66      	cmp	r2, #102	; 0x66
    4a74:	d1fb      	bne.n	4a6e <Lora_CMD_Func+0x50e>
    4a76:	e5ec      	b.n	4652 <Lora_CMD_Func+0xf2>
    4a78:	4b41      	ldr	r3, [pc, #260]	; (4b80 <Lora_CMD_Func+0x620>)
    4a7a:	5ce3      	ldrb	r3, [r4, r3]
    4a7c:	2b73      	cmp	r3, #115	; 0x73
    4a7e:	d100      	bne.n	4a82 <Lora_CMD_Func+0x522>
    4a80:	e5e7      	b.n	4652 <Lora_CMD_Func+0xf2>
		*tmp_LORA = tmp_status;
    4a82:	4b3f      	ldr	r3, [pc, #252]	; (4b80 <Lora_CMD_Func+0x620>)
    4a84:	2173      	movs	r1, #115	; 0x73
    4a86:	54e1      	strb	r1, [r4, r3]
	while(*tmp_LORA != tmp_status)
    4a88:	5ce2      	ldrb	r2, [r4, r3]
    4a8a:	2a73      	cmp	r2, #115	; 0x73
    4a8c:	d1fb      	bne.n	4a86 <Lora_CMD_Func+0x526>
    4a8e:	e5e0      	b.n	4652 <Lora_CMD_Func+0xf2>
			Wait_RX_IRQ_Index_Func(tmp_LORA);
    4a90:	0020      	movs	r0, r4
    4a92:	4b43      	ldr	r3, [pc, #268]	; (4ba0 <Lora_CMD_Func+0x640>)
    4a94:	4798      	blx	r3
			break;
    4a96:	e5dc      	b.n	4652 <Lora_CMD_Func+0xf2>
		port_base->OUTCLR.reg = pin_mask;
    4a98:	2280      	movs	r2, #128	; 0x80
    4a9a:	0412      	lsls	r2, r2, #16
    4a9c:	4b41      	ldr	r3, [pc, #260]	; (4ba4 <Lora_CMD_Func+0x644>)
    4a9e:	615a      	str	r2, [r3, #20]
	while(*tmp_LORA != tmp_status)
    4aa0:	4b3a      	ldr	r3, [pc, #232]	; (4b8c <Lora_CMD_Func+0x62c>)
    4aa2:	5ce3      	ldrb	r3, [r4, r3]
    4aa4:	2b05      	cmp	r3, #5
    4aa6:	d005      	beq.n	4ab4 <Lora_CMD_Func+0x554>
		*tmp_LORA = tmp_status;
    4aa8:	4b38      	ldr	r3, [pc, #224]	; (4b8c <Lora_CMD_Func+0x62c>)
    4aaa:	2105      	movs	r1, #5
    4aac:	54e1      	strb	r1, [r4, r3]
	while(*tmp_LORA != tmp_status)
    4aae:	5ce2      	ldrb	r2, [r4, r3]
    4ab0:	2a05      	cmp	r2, #5
    4ab2:	d1fb      	bne.n	4aac <Lora_CMD_Func+0x54c>
    4ab4:	4b36      	ldr	r3, [pc, #216]	; (4b90 <Lora_CMD_Func+0x630>)
    4ab6:	5ce3      	ldrb	r3, [r4, r3]
    4ab8:	2b6c      	cmp	r3, #108	; 0x6c
    4aba:	d005      	beq.n	4ac8 <Lora_CMD_Func+0x568>
		*tmp_LORA = tmp_status;
    4abc:	4b34      	ldr	r3, [pc, #208]	; (4b90 <Lora_CMD_Func+0x630>)
    4abe:	216c      	movs	r1, #108	; 0x6c
    4ac0:	54e1      	strb	r1, [r4, r3]
	while(*tmp_LORA != tmp_status)
    4ac2:	5ce2      	ldrb	r2, [r4, r3]
    4ac4:	2a6c      	cmp	r2, #108	; 0x6c
    4ac6:	d1fb      	bne.n	4ac0 <Lora_CMD_Func+0x560>
				Print_Who_Lora(tmp_LORA);
    4ac8:	0020      	movs	r0, r4
    4aca:	4b27      	ldr	r3, [pc, #156]	; (4b68 <Lora_CMD_Func+0x608>)
    4acc:	4798      	blx	r3
				Print_Write_LoRa_TxBuffer_Msg(tmp_LORA);
    4ace:	0020      	movs	r0, r4
    4ad0:	4b35      	ldr	r3, [pc, #212]	; (4ba8 <Lora_CMD_Func+0x648>)
    4ad2:	4798      	blx	r3
			Write_LoRa_TxBuffer(tmp_LORA);
    4ad4:	0020      	movs	r0, r4
    4ad6:	4b35      	ldr	r3, [pc, #212]	; (4bac <Lora_CMD_Func+0x64c>)
    4ad8:	4798      	blx	r3
			break;
    4ada:	e5ba      	b.n	4652 <Lora_CMD_Func+0xf2>
			if(tmp_LORA->LoRa_IRQ_Flag == 1)
    4adc:	4b34      	ldr	r3, [pc, #208]	; (4bb0 <Lora_CMD_Func+0x650>)
    4ade:	5ce3      	ldrb	r3, [r4, r3]
    4ae0:	2b01      	cmp	r3, #1
    4ae2:	d000      	beq.n	4ae6 <Lora_CMD_Func+0x586>
    4ae4:	e5b5      	b.n	4652 <Lora_CMD_Func+0xf2>
				wdt_reset_count();
    4ae6:	4b33      	ldr	r3, [pc, #204]	; (4bb4 <Lora_CMD_Func+0x654>)
    4ae8:	4798      	blx	r3
					Print_Who_Lora(tmp_LORA);
    4aea:	0020      	movs	r0, r4
    4aec:	4b1e      	ldr	r3, [pc, #120]	; (4b68 <Lora_CMD_Func+0x608>)
    4aee:	4798      	blx	r3
					Print_Wait_TX_Finish_Msg(tmp_LORA);
    4af0:	0020      	movs	r0, r4
    4af2:	4b31      	ldr	r3, [pc, #196]	; (4bb8 <Lora_CMD_Func+0x658>)
    4af4:	4798      	blx	r3
	while(*tmp_LORA != tmp_status)
    4af6:	4b2e      	ldr	r3, [pc, #184]	; (4bb0 <Lora_CMD_Func+0x650>)
    4af8:	5ce3      	ldrb	r3, [r4, r3]
    4afa:	2b00      	cmp	r3, #0
    4afc:	d005      	beq.n	4b0a <Lora_CMD_Func+0x5aa>
		*tmp_LORA = tmp_status;
    4afe:	4b2c      	ldr	r3, [pc, #176]	; (4bb0 <Lora_CMD_Func+0x650>)
    4b00:	2100      	movs	r1, #0
    4b02:	54e1      	strb	r1, [r4, r3]
	while(*tmp_LORA != tmp_status)
    4b04:	5ce2      	ldrb	r2, [r4, r3]
    4b06:	2a00      	cmp	r2, #0
    4b08:	d1fb      	bne.n	4b02 <Lora_CMD_Func+0x5a2>
    4b0a:	4b1d      	ldr	r3, [pc, #116]	; (4b80 <Lora_CMD_Func+0x620>)
    4b0c:	5ce3      	ldrb	r3, [r4, r3]
    4b0e:	2b65      	cmp	r3, #101	; 0x65
    4b10:	d005      	beq.n	4b1e <Lora_CMD_Func+0x5be>
		*tmp_LORA = tmp_status;
    4b12:	4b1b      	ldr	r3, [pc, #108]	; (4b80 <Lora_CMD_Func+0x620>)
    4b14:	2165      	movs	r1, #101	; 0x65
    4b16:	54e1      	strb	r1, [r4, r3]
	while(*tmp_LORA != tmp_status)
    4b18:	5ce2      	ldrb	r2, [r4, r3]
    4b1a:	2a65      	cmp	r2, #101	; 0x65
    4b1c:	d1fb      	bne.n	4b16 <Lora_CMD_Func+0x5b6>
				tmp_LORA->f_count = 0;
    4b1e:	2200      	movs	r2, #0
    4b20:	238f      	movs	r3, #143	; 0x8f
    4b22:	009b      	lsls	r3, r3, #2
    4b24:	50e2      	str	r2, [r4, r3]
    4b26:	e594      	b.n	4652 <Lora_CMD_Func+0xf2>
		port_base->OUTSET.reg = pin_mask;
    4b28:	2280      	movs	r2, #128	; 0x80
    4b2a:	0412      	lsls	r2, r2, #16
    4b2c:	4b1d      	ldr	r3, [pc, #116]	; (4ba4 <Lora_CMD_Func+0x644>)
    4b2e:	619a      	str	r2, [r3, #24]
				Print_Who_Lora(tmp_LORA);
    4b30:	0020      	movs	r0, r4
    4b32:	4b0d      	ldr	r3, [pc, #52]	; (4b68 <Lora_CMD_Func+0x608>)
    4b34:	4798      	blx	r3
				Print_Leave_LoRa_Tx_Mode_Msg(tmp_LORA);
    4b36:	0020      	movs	r0, r4
    4b38:	4b20      	ldr	r3, [pc, #128]	; (4bbc <Lora_CMD_Func+0x65c>)
    4b3a:	4798      	blx	r3
	while(*tmp_LORA != tmp_status)
    4b3c:	4b10      	ldr	r3, [pc, #64]	; (4b80 <Lora_CMD_Func+0x620>)
    4b3e:	5ce3      	ldrb	r3, [r4, r3]
    4b40:	2b04      	cmp	r3, #4
    4b42:	d005      	beq.n	4b50 <Lora_CMD_Func+0x5f0>
		*tmp_LORA = tmp_status;
    4b44:	4b0e      	ldr	r3, [pc, #56]	; (4b80 <Lora_CMD_Func+0x620>)
    4b46:	2104      	movs	r1, #4
    4b48:	54e1      	strb	r1, [r4, r3]
	while(*tmp_LORA != tmp_status)
    4b4a:	5ce2      	ldrb	r2, [r4, r3]
    4b4c:	2a04      	cmp	r2, #4
    4b4e:	d1fb      	bne.n	4b48 <Lora_CMD_Func+0x5e8>
    4b50:	4b1b      	ldr	r3, [pc, #108]	; (4bc0 <Lora_CMD_Func+0x660>)
    4b52:	5ce3      	ldrb	r3, [r4, r3]
    4b54:	2b03      	cmp	r3, #3
    4b56:	d100      	bne.n	4b5a <Lora_CMD_Func+0x5fa>
    4b58:	e57b      	b.n	4652 <Lora_CMD_Func+0xf2>
		*tmp_LORA = tmp_status;
    4b5a:	4b19      	ldr	r3, [pc, #100]	; (4bc0 <Lora_CMD_Func+0x660>)
    4b5c:	2103      	movs	r1, #3
    4b5e:	54e1      	strb	r1, [r4, r3]
	while(*tmp_LORA != tmp_status)
    4b60:	5ce2      	ldrb	r2, [r4, r3]
    4b62:	2a03      	cmp	r2, #3
    4b64:	d1fb      	bne.n	4b5e <Lora_CMD_Func+0x5fe>
    4b66:	e574      	b.n	4652 <Lora_CMD_Func+0xf2>
    4b68:	00004c05 	.word	0x00004c05
    4b6c:	200002f0 	.word	0x200002f0
    4b70:	00005535 	.word	0x00005535
    4b74:	00005555 	.word	0x00005555
    4b78:	00004fc9 	.word	0x00004fc9
    4b7c:	00000222 	.word	0x00000222
    4b80:	0000021d 	.word	0x0000021d
    4b84:	00004fe9 	.word	0x00004fe9
    4b88:	00000221 	.word	0x00000221
    4b8c:	0000021e 	.word	0x0000021e
    4b90:	0000021f 	.word	0x0000021f
    4b94:	00004c69 	.word	0x00004c69
    4b98:	00004441 	.word	0x00004441
    4b9c:	000043b1 	.word	0x000043b1
    4ba0:	00002d3d 	.word	0x00002d3d
    4ba4:	41004400 	.word	0x41004400
    4ba8:	00004f89 	.word	0x00004f89
    4bac:	00004339 	.word	0x00004339
    4bb0:	00000223 	.word	0x00000223
    4bb4:	00003ea1 	.word	0x00003ea1
    4bb8:	00005059 	.word	0x00005059
    4bbc:	00004fa9 	.word	0x00004fa9
    4bc0:	0000022a 	.word	0x0000022a

00004bc4 <Print_LoRA_Time_Out_Msg>:
	if(tmp_LORA->Lora_Show_Flag == false) return;
	uart_str(&Msg_RS485TimeOut[0]);
}

void Print_LoRA_Time_Out_Msg(volatile LORA_DEFINE_t *tmp_LORA)
{
    4bc4:	b510      	push	{r4, lr}
	if(tmp_LORA == LORA01)
    4bc6:	4b06      	ldr	r3, [pc, #24]	; (4be0 <Print_LoRA_Time_Out_Msg+0x1c>)
    4bc8:	681b      	ldr	r3, [r3, #0]
    4bca:	4283      	cmp	r3, r0
    4bcc:	d003      	beq.n	4bd6 <Print_LoRA_Time_Out_Msg+0x12>
		uart_str(&Msg_LoRA1_Time_Out[0]);
	else
		uart_str(&Msg_LoRA2_Time_Out[0]);
    4bce:	4805      	ldr	r0, [pc, #20]	; (4be4 <Print_LoRA_Time_Out_Msg+0x20>)
    4bd0:	4b05      	ldr	r3, [pc, #20]	; (4be8 <Print_LoRA_Time_Out_Msg+0x24>)
    4bd2:	4798      	blx	r3
}
    4bd4:	bd10      	pop	{r4, pc}
		uart_str(&Msg_LoRA1_Time_Out[0]);
    4bd6:	4805      	ldr	r0, [pc, #20]	; (4bec <Print_LoRA_Time_Out_Msg+0x28>)
    4bd8:	4b03      	ldr	r3, [pc, #12]	; (4be8 <Print_LoRA_Time_Out_Msg+0x24>)
    4bda:	4798      	blx	r3
    4bdc:	e7fa      	b.n	4bd4 <Print_LoRA_Time_Out_Msg+0x10>
    4bde:	46c0      	nop			; (mov r8, r8)
    4be0:	20001944 	.word	0x20001944
    4be4:	00008c54 	.word	0x00008c54
    4be8:	00003101 	.word	0x00003101
    4bec:	00008c40 	.word	0x00008c40

00004bf0 <Print_LowPower_Msg>:

void Print_LowPower_Msg(volatile LORA_DEFINE_t *tmp_LORA)
{
    4bf0:	b510      	push	{r4, lr}
	uart_str(&Msg_LowPower[0]);
    4bf2:	4802      	ldr	r0, [pc, #8]	; (4bfc <Print_LowPower_Msg+0xc>)
    4bf4:	4b02      	ldr	r3, [pc, #8]	; (4c00 <Print_LowPower_Msg+0x10>)
    4bf6:	4798      	blx	r3
}
    4bf8:	bd10      	pop	{r4, pc}
    4bfa:	46c0      	nop			; (mov r8, r8)
    4bfc:	00008c74 	.word	0x00008c74
    4c00:	00003101 	.word	0x00003101

00004c04 <Print_Who_Lora>:


void Print_Who_Lora(volatile LORA_DEFINE_t *tmp_LORA)
{
    4c04:	b510      	push	{r4, lr}
	if(tmp_LORA == LORA01)
    4c06:	4b11      	ldr	r3, [pc, #68]	; (4c4c <Print_Who_Lora+0x48>)
    4c08:	681b      	ldr	r3, [r3, #0]
    4c0a:	4283      	cmp	r3, r0
    4c0c:	d004      	beq.n	4c18 <Print_Who_Lora+0x14>
		if(LORA01->Lora_Debug_Flag == NoDebug) return;
		uTXByte(Debug_COM, '#');
		uart_str(&Msg_LoRA01[0]);
	}
	else
	if(tmp_LORA == LORA02)
    4c0e:	4b10      	ldr	r3, [pc, #64]	; (4c50 <Print_Who_Lora+0x4c>)
    4c10:	681b      	ldr	r3, [r3, #0]
    4c12:	4298      	cmp	r0, r3
    4c14:	d00d      	beq.n	4c32 <Print_Who_Lora+0x2e>
	{
		if(LORA02->Lora_Debug_Flag == NoDebug) return;
		uTXByte(Debug_COM, '#');
		uart_str(&Msg_LoRA02[0]);
	}
}
    4c16:	bd10      	pop	{r4, pc}
		if(LORA01->Lora_Debug_Flag == NoDebug) return;
    4c18:	2288      	movs	r2, #136	; 0x88
    4c1a:	0092      	lsls	r2, r2, #2
    4c1c:	5c9b      	ldrb	r3, [r3, r2]
    4c1e:	2b00      	cmp	r3, #0
    4c20:	d0f9      	beq.n	4c16 <Print_Who_Lora+0x12>
		uTXByte(Debug_COM, '#');
    4c22:	2123      	movs	r1, #35	; 0x23
    4c24:	480b      	ldr	r0, [pc, #44]	; (4c54 <Print_Who_Lora+0x50>)
    4c26:	4b0c      	ldr	r3, [pc, #48]	; (4c58 <Print_Who_Lora+0x54>)
    4c28:	4798      	blx	r3
		uart_str(&Msg_LoRA01[0]);
    4c2a:	480c      	ldr	r0, [pc, #48]	; (4c5c <Print_Who_Lora+0x58>)
    4c2c:	4b0c      	ldr	r3, [pc, #48]	; (4c60 <Print_Who_Lora+0x5c>)
    4c2e:	4798      	blx	r3
    4c30:	e7f1      	b.n	4c16 <Print_Who_Lora+0x12>
		if(LORA02->Lora_Debug_Flag == NoDebug) return;
    4c32:	2388      	movs	r3, #136	; 0x88
    4c34:	009b      	lsls	r3, r3, #2
    4c36:	5cc3      	ldrb	r3, [r0, r3]
    4c38:	2b00      	cmp	r3, #0
    4c3a:	d0ec      	beq.n	4c16 <Print_Who_Lora+0x12>
		uTXByte(Debug_COM, '#');
    4c3c:	2123      	movs	r1, #35	; 0x23
    4c3e:	4805      	ldr	r0, [pc, #20]	; (4c54 <Print_Who_Lora+0x50>)
    4c40:	4b05      	ldr	r3, [pc, #20]	; (4c58 <Print_Who_Lora+0x54>)
    4c42:	4798      	blx	r3
		uart_str(&Msg_LoRA02[0]);
    4c44:	4807      	ldr	r0, [pc, #28]	; (4c64 <Print_Who_Lora+0x60>)
    4c46:	4b06      	ldr	r3, [pc, #24]	; (4c60 <Print_Who_Lora+0x5c>)
    4c48:	4798      	blx	r3
    4c4a:	e7e4      	b.n	4c16 <Print_Who_Lora+0x12>
    4c4c:	20001944 	.word	0x20001944
    4c50:	20000d18 	.word	0x20000d18
    4c54:	200002f0 	.word	0x200002f0
    4c58:	00005535 	.word	0x00005535
    4c5c:	0000886c 	.word	0x0000886c
    4c60:	00003101 	.word	0x00003101
    4c64:	00008874 	.word	0x00008874

00004c68 <Print_Read_LoRa_ID_Msg>:

void Print_Read_LoRa_ID_Msg(volatile LORA_DEFINE_t *tmp_LORA)
{
    4c68:	b510      	push	{r4, lr}
	if(tmp_LORA->Lora_Debug_Flag == NoDebug) return;
    4c6a:	2388      	movs	r3, #136	; 0x88
    4c6c:	009b      	lsls	r3, r3, #2
    4c6e:	5cc3      	ldrb	r3, [r0, r3]
    4c70:	2b00      	cmp	r3, #0
    4c72:	d100      	bne.n	4c76 <Print_Read_LoRa_ID_Msg+0xe>
	uart_str(&Msg_RdID[0]);
}
    4c74:	bd10      	pop	{r4, pc}
	uart_str(&Msg_RdID[0]);
    4c76:	4802      	ldr	r0, [pc, #8]	; (4c80 <Print_Read_LoRa_ID_Msg+0x18>)
    4c78:	4b02      	ldr	r3, [pc, #8]	; (4c84 <Print_Read_LoRa_ID_Msg+0x1c>)
    4c7a:	4798      	blx	r3
    4c7c:	e7fa      	b.n	4c74 <Print_Read_LoRa_ID_Msg+0xc>
    4c7e:	46c0      	nop			; (mov r8, r8)
    4c80:	00008cbc 	.word	0x00008cbc
    4c84:	00003101 	.word	0x00003101

00004c88 <Print_Delay_LoRa_CMD_Msg>:

void Print_Delay_LoRa_CMD_Msg(volatile LORA_DEFINE_t *tmp_LORA)
{
    4c88:	b510      	push	{r4, lr}
	if(tmp_LORA->Lora_Debug_Flag == 0) return;
    4c8a:	2388      	movs	r3, #136	; 0x88
    4c8c:	009b      	lsls	r3, r3, #2
    4c8e:	5cc3      	ldrb	r3, [r0, r3]
    4c90:	2b00      	cmp	r3, #0
    4c92:	d100      	bne.n	4c96 <Print_Delay_LoRa_CMD_Msg+0xe>
	uart_str(&Msg_CMDDelay[0]);
}
    4c94:	bd10      	pop	{r4, pc}
	uart_str(&Msg_CMDDelay[0]);
    4c96:	4802      	ldr	r0, [pc, #8]	; (4ca0 <Print_Delay_LoRa_CMD_Msg+0x18>)
    4c98:	4b02      	ldr	r3, [pc, #8]	; (4ca4 <Print_Delay_LoRa_CMD_Msg+0x1c>)
    4c9a:	4798      	blx	r3
    4c9c:	e7fa      	b.n	4c94 <Print_Delay_LoRa_CMD_Msg+0xc>
    4c9e:	46c0      	nop			; (mov r8, r8)
    4ca0:	00008bcc 	.word	0x00008bcc
    4ca4:	00003101 	.word	0x00003101

00004ca8 <Print_Time_Out_Msg>:

void Print_Time_Out_Msg(volatile LORA_DEFINE_t *tmp_LORA)
{
    4ca8:	b510      	push	{r4, lr}
	if(tmp_LORA->Lora_Debug_Flag == NoDebug) return;
    4caa:	2388      	movs	r3, #136	; 0x88
    4cac:	009b      	lsls	r3, r3, #2
    4cae:	5cc3      	ldrb	r3, [r0, r3]
    4cb0:	2b00      	cmp	r3, #0
    4cb2:	d100      	bne.n	4cb6 <Print_Time_Out_Msg+0xe>
	uart_str(&Msg_TimeOut[0]);
}
    4cb4:	bd10      	pop	{r4, pc}
	uart_str(&Msg_TimeOut[0]);
    4cb6:	4802      	ldr	r0, [pc, #8]	; (4cc0 <Print_Time_Out_Msg+0x18>)
    4cb8:	4b02      	ldr	r3, [pc, #8]	; (4cc4 <Print_Time_Out_Msg+0x1c>)
    4cba:	4798      	blx	r3
    4cbc:	e7fa      	b.n	4cb4 <Print_Time_Out_Msg+0xc>
    4cbe:	46c0      	nop			; (mov r8, r8)
    4cc0:	00008cd0 	.word	0x00008cd0
    4cc4:	00003101 	.word	0x00003101

00004cc8 <Print_Catch_LoRa_ID_Msg>:

void Print_Catch_LoRa_ID_Msg(volatile LORA_DEFINE_t *tmp_LORA)
{
    4cc8:	b5f0      	push	{r4, r5, r6, r7, lr}
    4cca:	46c6      	mov	lr, r8
    4ccc:	b500      	push	{lr}
    4cce:	0006      	movs	r6, r0
	uart_str(&Msg_FW[0]);
    4cd0:	482a      	ldr	r0, [pc, #168]	; (4d7c <Print_Catch_LoRa_ID_Msg+0xb4>)
    4cd2:	4b2b      	ldr	r3, [pc, #172]	; (4d80 <Print_Catch_LoRa_ID_Msg+0xb8>)
    4cd4:	4698      	mov	r8, r3
    4cd6:	4798      	blx	r3
	uart_send_ascii_byte(Debug_COM, tmp_LORA->MyLoRaFW);
    4cd8:	7831      	ldrb	r1, [r6, #0]
    4cda:	b2c9      	uxtb	r1, r1
    4cdc:	4c29      	ldr	r4, [pc, #164]	; (4d84 <Print_Catch_LoRa_ID_Msg+0xbc>)
    4cde:	0020      	movs	r0, r4
    4ce0:	4d29      	ldr	r5, [pc, #164]	; (4d88 <Print_Catch_LoRa_ID_Msg+0xc0>)
    4ce2:	47a8      	blx	r5
	uTXByte(Debug_COM, 0x09);
    4ce4:	2109      	movs	r1, #9
    4ce6:	0020      	movs	r0, r4
    4ce8:	4f28      	ldr	r7, [pc, #160]	; (4d8c <Print_Catch_LoRa_ID_Msg+0xc4>)
    4cea:	47b8      	blx	r7
	
	Print_FW_ID();
    4cec:	4b28      	ldr	r3, [pc, #160]	; (4d90 <Print_Catch_LoRa_ID_Msg+0xc8>)
    4cee:	4798      	blx	r3
	uTXByte(Debug_COM, 0x0d);
    4cf0:	210d      	movs	r1, #13
    4cf2:	0020      	movs	r0, r4
    4cf4:	47b8      	blx	r7

	uart_str(&Msg_ID[0]);
    4cf6:	4827      	ldr	r0, [pc, #156]	; (4d94 <Print_Catch_LoRa_ID_Msg+0xcc>)
    4cf8:	47c0      	blx	r8
	uart_send_ascii_byte(Debug_COM, tmp_LORA->MyLoRaID[0]);
    4cfa:	7871      	ldrb	r1, [r6, #1]
    4cfc:	b2c9      	uxtb	r1, r1
    4cfe:	0020      	movs	r0, r4
    4d00:	47a8      	blx	r5
	uart_send_ascii_byte(Debug_COM, tmp_LORA->MyLoRaID[1]);
    4d02:	78b1      	ldrb	r1, [r6, #2]
    4d04:	b2c9      	uxtb	r1, r1
    4d06:	0020      	movs	r0, r4
    4d08:	47a8      	blx	r5
	uart_send_ascii_byte(Debug_COM, tmp_LORA->MyLoRaID[2]);
    4d0a:	78f1      	ldrb	r1, [r6, #3]
    4d0c:	b2c9      	uxtb	r1, r1
    4d0e:	0020      	movs	r0, r4
    4d10:	47a8      	blx	r5
	uart_send_ascii_byte(Debug_COM, tmp_LORA->MyLoRaID[3]);
    4d12:	7931      	ldrb	r1, [r6, #4]
    4d14:	b2c9      	uxtb	r1, r1
    4d16:	0020      	movs	r0, r4
    4d18:	47a8      	blx	r5
	uTXByte(Debug_COM, 0x09);
    4d1a:	2109      	movs	r1, #9
    4d1c:	0020      	movs	r0, r4
    4d1e:	47b8      	blx	r7
	
	uart_str(&Msg_UserID[0]);
    4d20:	481d      	ldr	r0, [pc, #116]	; (4d98 <Print_Catch_LoRa_ID_Msg+0xd0>)
    4d22:	47c0      	blx	r8
	uart_send_ascii_byte(Debug_COM, tmp_LORA->UserLoRaID[0]);
    4d24:	7971      	ldrb	r1, [r6, #5]
    4d26:	b2c9      	uxtb	r1, r1
    4d28:	0020      	movs	r0, r4
    4d2a:	47a8      	blx	r5
	uart_send_ascii_byte(Debug_COM, tmp_LORA->UserLoRaID[1]);
    4d2c:	79b1      	ldrb	r1, [r6, #6]
    4d2e:	b2c9      	uxtb	r1, r1
    4d30:	0020      	movs	r0, r4
    4d32:	47a8      	blx	r5
	uart_send_ascii_byte(Debug_COM, tmp_LORA->UserLoRaID[2]);
    4d34:	79f1      	ldrb	r1, [r6, #7]
    4d36:	b2c9      	uxtb	r1, r1
    4d38:	0020      	movs	r0, r4
    4d3a:	47a8      	blx	r5
	uart_send_ascii_byte(Debug_COM, tmp_LORA->UserLoRaID[3]);
    4d3c:	7a31      	ldrb	r1, [r6, #8]
    4d3e:	b2c9      	uxtb	r1, r1
    4d40:	0020      	movs	r0, r4
    4d42:	47a8      	blx	r5
	uTXByte(Debug_COM, 0x09);
    4d44:	2109      	movs	r1, #9
    4d46:	0020      	movs	r0, r4
    4d48:	47b8      	blx	r7
	
	uart_str(&Msg_LoRAID[0]);
    4d4a:	4814      	ldr	r0, [pc, #80]	; (4d9c <Print_Catch_LoRa_ID_Msg+0xd4>)
    4d4c:	47c0      	blx	r8
	uart_send_ascii_byte(Debug_COM, tmp_LORA->LoRaID[0]);
    4d4e:	7a71      	ldrb	r1, [r6, #9]
    4d50:	b2c9      	uxtb	r1, r1
    4d52:	0020      	movs	r0, r4
    4d54:	47a8      	blx	r5
	uart_send_ascii_byte(Debug_COM, tmp_LORA->LoRaID[1]);
    4d56:	7ab1      	ldrb	r1, [r6, #10]
    4d58:	b2c9      	uxtb	r1, r1
    4d5a:	0020      	movs	r0, r4
    4d5c:	47a8      	blx	r5
	uart_send_ascii_byte(Debug_COM, tmp_LORA->LoRaID[2]);
    4d5e:	7af1      	ldrb	r1, [r6, #11]
    4d60:	b2c9      	uxtb	r1, r1
    4d62:	0020      	movs	r0, r4
    4d64:	47a8      	blx	r5
	uart_send_ascii_byte(Debug_COM, tmp_LORA->LoRaID[3]);
    4d66:	7b31      	ldrb	r1, [r6, #12]
    4d68:	b2c9      	uxtb	r1, r1
    4d6a:	0020      	movs	r0, r4
    4d6c:	47a8      	blx	r5
	uTXByte(Debug_COM, 0x0d);
    4d6e:	210d      	movs	r1, #13
    4d70:	0020      	movs	r0, r4
    4d72:	47b8      	blx	r7
}
    4d74:	bc04      	pop	{r2}
    4d76:	4690      	mov	r8, r2
    4d78:	bdf0      	pop	{r4, r5, r6, r7, pc}
    4d7a:	46c0      	nop			; (mov r8, r8)
    4d7c:	00008c10 	.word	0x00008c10
    4d80:	00003101 	.word	0x00003101
    4d84:	200002f0 	.word	0x200002f0
    4d88:	00005555 	.word	0x00005555
    4d8c:	00005535 	.word	0x00005535
    4d90:	00001af5 	.word	0x00001af5
    4d94:	00008c1c 	.word	0x00008c1c
    4d98:	00008cdc 	.word	0x00008cdc
    4d9c:	00008c68 	.word	0x00008c68

00004da0 <Print_Catch_LoRa_Setting_Msg>:

void Print_Catch_LoRa_Setting_Msg(volatile LORA_DEFINE_t *tmp_LORA)
{
    4da0:	b5f0      	push	{r4, r5, r6, r7, lr}
    4da2:	46d6      	mov	lr, sl
    4da4:	464f      	mov	r7, r9
    4da6:	4646      	mov	r6, r8
    4da8:	b5c0      	push	{r6, r7, lr}
    4daa:	b082      	sub	sp, #8
    4dac:	0005      	movs	r5, r0
	UINT32u_t tmp_FQ;

	uart_str(&Msg_PLC[0]);
    4dae:	4840      	ldr	r0, [pc, #256]	; (4eb0 <Print_Catch_LoRa_Setting_Msg+0x110>)
    4db0:	4b40      	ldr	r3, [pc, #256]	; (4eb4 <Print_Catch_LoRa_Setting_Msg+0x114>)
    4db2:	4798      	blx	r3
	if(tmp_LORA->PLC_Flag == NeedPLC)
    4db4:	7c2b      	ldrb	r3, [r5, #16]
    4db6:	2b01      	cmp	r3, #1
    4db8:	d06c      	beq.n	4e94 <Print_Catch_LoRa_Setting_Msg+0xf4>
		uart_str("ON\0");
	else
		uart_str("OFF\0");
    4dba:	483f      	ldr	r0, [pc, #252]	; (4eb8 <Print_Catch_LoRa_Setting_Msg+0x118>)
    4dbc:	3004      	adds	r0, #4
    4dbe:	4b3d      	ldr	r3, [pc, #244]	; (4eb4 <Print_Catch_LoRa_Setting_Msg+0x114>)
    4dc0:	4798      	blx	r3
	uTXByte(Debug_COM, 0x0d);
    4dc2:	210d      	movs	r1, #13
    4dc4:	483d      	ldr	r0, [pc, #244]	; (4ebc <Print_Catch_LoRa_Setting_Msg+0x11c>)
    4dc6:	4b3e      	ldr	r3, [pc, #248]	; (4ec0 <Print_Catch_LoRa_Setting_Msg+0x120>)
    4dc8:	4798      	blx	r3
	
	uart_str(&Msg_DebugMode[0]);
    4dca:	483e      	ldr	r0, [pc, #248]	; (4ec4 <Print_Catch_LoRa_Setting_Msg+0x124>)
    4dcc:	4b39      	ldr	r3, [pc, #228]	; (4eb4 <Print_Catch_LoRa_Setting_Msg+0x114>)
    4dce:	4798      	blx	r3
	if(tmp_LORA->Lora_Debug_Flag == NeedDebug)
    4dd0:	2388      	movs	r3, #136	; 0x88
    4dd2:	009b      	lsls	r3, r3, #2
    4dd4:	5ceb      	ldrb	r3, [r5, r3]
    4dd6:	2b01      	cmp	r3, #1
    4dd8:	d060      	beq.n	4e9c <Print_Catch_LoRa_Setting_Msg+0xfc>
		uart_str("ON\0");
	else
		uart_str("OFF\0");
    4dda:	4837      	ldr	r0, [pc, #220]	; (4eb8 <Print_Catch_LoRa_Setting_Msg+0x118>)
    4ddc:	3004      	adds	r0, #4
    4dde:	4b35      	ldr	r3, [pc, #212]	; (4eb4 <Print_Catch_LoRa_Setting_Msg+0x114>)
    4de0:	4798      	blx	r3
	uTXByte(Debug_COM, 0x0d);
    4de2:	210d      	movs	r1, #13
    4de4:	4835      	ldr	r0, [pc, #212]	; (4ebc <Print_Catch_LoRa_Setting_Msg+0x11c>)
    4de6:	4b36      	ldr	r3, [pc, #216]	; (4ec0 <Print_Catch_LoRa_Setting_Msg+0x120>)
    4de8:	4798      	blx	r3
	
	uart_str(&Msg_Mode[0]);
    4dea:	4837      	ldr	r0, [pc, #220]	; (4ec8 <Print_Catch_LoRa_Setting_Msg+0x128>)
    4dec:	4b31      	ldr	r3, [pc, #196]	; (4eb4 <Print_Catch_LoRa_Setting_Msg+0x114>)
    4dee:	4798      	blx	r3
	if(tmp_LORA->MyLoRaMode == SetTx)
    4df0:	7b6b      	ldrb	r3, [r5, #13]
    4df2:	2b02      	cmp	r3, #2
    4df4:	d056      	beq.n	4ea4 <Print_Catch_LoRa_Setting_Msg+0x104>
		uart_str("Tx\0");
	else
		uart_str("Rx\0");
    4df6:	4830      	ldr	r0, [pc, #192]	; (4eb8 <Print_Catch_LoRa_Setting_Msg+0x118>)
    4df8:	3010      	adds	r0, #16
    4dfa:	4b2e      	ldr	r3, [pc, #184]	; (4eb4 <Print_Catch_LoRa_Setting_Msg+0x114>)
    4dfc:	4798      	blx	r3
	uTXByte(Debug_COM, 0x0d);
    4dfe:	4c2f      	ldr	r4, [pc, #188]	; (4ebc <Print_Catch_LoRa_Setting_Msg+0x11c>)
    4e00:	210d      	movs	r1, #13
    4e02:	0020      	movs	r0, r4
    4e04:	4e2e      	ldr	r6, [pc, #184]	; (4ec0 <Print_Catch_LoRa_Setting_Msg+0x120>)
    4e06:	47b0      	blx	r6
	
	uart_str(&Msg_FQ[0]);
    4e08:	4830      	ldr	r0, [pc, #192]	; (4ecc <Print_Catch_LoRa_Setting_Msg+0x12c>)
    4e0a:	4f2a      	ldr	r7, [pc, #168]	; (4eb4 <Print_Catch_LoRa_Setting_Msg+0x114>)
    4e0c:	47b8      	blx	r7
	tmp_FQ.dword = long_to_bcd(tmp_LORA->MyLoRaFQ.dword);
    4e0e:	6968      	ldr	r0, [r5, #20]
    4e10:	4b2f      	ldr	r3, [pc, #188]	; (4ed0 <Print_Catch_LoRa_Setting_Msg+0x130>)
    4e12:	4798      	blx	r3
    4e14:	4680      	mov	r8, r0
	uart_send_ascii_byte(Debug_COM, tmp_FQ.byte[2]);
    4e16:	0201      	lsls	r1, r0, #8
    4e18:	0e09      	lsrs	r1, r1, #24
    4e1a:	0020      	movs	r0, r4
    4e1c:	4b2d      	ldr	r3, [pc, #180]	; (4ed4 <Print_Catch_LoRa_Setting_Msg+0x134>)
    4e1e:	4699      	mov	r9, r3
    4e20:	4798      	blx	r3
	uart_send_ascii_byte(Debug_COM, tmp_FQ.byte[1]);
    4e22:	4643      	mov	r3, r8
    4e24:	0419      	lsls	r1, r3, #16
    4e26:	0e09      	lsrs	r1, r1, #24
    4e28:	0020      	movs	r0, r4
    4e2a:	47c8      	blx	r9
	uTXByte(Debug_COM, '.');
    4e2c:	212e      	movs	r1, #46	; 0x2e
    4e2e:	0020      	movs	r0, r4
    4e30:	47b0      	blx	r6
	uart_send_ascii_byte(Debug_COM, tmp_FQ.byte[0]);
    4e32:	4643      	mov	r3, r8
    4e34:	466a      	mov	r2, sp
    4e36:	71d3      	strb	r3, [r2, #7]
    4e38:	79d1      	ldrb	r1, [r2, #7]
    4e3a:	0020      	movs	r0, r4
    4e3c:	47c8      	blx	r9
	uart_str(" MHz\0");
    4e3e:	4b1e      	ldr	r3, [pc, #120]	; (4eb8 <Print_Catch_LoRa_Setting_Msg+0x118>)
    4e40:	4698      	mov	r8, r3
    4e42:	0018      	movs	r0, r3
    4e44:	3014      	adds	r0, #20
    4e46:	47b8      	blx	r7
	uTXByte(Debug_COM, 0x0d);
    4e48:	210d      	movs	r1, #13
    4e4a:	0020      	movs	r0, r4
    4e4c:	47b0      	blx	r6
	
	uart_str(&Msg_Power[0]);
    4e4e:	4822      	ldr	r0, [pc, #136]	; (4ed8 <Print_Catch_LoRa_Setting_Msg+0x138>)
    4e50:	47b8      	blx	r7
	uart_send_word(Debug_COM, hex_to_bcd(tmp_LORA->MyLoRaPower + 2));
    4e52:	7ba8      	ldrb	r0, [r5, #14]
    4e54:	3002      	adds	r0, #2
    4e56:	4b21      	ldr	r3, [pc, #132]	; (4edc <Print_Catch_LoRa_Setting_Msg+0x13c>)
    4e58:	469a      	mov	sl, r3
    4e5a:	4798      	blx	r3
    4e5c:	0001      	movs	r1, r0
    4e5e:	0020      	movs	r0, r4
    4e60:	4b1f      	ldr	r3, [pc, #124]	; (4ee0 <Print_Catch_LoRa_Setting_Msg+0x140>)
    4e62:	4699      	mov	r9, r3
    4e64:	4798      	blx	r3
	uart_str(" dbm\0");
    4e66:	4640      	mov	r0, r8
    4e68:	301c      	adds	r0, #28
    4e6a:	47b8      	blx	r7
	uTXByte(Debug_COM, 0x0d);
    4e6c:	210d      	movs	r1, #13
    4e6e:	0020      	movs	r0, r4
    4e70:	47b0      	blx	r6
	
	uart_str(&Msg_SF[0]);
    4e72:	481c      	ldr	r0, [pc, #112]	; (4ee4 <Print_Catch_LoRa_Setting_Msg+0x144>)
    4e74:	47b8      	blx	r7
	uart_send_word(Debug_COM, hex_to_bcd(tmp_LORA->MyLoRaSF + 5));
    4e76:	7be8      	ldrb	r0, [r5, #15]
    4e78:	3005      	adds	r0, #5
    4e7a:	47d0      	blx	sl
    4e7c:	0001      	movs	r1, r0
    4e7e:	0020      	movs	r0, r4
    4e80:	47c8      	blx	r9
	uTXByte(Debug_COM, 0x0d);
    4e82:	210d      	movs	r1, #13
    4e84:	0020      	movs	r0, r4
    4e86:	47b0      	blx	r6
}
    4e88:	b002      	add	sp, #8
    4e8a:	bc1c      	pop	{r2, r3, r4}
    4e8c:	4690      	mov	r8, r2
    4e8e:	4699      	mov	r9, r3
    4e90:	46a2      	mov	sl, r4
    4e92:	bdf0      	pop	{r4, r5, r6, r7, pc}
		uart_str("ON\0");
    4e94:	4808      	ldr	r0, [pc, #32]	; (4eb8 <Print_Catch_LoRa_Setting_Msg+0x118>)
    4e96:	4b07      	ldr	r3, [pc, #28]	; (4eb4 <Print_Catch_LoRa_Setting_Msg+0x114>)
    4e98:	4798      	blx	r3
    4e9a:	e792      	b.n	4dc2 <Print_Catch_LoRa_Setting_Msg+0x22>
		uart_str("ON\0");
    4e9c:	4806      	ldr	r0, [pc, #24]	; (4eb8 <Print_Catch_LoRa_Setting_Msg+0x118>)
    4e9e:	4b05      	ldr	r3, [pc, #20]	; (4eb4 <Print_Catch_LoRa_Setting_Msg+0x114>)
    4ea0:	4798      	blx	r3
    4ea2:	e79e      	b.n	4de2 <Print_Catch_LoRa_Setting_Msg+0x42>
		uart_str("Tx\0");
    4ea4:	4804      	ldr	r0, [pc, #16]	; (4eb8 <Print_Catch_LoRa_Setting_Msg+0x118>)
    4ea6:	300c      	adds	r0, #12
    4ea8:	4b02      	ldr	r3, [pc, #8]	; (4eb4 <Print_Catch_LoRa_Setting_Msg+0x114>)
    4eaa:	4798      	blx	r3
    4eac:	e7a7      	b.n	4dfe <Print_Catch_LoRa_Setting_Msg+0x5e>
    4eae:	46c0      	nop			; (mov r8, r8)
    4eb0:	00008c8c 	.word	0x00008c8c
    4eb4:	00003101 	.word	0x00003101
    4eb8:	00008ba8 	.word	0x00008ba8
    4ebc:	200002f0 	.word	0x200002f0
    4ec0:	00005535 	.word	0x00005535
    4ec4:	00008bf0 	.word	0x00008bf0
    4ec8:	00008c80 	.word	0x00008c80
    4ecc:	00008c04 	.word	0x00008c04
    4ed0:	00005865 	.word	0x00005865
    4ed4:	00005555 	.word	0x00005555
    4ed8:	00008c98 	.word	0x00008c98
    4edc:	000057f5 	.word	0x000057f5
    4ee0:	000055c9 	.word	0x000055c9
    4ee4:	00008cc4 	.word	0x00008cc4

00004ee8 <Print_Reset_LoRa_Msg>:

void Print_Reset_LoRa_Msg(volatile LORA_DEFINE_t *tmp_LORA)
{
    4ee8:	b510      	push	{r4, lr}
	if(tmp_LORA->Lora_Debug_Flag == NoDebug) return;
    4eea:	2388      	movs	r3, #136	; 0x88
    4eec:	009b      	lsls	r3, r3, #2
    4eee:	5cc3      	ldrb	r3, [r0, r3]
    4ef0:	2b00      	cmp	r3, #0
    4ef2:	d100      	bne.n	4ef6 <Print_Reset_LoRa_Msg+0xe>
	uart_str(&Msg_LRRST[0]);
}
    4ef4:	bd10      	pop	{r4, pc}
	uart_str(&Msg_LRRST[0]);
    4ef6:	4802      	ldr	r0, [pc, #8]	; (4f00 <Print_Reset_LoRa_Msg+0x18>)
    4ef8:	4b02      	ldr	r3, [pc, #8]	; (4f04 <Print_Reset_LoRa_Msg+0x1c>)
    4efa:	4798      	blx	r3
    4efc:	e7fa      	b.n	4ef4 <Print_Reset_LoRa_Msg+0xc>
    4efe:	46c0      	nop			; (mov r8, r8)
    4f00:	00008c28 	.word	0x00008c28
    4f04:	00003101 	.word	0x00003101

00004f08 <Print_Write_LoRa_Mode_FQ_Msg>:
	if(tmp_LORA->Lora_Debug_Flag == NoDebug) return;
	uart_str(&Msg_RdSt[0]);
}

void Print_Write_LoRa_Mode_FQ_Msg(volatile LORA_DEFINE_t *tmp_LORA)
{
    4f08:	b510      	push	{r4, lr}
	if(tmp_LORA->Lora_Debug_Flag == NoDebug) return;
    4f0a:	2388      	movs	r3, #136	; 0x88
    4f0c:	009b      	lsls	r3, r3, #2
    4f0e:	5cc3      	ldrb	r3, [r0, r3]
    4f10:	2b00      	cmp	r3, #0
    4f12:	d100      	bne.n	4f16 <Print_Write_LoRa_Mode_FQ_Msg+0xe>
	uart_str(&Msg_WrFQ[0]);
}
    4f14:	bd10      	pop	{r4, pc}
	uart_str(&Msg_WrFQ[0]);
    4f16:	4802      	ldr	r0, [pc, #8]	; (4f20 <Print_Write_LoRa_Mode_FQ_Msg+0x18>)
    4f18:	4b02      	ldr	r3, [pc, #8]	; (4f24 <Print_Write_LoRa_Mode_FQ_Msg+0x1c>)
    4f1a:	4798      	blx	r3
    4f1c:	e7fa      	b.n	4f14 <Print_Write_LoRa_Mode_FQ_Msg+0xc>
    4f1e:	46c0      	nop			; (mov r8, r8)
    4f20:	00008d00 	.word	0x00008d00
    4f24:	00003101 	.word	0x00003101

00004f28 <Print_Write_LoRa_Setting_Msg>:
void Print_Write_LoRa_Setting_Msg(volatile LORA_DEFINE_t *tmp_LORA)
{
    4f28:	b510      	push	{r4, lr}
	if(tmp_LORA->Lora_Debug_Flag == NoDebug) return;
    4f2a:	2388      	movs	r3, #136	; 0x88
    4f2c:	009b      	lsls	r3, r3, #2
    4f2e:	5cc3      	ldrb	r3, [r0, r3]
    4f30:	2b00      	cmp	r3, #0
    4f32:	d100      	bne.n	4f36 <Print_Write_LoRa_Setting_Msg+0xe>
	uart_str(&Msg_WrSt[0]);
}
    4f34:	bd10      	pop	{r4, pc}
	uart_str(&Msg_WrSt[0]);
    4f36:	4802      	ldr	r0, [pc, #8]	; (4f40 <Print_Write_LoRa_Setting_Msg+0x18>)
    4f38:	4b02      	ldr	r3, [pc, #8]	; (4f44 <Print_Write_LoRa_Setting_Msg+0x1c>)
    4f3a:	4798      	blx	r3
    4f3c:	e7fa      	b.n	4f34 <Print_Write_LoRa_Setting_Msg+0xc>
    4f3e:	46c0      	nop			; (mov r8, r8)
    4f40:	00008d08 	.word	0x00008d08
    4f44:	00003101 	.word	0x00003101

00004f48 <Print_Read_LoRa_RxBuffer_Msg>:


void Print_Read_LoRa_RxBuffer_Msg(volatile LORA_DEFINE_t *tmp_LORA)
{
    4f48:	b510      	push	{r4, lr}
	if(tmp_LORA->Lora_Debug_Flag == NoDebug) return;
    4f4a:	2388      	movs	r3, #136	; 0x88
    4f4c:	009b      	lsls	r3, r3, #2
    4f4e:	5cc3      	ldrb	r3, [r0, r3]
    4f50:	2b00      	cmp	r3, #0
    4f52:	d100      	bne.n	4f56 <Print_Read_LoRa_RxBuffer_Msg+0xe>
	uart_str(&Msg_RdBF[0]);
}
    4f54:	bd10      	pop	{r4, pc}
	uart_str(&Msg_RdBF[0]);
    4f56:	4802      	ldr	r0, [pc, #8]	; (4f60 <Print_Read_LoRa_RxBuffer_Msg+0x18>)
    4f58:	4b02      	ldr	r3, [pc, #8]	; (4f64 <Print_Read_LoRa_RxBuffer_Msg+0x1c>)
    4f5a:	4798      	blx	r3
    4f5c:	e7fa      	b.n	4f54 <Print_Read_LoRa_RxBuffer_Msg+0xc>
    4f5e:	46c0      	nop			; (mov r8, r8)
    4f60:	00008cb4 	.word	0x00008cb4
    4f64:	00003101 	.word	0x00003101

00004f68 <Print_Reset_IRQ_Flag_Msg>:

void Print_Reset_IRQ_Flag_Msg(volatile LORA_DEFINE_t *tmp_LORA)
{
    4f68:	b510      	push	{r4, lr}
	if(tmp_LORA->Lora_Debug_Flag == NoDebug) return;
    4f6a:	2388      	movs	r3, #136	; 0x88
    4f6c:	009b      	lsls	r3, r3, #2
    4f6e:	5cc3      	ldrb	r3, [r0, r3]
    4f70:	2b00      	cmp	r3, #0
    4f72:	d100      	bne.n	4f76 <Print_Reset_IRQ_Flag_Msg+0xe>
	uart_str(&Msg_RSTIRQ[0]);
}
    4f74:	bd10      	pop	{r4, pc}
	uart_str(&Msg_RSTIRQ[0]);
    4f76:	4802      	ldr	r0, [pc, #8]	; (4f80 <Print_Reset_IRQ_Flag_Msg+0x18>)
    4f78:	4b02      	ldr	r3, [pc, #8]	; (4f84 <Print_Reset_IRQ_Flag_Msg+0x1c>)
    4f7a:	4798      	blx	r3
    4f7c:	e7fa      	b.n	4f74 <Print_Reset_IRQ_Flag_Msg+0xc>
    4f7e:	46c0      	nop			; (mov r8, r8)
    4f80:	00008ca8 	.word	0x00008ca8
    4f84:	00003101 	.word	0x00003101

00004f88 <Print_Write_LoRa_TxBuffer_Msg>:
void Print_Write_LoRa_TxBuffer_Msg(volatile LORA_DEFINE_t *tmp_LORA)
{
    4f88:	b510      	push	{r4, lr}
	if(tmp_LORA->Lora_Debug_Flag == NoDebug) return;
    4f8a:	2388      	movs	r3, #136	; 0x88
    4f8c:	009b      	lsls	r3, r3, #2
    4f8e:	5cc3      	ldrb	r3, [r0, r3]
    4f90:	2b00      	cmp	r3, #0
    4f92:	d100      	bne.n	4f96 <Print_Write_LoRa_TxBuffer_Msg+0xe>
	uart_str(&Msg_WrBF[0]);
}
    4f94:	bd10      	pop	{r4, pc}
	uart_str(&Msg_WrBF[0]);
    4f96:	4802      	ldr	r0, [pc, #8]	; (4fa0 <Print_Write_LoRa_TxBuffer_Msg+0x18>)
    4f98:	4b02      	ldr	r3, [pc, #8]	; (4fa4 <Print_Write_LoRa_TxBuffer_Msg+0x1c>)
    4f9a:	4798      	blx	r3
    4f9c:	e7fa      	b.n	4f94 <Print_Write_LoRa_TxBuffer_Msg+0xc>
    4f9e:	46c0      	nop			; (mov r8, r8)
    4fa0:	00008cf8 	.word	0x00008cf8
    4fa4:	00003101 	.word	0x00003101

00004fa8 <Print_Leave_LoRa_Tx_Mode_Msg>:

void Print_Leave_LoRa_Tx_Mode_Msg(volatile LORA_DEFINE_t *tmp_LORA)
{
    4fa8:	b510      	push	{r4, lr}
	if(tmp_LORA->Lora_Debug_Flag == NoDebug) return;
    4faa:	2388      	movs	r3, #136	; 0x88
    4fac:	009b      	lsls	r3, r3, #2
    4fae:	5cc3      	ldrb	r3, [r0, r3]
    4fb0:	2b00      	cmp	r3, #0
    4fb2:	d100      	bne.n	4fb6 <Print_Leave_LoRa_Tx_Mode_Msg+0xe>
	uart_str(&Msg_LeaveTx[0]);
}
    4fb4:	bd10      	pop	{r4, pc}
	uart_str(&Msg_LeaveTx[0]);
    4fb6:	4802      	ldr	r0, [pc, #8]	; (4fc0 <Print_Leave_LoRa_Tx_Mode_Msg+0x18>)
    4fb8:	4b02      	ldr	r3, [pc, #8]	; (4fc4 <Print_Leave_LoRa_Tx_Mode_Msg+0x1c>)
    4fba:	4798      	blx	r3
    4fbc:	e7fa      	b.n	4fb4 <Print_Leave_LoRa_Tx_Mode_Msg+0xc>
    4fbe:	46c0      	nop			; (mov r8, r8)
    4fc0:	00008c34 	.word	0x00008c34
    4fc4:	00003101 	.word	0x00003101

00004fc8 <Print_CRC_ERROR>:
					
void Print_CRC_ERROR(volatile LORA_DEFINE_t *tmp_LORA)				
{
    4fc8:	b510      	push	{r4, lr}
	if(tmp_LORA->Lora_Debug_Flag == NoDebug) return;
    4fca:	2388      	movs	r3, #136	; 0x88
    4fcc:	009b      	lsls	r3, r3, #2
    4fce:	5cc3      	ldrb	r3, [r0, r3]
    4fd0:	2b00      	cmp	r3, #0
    4fd2:	d100      	bne.n	4fd6 <Print_CRC_ERROR+0xe>
	uart_str(&Msg_CRCErr[0]);
}
    4fd4:	bd10      	pop	{r4, pc}
	uart_str(&Msg_CRCErr[0]);
    4fd6:	4802      	ldr	r0, [pc, #8]	; (4fe0 <Print_CRC_ERROR+0x18>)
    4fd8:	4b02      	ldr	r3, [pc, #8]	; (4fe4 <Print_CRC_ERROR+0x1c>)
    4fda:	4798      	blx	r3
    4fdc:	e7fa      	b.n	4fd4 <Print_CRC_ERROR+0xc>
    4fde:	46c0      	nop			; (mov r8, r8)
    4fe0:	00008bd8 	.word	0x00008bd8
    4fe4:	00003101 	.word	0x00003101

00004fe8 <Print_CRC_OK>:


void Print_CRC_OK(volatile LORA_DEFINE_t *tmp_LORA)
{
    4fe8:	b510      	push	{r4, lr}
	if(tmp_LORA->Lora_Debug_Flag == NoDebug) return;
    4fea:	2388      	movs	r3, #136	; 0x88
    4fec:	009b      	lsls	r3, r3, #2
    4fee:	5cc3      	ldrb	r3, [r0, r3]
    4ff0:	2b00      	cmp	r3, #0
    4ff2:	d100      	bne.n	4ff6 <Print_CRC_OK+0xe>
	uart_str(&Msg_CRCOK[0]);
}
    4ff4:	bd10      	pop	{r4, pc}
	uart_str(&Msg_CRCOK[0]);
    4ff6:	4802      	ldr	r0, [pc, #8]	; (5000 <Print_CRC_OK+0x18>)
    4ff8:	4b02      	ldr	r3, [pc, #8]	; (5004 <Print_CRC_OK+0x1c>)
    4ffa:	4798      	blx	r3
    4ffc:	e7fa      	b.n	4ff4 <Print_CRC_OK+0xc>
    4ffe:	46c0      	nop			; (mov r8, r8)
    5000:	00008be4 	.word	0x00008be4
    5004:	00003101 	.word	0x00003101

00005008 <Print_One_RSSI_Msg>:




void Print_One_RSSI_Msg(volatile unsigned tmp_rssi)
{
    5008:	b530      	push	{r4, r5, lr}
    500a:	b083      	sub	sp, #12
    500c:	9001      	str	r0, [sp, #4]
	uTXByte(Debug_COM, ' ');
    500e:	4c0e      	ldr	r4, [pc, #56]	; (5048 <Print_One_RSSI_Msg+0x40>)
    5010:	2120      	movs	r1, #32
    5012:	0020      	movs	r0, r4
    5014:	4d0d      	ldr	r5, [pc, #52]	; (504c <Print_One_RSSI_Msg+0x44>)
    5016:	47a8      	blx	r5
	uTXByte(Debug_COM, '-');
    5018:	212d      	movs	r1, #45	; 0x2d
    501a:	0020      	movs	r0, r4
    501c:	47a8      	blx	r5
	uart_send_word(Debug_COM, hex_to_bcd(tmp_rssi));
    501e:	9801      	ldr	r0, [sp, #4]
    5020:	4b0b      	ldr	r3, [pc, #44]	; (5050 <Print_One_RSSI_Msg+0x48>)
    5022:	4798      	blx	r3
    5024:	0001      	movs	r1, r0
    5026:	0020      	movs	r0, r4
    5028:	4b0a      	ldr	r3, [pc, #40]	; (5054 <Print_One_RSSI_Msg+0x4c>)
    502a:	4798      	blx	r3
	uTXByte(Debug_COM, ' ');
    502c:	2120      	movs	r1, #32
    502e:	0020      	movs	r0, r4
    5030:	47a8      	blx	r5
	uTXByte(Debug_COM, 'd');
    5032:	2164      	movs	r1, #100	; 0x64
    5034:	0020      	movs	r0, r4
    5036:	47a8      	blx	r5
	uTXByte(Debug_COM, 'B');
    5038:	2142      	movs	r1, #66	; 0x42
    503a:	0020      	movs	r0, r4
    503c:	47a8      	blx	r5
	uTXByte(Debug_COM, 'm');
    503e:	216d      	movs	r1, #109	; 0x6d
    5040:	0020      	movs	r0, r4
    5042:	47a8      	blx	r5
}
    5044:	b003      	add	sp, #12
    5046:	bd30      	pop	{r4, r5, pc}
    5048:	200002f0 	.word	0x200002f0
    504c:	00005535 	.word	0x00005535
    5050:	000057f5 	.word	0x000057f5
    5054:	000055c9 	.word	0x000055c9

00005058 <Print_Wait_TX_Finish_Msg>:




void Print_Wait_TX_Finish_Msg(volatile LORA_DEFINE_t *tmp_LORA)
{
    5058:	b510      	push	{r4, lr}
	if(tmp_LORA->Lora_Debug_Flag == 0) return;
    505a:	2388      	movs	r3, #136	; 0x88
    505c:	009b      	lsls	r3, r3, #2
    505e:	5cc3      	ldrb	r3, [r0, r3]
    5060:	2b00      	cmp	r3, #0
    5062:	d100      	bne.n	5066 <Print_Wait_TX_Finish_Msg+0xe>
	uart_str(&Msg_WaitTXIRQ[0]);
}
    5064:	bd10      	pop	{r4, pc}
	uart_str(&Msg_WaitTXIRQ[0]);
    5066:	4802      	ldr	r0, [pc, #8]	; (5070 <Print_Wait_TX_Finish_Msg+0x18>)
    5068:	4b02      	ldr	r3, [pc, #8]	; (5074 <Print_Wait_TX_Finish_Msg+0x1c>)
    506a:	4798      	blx	r3
    506c:	e7fa      	b.n	5064 <Print_Wait_TX_Finish_Msg+0xc>
    506e:	46c0      	nop			; (mov r8, r8)
    5070:	00008ce8 	.word	0x00008ce8
    5074:	00003101 	.word	0x00003101

00005078 <tc_callback_to_to_period_51200us>:


void tc_callback_to_to_period_51200us(struct tc_module *const module_inst)
{
	//計數Dev List設定Polling的時間
	if(LORA01->Lora_Dev_Count_IRQ_Flag == 0)
    5078:	4b12      	ldr	r3, [pc, #72]	; (50c4 <tc_callback_to_to_period_51200us+0x4c>)
    507a:	681b      	ldr	r3, [r3, #0]
    507c:	4a12      	ldr	r2, [pc, #72]	; (50c8 <tc_callback_to_to_period_51200us+0x50>)
    507e:	5c9a      	ldrb	r2, [r3, r2]
    5080:	2a00      	cmp	r2, #0
    5082:	d107      	bne.n	5094 <tc_callback_to_to_period_51200us+0x1c>
	{
		if(LORA01->t2_tmp_count > 4)	//51.2ms * 5 = 256ms = 0.256 sec
    5084:	2290      	movs	r2, #144	; 0x90
    5086:	0092      	lsls	r2, r2, #2
    5088:	589a      	ldr	r2, [r3, r2]
    508a:	2a04      	cmp	r2, #4
    508c:	d914      	bls.n	50b8 <tc_callback_to_to_period_51200us+0x40>
		{
			LORA01->Lora_Dev_Count_IRQ_Flag = 1;
    508e:	2101      	movs	r1, #1
    5090:	4a0d      	ldr	r2, [pc, #52]	; (50c8 <tc_callback_to_to_period_51200us+0x50>)
    5092:	5499      	strb	r1, [r3, r2]
		{
			LORA01->t2_tmp_count++;
		}	
	}
	
	if(LORA01->Sensor_Count < 9)
    5094:	2291      	movs	r2, #145	; 0x91
    5096:	0092      	lsls	r2, r2, #2
    5098:	589a      	ldr	r2, [r3, r2]
    509a:	2a08      	cmp	r2, #8
    509c:	d804      	bhi.n	50a8 <tc_callback_to_to_period_51200us+0x30>
	{
		LORA01->Sensor_Count++;
    509e:	2191      	movs	r1, #145	; 0x91
    50a0:	0089      	lsls	r1, r1, #2
    50a2:	585a      	ldr	r2, [r3, r1]
    50a4:	3201      	adds	r2, #1
    50a6:	505a      	str	r2, [r3, r1]
		RS485_Time_Count++;
	}
	#endif
	
	#ifdef Dev_Sensor
	if(Dust_Time_Count < Dust_TimeOut_Max)
    50a8:	4b08      	ldr	r3, [pc, #32]	; (50cc <tc_callback_to_to_period_51200us+0x54>)
    50aa:	681b      	ldr	r3, [r3, #0]
    50ac:	2b04      	cmp	r3, #4
    50ae:	d802      	bhi.n	50b6 <tc_callback_to_to_period_51200us+0x3e>
	{
		Dust_Time_Count++;
    50b0:	3301      	adds	r3, #1
    50b2:	4a06      	ldr	r2, [pc, #24]	; (50cc <tc_callback_to_to_period_51200us+0x54>)
    50b4:	6013      	str	r3, [r2, #0]
	if(OverCount > 0)
	{
		OverCount--;
	}
	#endif
}
    50b6:	4770      	bx	lr
			LORA01->t2_tmp_count++;
    50b8:	2190      	movs	r1, #144	; 0x90
    50ba:	0089      	lsls	r1, r1, #2
    50bc:	585a      	ldr	r2, [r3, r1]
    50be:	3201      	adds	r2, #1
    50c0:	505a      	str	r2, [r3, r1]
    50c2:	e7e7      	b.n	5094 <tc_callback_to_to_period_51200us+0x1c>
    50c4:	20001944 	.word	0x20001944
    50c8:	00000227 	.word	0x00000227
    50cc:	200002ec 	.word	0x200002ec

000050d0 <tc_callback_to_to_period_200us>:


void tc_callback_to_to_period_200us(struct tc_module *const module_inst)
{
    50d0:	b510      	push	{r4, lr}
	usart_read_buffer_job(Debug_COM, (uint8_t *)user_rx_buffer, MAX_RX_BUFFER_LENGTH);	
    50d2:	2201      	movs	r2, #1
    50d4:	490f      	ldr	r1, [pc, #60]	; (5114 <tc_callback_to_to_period_200us+0x44>)
    50d6:	4810      	ldr	r0, [pc, #64]	; (5118 <tc_callback_to_to_period_200us+0x48>)
    50d8:	4b10      	ldr	r3, [pc, #64]	; (511c <tc_callback_to_to_period_200us+0x4c>)
    50da:	4798      	blx	r3
	if(LORA01->f_count < Timer_Timeout)
    50dc:	4b10      	ldr	r3, [pc, #64]	; (5120 <tc_callback_to_to_period_200us+0x50>)
    50de:	681b      	ldr	r3, [r3, #0]
    50e0:	228f      	movs	r2, #143	; 0x8f
    50e2:	0092      	lsls	r2, r2, #2
    50e4:	5899      	ldr	r1, [r3, r2]
    50e6:	4a0f      	ldr	r2, [pc, #60]	; (5124 <tc_callback_to_to_period_200us+0x54>)
    50e8:	4291      	cmp	r1, r2
    50ea:	d804      	bhi.n	50f6 <tc_callback_to_to_period_200us+0x26>
	{
		LORA01->f_count++;
    50ec:	218f      	movs	r1, #143	; 0x8f
    50ee:	0089      	lsls	r1, r1, #2
    50f0:	585a      	ldr	r2, [r3, r1]
    50f2:	3201      	adds	r2, #1
    50f4:	505a      	str	r2, [r3, r1]
	}
	if(LORA02->f_count < Timer_Timeout)
    50f6:	4b0c      	ldr	r3, [pc, #48]	; (5128 <tc_callback_to_to_period_200us+0x58>)
    50f8:	681b      	ldr	r3, [r3, #0]
    50fa:	228f      	movs	r2, #143	; 0x8f
    50fc:	0092      	lsls	r2, r2, #2
    50fe:	5899      	ldr	r1, [r3, r2]
    5100:	4a08      	ldr	r2, [pc, #32]	; (5124 <tc_callback_to_to_period_200us+0x54>)
    5102:	4291      	cmp	r1, r2
    5104:	d804      	bhi.n	5110 <tc_callback_to_to_period_200us+0x40>
	{
		LORA02->f_count++;
    5106:	218f      	movs	r1, #143	; 0x8f
    5108:	0089      	lsls	r1, r1, #2
    510a:	585a      	ldr	r2, [r3, r1]
    510c:	3201      	adds	r2, #1
    510e:	505a      	str	r2, [r3, r1]
	}
}
    5110:	bd10      	pop	{r4, pc}
    5112:	46c0      	nop			; (mov r8, r8)
    5114:	200002e8 	.word	0x200002e8
    5118:	200002f0 	.word	0x200002f0
    511c:	0000608d 	.word	0x0000608d
    5120:	20001944 	.word	0x20001944
    5124:	00004e1f 	.word	0x00004e1f
    5128:	20000d18 	.word	0x20000d18

0000512c <configure_tc>:

//! [setup]
void configure_tc(void)
{
    512c:	b510      	push	{r4, lr}
    512e:	b08e      	sub	sp, #56	; 0x38
	/* Sanity check arguments */
	Assert(config);

	/* Write default config to config struct */
	config->clock_source               = GCLK_GENERATOR_0;
	config->counter_size               = TC_COUNTER_SIZE_16BIT;
    5130:	aa01      	add	r2, sp, #4
    5132:	2300      	movs	r3, #0
    5134:	2100      	movs	r1, #0
    5136:	7093      	strb	r3, [r2, #2]
	config->clock_prescaler            = TC_CLOCK_PRESCALER_DIV1;
	config->wave_generation            = TC_WAVE_GENERATION_NORMAL_FREQ;
	config->reload_action              = TC_RELOAD_ACTION_GCLK;
    5138:	8113      	strh	r3, [r2, #8]
	config->run_in_standby             = false;
    513a:	2000      	movs	r0, #0
    513c:	7050      	strb	r0, [r2, #1]
#if (SAML21) || (SAML22) || (SAMC20) || (SAMC21) || (SAMR30)
	config->on_demand                  = false;
#endif
	config->waveform_invert_output     = TC_WAVEFORM_INVERT_OUTPUT_NONE;
    513e:	7291      	strb	r1, [r2, #10]
	config->enable_capture_on_channel[TC_COMPARE_CAPTURE_CHANNEL_0] = false;
    5140:	72d1      	strb	r1, [r2, #11]
	config->enable_capture_on_channel[TC_COMPARE_CAPTURE_CHANNEL_1] = false;
    5142:	7311      	strb	r1, [r2, #12]
#ifdef 	FEATURE_TC_IO_CAPTURE
	config->enable_capture_on_IO[TC_COMPARE_CAPTURE_CHANNEL_0] = false;
	config->enable_capture_on_IO[TC_COMPARE_CAPTURE_CHANNEL_1] = false;
#endif

	config->count_direction            = TC_COUNT_DIRECTION_UP;
    5144:	7391      	strb	r1, [r2, #14]
	config->oneshot                    = false;
    5146:	7351      	strb	r1, [r2, #13]

	config->pwm_channel[TC_COMPARE_CAPTURE_CHANNEL_0].enabled = false;
    5148:	7411      	strb	r1, [r2, #16]
	config->pwm_channel[TC_COMPARE_CAPTURE_CHANNEL_0].pin_out = 0;
    514a:	6153      	str	r3, [r2, #20]
	config->pwm_channel[TC_COMPARE_CAPTURE_CHANNEL_0].pin_mux = 0;
    514c:	6193      	str	r3, [r2, #24]

	config->pwm_channel[TC_COMPARE_CAPTURE_CHANNEL_1].enabled = false;
    514e:	7711      	strb	r1, [r2, #28]
	config->pwm_channel[TC_COMPARE_CAPTURE_CHANNEL_1].pin_out = 0;
    5150:	6213      	str	r3, [r2, #32]
	config->pwm_channel[TC_COMPARE_CAPTURE_CHANNEL_1].pin_mux = 0;
    5152:	6253      	str	r3, [r2, #36]	; 0x24

	config->counter_16_bit.value                   = 0x0000;
    5154:	8513      	strh	r3, [r2, #40]	; 0x28
	//! [setup_config_defaults]
	tc_get_config_defaults(&config_tc);
	//! [setup_config_defaults]

	//! [setup_change_config]
	config_tc.clock_source    = GCLK_GENERATOR_1;
    5156:	3301      	adds	r3, #1
    5158:	7013      	strb	r3, [r2, #0]
	config_tc.counter_size    = TC_COUNTER_SIZE_16BIT;
	config_tc.clock_prescaler  =TC_CLOCK_PRESCALER_DIV16;
    515a:	2380      	movs	r3, #128	; 0x80
    515c:	00db      	lsls	r3, r3, #3
    515e:	8093      	strh	r3, [r2, #4]
	config_tc.wave_generation = TC_WAVE_GENERATION_MATCH_FREQ;
    5160:	2320      	movs	r3, #32
    5162:	7193      	strb	r3, [r2, #6]
	config_tc.counter_16_bit.compare_capture_channel[0] = 50;
    5164:	3312      	adds	r3, #18
    5166:	8553      	strh	r3, [r2, #42]	; 0x2a
	config_tc.counter_16_bit.compare_capture_channel[1] = 50;
    5168:	8593      	strh	r3, [r2, #44]	; 0x2c
	
	tc_init(&MyTimer02, TC2, &config_tc);
    516a:	4c13      	ldr	r4, [pc, #76]	; (51b8 <configure_tc+0x8c>)
    516c:	4913      	ldr	r1, [pc, #76]	; (51bc <configure_tc+0x90>)
    516e:	0020      	movs	r0, r4
    5170:	4b13      	ldr	r3, [pc, #76]	; (51c0 <configure_tc+0x94>)
    5172:	4798      	blx	r3
	/* Sanity check arguments */
	Assert(module_inst);
	Assert(module_inst->hw);

	/* Get a pointer to the module's hardware instance */
	TcCount8 *const tc_module = &(module_inst->hw->COUNT8);
    5174:	6822      	ldr	r2, [r4, #0]
	return (tc_module->STATUS.reg & TC_STATUS_SYNCBUSY);
    5176:	7bd3      	ldrb	r3, [r2, #15]

	while (tc_is_syncing(module_inst)) {
    5178:	b25b      	sxtb	r3, r3
    517a:	2b00      	cmp	r3, #0
    517c:	dbfb      	blt.n	5176 <configure_tc+0x4a>
		/* Wait for sync */
	}

	/* Enable TC module */
	tc_module->CTRLA.reg |= TC_CTRLA_ENABLE;
    517e:	8813      	ldrh	r3, [r2, #0]
    5180:	2102      	movs	r1, #2
    5182:	430b      	orrs	r3, r1
    5184:	8013      	strh	r3, [r2, #0]
	tc_enable(&MyTimer02);

	config_tc.clock_prescaler  =TC_CLOCK_PRESCALER_DIV1024;
    5186:	aa01      	add	r2, sp, #4
    5188:	23e0      	movs	r3, #224	; 0xe0
    518a:	00db      	lsls	r3, r3, #3
    518c:	8093      	strh	r3, [r2, #4]
	config_tc.wave_generation = TC_WAVE_GENERATION_MATCH_FREQ;
    518e:	2320      	movs	r3, #32
    5190:	7193      	strb	r3, [r2, #6]
	config_tc.counter_16_bit.compare_capture_channel[0] = 50;
    5192:	3312      	adds	r3, #18
    5194:	8553      	strh	r3, [r2, #42]	; 0x2a
	config_tc.counter_16_bit.compare_capture_channel[1] = 50;
    5196:	8593      	strh	r3, [r2, #44]	; 0x2c
	tc_init(&MyTimer01, TC1, &config_tc);
    5198:	4c0a      	ldr	r4, [pc, #40]	; (51c4 <configure_tc+0x98>)
    519a:	490b      	ldr	r1, [pc, #44]	; (51c8 <configure_tc+0x9c>)
    519c:	0020      	movs	r0, r4
    519e:	4b08      	ldr	r3, [pc, #32]	; (51c0 <configure_tc+0x94>)
    51a0:	4798      	blx	r3
	TcCount8 *const tc_module = &(module_inst->hw->COUNT8);
    51a2:	6822      	ldr	r2, [r4, #0]
	return (tc_module->STATUS.reg & TC_STATUS_SYNCBUSY);
    51a4:	7bd3      	ldrb	r3, [r2, #15]
	while (tc_is_syncing(module_inst)) {
    51a6:	b25b      	sxtb	r3, r3
    51a8:	2b00      	cmp	r3, #0
    51aa:	dbfb      	blt.n	51a4 <configure_tc+0x78>
	tc_module->CTRLA.reg |= TC_CTRLA_ENABLE;
    51ac:	8813      	ldrh	r3, [r2, #0]
    51ae:	2102      	movs	r1, #2
    51b0:	430b      	orrs	r3, r1
    51b2:	8013      	strh	r3, [r2, #0]
	tc_enable(&MyTimer01);
	
	//! [setup_enable]
	
}
    51b4:	b00e      	add	sp, #56	; 0x38
    51b6:	bd10      	pop	{r4, pc}
    51b8:	20000318 	.word	0x20000318
    51bc:	42002800 	.word	0x42002800
    51c0:	00003b51 	.word	0x00003b51
    51c4:	200016b8 	.word	0x200016b8
    51c8:	42002400 	.word	0x42002400

000051cc <configure_tc_callbacks>:
//! [setup]
void configure_tc_callbacks(void)
{
    51cc:	b5f0      	push	{r4, r5, r6, r7, lr}
    51ce:	46d6      	mov	lr, sl
    51d0:	464f      	mov	r7, r9
    51d2:	4646      	mov	r6, r8
    51d4:	b5c0      	push	{r6, r7, lr}
	tc_register_callback(&MyTimer02, tc_callback_to_to_period_200us, TC_CALLBACK_CC_CHANNEL1);
    51d6:	4c1a      	ldr	r4, [pc, #104]	; (5240 <configure_tc_callbacks+0x74>)
    51d8:	2203      	movs	r2, #3
    51da:	491a      	ldr	r1, [pc, #104]	; (5244 <configure_tc_callbacks+0x78>)
    51dc:	0020      	movs	r0, r4
    51de:	4b1a      	ldr	r3, [pc, #104]	; (5248 <configure_tc_callbacks+0x7c>)
    51e0:	469a      	mov	sl, r3
    51e2:	4798      	blx	r3
	/* Sanity check arguments */
	Assert(module);


	/* Enable interrupts for this TC module */
	system_interrupt_enable(_tc_interrupt_get_interrupt_vector(_tc_get_inst_index(module->hw)));
    51e4:	6820      	ldr	r0, [r4, #0]
    51e6:	4b19      	ldr	r3, [pc, #100]	; (524c <configure_tc_callbacks+0x80>)
    51e8:	4699      	mov	r9, r3
    51ea:	4798      	blx	r3
	return (enum system_interrupt_vector)tc_interrupt_vectors[inst_num];
    51ec:	4b18      	ldr	r3, [pc, #96]	; (5250 <configure_tc_callbacks+0x84>)
    51ee:	4698      	mov	r8, r3
 * \param[in] vector Interrupt vector to enable
 */
static inline void system_interrupt_enable(
		const enum system_interrupt_vector vector)
{
	NVIC->ISER[0] = (uint32_t)(1 << ((uint32_t)vector & 0x0000001f));
    51f0:	5c1b      	ldrb	r3, [r3, r0]
    51f2:	261f      	movs	r6, #31
    51f4:	4033      	ands	r3, r6
    51f6:	2501      	movs	r5, #1
    51f8:	002a      	movs	r2, r5
    51fa:	409a      	lsls	r2, r3
    51fc:	4f15      	ldr	r7, [pc, #84]	; (5254 <configure_tc_callbacks+0x88>)
    51fe:	603a      	str	r2, [r7, #0]
	if (callback_type == TC_CALLBACK_CC_CHANNEL0) {
		module->enable_callback_mask |= TC_INTFLAG_MC(1);
		module->hw->COUNT8.INTENSET.reg = TC_INTFLAG_MC(1);
	}
	else if (callback_type == TC_CALLBACK_CC_CHANNEL1) {
		module->enable_callback_mask |= TC_INTFLAG_MC(2);
    5200:	7e63      	ldrb	r3, [r4, #25]
    5202:	2220      	movs	r2, #32
    5204:	4313      	orrs	r3, r2
    5206:	7663      	strb	r3, [r4, #25]
		module->hw->COUNT8.INTENSET.reg = TC_INTFLAG_MC(2);
    5208:	6823      	ldr	r3, [r4, #0]
    520a:	2220      	movs	r2, #32
    520c:	735a      	strb	r2, [r3, #13]
	tc_enable_callback(&MyTimer02, TC_CALLBACK_CC_CHANNEL1);
	
	tc_register_callback(&MyTimer01, tc_callback_to_to_period_51200us, TC_CALLBACK_CC_CHANNEL0);
    520e:	4c12      	ldr	r4, [pc, #72]	; (5258 <configure_tc_callbacks+0x8c>)
    5210:	3a1e      	subs	r2, #30
    5212:	4912      	ldr	r1, [pc, #72]	; (525c <configure_tc_callbacks+0x90>)
    5214:	0020      	movs	r0, r4
    5216:	47d0      	blx	sl
	system_interrupt_enable(_tc_interrupt_get_interrupt_vector(_tc_get_inst_index(module->hw)));
    5218:	6820      	ldr	r0, [r4, #0]
    521a:	47c8      	blx	r9
    521c:	4643      	mov	r3, r8
    521e:	5c1b      	ldrb	r3, [r3, r0]
    5220:	401e      	ands	r6, r3
    5222:	40b5      	lsls	r5, r6
    5224:	603d      	str	r5, [r7, #0]
		module->enable_callback_mask |= TC_INTFLAG_MC(1);
    5226:	7e63      	ldrb	r3, [r4, #25]
    5228:	2210      	movs	r2, #16
    522a:	4313      	orrs	r3, r2
    522c:	7663      	strb	r3, [r4, #25]
		module->hw->COUNT8.INTENSET.reg = TC_INTFLAG_MC(1);
    522e:	6823      	ldr	r3, [r4, #0]
    5230:	2210      	movs	r2, #16
    5232:	735a      	strb	r2, [r3, #13]
	tc_enable_callback(&MyTimer01, TC_CALLBACK_CC_CHANNEL0);
}
    5234:	bc1c      	pop	{r2, r3, r4}
    5236:	4690      	mov	r8, r2
    5238:	4699      	mov	r9, r3
    523a:	46a2      	mov	sl, r4
    523c:	bdf0      	pop	{r4, r5, r6, r7, pc}
    523e:	46c0      	nop			; (mov r8, r8)
    5240:	20000318 	.word	0x20000318
    5244:	000050d1 	.word	0x000050d1
    5248:	00003a21 	.word	0x00003a21
    524c:	00003b19 	.word	0x00003b19
    5250:	00008d10 	.word	0x00008d10
    5254:	e000e100 	.word	0xe000e100
    5258:	200016b8 	.word	0x200016b8
    525c:	00005079 	.word	0x00005079

00005260 <timer_configure>:

void timer_configure(void)
{
    5260:	b510      	push	{r4, lr}
	configure_tc();
    5262:	4b02      	ldr	r3, [pc, #8]	; (526c <timer_configure+0xc>)
    5264:	4798      	blx	r3
	configure_tc_callbacks();
    5266:	4b02      	ldr	r3, [pc, #8]	; (5270 <timer_configure+0x10>)
    5268:	4798      	blx	r3
    526a:	bd10      	pop	{r4, pc}
    526c:	0000512d 	.word	0x0000512d
    5270:	000051cd 	.word	0x000051cd

00005274 <Uart_Form_Sensor_Module_callback>:
}


void Uart_Form_Sensor_Module_callback(struct usart_module *const usart_module)
{
	if(Sensor_Module_RX_Count > Sensor_Module_RX_Count_Max)
    5274:	4b10      	ldr	r3, [pc, #64]	; (52b8 <Uart_Form_Sensor_Module_callback+0x44>)
    5276:	781b      	ldrb	r3, [r3, #0]
    5278:	2b18      	cmp	r3, #24
    527a:	d80e      	bhi.n	529a <Uart_Form_Sensor_Module_callback+0x26>
	{
		return;
	}
	Sensor_Module_Time_Count = 0;
    527c:	2100      	movs	r1, #0
    527e:	4a0f      	ldr	r2, [pc, #60]	; (52bc <Uart_Form_Sensor_Module_callback+0x48>)
    5280:	6011      	str	r1, [r2, #0]
	if(Sensor_Module_buffer[0] == 'S')
    5282:	4a0f      	ldr	r2, [pc, #60]	; (52c0 <Uart_Form_Sensor_Module_callback+0x4c>)
    5284:	7812      	ldrb	r2, [r2, #0]
    5286:	2a53      	cmp	r2, #83	; 0x53
    5288:	d008      	beq.n	529c <Uart_Form_Sensor_Module_callback+0x28>
		Sensor_Module_RX_Count = 0;
		Sensor_Module_Data[Sensor_Module_RX_Count] = Sensor_Module_buffer[0];
	}
	else
	{
		Sensor_Module_RX_Count++;
    528a:	3301      	adds	r3, #1
    528c:	b2db      	uxtb	r3, r3
    528e:	490a      	ldr	r1, [pc, #40]	; (52b8 <Uart_Form_Sensor_Module_callback+0x44>)
    5290:	700b      	strb	r3, [r1, #0]
		Sensor_Module_Data[Sensor_Module_RX_Count] = Sensor_Module_buffer[0];
    5292:	490c      	ldr	r1, [pc, #48]	; (52c4 <Uart_Form_Sensor_Module_callback+0x50>)
    5294:	54ca      	strb	r2, [r1, r3]
		if(Sensor_Module_RX_Count == Sensor_Module_RX_Count_Max)
    5296:	2b18      	cmp	r3, #24
    5298:	d007      	beq.n	52aa <Uart_Form_Sensor_Module_callback+0x36>
			{
				Dust_RX_Count = 0;
			}
		}
	}
}
    529a:	4770      	bx	lr
		Sensor_Module_RX_Count = 0;
    529c:	2200      	movs	r2, #0
    529e:	4b06      	ldr	r3, [pc, #24]	; (52b8 <Uart_Form_Sensor_Module_callback+0x44>)
    52a0:	701a      	strb	r2, [r3, #0]
		Sensor_Module_Data[Sensor_Module_RX_Count] = Sensor_Module_buffer[0];
    52a2:	3253      	adds	r2, #83	; 0x53
    52a4:	4b07      	ldr	r3, [pc, #28]	; (52c4 <Uart_Form_Sensor_Module_callback+0x50>)
    52a6:	701a      	strb	r2, [r3, #0]
    52a8:	e7f7      	b.n	529a <Uart_Form_Sensor_Module_callback+0x26>
			if(Sensor_Module_buffer[0] != 0x0d)
    52aa:	2a0d      	cmp	r2, #13
    52ac:	d0f5      	beq.n	529a <Uart_Form_Sensor_Module_callback+0x26>
				Dust_RX_Count = 0;
    52ae:	2200      	movs	r2, #0
    52b0:	4b05      	ldr	r3, [pc, #20]	; (52c8 <Uart_Form_Sensor_Module_callback+0x54>)
    52b2:	701a      	strb	r2, [r3, #0]
    52b4:	e7f1      	b.n	529a <Uart_Form_Sensor_Module_callback+0x26>
    52b6:	46c0      	nop			; (mov r8, r8)
    52b8:	200016d8 	.word	0x200016d8
    52bc:	20000f68 	.word	0x20000f68
    52c0:	200003a8 	.word	0x200003a8
    52c4:	20001984 	.word	0x20001984
    52c8:	20000d0d 	.word	0x20000d0d

000052cc <usart_read_callback>:


void usart_read_callback(struct usart_module *const usart_module)
{
	if(UserKeyInStauts == NOP)
    52cc:	4b17      	ldr	r3, [pc, #92]	; (532c <usart_read_callback+0x60>)
    52ce:	781b      	ldrb	r3, [r3, #0]
    52d0:	2b00      	cmp	r3, #0
    52d2:	d110      	bne.n	52f6 <usart_read_callback+0x2a>
	{
		//uTXByte(Debug_COM, user_rx_buffer[0]);
		UserKeyInBuf[UserKeyInBufCount] = user_rx_buffer[0];
    52d4:	4b16      	ldr	r3, [pc, #88]	; (5330 <usart_read_callback+0x64>)
    52d6:	781b      	ldrb	r3, [r3, #0]
    52d8:	4a16      	ldr	r2, [pc, #88]	; (5334 <usart_read_callback+0x68>)
    52da:	7812      	ldrb	r2, [r2, #0]
    52dc:	4916      	ldr	r1, [pc, #88]	; (5338 <usart_read_callback+0x6c>)
    52de:	54ca      	strb	r2, [r1, r3]
		if(UserKeyInBufCount < UserKeyInBufMax)
    52e0:	2b21      	cmp	r3, #33	; 0x21
    52e2:	d802      	bhi.n	52ea <usart_read_callback+0x1e>
		{
			UserKeyInBufCount++;
    52e4:	3301      	adds	r3, #1
    52e6:	4912      	ldr	r1, [pc, #72]	; (5330 <usart_read_callback+0x64>)
    52e8:	700b      	strb	r3, [r1, #0]
		}
		
		//if(user_rx_buffer[0] == 0x0d || user_rx_buffer[0] == 'z'  || user_rx_buffer[0] == 'Z' )
		if(user_rx_buffer[0] == 0x0d)
    52ea:	2a0d      	cmp	r2, #13
    52ec:	d004      	beq.n	52f8 <usart_read_callback+0x2c>
			{
				UserKeyInBufCount = 0;
			}
		}
		else
		if(user_rx_buffer[0] == 0x08)
    52ee:	2a08      	cmp	r2, #8
    52f0:	d00e      	beq.n	5310 <usart_read_callback+0x44>
				UserKeyInBufCount--;
				UserKeyInBufCount--;
			}
		}
		else
		if(user_rx_buffer[0] == 0x0A)
    52f2:	2a0a      	cmp	r2, #10
    52f4:	d014      	beq.n	5320 <usart_read_callback+0x54>
		{
			UserKeyInBufCount--;
		}
	}
}
    52f6:	4770      	bx	lr
			if(UserKeyInBufCount > 1)
    52f8:	4b0d      	ldr	r3, [pc, #52]	; (5330 <usart_read_callback+0x64>)
    52fa:	781b      	ldrb	r3, [r3, #0]
    52fc:	2b01      	cmp	r3, #1
    52fe:	d903      	bls.n	5308 <usart_read_callback+0x3c>
				UserKeyInStauts = UserKeyInEnterIndex;	
    5300:	3a0c      	subs	r2, #12
    5302:	4b0a      	ldr	r3, [pc, #40]	; (532c <usart_read_callback+0x60>)
    5304:	701a      	strb	r2, [r3, #0]
    5306:	e7f6      	b.n	52f6 <usart_read_callback+0x2a>
				UserKeyInBufCount = 0;
    5308:	2200      	movs	r2, #0
    530a:	4b09      	ldr	r3, [pc, #36]	; (5330 <usart_read_callback+0x64>)
    530c:	701a      	strb	r2, [r3, #0]
    530e:	e7f2      	b.n	52f6 <usart_read_callback+0x2a>
			if(UserKeyInBufCount > 2)
    5310:	4b07      	ldr	r3, [pc, #28]	; (5330 <usart_read_callback+0x64>)
    5312:	781b      	ldrb	r3, [r3, #0]
    5314:	2b02      	cmp	r3, #2
    5316:	d9ee      	bls.n	52f6 <usart_read_callback+0x2a>
				UserKeyInBufCount--;
    5318:	3b02      	subs	r3, #2
    531a:	4a05      	ldr	r2, [pc, #20]	; (5330 <usart_read_callback+0x64>)
    531c:	7013      	strb	r3, [r2, #0]
    531e:	e7ea      	b.n	52f6 <usart_read_callback+0x2a>
			UserKeyInBufCount--;
    5320:	4a03      	ldr	r2, [pc, #12]	; (5330 <usart_read_callback+0x64>)
    5322:	7813      	ldrb	r3, [r2, #0]
    5324:	3b01      	subs	r3, #1
    5326:	7013      	strb	r3, [r2, #0]
}
    5328:	e7e5      	b.n	52f6 <usart_read_callback+0x2a>
    532a:	46c0      	nop			; (mov r8, r8)
    532c:	20000d1c 	.word	0x20000d1c
    5330:	200003a6 	.word	0x200003a6
    5334:	200002e8 	.word	0x200002e8
    5338:	20000358 	.word	0x20000358

0000533c <Uart_Form_LORA01_callback>:
{
    533c:	b510      	push	{r4, lr}
	if(LORA01->MyBufferCount <= LORA01->UserRxCountMax)
    533e:	4b0c      	ldr	r3, [pc, #48]	; (5370 <Uart_Form_LORA01_callback+0x34>)
    5340:	6818      	ldr	r0, [r3, #0]
    5342:	7f83      	ldrb	r3, [r0, #30]
    5344:	7f42      	ldrb	r2, [r0, #29]
    5346:	b2db      	uxtb	r3, r3
    5348:	4293      	cmp	r3, r2
    534a:	d900      	bls.n	534e <Uart_Form_LORA01_callback+0x12>
}
    534c:	bd10      	pop	{r4, pc}
		change_and_check(&(LORA01->MyBuffer[LORA01->MyBufferCount]), LORA01->rx_buffer[0]);
    534e:	7f83      	ldrb	r3, [r0, #30]
    5350:	7f01      	ldrb	r1, [r0, #28]
    5352:	b2c9      	uxtb	r1, r1
    5354:	331f      	adds	r3, #31
    5356:	18c0      	adds	r0, r0, r3
    5358:	4c06      	ldr	r4, [pc, #24]	; (5374 <Uart_Form_LORA01_callback+0x38>)
    535a:	47a0      	blx	r4
		change_and_check(&(LORA01->MyBufferCount), ++LORA01->MyBufferCount);
    535c:	4b04      	ldr	r3, [pc, #16]	; (5370 <Uart_Form_LORA01_callback+0x34>)
    535e:	6818      	ldr	r0, [r3, #0]
    5360:	7f81      	ldrb	r1, [r0, #30]
    5362:	3101      	adds	r1, #1
    5364:	b2c9      	uxtb	r1, r1
    5366:	7781      	strb	r1, [r0, #30]
    5368:	301e      	adds	r0, #30
    536a:	47a0      	blx	r4
}
    536c:	e7ee      	b.n	534c <Uart_Form_LORA01_callback+0x10>
    536e:	46c0      	nop			; (mov r8, r8)
    5370:	20001944 	.word	0x20001944
    5374:	000040f9 	.word	0x000040f9

00005378 <configure_usart>:
}
//! [callback_funcs]

//! [setup]
void configure_usart(void)
{
    5378:	b530      	push	{r4, r5, lr}
    537a:	b08d      	sub	sp, #52	; 0x34
{
	/* Sanity check arguments */
	Assert(config);

	/* Set default config in the config struct */
	config->data_order       = USART_DATAORDER_LSB;
    537c:	2380      	movs	r3, #128	; 0x80
    537e:	05db      	lsls	r3, r3, #23
    5380:	9300      	str	r3, [sp, #0]
	config->transfer_mode    = USART_TRANSFER_ASYNCHRONOUSLY;
    5382:	2300      	movs	r3, #0
    5384:	9301      	str	r3, [sp, #4]
	config->parity           = USART_PARITY_NONE;
    5386:	22ff      	movs	r2, #255	; 0xff
    5388:	4669      	mov	r1, sp
    538a:	810a      	strh	r2, [r1, #8]
	config->stopbits         = USART_STOPBITS_1;
    538c:	728b      	strb	r3, [r1, #10]
	config->character_size   = USART_CHARACTER_SIZE_8BIT;
    538e:	72cb      	strb	r3, [r1, #11]
	config->baudrate         = 9600;
	config->receiver_enable  = true;
    5390:	2201      	movs	r2, #1
    5392:	750a      	strb	r2, [r1, #20]
	config->transmitter_enable = true;
    5394:	754a      	strb	r2, [r1, #21]
	config->clock_polarity_inverted = false;
    5396:	758b      	strb	r3, [r1, #22]
	config->use_external_clock = false;
    5398:	75cb      	strb	r3, [r1, #23]
	config->ext_clock_freq   = 0;
    539a:	9306      	str	r3, [sp, #24]
	config->mux_setting      = USART_RX_1_TX_2_XCK_3;
	config->run_in_standby   = false;
    539c:	770b      	strb	r3, [r1, #28]
	config->generator_source = GCLK_GENERATOR_0;
    539e:	774b      	strb	r3, [r1, #29]
	//! [setup_config_defaults]
	usart_get_config_defaults(&config_usart);
	//! [setup_config_defaults]

	//! [setup_change_config]
	config_usart.baudrate    = 115200;
    53a0:	23e1      	movs	r3, #225	; 0xe1
    53a2:	025b      	lsls	r3, r3, #9
    53a4:	9304      	str	r3, [sp, #16]
	config_usart.mux_setting = USART_RX_3_TX_2_XCK_3;
    53a6:	23c4      	movs	r3, #196	; 0xc4
    53a8:	039b      	lsls	r3, r3, #14
    53aa:	9303      	str	r3, [sp, #12]
	config_usart.pinmux_pad0 = PINMUX_UNUSED;
    53ac:	2301      	movs	r3, #1
    53ae:	425b      	negs	r3, r3
    53b0:	9308      	str	r3, [sp, #32]
	config_usart.pinmux_pad1 = PINMUX_UNUSED;
    53b2:	9309      	str	r3, [sp, #36]	; 0x24
	//! [setup_change_config]
	config_usart.baudrate    = 115200;
	config_usart.mux_setting = USART_RX_3_TX_2_XCK_3;
	config_usart.pinmux_pad0 = PINMUX_UNUSED;
	config_usart.pinmux_pad1 = PINMUX_UNUSED;
	config_usart.pinmux_pad2 = PINMUX_PA18C_SERCOM1_PAD2;
    53b4:	4b3a      	ldr	r3, [pc, #232]	; (54a0 <configure_usart+0x128>)
    53b6:	930a      	str	r3, [sp, #40]	; 0x28
	config_usart.pinmux_pad3 = PINMUX_PA19C_SERCOM1_PAD3;
    53b8:	4b3a      	ldr	r3, [pc, #232]	; (54a4 <configure_usart+0x12c>)
    53ba:	930b      	str	r3, [sp, #44]	; 0x2c
	config_usart.parity		 = USART_PARITY_NONE;
	while (usart_init(&MyUart02,SERCOM1, &config_usart) != STATUS_OK);
    53bc:	4d3a      	ldr	r5, [pc, #232]	; (54a8 <configure_usart+0x130>)
    53be:	4c3b      	ldr	r4, [pc, #236]	; (54ac <configure_usart+0x134>)
    53c0:	466a      	mov	r2, sp
    53c2:	493b      	ldr	r1, [pc, #236]	; (54b0 <configure_usart+0x138>)
    53c4:	0028      	movs	r0, r5
    53c6:	47a0      	blx	r4
    53c8:	2800      	cmp	r0, #0
    53ca:	d1f9      	bne.n	53c0 <configure_usart+0x48>
	/* Sanity check arguments */
	Assert(module);
	Assert(module->hw);

	/* Get a pointer to the hardware module instance */
	SercomUsart *const usart_hw = &(module->hw->USART);
    53cc:	4d36      	ldr	r5, [pc, #216]	; (54a8 <configure_usart+0x130>)
    53ce:	682c      	ldr	r4, [r5, #0]

#if USART_CALLBACK_MODE == true
	/* Enable Global interrupt for module */
	system_interrupt_enable(_sercom_get_interrupt_vector(module->hw));
    53d0:	0020      	movs	r0, r4
    53d2:	4b38      	ldr	r3, [pc, #224]	; (54b4 <configure_usart+0x13c>)
    53d4:	4798      	blx	r3
    53d6:	231f      	movs	r3, #31
    53d8:	4018      	ands	r0, r3
    53da:	3b1e      	subs	r3, #30
    53dc:	4083      	lsls	r3, r0
    53de:	4a36      	ldr	r2, [pc, #216]	; (54b8 <configure_usart+0x140>)
    53e0:	6013      	str	r3, [r2, #0]
	SercomUsart *const usart_hw = &(module->hw->USART);
    53e2:	682a      	ldr	r2, [r5, #0]
	return (usart_hw->STATUS.reg & SERCOM_USART_STATUS_SYNCBUSY);
    53e4:	8a13      	ldrh	r3, [r2, #16]
	while (usart_is_syncing(module)) {
    53e6:	b21b      	sxth	r3, r3
    53e8:	2b00      	cmp	r3, #0
    53ea:	dbfb      	blt.n	53e4 <configure_usart+0x6c>

	/* Wait until synchronization is complete */
	_usart_wait_for_sync(module);

	/* Enable USART module */
	usart_hw->CTRLA.reg |= SERCOM_USART_CTRLA_ENABLE;
    53ec:	6823      	ldr	r3, [r4, #0]
    53ee:	2202      	movs	r2, #2
    53f0:	4313      	orrs	r3, r2
    53f2:	6023      	str	r3, [r4, #0]
	
	
	
	
	//! [setup_change_config]
	config_usart.baudrate    = 115200;
    53f4:	23e1      	movs	r3, #225	; 0xe1
    53f6:	025b      	lsls	r3, r3, #9
    53f8:	9304      	str	r3, [sp, #16]
	config_usart.mux_setting = USART_RX_3_TX_2_XCK_3;
    53fa:	23c4      	movs	r3, #196	; 0xc4
    53fc:	039b      	lsls	r3, r3, #14
    53fe:	9303      	str	r3, [sp, #12]
	config_usart.pinmux_pad0 = PINMUX_UNUSED;
    5400:	2301      	movs	r3, #1
    5402:	425b      	negs	r3, r3
    5404:	9308      	str	r3, [sp, #32]
	config_usart.pinmux_pad1 = PINMUX_UNUSED;
    5406:	9309      	str	r3, [sp, #36]	; 0x24
	config_usart.pinmux_pad2 = PINMUX_PA14C_SERCOM2_PAD2;
    5408:	4b2c      	ldr	r3, [pc, #176]	; (54bc <configure_usart+0x144>)
    540a:	930a      	str	r3, [sp, #40]	; 0x28
	config_usart.pinmux_pad3 = PINMUX_PA15C_SERCOM2_PAD3;
    540c:	4b2c      	ldr	r3, [pc, #176]	; (54c0 <configure_usart+0x148>)
    540e:	930b      	str	r3, [sp, #44]	; 0x2c
	while (usart_init(&MyUart03,SERCOM2, &config_usart) != STATUS_OK);
    5410:	4d2c      	ldr	r5, [pc, #176]	; (54c4 <configure_usart+0x14c>)
    5412:	4c26      	ldr	r4, [pc, #152]	; (54ac <configure_usart+0x134>)
    5414:	466a      	mov	r2, sp
    5416:	492c      	ldr	r1, [pc, #176]	; (54c8 <configure_usart+0x150>)
    5418:	0028      	movs	r0, r5
    541a:	47a0      	blx	r4
    541c:	2800      	cmp	r0, #0
    541e:	d1f9      	bne.n	5414 <configure_usart+0x9c>
	SercomUsart *const usart_hw = &(module->hw->USART);
    5420:	4d28      	ldr	r5, [pc, #160]	; (54c4 <configure_usart+0x14c>)
    5422:	682c      	ldr	r4, [r5, #0]
	system_interrupt_enable(_sercom_get_interrupt_vector(module->hw));
    5424:	0020      	movs	r0, r4
    5426:	4b23      	ldr	r3, [pc, #140]	; (54b4 <configure_usart+0x13c>)
    5428:	4798      	blx	r3
    542a:	231f      	movs	r3, #31
    542c:	4018      	ands	r0, r3
    542e:	3b1e      	subs	r3, #30
    5430:	4083      	lsls	r3, r0
    5432:	4a21      	ldr	r2, [pc, #132]	; (54b8 <configure_usart+0x140>)
    5434:	6013      	str	r3, [r2, #0]
	SercomUsart *const usart_hw = &(module->hw->USART);
    5436:	682a      	ldr	r2, [r5, #0]
	return (usart_hw->STATUS.reg & SERCOM_USART_STATUS_SYNCBUSY);
    5438:	8a13      	ldrh	r3, [r2, #16]
	while (usart_is_syncing(module)) {
    543a:	b21b      	sxth	r3, r3
    543c:	2b00      	cmp	r3, #0
    543e:	dbfb      	blt.n	5438 <configure_usart+0xc0>
	usart_hw->CTRLA.reg |= SERCOM_USART_CTRLA_ENABLE;
    5440:	6823      	ldr	r3, [r4, #0]
    5442:	2202      	movs	r2, #2
    5444:	4313      	orrs	r3, r2
    5446:	6023      	str	r3, [r4, #0]

	
	
	#if defined(Dev_Sensor)
		//config_usart.baudrate    = 2400;	//dust
		config_usart.baudrate    = 115200;
    5448:	23e1      	movs	r3, #225	; 0xe1
    544a:	025b      	lsls	r3, r3, #9
    544c:	9304      	str	r3, [sp, #16]
	#elif defined(Dev_Feed_Weigher)
		config_usart.baudrate    = 9600;
	#elif defined(Dev_Repeater)
		config_usart.baudrate    = 115200;
	#endif
	config_usart.mux_setting = USART_RX_1_TX_0_XCK_1 ;
    544e:	2380      	movs	r3, #128	; 0x80
    5450:	035b      	lsls	r3, r3, #13
    5452:	9303      	str	r3, [sp, #12]
	config_usart.pinmux_pad0 = PINMUX_PA08C_SERCOM0_PAD0;
    5454:	4b1d      	ldr	r3, [pc, #116]	; (54cc <configure_usart+0x154>)
    5456:	9308      	str	r3, [sp, #32]
	config_usart.pinmux_pad1 = PINMUX_PA09C_SERCOM0_PAD1;
    5458:	4b1d      	ldr	r3, [pc, #116]	; (54d0 <configure_usart+0x158>)
    545a:	9309      	str	r3, [sp, #36]	; 0x24
	config_usart.pinmux_pad2 = PINMUX_UNUSED;
    545c:	2301      	movs	r3, #1
    545e:	425b      	negs	r3, r3
    5460:	930a      	str	r3, [sp, #40]	; 0x28
	config_usart.pinmux_pad3 = PINMUX_UNUSED;
    5462:	930b      	str	r3, [sp, #44]	; 0x2c
	while (usart_init(&MyUart04,SERCOM0, &config_usart) != STATUS_OK);
    5464:	4d1b      	ldr	r5, [pc, #108]	; (54d4 <configure_usart+0x15c>)
    5466:	4c11      	ldr	r4, [pc, #68]	; (54ac <configure_usart+0x134>)
    5468:	466a      	mov	r2, sp
    546a:	491b      	ldr	r1, [pc, #108]	; (54d8 <configure_usart+0x160>)
    546c:	0028      	movs	r0, r5
    546e:	47a0      	blx	r4
    5470:	2800      	cmp	r0, #0
    5472:	d1f9      	bne.n	5468 <configure_usart+0xf0>
	SercomUsart *const usart_hw = &(module->hw->USART);
    5474:	4d17      	ldr	r5, [pc, #92]	; (54d4 <configure_usart+0x15c>)
    5476:	682c      	ldr	r4, [r5, #0]
	system_interrupt_enable(_sercom_get_interrupt_vector(module->hw));
    5478:	0020      	movs	r0, r4
    547a:	4b0e      	ldr	r3, [pc, #56]	; (54b4 <configure_usart+0x13c>)
    547c:	4798      	blx	r3
    547e:	231f      	movs	r3, #31
    5480:	4018      	ands	r0, r3
    5482:	3b1e      	subs	r3, #30
    5484:	4083      	lsls	r3, r0
    5486:	4a0c      	ldr	r2, [pc, #48]	; (54b8 <configure_usart+0x140>)
    5488:	6013      	str	r3, [r2, #0]
	SercomUsart *const usart_hw = &(module->hw->USART);
    548a:	682a      	ldr	r2, [r5, #0]
	return (usart_hw->STATUS.reg & SERCOM_USART_STATUS_SYNCBUSY);
    548c:	8a13      	ldrh	r3, [r2, #16]
	while (usart_is_syncing(module)) {
    548e:	b21b      	sxth	r3, r3
    5490:	2b00      	cmp	r3, #0
    5492:	dbfb      	blt.n	548c <configure_usart+0x114>
	usart_hw->CTRLA.reg |= SERCOM_USART_CTRLA_ENABLE;
    5494:	6823      	ldr	r3, [r4, #0]
    5496:	2202      	movs	r2, #2
    5498:	4313      	orrs	r3, r2
    549a:	6023      	str	r3, [r4, #0]
	usart_enable(&MyUart04);
}
    549c:	b00d      	add	sp, #52	; 0x34
    549e:	bd30      	pop	{r4, r5, pc}
    54a0:	00120002 	.word	0x00120002
    54a4:	00130002 	.word	0x00130002
    54a8:	200002f0 	.word	0x200002f0
    54ac:	00005db5 	.word	0x00005db5
    54b0:	42000c00 	.word	0x42000c00
    54b4:	00005d51 	.word	0x00005d51
    54b8:	e000e100 	.word	0xe000e100
    54bc:	000e0002 	.word	0x000e0002
    54c0:	000f0002 	.word	0x000f0002
    54c4:	2000195c 	.word	0x2000195c
    54c8:	42001000 	.word	0x42001000
    54cc:	00080002 	.word	0x00080002
    54d0:	00090002 	.word	0x00090002
    54d4:	2000284c 	.word	0x2000284c
    54d8:	42000800 	.word	0x42000800

000054dc <configure_usart_callbacks>:

void configure_usart_callbacks(void)
{
    54dc:	b5f8      	push	{r3, r4, r5, r6, r7, lr}
		usart_register_callback(&MyUart01,
			Uart_Form_RS485_callback, USART_CALLBACK_BUFFER_RECEIVED);
	#endif
	
		
	usart_register_callback(&MyUart02,
    54de:	4e0e      	ldr	r6, [pc, #56]	; (5518 <configure_usart_callbacks+0x3c>)
    54e0:	2201      	movs	r2, #1
    54e2:	490e      	ldr	r1, [pc, #56]	; (551c <configure_usart_callbacks+0x40>)
    54e4:	0030      	movs	r0, r6
    54e6:	4f0e      	ldr	r7, [pc, #56]	; (5520 <configure_usart_callbacks+0x44>)
    54e8:	47b8      	blx	r7
			usart_read_callback, USART_CALLBACK_BUFFER_RECEIVED);
	usart_register_callback(&MyUart03,
    54ea:	4d0e      	ldr	r5, [pc, #56]	; (5524 <configure_usart_callbacks+0x48>)
    54ec:	2201      	movs	r2, #1
    54ee:	490e      	ldr	r1, [pc, #56]	; (5528 <configure_usart_callbacks+0x4c>)
    54f0:	0028      	movs	r0, r5
    54f2:	47b8      	blx	r7
			Uart_Form_LORA02_callback, USART_CALLBACK_BUFFER_RECEIVED);
	#endif
	#ifdef Dev_Sensor
		//usart_register_callback(&MyUart04,
		//	Uart_Form_Dust_callback, USART_CALLBACK_BUFFER_RECEIVED);
		usart_register_callback(&MyUart04,	Uart_Form_Sensor_Module_callback, USART_CALLBACK_BUFFER_RECEIVED);
    54f4:	4c0d      	ldr	r4, [pc, #52]	; (552c <configure_usart_callbacks+0x50>)
    54f6:	2201      	movs	r2, #1
    54f8:	490d      	ldr	r1, [pc, #52]	; (5530 <configure_usart_callbacks+0x54>)
    54fa:	0020      	movs	r0, r4
    54fc:	47b8      	blx	r7
{
	/* Sanity check arguments */
	Assert(module);

	/* Enable callback */
	module->callback_enable_mask |= (1 << callback_type);
    54fe:	2321      	movs	r3, #33	; 0x21
    5500:	2102      	movs	r1, #2
    5502:	5cf2      	ldrb	r2, [r6, r3]
    5504:	430a      	orrs	r2, r1
    5506:	54f2      	strb	r2, [r6, r3]
    5508:	5cea      	ldrb	r2, [r5, r3]
    550a:	430a      	orrs	r2, r1
    550c:	54ea      	strb	r2, [r5, r3]
    550e:	5ce2      	ldrb	r2, [r4, r3]
    5510:	430a      	orrs	r2, r1
    5512:	54e2      	strb	r2, [r4, r3]
	#endif
	usart_enable_callback(&MyUart02, USART_CALLBACK_BUFFER_RECEIVED);
	usart_enable_callback(&MyUart03, USART_CALLBACK_BUFFER_RECEIVED);
	usart_enable_callback(&MyUart04, USART_CALLBACK_BUFFER_RECEIVED);
	//! [setup_enable_callbacks]
}
    5514:	bdf8      	pop	{r3, r4, r5, r6, r7, pc}
    5516:	46c0      	nop			; (mov r8, r8)
    5518:	200002f0 	.word	0x200002f0
    551c:	000052cd 	.word	0x000052cd
    5520:	00006075 	.word	0x00006075
    5524:	2000195c 	.word	0x2000195c
    5528:	0000533d 	.word	0x0000533d
    552c:	2000284c 	.word	0x2000284c
    5530:	00005275 	.word	0x00005275

00005534 <uTXByte>:
	}
	uTXByte(Debug_COM, ']');
}

void uTXByte(struct usart_module *const usart_module, uint8_t tmp_data)
{
    5534:	b510      	push	{r4, lr}
	usart_write_wait(usart_module, tmp_data);
    5536:	b289      	uxth	r1, r1
    5538:	4b01      	ldr	r3, [pc, #4]	; (5540 <uTXByte+0xc>)
    553a:	4798      	blx	r3
}
    553c:	bd10      	pop	{r4, pc}
    553e:	46c0      	nop			; (mov r8, r8)
    5540:	00006009 	.word	0x00006009

00005544 <hex_to_ascii>:

unsigned char hex_to_ascii(unsigned char tmp)
{
	if(tmp > 9)
    5544:	2809      	cmp	r0, #9
    5546:	d802      	bhi.n	554e <hex_to_ascii+0xa>
	{
		return (tmp + 0x37);
	}
	else
	{
		return (tmp + 0x30);
    5548:	3030      	adds	r0, #48	; 0x30
    554a:	b2c0      	uxtb	r0, r0
	}
}
    554c:	4770      	bx	lr
		return (tmp + 0x37);
    554e:	3037      	adds	r0, #55	; 0x37
    5550:	b2c0      	uxtb	r0, r0
    5552:	e7fb      	b.n	554c <hex_to_ascii+0x8>

00005554 <uart_send_ascii_byte>:
{
    5554:	b5f8      	push	{r3, r4, r5, r6, r7, lr}
    5556:	0005      	movs	r5, r0
    5558:	000c      	movs	r4, r1
	uTXByte(usart_module, hex_to_ascii(tmp8.HL.H));
    555a:	0908      	lsrs	r0, r1, #4
    555c:	4f06      	ldr	r7, [pc, #24]	; (5578 <uart_send_ascii_byte+0x24>)
    555e:	47b8      	blx	r7
	usart_write_wait(usart_module, tmp_data);
    5560:	b281      	uxth	r1, r0
    5562:	0028      	movs	r0, r5
    5564:	4e05      	ldr	r6, [pc, #20]	; (557c <uart_send_ascii_byte+0x28>)
    5566:	47b0      	blx	r6
	uTXByte(usart_module, hex_to_ascii(tmp8.HL.L));
    5568:	0720      	lsls	r0, r4, #28
    556a:	0f00      	lsrs	r0, r0, #28
    556c:	47b8      	blx	r7
	usart_write_wait(usart_module, tmp_data);
    556e:	b281      	uxth	r1, r0
    5570:	0028      	movs	r0, r5
    5572:	47b0      	blx	r6
}
    5574:	bdf8      	pop	{r3, r4, r5, r6, r7, pc}
    5576:	46c0      	nop			; (mov r8, r8)
    5578:	00005545 	.word	0x00005545
    557c:	00006009 	.word	0x00006009

00005580 <Print_Write_Buffer>:
{
    5580:	b5f8      	push	{r3, r4, r5, r6, r7, lr}
	usart_write_wait(usart_module, tmp_data);
    5582:	4d0d      	ldr	r5, [pc, #52]	; (55b8 <Print_Write_Buffer+0x38>)
    5584:	215b      	movs	r1, #91	; 0x5b
    5586:	0028      	movs	r0, r5
    5588:	4c0c      	ldr	r4, [pc, #48]	; (55bc <Print_Write_Buffer+0x3c>)
    558a:	47a0      	blx	r4
    558c:	2120      	movs	r1, #32
    558e:	0028      	movs	r0, r5
    5590:	47a0      	blx	r4
    5592:	4c0b      	ldr	r4, [pc, #44]	; (55c0 <Print_Write_Buffer+0x40>)
    5594:	0025      	movs	r5, r4
    5596:	3512      	adds	r5, #18
		uart_send_ascii_byte(Debug_COM, WriteBufferHex[i]);
    5598:	4f0a      	ldr	r7, [pc, #40]	; (55c4 <Print_Write_Buffer+0x44>)
	usart_write_wait(usart_module, tmp_data);
    559a:	4e08      	ldr	r6, [pc, #32]	; (55bc <Print_Write_Buffer+0x3c>)
		uart_send_ascii_byte(Debug_COM, WriteBufferHex[i]);
    559c:	7821      	ldrb	r1, [r4, #0]
    559e:	4806      	ldr	r0, [pc, #24]	; (55b8 <Print_Write_Buffer+0x38>)
    55a0:	47b8      	blx	r7
	usart_write_wait(usart_module, tmp_data);
    55a2:	2120      	movs	r1, #32
    55a4:	4804      	ldr	r0, [pc, #16]	; (55b8 <Print_Write_Buffer+0x38>)
    55a6:	47b0      	blx	r6
    55a8:	3401      	adds	r4, #1
	for(unsigned char i = 0; i < 18; i++)
    55aa:	42a5      	cmp	r5, r4
    55ac:	d1f6      	bne.n	559c <Print_Write_Buffer+0x1c>
	usart_write_wait(usart_module, tmp_data);
    55ae:	215d      	movs	r1, #93	; 0x5d
    55b0:	4801      	ldr	r0, [pc, #4]	; (55b8 <Print_Write_Buffer+0x38>)
    55b2:	4b02      	ldr	r3, [pc, #8]	; (55bc <Print_Write_Buffer+0x3c>)
    55b4:	4798      	blx	r3
}
    55b6:	bdf8      	pop	{r3, r4, r5, r6, r7, pc}
    55b8:	200002f0 	.word	0x200002f0
    55bc:	00006009 	.word	0x00006009
    55c0:	2000281c 	.word	0x2000281c
    55c4:	00005555 	.word	0x00005555

000055c8 <uart_send_word>:
{
    55c8:	b5f0      	push	{r4, r5, r6, r7, lr}
    55ca:	b083      	sub	sp, #12
    55cc:	9001      	str	r0, [sp, #4]
    55ce:	000c      	movs	r4, r1
	tmp8.byte = tmp16.byte[1];
    55d0:	0408      	lsls	r0, r1, #16
	uTXByte(usart_module, hex_to_ascii(tmp8.HL.H));
    55d2:	0e06      	lsrs	r6, r0, #24
    55d4:	0f00      	lsrs	r0, r0, #28
    55d6:	4d0d      	ldr	r5, [pc, #52]	; (560c <uart_send_word+0x44>)
    55d8:	47a8      	blx	r5
	usart_write_wait(usart_module, tmp_data);
    55da:	b281      	uxth	r1, r0
    55dc:	9801      	ldr	r0, [sp, #4]
    55de:	4f0c      	ldr	r7, [pc, #48]	; (5610 <uart_send_word+0x48>)
    55e0:	47b8      	blx	r7
	uTXByte(usart_module, hex_to_ascii(tmp8.HL.L));
    55e2:	0730      	lsls	r0, r6, #28
    55e4:	0f00      	lsrs	r0, r0, #28
    55e6:	47a8      	blx	r5
	usart_write_wait(usart_module, tmp_data);
    55e8:	b281      	uxth	r1, r0
    55ea:	9801      	ldr	r0, [sp, #4]
    55ec:	47b8      	blx	r7
	uTXByte(usart_module, hex_to_ascii(tmp8.HL.H));
    55ee:	0620      	lsls	r0, r4, #24
    55f0:	0f00      	lsrs	r0, r0, #28
    55f2:	47a8      	blx	r5
	usart_write_wait(usart_module, tmp_data);
    55f4:	b281      	uxth	r1, r0
    55f6:	9801      	ldr	r0, [sp, #4]
    55f8:	47b8      	blx	r7
	uTXByte(usart_module, hex_to_ascii(tmp8.HL.L));
    55fa:	0720      	lsls	r0, r4, #28
    55fc:	0f00      	lsrs	r0, r0, #28
    55fe:	47a8      	blx	r5
	usart_write_wait(usart_module, tmp_data);
    5600:	b281      	uxth	r1, r0
    5602:	9801      	ldr	r0, [sp, #4]
    5604:	47b8      	blx	r7
}
    5606:	b003      	add	sp, #12
    5608:	bdf0      	pop	{r4, r5, r6, r7, pc}
    560a:	46c0      	nop			; (mov r8, r8)
    560c:	00005545 	.word	0x00005545
    5610:	00006009 	.word	0x00006009

00005614 <uart_send_word_for_ListNumber>:
{
    5614:	b5f8      	push	{r3, r4, r5, r6, r7, lr}
    5616:	0005      	movs	r5, r0
    5618:	000c      	movs	r4, r1
	uTXByte(usart_module, hex_to_ascii(tmp8.HL.L));
    561a:	0508      	lsls	r0, r1, #20
    561c:	0f00      	lsrs	r0, r0, #28
    561e:	4f09      	ldr	r7, [pc, #36]	; (5644 <uart_send_word_for_ListNumber+0x30>)
    5620:	47b8      	blx	r7
	usart_write_wait(usart_module, tmp_data);
    5622:	b281      	uxth	r1, r0
    5624:	0028      	movs	r0, r5
    5626:	4e08      	ldr	r6, [pc, #32]	; (5648 <uart_send_word_for_ListNumber+0x34>)
    5628:	47b0      	blx	r6
	uTXByte(usart_module, hex_to_ascii(tmp8.HL.H));
    562a:	0620      	lsls	r0, r4, #24
    562c:	0f00      	lsrs	r0, r0, #28
    562e:	47b8      	blx	r7
	usart_write_wait(usart_module, tmp_data);
    5630:	b281      	uxth	r1, r0
    5632:	0028      	movs	r0, r5
    5634:	47b0      	blx	r6
	uTXByte(usart_module, hex_to_ascii(tmp8.HL.L));
    5636:	0720      	lsls	r0, r4, #28
    5638:	0f00      	lsrs	r0, r0, #28
    563a:	47b8      	blx	r7
	usart_write_wait(usart_module, tmp_data);
    563c:	b281      	uxth	r1, r0
    563e:	0028      	movs	r0, r5
    5640:	47b0      	blx	r6
}
    5642:	bdf8      	pop	{r3, r4, r5, r6, r7, pc}
    5644:	00005545 	.word	0x00005545
    5648:	00006009 	.word	0x00006009

0000564c <ascii_to_hex>:

unsigned char ascii_to_hex(unsigned char tmp)
{
	if(tmp == '0') return KEY0;
    564c:	2830      	cmp	r0, #48	; 0x30
    564e:	d100      	bne.n	5652 <ascii_to_hex+0x6>
    5650:	e0c8      	b.n	57e4 <ascii_to_hex+0x198>
	if(tmp == '1') return KEY1;
    5652:	2831      	cmp	r0, #49	; 0x31
    5654:	d100      	bne.n	5658 <ascii_to_hex+0xc>
    5656:	e0c8      	b.n	57ea <ascii_to_hex+0x19e>
	if(tmp == '2') return KEY2;
    5658:	2302      	movs	r3, #2
    565a:	2832      	cmp	r0, #50	; 0x32
    565c:	d100      	bne.n	5660 <ascii_to_hex+0x14>
    565e:	e0c2      	b.n	57e6 <ascii_to_hex+0x19a>
	if(tmp == '3') return KEY3;
    5660:	3301      	adds	r3, #1
    5662:	2833      	cmp	r0, #51	; 0x33
    5664:	d100      	bne.n	5668 <ascii_to_hex+0x1c>
    5666:	e0be      	b.n	57e6 <ascii_to_hex+0x19a>
	if(tmp == '4') return KEY4;
    5668:	3301      	adds	r3, #1
    566a:	2834      	cmp	r0, #52	; 0x34
    566c:	d100      	bne.n	5670 <ascii_to_hex+0x24>
    566e:	e0ba      	b.n	57e6 <ascii_to_hex+0x19a>
	if(tmp == '5') return KEY5;
    5670:	3301      	adds	r3, #1
    5672:	2835      	cmp	r0, #53	; 0x35
    5674:	d100      	bne.n	5678 <ascii_to_hex+0x2c>
    5676:	e0b6      	b.n	57e6 <ascii_to_hex+0x19a>
	if(tmp == '6') return KEY6;
    5678:	3301      	adds	r3, #1
    567a:	2836      	cmp	r0, #54	; 0x36
    567c:	d100      	bne.n	5680 <ascii_to_hex+0x34>
    567e:	e0b2      	b.n	57e6 <ascii_to_hex+0x19a>
	if(tmp == '7') return KEY7;
    5680:	3301      	adds	r3, #1
    5682:	2837      	cmp	r0, #55	; 0x37
    5684:	d100      	bne.n	5688 <ascii_to_hex+0x3c>
    5686:	e0ae      	b.n	57e6 <ascii_to_hex+0x19a>
	if(tmp == '8') return KEY8;
    5688:	3301      	adds	r3, #1
    568a:	2838      	cmp	r0, #56	; 0x38
    568c:	d100      	bne.n	5690 <ascii_to_hex+0x44>
    568e:	e0aa      	b.n	57e6 <ascii_to_hex+0x19a>
	if(tmp == '9') return KEY9;
    5690:	3301      	adds	r3, #1
    5692:	2839      	cmp	r0, #57	; 0x39
    5694:	d100      	bne.n	5698 <ascii_to_hex+0x4c>
    5696:	e0a6      	b.n	57e6 <ascii_to_hex+0x19a>
	
	if(tmp == 'a') return KEYA;
    5698:	3301      	adds	r3, #1
    569a:	2861      	cmp	r0, #97	; 0x61
    569c:	d100      	bne.n	56a0 <ascii_to_hex+0x54>
    569e:	e0a2      	b.n	57e6 <ascii_to_hex+0x19a>
	if(tmp == 'b') return KEYB;
    56a0:	3301      	adds	r3, #1
    56a2:	2862      	cmp	r0, #98	; 0x62
    56a4:	d100      	bne.n	56a8 <ascii_to_hex+0x5c>
    56a6:	e09e      	b.n	57e6 <ascii_to_hex+0x19a>
	if(tmp == 'c') return KEYC;
    56a8:	3301      	adds	r3, #1
    56aa:	2863      	cmp	r0, #99	; 0x63
    56ac:	d100      	bne.n	56b0 <ascii_to_hex+0x64>
    56ae:	e09a      	b.n	57e6 <ascii_to_hex+0x19a>
	if(tmp == 'd') return KEYD;
    56b0:	3301      	adds	r3, #1
    56b2:	2864      	cmp	r0, #100	; 0x64
    56b4:	d100      	bne.n	56b8 <ascii_to_hex+0x6c>
    56b6:	e096      	b.n	57e6 <ascii_to_hex+0x19a>
	if(tmp == 'e') return KEYE;
    56b8:	3301      	adds	r3, #1
    56ba:	2865      	cmp	r0, #101	; 0x65
    56bc:	d100      	bne.n	56c0 <ascii_to_hex+0x74>
    56be:	e092      	b.n	57e6 <ascii_to_hex+0x19a>
	if(tmp == 'f') return KEYF;
    56c0:	3301      	adds	r3, #1
    56c2:	2866      	cmp	r0, #102	; 0x66
    56c4:	d100      	bne.n	56c8 <ascii_to_hex+0x7c>
    56c6:	e08e      	b.n	57e6 <ascii_to_hex+0x19a>
	
	if(tmp == 'A') return KEYA;
    56c8:	3b05      	subs	r3, #5
    56ca:	2841      	cmp	r0, #65	; 0x41
    56cc:	d100      	bne.n	56d0 <ascii_to_hex+0x84>
    56ce:	e08a      	b.n	57e6 <ascii_to_hex+0x19a>
	if(tmp == 'B') return KEYB;
    56d0:	3301      	adds	r3, #1
    56d2:	2842      	cmp	r0, #66	; 0x42
    56d4:	d100      	bne.n	56d8 <ascii_to_hex+0x8c>
    56d6:	e086      	b.n	57e6 <ascii_to_hex+0x19a>
	if(tmp == 'C') return KEYC;
    56d8:	3301      	adds	r3, #1
    56da:	2843      	cmp	r0, #67	; 0x43
    56dc:	d100      	bne.n	56e0 <ascii_to_hex+0x94>
    56de:	e082      	b.n	57e6 <ascii_to_hex+0x19a>
	if(tmp == 'D') return KEYD;
    56e0:	3301      	adds	r3, #1
    56e2:	2844      	cmp	r0, #68	; 0x44
    56e4:	d07f      	beq.n	57e6 <ascii_to_hex+0x19a>
	if(tmp == 'E') return KEYE;
    56e6:	3301      	adds	r3, #1
    56e8:	2845      	cmp	r0, #69	; 0x45
    56ea:	d07c      	beq.n	57e6 <ascii_to_hex+0x19a>
	if(tmp == 'F') return KEYF;
    56ec:	3301      	adds	r3, #1
    56ee:	2846      	cmp	r0, #70	; 0x46
    56f0:	d079      	beq.n	57e6 <ascii_to_hex+0x19a>
	
	if(tmp == 'g') return KEYG;
    56f2:	3301      	adds	r3, #1
    56f4:	2867      	cmp	r0, #103	; 0x67
    56f6:	d076      	beq.n	57e6 <ascii_to_hex+0x19a>
	if(tmp == 'h') return KEYH;
    56f8:	3301      	adds	r3, #1
    56fa:	2868      	cmp	r0, #104	; 0x68
    56fc:	d073      	beq.n	57e6 <ascii_to_hex+0x19a>
	if(tmp == 'i') return KEYI;
    56fe:	3301      	adds	r3, #1
    5700:	2869      	cmp	r0, #105	; 0x69
    5702:	d070      	beq.n	57e6 <ascii_to_hex+0x19a>
	if(tmp == 'j') return KEYJ;
    5704:	3301      	adds	r3, #1
    5706:	286a      	cmp	r0, #106	; 0x6a
    5708:	d06d      	beq.n	57e6 <ascii_to_hex+0x19a>
	if(tmp == 'k') return KEYK;
    570a:	3301      	adds	r3, #1
    570c:	286b      	cmp	r0, #107	; 0x6b
    570e:	d06a      	beq.n	57e6 <ascii_to_hex+0x19a>
	if(tmp == 'l') return KEYL;
    5710:	3301      	adds	r3, #1
    5712:	286c      	cmp	r0, #108	; 0x6c
    5714:	d067      	beq.n	57e6 <ascii_to_hex+0x19a>
	if(tmp == 'm') return KEYM;
    5716:	3301      	adds	r3, #1
    5718:	286d      	cmp	r0, #109	; 0x6d
    571a:	d064      	beq.n	57e6 <ascii_to_hex+0x19a>
	if(tmp == 'n') return KEYN;
    571c:	3301      	adds	r3, #1
    571e:	286e      	cmp	r0, #110	; 0x6e
    5720:	d061      	beq.n	57e6 <ascii_to_hex+0x19a>
	if(tmp == 'o') return KEYO;
    5722:	3301      	adds	r3, #1
    5724:	286f      	cmp	r0, #111	; 0x6f
    5726:	d05e      	beq.n	57e6 <ascii_to_hex+0x19a>
	if(tmp == 'p') return KEYP;
    5728:	3301      	adds	r3, #1
    572a:	2870      	cmp	r0, #112	; 0x70
    572c:	d05b      	beq.n	57e6 <ascii_to_hex+0x19a>
	if(tmp == 'q') return KEYQ;
    572e:	3301      	adds	r3, #1
    5730:	2871      	cmp	r0, #113	; 0x71
    5732:	d058      	beq.n	57e6 <ascii_to_hex+0x19a>
	if(tmp == 'r') return KEYR;
    5734:	3301      	adds	r3, #1
    5736:	2872      	cmp	r0, #114	; 0x72
    5738:	d055      	beq.n	57e6 <ascii_to_hex+0x19a>
	if(tmp == 's') return KEYS;
    573a:	3301      	adds	r3, #1
    573c:	2873      	cmp	r0, #115	; 0x73
    573e:	d052      	beq.n	57e6 <ascii_to_hex+0x19a>
	if(tmp == 't') return KEYT;
    5740:	3301      	adds	r3, #1
    5742:	2874      	cmp	r0, #116	; 0x74
    5744:	d04f      	beq.n	57e6 <ascii_to_hex+0x19a>
	if(tmp == 'u') return KEYU;
    5746:	3301      	adds	r3, #1
    5748:	2875      	cmp	r0, #117	; 0x75
    574a:	d04c      	beq.n	57e6 <ascii_to_hex+0x19a>
	if(tmp == 'v') return KEYV;
    574c:	3301      	adds	r3, #1
    574e:	2876      	cmp	r0, #118	; 0x76
    5750:	d049      	beq.n	57e6 <ascii_to_hex+0x19a>
	if(tmp == 'w') return KEYW;
    5752:	3301      	adds	r3, #1
    5754:	2877      	cmp	r0, #119	; 0x77
    5756:	d046      	beq.n	57e6 <ascii_to_hex+0x19a>
	if(tmp == 'x') return KEYX;
    5758:	3301      	adds	r3, #1
    575a:	2878      	cmp	r0, #120	; 0x78
    575c:	d043      	beq.n	57e6 <ascii_to_hex+0x19a>
	if(tmp == 'y') return KEYY;
    575e:	3301      	adds	r3, #1
    5760:	2879      	cmp	r0, #121	; 0x79
    5762:	d040      	beq.n	57e6 <ascii_to_hex+0x19a>
	if(tmp == 'z') return KEYZ;
    5764:	3301      	adds	r3, #1
    5766:	287a      	cmp	r0, #122	; 0x7a
    5768:	d03d      	beq.n	57e6 <ascii_to_hex+0x19a>
	
	if(tmp == 'G') return KEYG;
    576a:	3b13      	subs	r3, #19
    576c:	2847      	cmp	r0, #71	; 0x47
    576e:	d03a      	beq.n	57e6 <ascii_to_hex+0x19a>
	if(tmp == 'H') return KEYH;
    5770:	3301      	adds	r3, #1
    5772:	2848      	cmp	r0, #72	; 0x48
    5774:	d037      	beq.n	57e6 <ascii_to_hex+0x19a>
	if(tmp == 'I') return KEYI;
    5776:	3301      	adds	r3, #1
    5778:	2849      	cmp	r0, #73	; 0x49
    577a:	d034      	beq.n	57e6 <ascii_to_hex+0x19a>
	if(tmp == 'J') return KEYJ;
    577c:	3301      	adds	r3, #1
    577e:	284a      	cmp	r0, #74	; 0x4a
    5780:	d031      	beq.n	57e6 <ascii_to_hex+0x19a>
	if(tmp == 'K') return KEYK;
    5782:	3301      	adds	r3, #1
    5784:	284b      	cmp	r0, #75	; 0x4b
    5786:	d02e      	beq.n	57e6 <ascii_to_hex+0x19a>
	if(tmp == 'L') return KEYL;
    5788:	3301      	adds	r3, #1
    578a:	284c      	cmp	r0, #76	; 0x4c
    578c:	d02b      	beq.n	57e6 <ascii_to_hex+0x19a>
	if(tmp == 'M') return KEYM;
    578e:	3301      	adds	r3, #1
    5790:	284d      	cmp	r0, #77	; 0x4d
    5792:	d028      	beq.n	57e6 <ascii_to_hex+0x19a>
	if(tmp == 'N') return KEYN;
    5794:	3301      	adds	r3, #1
    5796:	284e      	cmp	r0, #78	; 0x4e
    5798:	d025      	beq.n	57e6 <ascii_to_hex+0x19a>
	if(tmp == 'O') return KEYO;
    579a:	3301      	adds	r3, #1
    579c:	284f      	cmp	r0, #79	; 0x4f
    579e:	d022      	beq.n	57e6 <ascii_to_hex+0x19a>
	if(tmp == 'P') return KEYP;
    57a0:	3301      	adds	r3, #1
    57a2:	2850      	cmp	r0, #80	; 0x50
    57a4:	d01f      	beq.n	57e6 <ascii_to_hex+0x19a>
	if(tmp == 'Q') return KEYQ;
    57a6:	3301      	adds	r3, #1
    57a8:	2851      	cmp	r0, #81	; 0x51
    57aa:	d01c      	beq.n	57e6 <ascii_to_hex+0x19a>
	if(tmp == 'R') return KEYR;
    57ac:	3301      	adds	r3, #1
    57ae:	2852      	cmp	r0, #82	; 0x52
    57b0:	d019      	beq.n	57e6 <ascii_to_hex+0x19a>
	if(tmp == 'S') return KEYS;
    57b2:	3301      	adds	r3, #1
    57b4:	2853      	cmp	r0, #83	; 0x53
    57b6:	d016      	beq.n	57e6 <ascii_to_hex+0x19a>
	if(tmp == 'T') return KEYT;
    57b8:	3301      	adds	r3, #1
    57ba:	2854      	cmp	r0, #84	; 0x54
    57bc:	d013      	beq.n	57e6 <ascii_to_hex+0x19a>
	if(tmp == 'U') return KEYU;
    57be:	3301      	adds	r3, #1
    57c0:	2855      	cmp	r0, #85	; 0x55
    57c2:	d010      	beq.n	57e6 <ascii_to_hex+0x19a>
	if(tmp == 'V') return KEYV;
    57c4:	3301      	adds	r3, #1
    57c6:	2856      	cmp	r0, #86	; 0x56
    57c8:	d00d      	beq.n	57e6 <ascii_to_hex+0x19a>
	if(tmp == 'W') return KEYW;
    57ca:	3301      	adds	r3, #1
    57cc:	2857      	cmp	r0, #87	; 0x57
    57ce:	d00a      	beq.n	57e6 <ascii_to_hex+0x19a>
	if(tmp == 'X') return KEYX;
    57d0:	3301      	adds	r3, #1
    57d2:	2858      	cmp	r0, #88	; 0x58
    57d4:	d007      	beq.n	57e6 <ascii_to_hex+0x19a>
	if(tmp == 'Y') return KEYY;
    57d6:	3301      	adds	r3, #1
    57d8:	2859      	cmp	r0, #89	; 0x59
    57da:	d004      	beq.n	57e6 <ascii_to_hex+0x19a>
	if(tmp == 'Z') return KEYZ;
    57dc:	285a      	cmp	r0, #90	; 0x5a
    57de:	d006      	beq.n	57ee <ascii_to_hex+0x1a2>
	return 0xff;
    57e0:	33dd      	adds	r3, #221	; 0xdd
    57e2:	e000      	b.n	57e6 <ascii_to_hex+0x19a>
	if(tmp == '0') return KEY0;
    57e4:	2300      	movs	r3, #0
}
    57e6:	0018      	movs	r0, r3
    57e8:	4770      	bx	lr
	if(tmp == '1') return KEY1;
    57ea:	2301      	movs	r3, #1
    57ec:	e7fb      	b.n	57e6 <ascii_to_hex+0x19a>
	if(tmp == 'Z') return KEYZ;
    57ee:	2323      	movs	r3, #35	; 0x23
    57f0:	e7f9      	b.n	57e6 <ascii_to_hex+0x19a>
	...

000057f4 <hex_to_bcd>:


unsigned int hex_to_bcd(unsigned int tmp)
{
    57f4:	b5f0      	push	{r4, r5, r6, r7, lr}
    57f6:	46ce      	mov	lr, r9
    57f8:	b500      	push	{lr}
    57fa:	b082      	sub	sp, #8
    57fc:	0006      	movs	r6, r0
	UINT16u_t	tmp16;
	UINT8u_t	tmp8;

	tmp8.HL.H = tmp / 1000;
    57fe:	4b17      	ldr	r3, [pc, #92]	; (585c <hex_to_bcd+0x68>)
    5800:	4699      	mov	r9, r3
    5802:	21fa      	movs	r1, #250	; 0xfa
    5804:	0089      	lsls	r1, r1, #2
    5806:	4798      	blx	r3
    5808:	270f      	movs	r7, #15
    580a:	0104      	lsls	r4, r0, #4
	tmp8.HL.L = (tmp % 1000) / 100;
    580c:	4d14      	ldr	r5, [pc, #80]	; (5860 <hex_to_bcd+0x6c>)
    580e:	21fa      	movs	r1, #250	; 0xfa
    5810:	0089      	lsls	r1, r1, #2
    5812:	0030      	movs	r0, r6
    5814:	47a8      	blx	r5
    5816:	000b      	movs	r3, r1
    5818:	2164      	movs	r1, #100	; 0x64
    581a:	9301      	str	r3, [sp, #4]
    581c:	0018      	movs	r0, r3
    581e:	47c8      	blx	r9
    5820:	4038      	ands	r0, r7
    5822:	4304      	orrs	r4, r0
	tmp16.byte[1] = tmp8.byte;
    5824:	b2e6      	uxtb	r6, r4
    5826:	0236      	lsls	r6, r6, #8
	
	tmp8.HL.H = ((tmp % 1000) % 100 ) / 10;
    5828:	2164      	movs	r1, #100	; 0x64
    582a:	9801      	ldr	r0, [sp, #4]
    582c:	47a8      	blx	r5
    582e:	000b      	movs	r3, r1
    5830:	210a      	movs	r1, #10
    5832:	9301      	str	r3, [sp, #4]
    5834:	0018      	movs	r0, r3
    5836:	47c8      	blx	r9
    5838:	0100      	lsls	r0, r0, #4
    583a:	403c      	ands	r4, r7
    583c:	4304      	orrs	r4, r0
	tmp8.HL.L = ((tmp % 1000) % 100 ) % 10;
    583e:	210a      	movs	r1, #10
    5840:	9801      	ldr	r0, [sp, #4]
    5842:	47a8      	blx	r5
    5844:	0038      	movs	r0, r7
    5846:	4008      	ands	r0, r1
    5848:	230f      	movs	r3, #15
    584a:	439c      	bics	r4, r3
    584c:	4320      	orrs	r0, r4
	tmp16.byte[0] = tmp8.byte;
    584e:	b2c0      	uxtb	r0, r0
	return tmp16.word;
    5850:	4330      	orrs	r0, r6
}
    5852:	b002      	add	sp, #8
    5854:	bc04      	pop	{r2}
    5856:	4691      	mov	r9, r2
    5858:	bdf0      	pop	{r4, r5, r6, r7, pc}
    585a:	46c0      	nop			; (mov r8, r8)
    585c:	000071f9 	.word	0x000071f9
    5860:	00007305 	.word	0x00007305

00005864 <long_to_bcd>:


unsigned long long_to_bcd(unsigned long tmp)
{
    5864:	b5f0      	push	{r4, r5, r6, r7, lr}
    5866:	46ce      	mov	lr, r9
    5868:	4647      	mov	r7, r8
    586a:	b580      	push	{r7, lr}
    586c:	b083      	sub	sp, #12
	UINT32u_t	tmp32;
	//UINT16u_t	tmp16;
	UINT8u_t	tmp8;

	tmp8.HL.H = 0;
    586e:	230f      	movs	r3, #15
    5870:	4699      	mov	r9, r3
    5872:	240f      	movs	r4, #15
	tmp8.HL.L = tmp / 10000;
    5874:	4b1f      	ldr	r3, [pc, #124]	; (58f4 <long_to_bcd+0x90>)
    5876:	4698      	mov	r8, r3
    5878:	491f      	ldr	r1, [pc, #124]	; (58f8 <long_to_bcd+0x94>)
    587a:	9001      	str	r0, [sp, #4]
    587c:	4798      	blx	r3
    587e:	0007      	movs	r7, r0
    5880:	4027      	ands	r7, r4
	tmp32.byte[2] = tmp8.byte;
    5882:	043d      	lsls	r5, r7, #16
	
	tmp8.HL.H = (tmp % 10000) / 1000;
    5884:	4e1d      	ldr	r6, [pc, #116]	; (58fc <long_to_bcd+0x98>)
    5886:	491c      	ldr	r1, [pc, #112]	; (58f8 <long_to_bcd+0x94>)
    5888:	9801      	ldr	r0, [sp, #4]
    588a:	47b0      	blx	r6
    588c:	000b      	movs	r3, r1
    588e:	21fa      	movs	r1, #250	; 0xfa
    5890:	0089      	lsls	r1, r1, #2
    5892:	9301      	str	r3, [sp, #4]
    5894:	0018      	movs	r0, r3
    5896:	47c0      	blx	r8
    5898:	0100      	lsls	r0, r0, #4
    589a:	4307      	orrs	r7, r0
	tmp8.HL.L = (tmp % 10000) % 1000 / 100;
    589c:	21fa      	movs	r1, #250	; 0xfa
    589e:	0089      	lsls	r1, r1, #2
    58a0:	9801      	ldr	r0, [sp, #4]
    58a2:	47b0      	blx	r6
    58a4:	000b      	movs	r3, r1
    58a6:	2164      	movs	r1, #100	; 0x64
    58a8:	9301      	str	r3, [sp, #4]
    58aa:	0018      	movs	r0, r3
    58ac:	47c0      	blx	r8
    58ae:	4020      	ands	r0, r4
    58b0:	464a      	mov	r2, r9
    58b2:	4397      	bics	r7, r2
    58b4:	4307      	orrs	r7, r0
	tmp32.byte[1] = tmp8.byte;
    58b6:	b2fb      	uxtb	r3, r7
    58b8:	021b      	lsls	r3, r3, #8
    58ba:	431d      	orrs	r5, r3
	
	tmp8.HL.H = ((tmp % 10000) % 1000 % 100 ) / 10;
    58bc:	2164      	movs	r1, #100	; 0x64
    58be:	9801      	ldr	r0, [sp, #4]
    58c0:	47b0      	blx	r6
    58c2:	000b      	movs	r3, r1
    58c4:	210a      	movs	r1, #10
    58c6:	9301      	str	r3, [sp, #4]
    58c8:	0018      	movs	r0, r3
    58ca:	47c0      	blx	r8
    58cc:	0100      	lsls	r0, r0, #4
    58ce:	4027      	ands	r7, r4
    58d0:	4307      	orrs	r7, r0
	tmp8.HL.L = ((tmp % 10000) % 1000 % 100 ) % 10;
    58d2:	210a      	movs	r1, #10
    58d4:	9801      	ldr	r0, [sp, #4]
    58d6:	47b0      	blx	r6
    58d8:	4021      	ands	r1, r4
    58da:	003c      	movs	r4, r7
    58dc:	464b      	mov	r3, r9
    58de:	439c      	bics	r4, r3
    58e0:	430c      	orrs	r4, r1
	tmp32.byte[0] = tmp8.byte;
    58e2:	b2e4      	uxtb	r4, r4
    58e4:	4325      	orrs	r5, r4
	
	return tmp32.dword;
    58e6:	0028      	movs	r0, r5
    58e8:	b003      	add	sp, #12
    58ea:	bc0c      	pop	{r2, r3}
    58ec:	4690      	mov	r8, r2
    58ee:	4699      	mov	r9, r3
    58f0:	bdf0      	pop	{r4, r5, r6, r7, pc}
    58f2:	46c0      	nop			; (mov r8, r8)
    58f4:	000071f9 	.word	0x000071f9
    58f8:	00002710 	.word	0x00002710
    58fc:	00007305 	.word	0x00007305

00005900 <delay_init>:
    5900:	b570      	push	{r4, r5, r6, lr}
    5902:	2000      	movs	r0, #0
    5904:	4b08      	ldr	r3, [pc, #32]	; (5928 <delay_init+0x28>)
    5906:	4798      	blx	r3
    5908:	0005      	movs	r5, r0
    590a:	4c08      	ldr	r4, [pc, #32]	; (592c <delay_init+0x2c>)
    590c:	21fa      	movs	r1, #250	; 0xfa
    590e:	0089      	lsls	r1, r1, #2
    5910:	47a0      	blx	r4
    5912:	4b07      	ldr	r3, [pc, #28]	; (5930 <delay_init+0x30>)
    5914:	6018      	str	r0, [r3, #0]
    5916:	4907      	ldr	r1, [pc, #28]	; (5934 <delay_init+0x34>)
    5918:	0028      	movs	r0, r5
    591a:	47a0      	blx	r4
    591c:	4b06      	ldr	r3, [pc, #24]	; (5938 <delay_init+0x38>)
    591e:	6018      	str	r0, [r3, #0]
    5920:	2205      	movs	r2, #5
    5922:	4b06      	ldr	r3, [pc, #24]	; (593c <delay_init+0x3c>)
    5924:	601a      	str	r2, [r3, #0]
    5926:	bd70      	pop	{r4, r5, r6, pc}
    5928:	0000650d 	.word	0x0000650d
    592c:	000071f9 	.word	0x000071f9
    5930:	200001c0 	.word	0x200001c0
    5934:	000f4240 	.word	0x000f4240
    5938:	200001c4 	.word	0x200001c4
    593c:	e000e010 	.word	0xe000e010

00005940 <delay_cycles_ms>:
    5940:	b530      	push	{r4, r5, lr}
    5942:	4b08      	ldr	r3, [pc, #32]	; (5964 <delay_cycles_ms+0x24>)
    5944:	681c      	ldr	r4, [r3, #0]
    5946:	4a08      	ldr	r2, [pc, #32]	; (5968 <delay_cycles_ms+0x28>)
    5948:	2500      	movs	r5, #0
    594a:	2180      	movs	r1, #128	; 0x80
    594c:	0249      	lsls	r1, r1, #9
    594e:	3801      	subs	r0, #1
    5950:	d307      	bcc.n	5962 <delay_cycles_ms+0x22>
    5952:	2c00      	cmp	r4, #0
    5954:	d0fb      	beq.n	594e <delay_cycles_ms+0xe>
    5956:	6054      	str	r4, [r2, #4]
    5958:	6095      	str	r5, [r2, #8]
    595a:	6813      	ldr	r3, [r2, #0]
    595c:	420b      	tst	r3, r1
    595e:	d0fc      	beq.n	595a <delay_cycles_ms+0x1a>
    5960:	e7f5      	b.n	594e <delay_cycles_ms+0xe>
    5962:	bd30      	pop	{r4, r5, pc}
    5964:	200001c0 	.word	0x200001c0
    5968:	e000e010 	.word	0xe000e010

0000596c <cpu_irq_enter_critical>:
    596c:	4b0c      	ldr	r3, [pc, #48]	; (59a0 <cpu_irq_enter_critical+0x34>)
    596e:	681b      	ldr	r3, [r3, #0]
    5970:	2b00      	cmp	r3, #0
    5972:	d106      	bne.n	5982 <cpu_irq_enter_critical+0x16>
    5974:	f3ef 8310 	mrs	r3, PRIMASK
    5978:	2b00      	cmp	r3, #0
    597a:	d007      	beq.n	598c <cpu_irq_enter_critical+0x20>
    597c:	2200      	movs	r2, #0
    597e:	4b09      	ldr	r3, [pc, #36]	; (59a4 <cpu_irq_enter_critical+0x38>)
    5980:	701a      	strb	r2, [r3, #0]
    5982:	4a07      	ldr	r2, [pc, #28]	; (59a0 <cpu_irq_enter_critical+0x34>)
    5984:	6813      	ldr	r3, [r2, #0]
    5986:	3301      	adds	r3, #1
    5988:	6013      	str	r3, [r2, #0]
    598a:	4770      	bx	lr
    598c:	b672      	cpsid	i
    598e:	f3bf 8f5f 	dmb	sy
    5992:	2200      	movs	r2, #0
    5994:	4b04      	ldr	r3, [pc, #16]	; (59a8 <cpu_irq_enter_critical+0x3c>)
    5996:	701a      	strb	r2, [r3, #0]
    5998:	3201      	adds	r2, #1
    599a:	4b02      	ldr	r3, [pc, #8]	; (59a4 <cpu_irq_enter_critical+0x38>)
    599c:	701a      	strb	r2, [r3, #0]
    599e:	e7f0      	b.n	5982 <cpu_irq_enter_critical+0x16>
    59a0:	20000254 	.word	0x20000254
    59a4:	20000258 	.word	0x20000258
    59a8:	200001c8 	.word	0x200001c8

000059ac <cpu_irq_leave_critical>:
    59ac:	4b08      	ldr	r3, [pc, #32]	; (59d0 <cpu_irq_leave_critical+0x24>)
    59ae:	681a      	ldr	r2, [r3, #0]
    59b0:	3a01      	subs	r2, #1
    59b2:	601a      	str	r2, [r3, #0]
    59b4:	681b      	ldr	r3, [r3, #0]
    59b6:	2b00      	cmp	r3, #0
    59b8:	d109      	bne.n	59ce <cpu_irq_leave_critical+0x22>
    59ba:	4b06      	ldr	r3, [pc, #24]	; (59d4 <cpu_irq_leave_critical+0x28>)
    59bc:	781b      	ldrb	r3, [r3, #0]
    59be:	2b00      	cmp	r3, #0
    59c0:	d005      	beq.n	59ce <cpu_irq_leave_critical+0x22>
    59c2:	2201      	movs	r2, #1
    59c4:	4b04      	ldr	r3, [pc, #16]	; (59d8 <cpu_irq_leave_critical+0x2c>)
    59c6:	701a      	strb	r2, [r3, #0]
    59c8:	f3bf 8f5f 	dmb	sy
    59cc:	b662      	cpsie	i
    59ce:	4770      	bx	lr
    59d0:	20000254 	.word	0x20000254
    59d4:	20000258 	.word	0x20000258
    59d8:	200001c8 	.word	0x200001c8

000059dc <system_board_init>:
    59dc:	4770      	bx	lr
	...

000059e0 <port_pin_set_config>:
    59e0:	b500      	push	{lr}
    59e2:	b083      	sub	sp, #12
    59e4:	ab01      	add	r3, sp, #4
    59e6:	2280      	movs	r2, #128	; 0x80
    59e8:	701a      	strb	r2, [r3, #0]
    59ea:	780a      	ldrb	r2, [r1, #0]
    59ec:	705a      	strb	r2, [r3, #1]
    59ee:	784a      	ldrb	r2, [r1, #1]
    59f0:	709a      	strb	r2, [r3, #2]
    59f2:	788a      	ldrb	r2, [r1, #2]
    59f4:	70da      	strb	r2, [r3, #3]
    59f6:	0019      	movs	r1, r3
    59f8:	4b01      	ldr	r3, [pc, #4]	; (5a00 <port_pin_set_config+0x20>)
    59fa:	4798      	blx	r3
    59fc:	b003      	add	sp, #12
    59fe:	bd00      	pop	{pc}
    5a00:	0000674d 	.word	0x0000674d

00005a04 <long_division>:
    5a04:	b5f0      	push	{r4, r5, r6, r7, lr}
    5a06:	46de      	mov	lr, fp
    5a08:	4657      	mov	r7, sl
    5a0a:	464e      	mov	r6, r9
    5a0c:	4645      	mov	r5, r8
    5a0e:	b5e0      	push	{r5, r6, r7, lr}
    5a10:	b087      	sub	sp, #28
    5a12:	4680      	mov	r8, r0
    5a14:	9104      	str	r1, [sp, #16]
    5a16:	0016      	movs	r6, r2
    5a18:	001f      	movs	r7, r3
    5a1a:	2200      	movs	r2, #0
    5a1c:	2300      	movs	r3, #0
    5a1e:	2100      	movs	r1, #0
    5a20:	468b      	mov	fp, r1
    5a22:	243f      	movs	r4, #63	; 0x3f
    5a24:	2001      	movs	r0, #1
    5a26:	0021      	movs	r1, r4
    5a28:	9600      	str	r6, [sp, #0]
    5a2a:	9701      	str	r7, [sp, #4]
    5a2c:	465c      	mov	r4, fp
    5a2e:	9403      	str	r4, [sp, #12]
    5a30:	4644      	mov	r4, r8
    5a32:	9405      	str	r4, [sp, #20]
    5a34:	e013      	b.n	5a5e <long_division+0x5a>
    5a36:	2420      	movs	r4, #32
    5a38:	1a64      	subs	r4, r4, r1
    5a3a:	0005      	movs	r5, r0
    5a3c:	40e5      	lsrs	r5, r4
    5a3e:	46a8      	mov	r8, r5
    5a40:	e014      	b.n	5a6c <long_division+0x68>
    5a42:	9c00      	ldr	r4, [sp, #0]
    5a44:	9d01      	ldr	r5, [sp, #4]
    5a46:	1b12      	subs	r2, r2, r4
    5a48:	41ab      	sbcs	r3, r5
    5a4a:	465c      	mov	r4, fp
    5a4c:	464d      	mov	r5, r9
    5a4e:	432c      	orrs	r4, r5
    5a50:	46a3      	mov	fp, r4
    5a52:	9c03      	ldr	r4, [sp, #12]
    5a54:	4645      	mov	r5, r8
    5a56:	432c      	orrs	r4, r5
    5a58:	9403      	str	r4, [sp, #12]
    5a5a:	3901      	subs	r1, #1
    5a5c:	d325      	bcc.n	5aaa <long_division+0xa6>
    5a5e:	2420      	movs	r4, #32
    5a60:	4264      	negs	r4, r4
    5a62:	190c      	adds	r4, r1, r4
    5a64:	d4e7      	bmi.n	5a36 <long_division+0x32>
    5a66:	0005      	movs	r5, r0
    5a68:	40a5      	lsls	r5, r4
    5a6a:	46a8      	mov	r8, r5
    5a6c:	0004      	movs	r4, r0
    5a6e:	408c      	lsls	r4, r1
    5a70:	46a1      	mov	r9, r4
    5a72:	1892      	adds	r2, r2, r2
    5a74:	415b      	adcs	r3, r3
    5a76:	0014      	movs	r4, r2
    5a78:	001d      	movs	r5, r3
    5a7a:	9e05      	ldr	r6, [sp, #20]
    5a7c:	464f      	mov	r7, r9
    5a7e:	403e      	ands	r6, r7
    5a80:	46b4      	mov	ip, r6
    5a82:	9e04      	ldr	r6, [sp, #16]
    5a84:	4647      	mov	r7, r8
    5a86:	403e      	ands	r6, r7
    5a88:	46b2      	mov	sl, r6
    5a8a:	4666      	mov	r6, ip
    5a8c:	4657      	mov	r7, sl
    5a8e:	433e      	orrs	r6, r7
    5a90:	d003      	beq.n	5a9a <long_division+0x96>
    5a92:	0006      	movs	r6, r0
    5a94:	4326      	orrs	r6, r4
    5a96:	0032      	movs	r2, r6
    5a98:	002b      	movs	r3, r5
    5a9a:	9c00      	ldr	r4, [sp, #0]
    5a9c:	9d01      	ldr	r5, [sp, #4]
    5a9e:	429d      	cmp	r5, r3
    5aa0:	d8db      	bhi.n	5a5a <long_division+0x56>
    5aa2:	d1ce      	bne.n	5a42 <long_division+0x3e>
    5aa4:	4294      	cmp	r4, r2
    5aa6:	d8d8      	bhi.n	5a5a <long_division+0x56>
    5aa8:	e7cb      	b.n	5a42 <long_division+0x3e>
    5aaa:	9b03      	ldr	r3, [sp, #12]
    5aac:	4658      	mov	r0, fp
    5aae:	0019      	movs	r1, r3
    5ab0:	b007      	add	sp, #28
    5ab2:	bc3c      	pop	{r2, r3, r4, r5}
    5ab4:	4690      	mov	r8, r2
    5ab6:	4699      	mov	r9, r3
    5ab8:	46a2      	mov	sl, r4
    5aba:	46ab      	mov	fp, r5
    5abc:	bdf0      	pop	{r4, r5, r6, r7, pc}

00005abe <_sercom_get_sync_baud_val>:
    5abe:	b510      	push	{r4, lr}
    5ac0:	0849      	lsrs	r1, r1, #1
    5ac2:	2340      	movs	r3, #64	; 0x40
    5ac4:	2400      	movs	r4, #0
    5ac6:	4281      	cmp	r1, r0
    5ac8:	d202      	bcs.n	5ad0 <_sercom_get_sync_baud_val+0x12>
    5aca:	0018      	movs	r0, r3
    5acc:	bd10      	pop	{r4, pc}
    5ace:	001c      	movs	r4, r3
    5ad0:	1a09      	subs	r1, r1, r0
    5ad2:	1c63      	adds	r3, r4, #1
    5ad4:	b29b      	uxth	r3, r3
    5ad6:	4288      	cmp	r0, r1
    5ad8:	d9f9      	bls.n	5ace <_sercom_get_sync_baud_val+0x10>
    5ada:	2340      	movs	r3, #64	; 0x40
    5adc:	2cff      	cmp	r4, #255	; 0xff
    5ade:	d8f4      	bhi.n	5aca <_sercom_get_sync_baud_val+0xc>
    5ae0:	8014      	strh	r4, [r2, #0]
    5ae2:	2300      	movs	r3, #0
    5ae4:	e7f1      	b.n	5aca <_sercom_get_sync_baud_val+0xc>
	...

00005ae8 <_sercom_get_async_baud_val>:
    5ae8:	b5f0      	push	{r4, r5, r6, r7, lr}
    5aea:	b083      	sub	sp, #12
    5aec:	000f      	movs	r7, r1
    5aee:	0016      	movs	r6, r2
    5af0:	aa08      	add	r2, sp, #32
    5af2:	7811      	ldrb	r1, [r2, #0]
    5af4:	0004      	movs	r4, r0
    5af6:	434c      	muls	r4, r1
    5af8:	2240      	movs	r2, #64	; 0x40
    5afa:	42bc      	cmp	r4, r7
    5afc:	d902      	bls.n	5b04 <_sercom_get_async_baud_val+0x1c>
    5afe:	0010      	movs	r0, r2
    5b00:	b003      	add	sp, #12
    5b02:	bdf0      	pop	{r4, r5, r6, r7, pc}
    5b04:	2b00      	cmp	r3, #0
    5b06:	d114      	bne.n	5b32 <_sercom_get_async_baud_val+0x4a>
    5b08:	0002      	movs	r2, r0
    5b0a:	0008      	movs	r0, r1
    5b0c:	2100      	movs	r1, #0
    5b0e:	4c19      	ldr	r4, [pc, #100]	; (5b74 <_sercom_get_async_baud_val+0x8c>)
    5b10:	47a0      	blx	r4
    5b12:	0001      	movs	r1, r0
    5b14:	003a      	movs	r2, r7
    5b16:	2300      	movs	r3, #0
    5b18:	2000      	movs	r0, #0
    5b1a:	4c17      	ldr	r4, [pc, #92]	; (5b78 <_sercom_get_async_baud_val+0x90>)
    5b1c:	47a0      	blx	r4
    5b1e:	2200      	movs	r2, #0
    5b20:	2301      	movs	r3, #1
    5b22:	1a12      	subs	r2, r2, r0
    5b24:	418b      	sbcs	r3, r1
    5b26:	0c12      	lsrs	r2, r2, #16
    5b28:	041b      	lsls	r3, r3, #16
    5b2a:	431a      	orrs	r2, r3
    5b2c:	8032      	strh	r2, [r6, #0]
    5b2e:	2200      	movs	r2, #0
    5b30:	e7e5      	b.n	5afe <_sercom_get_async_baud_val+0x16>
    5b32:	2200      	movs	r2, #0
    5b34:	2b01      	cmp	r3, #1
    5b36:	d1f9      	bne.n	5b2c <_sercom_get_async_baud_val+0x44>
    5b38:	000a      	movs	r2, r1
    5b3a:	2300      	movs	r3, #0
    5b3c:	2100      	movs	r1, #0
    5b3e:	4c0d      	ldr	r4, [pc, #52]	; (5b74 <_sercom_get_async_baud_val+0x8c>)
    5b40:	47a0      	blx	r4
    5b42:	0002      	movs	r2, r0
    5b44:	000b      	movs	r3, r1
    5b46:	9200      	str	r2, [sp, #0]
    5b48:	9301      	str	r3, [sp, #4]
    5b4a:	0038      	movs	r0, r7
    5b4c:	2100      	movs	r1, #0
    5b4e:	4c0a      	ldr	r4, [pc, #40]	; (5b78 <_sercom_get_async_baud_val+0x90>)
    5b50:	47a0      	blx	r4
    5b52:	0005      	movs	r5, r0
    5b54:	2380      	movs	r3, #128	; 0x80
    5b56:	019b      	lsls	r3, r3, #6
    5b58:	2240      	movs	r2, #64	; 0x40
    5b5a:	4298      	cmp	r0, r3
    5b5c:	d8cf      	bhi.n	5afe <_sercom_get_async_baud_val+0x16>
    5b5e:	0f79      	lsrs	r1, r7, #29
    5b60:	00f8      	lsls	r0, r7, #3
    5b62:	9a00      	ldr	r2, [sp, #0]
    5b64:	9b01      	ldr	r3, [sp, #4]
    5b66:	47a0      	blx	r4
    5b68:	00ea      	lsls	r2, r5, #3
    5b6a:	1a82      	subs	r2, r0, r2
    5b6c:	b2d2      	uxtb	r2, r2
    5b6e:	0352      	lsls	r2, r2, #13
    5b70:	432a      	orrs	r2, r5
    5b72:	e7db      	b.n	5b2c <_sercom_get_async_baud_val+0x44>
    5b74:	00007559 	.word	0x00007559
    5b78:	00005a05 	.word	0x00005a05

00005b7c <sercom_set_gclk_generator>:
    5b7c:	b510      	push	{r4, lr}
    5b7e:	b082      	sub	sp, #8
    5b80:	0004      	movs	r4, r0
    5b82:	4b0e      	ldr	r3, [pc, #56]	; (5bbc <sercom_set_gclk_generator+0x40>)
    5b84:	781b      	ldrb	r3, [r3, #0]
    5b86:	2b00      	cmp	r3, #0
    5b88:	d007      	beq.n	5b9a <sercom_set_gclk_generator+0x1e>
    5b8a:	2900      	cmp	r1, #0
    5b8c:	d105      	bne.n	5b9a <sercom_set_gclk_generator+0x1e>
    5b8e:	4b0b      	ldr	r3, [pc, #44]	; (5bbc <sercom_set_gclk_generator+0x40>)
    5b90:	785b      	ldrb	r3, [r3, #1]
    5b92:	4283      	cmp	r3, r0
    5b94:	d010      	beq.n	5bb8 <sercom_set_gclk_generator+0x3c>
    5b96:	201d      	movs	r0, #29
    5b98:	e00c      	b.n	5bb4 <sercom_set_gclk_generator+0x38>
    5b9a:	a901      	add	r1, sp, #4
    5b9c:	700c      	strb	r4, [r1, #0]
    5b9e:	200c      	movs	r0, #12
    5ba0:	4b07      	ldr	r3, [pc, #28]	; (5bc0 <sercom_set_gclk_generator+0x44>)
    5ba2:	4798      	blx	r3
    5ba4:	200c      	movs	r0, #12
    5ba6:	4b07      	ldr	r3, [pc, #28]	; (5bc4 <sercom_set_gclk_generator+0x48>)
    5ba8:	4798      	blx	r3
    5baa:	4b04      	ldr	r3, [pc, #16]	; (5bbc <sercom_set_gclk_generator+0x40>)
    5bac:	705c      	strb	r4, [r3, #1]
    5bae:	2201      	movs	r2, #1
    5bb0:	701a      	strb	r2, [r3, #0]
    5bb2:	2000      	movs	r0, #0
    5bb4:	b002      	add	sp, #8
    5bb6:	bd10      	pop	{r4, pc}
    5bb8:	2000      	movs	r0, #0
    5bba:	e7fb      	b.n	5bb4 <sercom_set_gclk_generator+0x38>
    5bbc:	2000025c 	.word	0x2000025c
    5bc0:	00006625 	.word	0x00006625
    5bc4:	00006599 	.word	0x00006599

00005bc8 <_sercom_get_default_pad>:
    5bc8:	4b2b      	ldr	r3, [pc, #172]	; (5c78 <_sercom_get_default_pad+0xb0>)
    5bca:	4298      	cmp	r0, r3
    5bcc:	d023      	beq.n	5c16 <_sercom_get_default_pad+0x4e>
    5bce:	d90f      	bls.n	5bf0 <_sercom_get_default_pad+0x28>
    5bd0:	4b2a      	ldr	r3, [pc, #168]	; (5c7c <_sercom_get_default_pad+0xb4>)
    5bd2:	4298      	cmp	r0, r3
    5bd4:	d02f      	beq.n	5c36 <_sercom_get_default_pad+0x6e>
    5bd6:	4b2a      	ldr	r3, [pc, #168]	; (5c80 <_sercom_get_default_pad+0xb8>)
    5bd8:	4298      	cmp	r0, r3
    5bda:	d142      	bne.n	5c62 <_sercom_get_default_pad+0x9a>
    5bdc:	2901      	cmp	r1, #1
    5bde:	d03a      	beq.n	5c56 <_sercom_get_default_pad+0x8e>
    5be0:	2900      	cmp	r1, #0
    5be2:	d046      	beq.n	5c72 <_sercom_get_default_pad+0xaa>
    5be4:	2902      	cmp	r1, #2
    5be6:	d038      	beq.n	5c5a <_sercom_get_default_pad+0x92>
    5be8:	2903      	cmp	r1, #3
    5bea:	d038      	beq.n	5c5e <_sercom_get_default_pad+0x96>
    5bec:	2000      	movs	r0, #0
    5bee:	e039      	b.n	5c64 <_sercom_get_default_pad+0x9c>
    5bf0:	4b24      	ldr	r3, [pc, #144]	; (5c84 <_sercom_get_default_pad+0xbc>)
    5bf2:	4298      	cmp	r0, r3
    5bf4:	d135      	bne.n	5c62 <_sercom_get_default_pad+0x9a>
    5bf6:	2901      	cmp	r1, #1
    5bf8:	d007      	beq.n	5c0a <_sercom_get_default_pad+0x42>
    5bfa:	2900      	cmp	r1, #0
    5bfc:	d033      	beq.n	5c66 <_sercom_get_default_pad+0x9e>
    5bfe:	2902      	cmp	r1, #2
    5c00:	d005      	beq.n	5c0e <_sercom_get_default_pad+0x46>
    5c02:	2903      	cmp	r1, #3
    5c04:	d005      	beq.n	5c12 <_sercom_get_default_pad+0x4a>
    5c06:	2000      	movs	r0, #0
    5c08:	e02c      	b.n	5c64 <_sercom_get_default_pad+0x9c>
    5c0a:	481f      	ldr	r0, [pc, #124]	; (5c88 <_sercom_get_default_pad+0xc0>)
    5c0c:	e02a      	b.n	5c64 <_sercom_get_default_pad+0x9c>
    5c0e:	481f      	ldr	r0, [pc, #124]	; (5c8c <_sercom_get_default_pad+0xc4>)
    5c10:	e028      	b.n	5c64 <_sercom_get_default_pad+0x9c>
    5c12:	481f      	ldr	r0, [pc, #124]	; (5c90 <_sercom_get_default_pad+0xc8>)
    5c14:	e026      	b.n	5c64 <_sercom_get_default_pad+0x9c>
    5c16:	2901      	cmp	r1, #1
    5c18:	d007      	beq.n	5c2a <_sercom_get_default_pad+0x62>
    5c1a:	2900      	cmp	r1, #0
    5c1c:	d025      	beq.n	5c6a <_sercom_get_default_pad+0xa2>
    5c1e:	2902      	cmp	r1, #2
    5c20:	d005      	beq.n	5c2e <_sercom_get_default_pad+0x66>
    5c22:	2903      	cmp	r1, #3
    5c24:	d005      	beq.n	5c32 <_sercom_get_default_pad+0x6a>
    5c26:	2000      	movs	r0, #0
    5c28:	e01c      	b.n	5c64 <_sercom_get_default_pad+0x9c>
    5c2a:	481a      	ldr	r0, [pc, #104]	; (5c94 <_sercom_get_default_pad+0xcc>)
    5c2c:	e01a      	b.n	5c64 <_sercom_get_default_pad+0x9c>
    5c2e:	481a      	ldr	r0, [pc, #104]	; (5c98 <_sercom_get_default_pad+0xd0>)
    5c30:	e018      	b.n	5c64 <_sercom_get_default_pad+0x9c>
    5c32:	481a      	ldr	r0, [pc, #104]	; (5c9c <_sercom_get_default_pad+0xd4>)
    5c34:	e016      	b.n	5c64 <_sercom_get_default_pad+0x9c>
    5c36:	2901      	cmp	r1, #1
    5c38:	d007      	beq.n	5c4a <_sercom_get_default_pad+0x82>
    5c3a:	2900      	cmp	r1, #0
    5c3c:	d017      	beq.n	5c6e <_sercom_get_default_pad+0xa6>
    5c3e:	2902      	cmp	r1, #2
    5c40:	d005      	beq.n	5c4e <_sercom_get_default_pad+0x86>
    5c42:	2903      	cmp	r1, #3
    5c44:	d005      	beq.n	5c52 <_sercom_get_default_pad+0x8a>
    5c46:	2000      	movs	r0, #0
    5c48:	e00c      	b.n	5c64 <_sercom_get_default_pad+0x9c>
    5c4a:	4815      	ldr	r0, [pc, #84]	; (5ca0 <_sercom_get_default_pad+0xd8>)
    5c4c:	e00a      	b.n	5c64 <_sercom_get_default_pad+0x9c>
    5c4e:	4815      	ldr	r0, [pc, #84]	; (5ca4 <_sercom_get_default_pad+0xdc>)
    5c50:	e008      	b.n	5c64 <_sercom_get_default_pad+0x9c>
    5c52:	4815      	ldr	r0, [pc, #84]	; (5ca8 <_sercom_get_default_pad+0xe0>)
    5c54:	e006      	b.n	5c64 <_sercom_get_default_pad+0x9c>
    5c56:	4815      	ldr	r0, [pc, #84]	; (5cac <_sercom_get_default_pad+0xe4>)
    5c58:	e004      	b.n	5c64 <_sercom_get_default_pad+0x9c>
    5c5a:	4815      	ldr	r0, [pc, #84]	; (5cb0 <_sercom_get_default_pad+0xe8>)
    5c5c:	e002      	b.n	5c64 <_sercom_get_default_pad+0x9c>
    5c5e:	4815      	ldr	r0, [pc, #84]	; (5cb4 <_sercom_get_default_pad+0xec>)
    5c60:	e000      	b.n	5c64 <_sercom_get_default_pad+0x9c>
    5c62:	2000      	movs	r0, #0
    5c64:	4770      	bx	lr
    5c66:	4814      	ldr	r0, [pc, #80]	; (5cb8 <_sercom_get_default_pad+0xf0>)
    5c68:	e7fc      	b.n	5c64 <_sercom_get_default_pad+0x9c>
    5c6a:	2003      	movs	r0, #3
    5c6c:	e7fa      	b.n	5c64 <_sercom_get_default_pad+0x9c>
    5c6e:	4813      	ldr	r0, [pc, #76]	; (5cbc <_sercom_get_default_pad+0xf4>)
    5c70:	e7f8      	b.n	5c64 <_sercom_get_default_pad+0x9c>
    5c72:	4813      	ldr	r0, [pc, #76]	; (5cc0 <_sercom_get_default_pad+0xf8>)
    5c74:	e7f6      	b.n	5c64 <_sercom_get_default_pad+0x9c>
    5c76:	46c0      	nop			; (mov r8, r8)
    5c78:	42000c00 	.word	0x42000c00
    5c7c:	42001000 	.word	0x42001000
    5c80:	42001400 	.word	0x42001400
    5c84:	42000800 	.word	0x42000800
    5c88:	00050003 	.word	0x00050003
    5c8c:	00060003 	.word	0x00060003
    5c90:	00070003 	.word	0x00070003
    5c94:	00010003 	.word	0x00010003
    5c98:	001e0003 	.word	0x001e0003
    5c9c:	001f0003 	.word	0x001f0003
    5ca0:	00090003 	.word	0x00090003
    5ca4:	000a0003 	.word	0x000a0003
    5ca8:	000b0003 	.word	0x000b0003
    5cac:	00110003 	.word	0x00110003
    5cb0:	00120003 	.word	0x00120003
    5cb4:	00130003 	.word	0x00130003
    5cb8:	00040003 	.word	0x00040003
    5cbc:	00080003 	.word	0x00080003
    5cc0:	00100003 	.word	0x00100003

00005cc4 <_sercom_get_sercom_inst_index>:
    5cc4:	b530      	push	{r4, r5, lr}
    5cc6:	b085      	sub	sp, #20
    5cc8:	466a      	mov	r2, sp
    5cca:	4b0f      	ldr	r3, [pc, #60]	; (5d08 <_sercom_get_sercom_inst_index+0x44>)
    5ccc:	cb32      	ldmia	r3!, {r1, r4, r5}
    5cce:	c232      	stmia	r2!, {r1, r4, r5}
    5cd0:	681b      	ldr	r3, [r3, #0]
    5cd2:	6013      	str	r3, [r2, #0]
    5cd4:	0003      	movs	r3, r0
    5cd6:	9a00      	ldr	r2, [sp, #0]
    5cd8:	4282      	cmp	r2, r0
    5cda:	d011      	beq.n	5d00 <_sercom_get_sercom_inst_index+0x3c>
    5cdc:	9a01      	ldr	r2, [sp, #4]
    5cde:	4282      	cmp	r2, r0
    5ce0:	d00a      	beq.n	5cf8 <_sercom_get_sercom_inst_index+0x34>
    5ce2:	9a02      	ldr	r2, [sp, #8]
    5ce4:	4282      	cmp	r2, r0
    5ce6:	d009      	beq.n	5cfc <_sercom_get_sercom_inst_index+0x38>
    5ce8:	2000      	movs	r0, #0
    5cea:	9a03      	ldr	r2, [sp, #12]
    5cec:	429a      	cmp	r2, r3
    5cee:	d001      	beq.n	5cf4 <_sercom_get_sercom_inst_index+0x30>
    5cf0:	b005      	add	sp, #20
    5cf2:	bd30      	pop	{r4, r5, pc}
    5cf4:	3003      	adds	r0, #3
    5cf6:	e004      	b.n	5d02 <_sercom_get_sercom_inst_index+0x3e>
    5cf8:	2001      	movs	r0, #1
    5cfa:	e002      	b.n	5d02 <_sercom_get_sercom_inst_index+0x3e>
    5cfc:	2002      	movs	r0, #2
    5cfe:	e000      	b.n	5d02 <_sercom_get_sercom_inst_index+0x3e>
    5d00:	2000      	movs	r0, #0
    5d02:	b2c0      	uxtb	r0, r0
    5d04:	e7f4      	b.n	5cf0 <_sercom_get_sercom_inst_index+0x2c>
    5d06:	46c0      	nop			; (mov r8, r8)
    5d08:	00008d18 	.word	0x00008d18

00005d0c <_sercom_default_handler>:
    5d0c:	4770      	bx	lr
	...

00005d10 <_sercom_set_handler>:
    5d10:	b530      	push	{r4, r5, lr}
    5d12:	4b0b      	ldr	r3, [pc, #44]	; (5d40 <_sercom_set_handler+0x30>)
    5d14:	781b      	ldrb	r3, [r3, #0]
    5d16:	2b00      	cmp	r3, #0
    5d18:	d10e      	bne.n	5d38 <_sercom_set_handler+0x28>
    5d1a:	4c0a      	ldr	r4, [pc, #40]	; (5d44 <_sercom_set_handler+0x34>)
    5d1c:	4d0a      	ldr	r5, [pc, #40]	; (5d48 <_sercom_set_handler+0x38>)
    5d1e:	6025      	str	r5, [r4, #0]
    5d20:	4b0a      	ldr	r3, [pc, #40]	; (5d4c <_sercom_set_handler+0x3c>)
    5d22:	2200      	movs	r2, #0
    5d24:	601a      	str	r2, [r3, #0]
    5d26:	6065      	str	r5, [r4, #4]
    5d28:	605a      	str	r2, [r3, #4]
    5d2a:	60a5      	str	r5, [r4, #8]
    5d2c:	609a      	str	r2, [r3, #8]
    5d2e:	60e5      	str	r5, [r4, #12]
    5d30:	60da      	str	r2, [r3, #12]
    5d32:	3201      	adds	r2, #1
    5d34:	4b02      	ldr	r3, [pc, #8]	; (5d40 <_sercom_set_handler+0x30>)
    5d36:	701a      	strb	r2, [r3, #0]
    5d38:	0080      	lsls	r0, r0, #2
    5d3a:	4b02      	ldr	r3, [pc, #8]	; (5d44 <_sercom_set_handler+0x34>)
    5d3c:	50c1      	str	r1, [r0, r3]
    5d3e:	bd30      	pop	{r4, r5, pc}
    5d40:	2000025e 	.word	0x2000025e
    5d44:	20000260 	.word	0x20000260
    5d48:	00005d0d 	.word	0x00005d0d
    5d4c:	20003250 	.word	0x20003250

00005d50 <_sercom_get_interrupt_vector>:
    5d50:	b510      	push	{r4, lr}
    5d52:	b082      	sub	sp, #8
    5d54:	ac01      	add	r4, sp, #4
    5d56:	2307      	movs	r3, #7
    5d58:	7023      	strb	r3, [r4, #0]
    5d5a:	3301      	adds	r3, #1
    5d5c:	7063      	strb	r3, [r4, #1]
    5d5e:	3301      	adds	r3, #1
    5d60:	70a3      	strb	r3, [r4, #2]
    5d62:	3301      	adds	r3, #1
    5d64:	70e3      	strb	r3, [r4, #3]
    5d66:	4b02      	ldr	r3, [pc, #8]	; (5d70 <_sercom_get_interrupt_vector+0x20>)
    5d68:	4798      	blx	r3
    5d6a:	5620      	ldrsb	r0, [r4, r0]
    5d6c:	b002      	add	sp, #8
    5d6e:	bd10      	pop	{r4, pc}
    5d70:	00005cc5 	.word	0x00005cc5

00005d74 <SERCOM0_Handler>:
    5d74:	b510      	push	{r4, lr}
    5d76:	4b02      	ldr	r3, [pc, #8]	; (5d80 <SERCOM0_Handler+0xc>)
    5d78:	681b      	ldr	r3, [r3, #0]
    5d7a:	2000      	movs	r0, #0
    5d7c:	4798      	blx	r3
    5d7e:	bd10      	pop	{r4, pc}
    5d80:	20000260 	.word	0x20000260

00005d84 <SERCOM1_Handler>:
    5d84:	b510      	push	{r4, lr}
    5d86:	4b02      	ldr	r3, [pc, #8]	; (5d90 <SERCOM1_Handler+0xc>)
    5d88:	685b      	ldr	r3, [r3, #4]
    5d8a:	2001      	movs	r0, #1
    5d8c:	4798      	blx	r3
    5d8e:	bd10      	pop	{r4, pc}
    5d90:	20000260 	.word	0x20000260

00005d94 <SERCOM2_Handler>:
    5d94:	b510      	push	{r4, lr}
    5d96:	4b02      	ldr	r3, [pc, #8]	; (5da0 <SERCOM2_Handler+0xc>)
    5d98:	689b      	ldr	r3, [r3, #8]
    5d9a:	2002      	movs	r0, #2
    5d9c:	4798      	blx	r3
    5d9e:	bd10      	pop	{r4, pc}
    5da0:	20000260 	.word	0x20000260

00005da4 <SERCOM3_Handler>:
    5da4:	b510      	push	{r4, lr}
    5da6:	4b02      	ldr	r3, [pc, #8]	; (5db0 <SERCOM3_Handler+0xc>)
    5da8:	68db      	ldr	r3, [r3, #12]
    5daa:	2003      	movs	r0, #3
    5dac:	4798      	blx	r3
    5dae:	bd10      	pop	{r4, pc}
    5db0:	20000260 	.word	0x20000260

00005db4 <usart_init>:
    5db4:	b5f0      	push	{r4, r5, r6, r7, lr}
    5db6:	46de      	mov	lr, fp
    5db8:	4657      	mov	r7, sl
    5dba:	464e      	mov	r6, r9
    5dbc:	4645      	mov	r5, r8
    5dbe:	b5e0      	push	{r5, r6, r7, lr}
    5dc0:	b08d      	sub	sp, #52	; 0x34
    5dc2:	0005      	movs	r5, r0
    5dc4:	000c      	movs	r4, r1
    5dc6:	0016      	movs	r6, r2
    5dc8:	6029      	str	r1, [r5, #0]
    5dca:	0008      	movs	r0, r1
    5dcc:	4b80      	ldr	r3, [pc, #512]	; (5fd0 <usart_init+0x21c>)
    5dce:	4798      	blx	r3
    5dd0:	0002      	movs	r2, r0
    5dd2:	6823      	ldr	r3, [r4, #0]
    5dd4:	2005      	movs	r0, #5
    5dd6:	07db      	lsls	r3, r3, #31
    5dd8:	d506      	bpl.n	5de8 <usart_init+0x34>
    5dda:	b00d      	add	sp, #52	; 0x34
    5ddc:	bc3c      	pop	{r2, r3, r4, r5}
    5dde:	4690      	mov	r8, r2
    5de0:	4699      	mov	r9, r3
    5de2:	46a2      	mov	sl, r4
    5de4:	46ab      	mov	fp, r5
    5de6:	bdf0      	pop	{r4, r5, r6, r7, pc}
    5de8:	6823      	ldr	r3, [r4, #0]
    5dea:	3017      	adds	r0, #23
    5dec:	079b      	lsls	r3, r3, #30
    5dee:	d4f4      	bmi.n	5dda <usart_init+0x26>
    5df0:	4978      	ldr	r1, [pc, #480]	; (5fd4 <usart_init+0x220>)
    5df2:	6a08      	ldr	r0, [r1, #32]
    5df4:	1c97      	adds	r7, r2, #2
    5df6:	2301      	movs	r3, #1
    5df8:	40bb      	lsls	r3, r7
    5dfa:	4303      	orrs	r3, r0
    5dfc:	620b      	str	r3, [r1, #32]
    5dfe:	a90b      	add	r1, sp, #44	; 0x2c
    5e00:	7f73      	ldrb	r3, [r6, #29]
    5e02:	700b      	strb	r3, [r1, #0]
    5e04:	320d      	adds	r2, #13
    5e06:	b2d7      	uxtb	r7, r2
    5e08:	0038      	movs	r0, r7
    5e0a:	4b73      	ldr	r3, [pc, #460]	; (5fd8 <usart_init+0x224>)
    5e0c:	4798      	blx	r3
    5e0e:	0038      	movs	r0, r7
    5e10:	4b72      	ldr	r3, [pc, #456]	; (5fdc <usart_init+0x228>)
    5e12:	4798      	blx	r3
    5e14:	7f70      	ldrb	r0, [r6, #29]
    5e16:	2100      	movs	r1, #0
    5e18:	4b71      	ldr	r3, [pc, #452]	; (5fe0 <usart_init+0x22c>)
    5e1a:	4798      	blx	r3
    5e1c:	7af3      	ldrb	r3, [r6, #11]
    5e1e:	716b      	strb	r3, [r5, #5]
    5e20:	7d33      	ldrb	r3, [r6, #20]
    5e22:	71ab      	strb	r3, [r5, #6]
    5e24:	7d73      	ldrb	r3, [r6, #21]
    5e26:	71eb      	strb	r3, [r5, #7]
    5e28:	682b      	ldr	r3, [r5, #0]
    5e2a:	4698      	mov	r8, r3
    5e2c:	0018      	movs	r0, r3
    5e2e:	4b68      	ldr	r3, [pc, #416]	; (5fd0 <usart_init+0x21c>)
    5e30:	4798      	blx	r3
    5e32:	300d      	adds	r0, #13
    5e34:	2200      	movs	r2, #0
    5e36:	230e      	movs	r3, #14
    5e38:	a902      	add	r1, sp, #8
    5e3a:	468c      	mov	ip, r1
    5e3c:	4463      	add	r3, ip
    5e3e:	801a      	strh	r2, [r3, #0]
    5e40:	6833      	ldr	r3, [r6, #0]
    5e42:	9303      	str	r3, [sp, #12]
    5e44:	68f3      	ldr	r3, [r6, #12]
    5e46:	469a      	mov	sl, r3
    5e48:	7db3      	ldrb	r3, [r6, #22]
    5e4a:	469b      	mov	fp, r3
    5e4c:	6873      	ldr	r3, [r6, #4]
    5e4e:	4699      	mov	r9, r3
    5e50:	2b00      	cmp	r3, #0
    5e52:	d014      	beq.n	5e7e <usart_init+0xca>
    5e54:	2380      	movs	r3, #128	; 0x80
    5e56:	055b      	lsls	r3, r3, #21
    5e58:	4599      	cmp	r9, r3
    5e5a:	d130      	bne.n	5ebe <usart_init+0x10a>
    5e5c:	7df3      	ldrb	r3, [r6, #23]
    5e5e:	2b00      	cmp	r3, #0
    5e60:	d131      	bne.n	5ec6 <usart_init+0x112>
    5e62:	6933      	ldr	r3, [r6, #16]
    5e64:	001f      	movs	r7, r3
    5e66:	b2c0      	uxtb	r0, r0
    5e68:	4b5e      	ldr	r3, [pc, #376]	; (5fe4 <usart_init+0x230>)
    5e6a:	4798      	blx	r3
    5e6c:	0001      	movs	r1, r0
    5e6e:	220e      	movs	r2, #14
    5e70:	ab02      	add	r3, sp, #8
    5e72:	469c      	mov	ip, r3
    5e74:	4462      	add	r2, ip
    5e76:	0038      	movs	r0, r7
    5e78:	4b5b      	ldr	r3, [pc, #364]	; (5fe8 <usart_init+0x234>)
    5e7a:	4798      	blx	r3
    5e7c:	e020      	b.n	5ec0 <usart_init+0x10c>
    5e7e:	7df3      	ldrb	r3, [r6, #23]
    5e80:	2b00      	cmp	r3, #0
    5e82:	d00b      	beq.n	5e9c <usart_init+0xe8>
    5e84:	2310      	movs	r3, #16
    5e86:	9300      	str	r3, [sp, #0]
    5e88:	2300      	movs	r3, #0
    5e8a:	220e      	movs	r2, #14
    5e8c:	a902      	add	r1, sp, #8
    5e8e:	468c      	mov	ip, r1
    5e90:	4462      	add	r2, ip
    5e92:	69b1      	ldr	r1, [r6, #24]
    5e94:	6930      	ldr	r0, [r6, #16]
    5e96:	4f55      	ldr	r7, [pc, #340]	; (5fec <usart_init+0x238>)
    5e98:	47b8      	blx	r7
    5e9a:	e011      	b.n	5ec0 <usart_init+0x10c>
    5e9c:	6933      	ldr	r3, [r6, #16]
    5e9e:	001f      	movs	r7, r3
    5ea0:	b2c0      	uxtb	r0, r0
    5ea2:	4b50      	ldr	r3, [pc, #320]	; (5fe4 <usart_init+0x230>)
    5ea4:	4798      	blx	r3
    5ea6:	0001      	movs	r1, r0
    5ea8:	2310      	movs	r3, #16
    5eaa:	9300      	str	r3, [sp, #0]
    5eac:	2300      	movs	r3, #0
    5eae:	220e      	movs	r2, #14
    5eb0:	a802      	add	r0, sp, #8
    5eb2:	4684      	mov	ip, r0
    5eb4:	4462      	add	r2, ip
    5eb6:	0038      	movs	r0, r7
    5eb8:	4f4c      	ldr	r7, [pc, #304]	; (5fec <usart_init+0x238>)
    5eba:	47b8      	blx	r7
    5ebc:	e000      	b.n	5ec0 <usart_init+0x10c>
    5ebe:	2000      	movs	r0, #0
    5ec0:	2800      	cmp	r0, #0
    5ec2:	d000      	beq.n	5ec6 <usart_init+0x112>
    5ec4:	e789      	b.n	5dda <usart_init+0x26>
    5ec6:	682a      	ldr	r2, [r5, #0]
    5ec8:	9f03      	ldr	r7, [sp, #12]
    5eca:	8a13      	ldrh	r3, [r2, #16]
    5ecc:	b21b      	sxth	r3, r3
    5ece:	2b00      	cmp	r3, #0
    5ed0:	dbfb      	blt.n	5eca <usart_init+0x116>
    5ed2:	230e      	movs	r3, #14
    5ed4:	aa02      	add	r2, sp, #8
    5ed6:	4694      	mov	ip, r2
    5ed8:	4463      	add	r3, ip
    5eda:	881b      	ldrh	r3, [r3, #0]
    5edc:	4642      	mov	r2, r8
    5ede:	8153      	strh	r3, [r2, #10]
    5ee0:	4653      	mov	r3, sl
    5ee2:	431f      	orrs	r7, r3
    5ee4:	464b      	mov	r3, r9
    5ee6:	431f      	orrs	r7, r3
    5ee8:	465b      	mov	r3, fp
    5eea:	075b      	lsls	r3, r3, #29
    5eec:	431f      	orrs	r7, r3
    5eee:	7df3      	ldrb	r3, [r6, #23]
    5ef0:	2b00      	cmp	r3, #0
    5ef2:	d101      	bne.n	5ef8 <usart_init+0x144>
    5ef4:	3304      	adds	r3, #4
    5ef6:	431f      	orrs	r7, r3
    5ef8:	7d31      	ldrb	r1, [r6, #20]
    5efa:	0449      	lsls	r1, r1, #17
    5efc:	7d73      	ldrb	r3, [r6, #21]
    5efe:	041b      	lsls	r3, r3, #16
    5f00:	430b      	orrs	r3, r1
    5f02:	7ab1      	ldrb	r1, [r6, #10]
    5f04:	7af2      	ldrb	r2, [r6, #11]
    5f06:	4311      	orrs	r1, r2
    5f08:	4319      	orrs	r1, r3
    5f0a:	8933      	ldrh	r3, [r6, #8]
    5f0c:	2bff      	cmp	r3, #255	; 0xff
    5f0e:	d003      	beq.n	5f18 <usart_init+0x164>
    5f10:	2280      	movs	r2, #128	; 0x80
    5f12:	0452      	lsls	r2, r2, #17
    5f14:	4317      	orrs	r7, r2
    5f16:	4319      	orrs	r1, r3
    5f18:	7f33      	ldrb	r3, [r6, #28]
    5f1a:	2b00      	cmp	r3, #0
    5f1c:	d103      	bne.n	5f26 <usart_init+0x172>
    5f1e:	4b34      	ldr	r3, [pc, #208]	; (5ff0 <usart_init+0x23c>)
    5f20:	789b      	ldrb	r3, [r3, #2]
    5f22:	079b      	lsls	r3, r3, #30
    5f24:	d501      	bpl.n	5f2a <usart_init+0x176>
    5f26:	2380      	movs	r3, #128	; 0x80
    5f28:	431f      	orrs	r7, r3
    5f2a:	682a      	ldr	r2, [r5, #0]
    5f2c:	8a13      	ldrh	r3, [r2, #16]
    5f2e:	b21b      	sxth	r3, r3
    5f30:	2b00      	cmp	r3, #0
    5f32:	dbfb      	blt.n	5f2c <usart_init+0x178>
    5f34:	4643      	mov	r3, r8
    5f36:	6059      	str	r1, [r3, #4]
    5f38:	682a      	ldr	r2, [r5, #0]
    5f3a:	8a13      	ldrh	r3, [r2, #16]
    5f3c:	b21b      	sxth	r3, r3
    5f3e:	2b00      	cmp	r3, #0
    5f40:	dbfb      	blt.n	5f3a <usart_init+0x186>
    5f42:	4643      	mov	r3, r8
    5f44:	601f      	str	r7, [r3, #0]
    5f46:	ab0a      	add	r3, sp, #40	; 0x28
    5f48:	2280      	movs	r2, #128	; 0x80
    5f4a:	701a      	strb	r2, [r3, #0]
    5f4c:	2200      	movs	r2, #0
    5f4e:	705a      	strb	r2, [r3, #1]
    5f50:	70da      	strb	r2, [r3, #3]
    5f52:	709a      	strb	r2, [r3, #2]
    5f54:	6a33      	ldr	r3, [r6, #32]
    5f56:	9306      	str	r3, [sp, #24]
    5f58:	6a73      	ldr	r3, [r6, #36]	; 0x24
    5f5a:	9307      	str	r3, [sp, #28]
    5f5c:	6ab3      	ldr	r3, [r6, #40]	; 0x28
    5f5e:	9308      	str	r3, [sp, #32]
    5f60:	6af3      	ldr	r3, [r6, #44]	; 0x2c
    5f62:	9303      	str	r3, [sp, #12]
    5f64:	9309      	str	r3, [sp, #36]	; 0x24
    5f66:	2700      	movs	r7, #0
    5f68:	ae06      	add	r6, sp, #24
    5f6a:	e006      	b.n	5f7a <usart_init+0x1c6>
    5f6c:	0020      	movs	r0, r4
    5f6e:	4b21      	ldr	r3, [pc, #132]	; (5ff4 <usart_init+0x240>)
    5f70:	4798      	blx	r3
    5f72:	e007      	b.n	5f84 <usart_init+0x1d0>
    5f74:	3701      	adds	r7, #1
    5f76:	2f04      	cmp	r7, #4
    5f78:	d00d      	beq.n	5f96 <usart_init+0x1e2>
    5f7a:	b2f9      	uxtb	r1, r7
    5f7c:	00bb      	lsls	r3, r7, #2
    5f7e:	5998      	ldr	r0, [r3, r6]
    5f80:	2800      	cmp	r0, #0
    5f82:	d0f3      	beq.n	5f6c <usart_init+0x1b8>
    5f84:	1c43      	adds	r3, r0, #1
    5f86:	d0f5      	beq.n	5f74 <usart_init+0x1c0>
    5f88:	a90a      	add	r1, sp, #40	; 0x28
    5f8a:	7008      	strb	r0, [r1, #0]
    5f8c:	0c00      	lsrs	r0, r0, #16
    5f8e:	b2c0      	uxtb	r0, r0
    5f90:	4b19      	ldr	r3, [pc, #100]	; (5ff8 <usart_init+0x244>)
    5f92:	4798      	blx	r3
    5f94:	e7ee      	b.n	5f74 <usart_init+0x1c0>
    5f96:	2300      	movs	r3, #0
    5f98:	60ab      	str	r3, [r5, #8]
    5f9a:	60eb      	str	r3, [r5, #12]
    5f9c:	612b      	str	r3, [r5, #16]
    5f9e:	61ab      	str	r3, [r5, #24]
    5fa0:	616b      	str	r3, [r5, #20]
    5fa2:	2200      	movs	r2, #0
    5fa4:	83eb      	strh	r3, [r5, #30]
    5fa6:	83ab      	strh	r3, [r5, #28]
    5fa8:	3320      	adds	r3, #32
    5faa:	54ea      	strb	r2, [r5, r3]
    5fac:	3301      	adds	r3, #1
    5fae:	54ea      	strb	r2, [r5, r3]
    5fb0:	3301      	adds	r3, #1
    5fb2:	54ea      	strb	r2, [r5, r3]
    5fb4:	3301      	adds	r3, #1
    5fb6:	54ea      	strb	r2, [r5, r3]
    5fb8:	6828      	ldr	r0, [r5, #0]
    5fba:	4b05      	ldr	r3, [pc, #20]	; (5fd0 <usart_init+0x21c>)
    5fbc:	4798      	blx	r3
    5fbe:	0004      	movs	r4, r0
    5fc0:	490e      	ldr	r1, [pc, #56]	; (5ffc <usart_init+0x248>)
    5fc2:	4b0f      	ldr	r3, [pc, #60]	; (6000 <usart_init+0x24c>)
    5fc4:	4798      	blx	r3
    5fc6:	00a4      	lsls	r4, r4, #2
    5fc8:	4b0e      	ldr	r3, [pc, #56]	; (6004 <usart_init+0x250>)
    5fca:	50e5      	str	r5, [r4, r3]
    5fcc:	2000      	movs	r0, #0
    5fce:	e704      	b.n	5dda <usart_init+0x26>
    5fd0:	00005cc5 	.word	0x00005cc5
    5fd4:	40000400 	.word	0x40000400
    5fd8:	00006625 	.word	0x00006625
    5fdc:	00006599 	.word	0x00006599
    5fe0:	00005b7d 	.word	0x00005b7d
    5fe4:	00006671 	.word	0x00006671
    5fe8:	00005abf 	.word	0x00005abf
    5fec:	00005ae9 	.word	0x00005ae9
    5ff0:	41002000 	.word	0x41002000
    5ff4:	00005bc9 	.word	0x00005bc9
    5ff8:	0000674d 	.word	0x0000674d
    5ffc:	000060ad 	.word	0x000060ad
    6000:	00005d11 	.word	0x00005d11
    6004:	20003250 	.word	0x20003250

00006008 <usart_write_wait>:
    6008:	79c2      	ldrb	r2, [r0, #7]
    600a:	231c      	movs	r3, #28
    600c:	2a00      	cmp	r2, #0
    600e:	d101      	bne.n	6014 <usart_write_wait+0xc>
    6010:	0018      	movs	r0, r3
    6012:	4770      	bx	lr
    6014:	8bc2      	ldrh	r2, [r0, #30]
    6016:	b292      	uxth	r2, r2
    6018:	3b17      	subs	r3, #23
    601a:	2a00      	cmp	r2, #0
    601c:	d1f8      	bne.n	6010 <usart_write_wait+0x8>
    601e:	6802      	ldr	r2, [r0, #0]
    6020:	8a13      	ldrh	r3, [r2, #16]
    6022:	b21b      	sxth	r3, r3
    6024:	2b00      	cmp	r3, #0
    6026:	dbfb      	blt.n	6020 <usart_write_wait+0x18>
    6028:	8311      	strh	r1, [r2, #24]
    602a:	2102      	movs	r1, #2
    602c:	7b93      	ldrb	r3, [r2, #14]
    602e:	420b      	tst	r3, r1
    6030:	d0fc      	beq.n	602c <usart_write_wait+0x24>
    6032:	2300      	movs	r3, #0
    6034:	e7ec      	b.n	6010 <usart_write_wait+0x8>
	...

00006038 <_usart_read_buffer>:
    6038:	b5f8      	push	{r3, r4, r5, r6, r7, lr}
    603a:	0006      	movs	r6, r0
    603c:	000c      	movs	r4, r1
    603e:	0015      	movs	r5, r2
    6040:	6807      	ldr	r7, [r0, #0]
    6042:	4b0a      	ldr	r3, [pc, #40]	; (606c <_usart_read_buffer+0x34>)
    6044:	4798      	blx	r3
    6046:	8bb3      	ldrh	r3, [r6, #28]
    6048:	b29b      	uxth	r3, r3
    604a:	2b00      	cmp	r3, #0
    604c:	d003      	beq.n	6056 <_usart_read_buffer+0x1e>
    604e:	4b08      	ldr	r3, [pc, #32]	; (6070 <_usart_read_buffer+0x38>)
    6050:	4798      	blx	r3
    6052:	2005      	movs	r0, #5
    6054:	bdf8      	pop	{r3, r4, r5, r6, r7, pc}
    6056:	83b5      	strh	r5, [r6, #28]
    6058:	4b05      	ldr	r3, [pc, #20]	; (6070 <_usart_read_buffer+0x38>)
    605a:	4798      	blx	r3
    605c:	6174      	str	r4, [r6, #20]
    605e:	2205      	movs	r2, #5
    6060:	2322      	movs	r3, #34	; 0x22
    6062:	54f2      	strb	r2, [r6, r3]
    6064:	3b1e      	subs	r3, #30
    6066:	737b      	strb	r3, [r7, #13]
    6068:	2000      	movs	r0, #0
    606a:	e7f3      	b.n	6054 <_usart_read_buffer+0x1c>
    606c:	0000596d 	.word	0x0000596d
    6070:	000059ad 	.word	0x000059ad

00006074 <usart_register_callback>:
    6074:	1c93      	adds	r3, r2, #2
    6076:	009b      	lsls	r3, r3, #2
    6078:	5019      	str	r1, [r3, r0]
    607a:	2120      	movs	r1, #32
    607c:	2301      	movs	r3, #1
    607e:	4093      	lsls	r3, r2
    6080:	001a      	movs	r2, r3
    6082:	5c43      	ldrb	r3, [r0, r1]
    6084:	4313      	orrs	r3, r2
    6086:	5443      	strb	r3, [r0, r1]
    6088:	4770      	bx	lr
	...

0000608c <usart_read_buffer_job>:
    608c:	b510      	push	{r4, lr}
    608e:	2317      	movs	r3, #23
    6090:	2a00      	cmp	r2, #0
    6092:	d101      	bne.n	6098 <usart_read_buffer_job+0xc>
    6094:	0018      	movs	r0, r3
    6096:	bd10      	pop	{r4, pc}
    6098:	7984      	ldrb	r4, [r0, #6]
    609a:	3305      	adds	r3, #5
    609c:	2c00      	cmp	r4, #0
    609e:	d0f9      	beq.n	6094 <usart_read_buffer_job+0x8>
    60a0:	4b01      	ldr	r3, [pc, #4]	; (60a8 <usart_read_buffer_job+0x1c>)
    60a2:	4798      	blx	r3
    60a4:	0003      	movs	r3, r0
    60a6:	e7f5      	b.n	6094 <usart_read_buffer_job+0x8>
    60a8:	00006039 	.word	0x00006039

000060ac <_usart_interrupt_handler>:
    60ac:	b5f8      	push	{r3, r4, r5, r6, r7, lr}
    60ae:	0080      	lsls	r0, r0, #2
    60b0:	4b46      	ldr	r3, [pc, #280]	; (61cc <_usart_interrupt_handler+0x120>)
    60b2:	58c5      	ldr	r5, [r0, r3]
    60b4:	682c      	ldr	r4, [r5, #0]
    60b6:	8a23      	ldrh	r3, [r4, #16]
    60b8:	b21b      	sxth	r3, r3
    60ba:	2b00      	cmp	r3, #0
    60bc:	dbfb      	blt.n	60b6 <_usart_interrupt_handler+0xa>
    60be:	7ba3      	ldrb	r3, [r4, #14]
    60c0:	7b66      	ldrb	r6, [r4, #13]
    60c2:	401e      	ands	r6, r3
    60c4:	2320      	movs	r3, #32
    60c6:	5ceb      	ldrb	r3, [r5, r3]
    60c8:	2221      	movs	r2, #33	; 0x21
    60ca:	5caf      	ldrb	r7, [r5, r2]
    60cc:	401f      	ands	r7, r3
    60ce:	07f3      	lsls	r3, r6, #31
    60d0:	d522      	bpl.n	6118 <_usart_interrupt_handler+0x6c>
    60d2:	8beb      	ldrh	r3, [r5, #30]
    60d4:	b29b      	uxth	r3, r3
    60d6:	2b00      	cmp	r3, #0
    60d8:	d01c      	beq.n	6114 <_usart_interrupt_handler+0x68>
    60da:	69aa      	ldr	r2, [r5, #24]
    60dc:	7813      	ldrb	r3, [r2, #0]
    60de:	b2db      	uxtb	r3, r3
    60e0:	1c51      	adds	r1, r2, #1
    60e2:	61a9      	str	r1, [r5, #24]
    60e4:	7969      	ldrb	r1, [r5, #5]
    60e6:	2901      	cmp	r1, #1
    60e8:	d00e      	beq.n	6108 <_usart_interrupt_handler+0x5c>
    60ea:	b29b      	uxth	r3, r3
    60ec:	05db      	lsls	r3, r3, #23
    60ee:	0ddb      	lsrs	r3, r3, #23
    60f0:	8323      	strh	r3, [r4, #24]
    60f2:	8beb      	ldrh	r3, [r5, #30]
    60f4:	3b01      	subs	r3, #1
    60f6:	b29b      	uxth	r3, r3
    60f8:	83eb      	strh	r3, [r5, #30]
    60fa:	2b00      	cmp	r3, #0
    60fc:	d10c      	bne.n	6118 <_usart_interrupt_handler+0x6c>
    60fe:	3301      	adds	r3, #1
    6100:	7323      	strb	r3, [r4, #12]
    6102:	3301      	adds	r3, #1
    6104:	7363      	strb	r3, [r4, #13]
    6106:	e007      	b.n	6118 <_usart_interrupt_handler+0x6c>
    6108:	7851      	ldrb	r1, [r2, #1]
    610a:	0209      	lsls	r1, r1, #8
    610c:	430b      	orrs	r3, r1
    610e:	3202      	adds	r2, #2
    6110:	61aa      	str	r2, [r5, #24]
    6112:	e7eb      	b.n	60ec <_usart_interrupt_handler+0x40>
    6114:	2301      	movs	r3, #1
    6116:	7323      	strb	r3, [r4, #12]
    6118:	07b3      	lsls	r3, r6, #30
    611a:	d506      	bpl.n	612a <_usart_interrupt_handler+0x7e>
    611c:	2302      	movs	r3, #2
    611e:	7323      	strb	r3, [r4, #12]
    6120:	2200      	movs	r2, #0
    6122:	3321      	adds	r3, #33	; 0x21
    6124:	54ea      	strb	r2, [r5, r3]
    6126:	07fb      	lsls	r3, r7, #31
    6128:	d416      	bmi.n	6158 <_usart_interrupt_handler+0xac>
    612a:	0773      	lsls	r3, r6, #29
    612c:	d54d      	bpl.n	61ca <_usart_interrupt_handler+0x11e>
    612e:	8bab      	ldrh	r3, [r5, #28]
    6130:	b29b      	uxth	r3, r3
    6132:	2b00      	cmp	r3, #0
    6134:	d047      	beq.n	61c6 <_usart_interrupt_handler+0x11a>
    6136:	8a23      	ldrh	r3, [r4, #16]
    6138:	b2db      	uxtb	r3, r3
    613a:	075a      	lsls	r2, r3, #29
    613c:	d020      	beq.n	6180 <_usart_interrupt_handler+0xd4>
    613e:	079a      	lsls	r2, r3, #30
    6140:	d50e      	bpl.n	6160 <_usart_interrupt_handler+0xb4>
    6142:	221a      	movs	r2, #26
    6144:	2322      	movs	r3, #34	; 0x22
    6146:	54ea      	strb	r2, [r5, r3]
    6148:	3b20      	subs	r3, #32
    614a:	8223      	strh	r3, [r4, #16]
    614c:	077b      	lsls	r3, r7, #29
    614e:	d53c      	bpl.n	61ca <_usart_interrupt_handler+0x11e>
    6150:	692b      	ldr	r3, [r5, #16]
    6152:	0028      	movs	r0, r5
    6154:	4798      	blx	r3
    6156:	e038      	b.n	61ca <_usart_interrupt_handler+0x11e>
    6158:	0028      	movs	r0, r5
    615a:	68ab      	ldr	r3, [r5, #8]
    615c:	4798      	blx	r3
    615e:	e7e4      	b.n	612a <_usart_interrupt_handler+0x7e>
    6160:	075a      	lsls	r2, r3, #29
    6162:	d505      	bpl.n	6170 <_usart_interrupt_handler+0xc4>
    6164:	221e      	movs	r2, #30
    6166:	2322      	movs	r3, #34	; 0x22
    6168:	54ea      	strb	r2, [r5, r3]
    616a:	3b1e      	subs	r3, #30
    616c:	8223      	strh	r3, [r4, #16]
    616e:	e7ed      	b.n	614c <_usart_interrupt_handler+0xa0>
    6170:	07db      	lsls	r3, r3, #31
    6172:	d5eb      	bpl.n	614c <_usart_interrupt_handler+0xa0>
    6174:	2213      	movs	r2, #19
    6176:	2322      	movs	r3, #34	; 0x22
    6178:	54ea      	strb	r2, [r5, r3]
    617a:	3b21      	subs	r3, #33	; 0x21
    617c:	8223      	strh	r3, [r4, #16]
    617e:	e7e5      	b.n	614c <_usart_interrupt_handler+0xa0>
    6180:	8b23      	ldrh	r3, [r4, #24]
    6182:	05db      	lsls	r3, r3, #23
    6184:	0ddb      	lsrs	r3, r3, #23
    6186:	b2da      	uxtb	r2, r3
    6188:	6969      	ldr	r1, [r5, #20]
    618a:	700a      	strb	r2, [r1, #0]
    618c:	696a      	ldr	r2, [r5, #20]
    618e:	1c51      	adds	r1, r2, #1
    6190:	6169      	str	r1, [r5, #20]
    6192:	7969      	ldrb	r1, [r5, #5]
    6194:	2901      	cmp	r1, #1
    6196:	d010      	beq.n	61ba <_usart_interrupt_handler+0x10e>
    6198:	8bab      	ldrh	r3, [r5, #28]
    619a:	3b01      	subs	r3, #1
    619c:	b29b      	uxth	r3, r3
    619e:	83ab      	strh	r3, [r5, #28]
    61a0:	2b00      	cmp	r3, #0
    61a2:	d112      	bne.n	61ca <_usart_interrupt_handler+0x11e>
    61a4:	3304      	adds	r3, #4
    61a6:	7323      	strb	r3, [r4, #12]
    61a8:	2200      	movs	r2, #0
    61aa:	331e      	adds	r3, #30
    61ac:	54ea      	strb	r2, [r5, r3]
    61ae:	07bb      	lsls	r3, r7, #30
    61b0:	d50b      	bpl.n	61ca <_usart_interrupt_handler+0x11e>
    61b2:	68eb      	ldr	r3, [r5, #12]
    61b4:	0028      	movs	r0, r5
    61b6:	4798      	blx	r3
    61b8:	e007      	b.n	61ca <_usart_interrupt_handler+0x11e>
    61ba:	0a1b      	lsrs	r3, r3, #8
    61bc:	7053      	strb	r3, [r2, #1]
    61be:	696b      	ldr	r3, [r5, #20]
    61c0:	3301      	adds	r3, #1
    61c2:	616b      	str	r3, [r5, #20]
    61c4:	e7e8      	b.n	6198 <_usart_interrupt_handler+0xec>
    61c6:	2304      	movs	r3, #4
    61c8:	7323      	strb	r3, [r4, #12]
    61ca:	bdf8      	pop	{r3, r4, r5, r6, r7, pc}
    61cc:	20003250 	.word	0x20003250

000061d0 <system_clock_source_get_hz>:
    61d0:	b510      	push	{r4, lr}
    61d2:	2807      	cmp	r0, #7
    61d4:	d803      	bhi.n	61de <system_clock_source_get_hz+0xe>
    61d6:	0080      	lsls	r0, r0, #2
    61d8:	4b16      	ldr	r3, [pc, #88]	; (6234 <system_clock_source_get_hz+0x64>)
    61da:	581b      	ldr	r3, [r3, r0]
    61dc:	469f      	mov	pc, r3
    61de:	2000      	movs	r0, #0
    61e0:	e027      	b.n	6232 <system_clock_source_get_hz+0x62>
    61e2:	4b15      	ldr	r3, [pc, #84]	; (6238 <system_clock_source_get_hz+0x68>)
    61e4:	68d8      	ldr	r0, [r3, #12]
    61e6:	e024      	b.n	6232 <system_clock_source_get_hz+0x62>
    61e8:	4b14      	ldr	r3, [pc, #80]	; (623c <system_clock_source_get_hz+0x6c>)
    61ea:	6a1b      	ldr	r3, [r3, #32]
    61ec:	059b      	lsls	r3, r3, #22
    61ee:	0f9b      	lsrs	r3, r3, #30
    61f0:	4813      	ldr	r0, [pc, #76]	; (6240 <system_clock_source_get_hz+0x70>)
    61f2:	40d8      	lsrs	r0, r3
    61f4:	e01d      	b.n	6232 <system_clock_source_get_hz+0x62>
    61f6:	4b10      	ldr	r3, [pc, #64]	; (6238 <system_clock_source_get_hz+0x68>)
    61f8:	6918      	ldr	r0, [r3, #16]
    61fa:	e01a      	b.n	6232 <system_clock_source_get_hz+0x62>
    61fc:	4b0e      	ldr	r3, [pc, #56]	; (6238 <system_clock_source_get_hz+0x68>)
    61fe:	681b      	ldr	r3, [r3, #0]
    6200:	2000      	movs	r0, #0
    6202:	079b      	lsls	r3, r3, #30
    6204:	d515      	bpl.n	6232 <system_clock_source_get_hz+0x62>
    6206:	490d      	ldr	r1, [pc, #52]	; (623c <system_clock_source_get_hz+0x6c>)
    6208:	2210      	movs	r2, #16
    620a:	68cb      	ldr	r3, [r1, #12]
    620c:	421a      	tst	r2, r3
    620e:	d0fc      	beq.n	620a <system_clock_source_get_hz+0x3a>
    6210:	4b09      	ldr	r3, [pc, #36]	; (6238 <system_clock_source_get_hz+0x68>)
    6212:	681b      	ldr	r3, [r3, #0]
    6214:	075b      	lsls	r3, r3, #29
    6216:	d401      	bmi.n	621c <system_clock_source_get_hz+0x4c>
    6218:	480a      	ldr	r0, [pc, #40]	; (6244 <system_clock_source_get_hz+0x74>)
    621a:	e00a      	b.n	6232 <system_clock_source_get_hz+0x62>
    621c:	2000      	movs	r0, #0
    621e:	4b0a      	ldr	r3, [pc, #40]	; (6248 <system_clock_source_get_hz+0x78>)
    6220:	4798      	blx	r3
    6222:	4b05      	ldr	r3, [pc, #20]	; (6238 <system_clock_source_get_hz+0x68>)
    6224:	689b      	ldr	r3, [r3, #8]
    6226:	041b      	lsls	r3, r3, #16
    6228:	0c1b      	lsrs	r3, r3, #16
    622a:	4358      	muls	r0, r3
    622c:	e001      	b.n	6232 <system_clock_source_get_hz+0x62>
    622e:	2080      	movs	r0, #128	; 0x80
    6230:	0200      	lsls	r0, r0, #8
    6232:	bd10      	pop	{r4, pc}
    6234:	00008d28 	.word	0x00008d28
    6238:	20000270 	.word	0x20000270
    623c:	40000800 	.word	0x40000800
    6240:	007a1200 	.word	0x007a1200
    6244:	02dc6c00 	.word	0x02dc6c00
    6248:	00006671 	.word	0x00006671

0000624c <system_clock_source_osc8m_set_config>:
    624c:	b570      	push	{r4, r5, r6, lr}
    624e:	490c      	ldr	r1, [pc, #48]	; (6280 <system_clock_source_osc8m_set_config+0x34>)
    6250:	6a0b      	ldr	r3, [r1, #32]
    6252:	7804      	ldrb	r4, [r0, #0]
    6254:	7885      	ldrb	r5, [r0, #2]
    6256:	7840      	ldrb	r0, [r0, #1]
    6258:	2201      	movs	r2, #1
    625a:	4010      	ands	r0, r2
    625c:	0180      	lsls	r0, r0, #6
    625e:	2640      	movs	r6, #64	; 0x40
    6260:	43b3      	bics	r3, r6
    6262:	4303      	orrs	r3, r0
    6264:	402a      	ands	r2, r5
    6266:	01d2      	lsls	r2, r2, #7
    6268:	2080      	movs	r0, #128	; 0x80
    626a:	4383      	bics	r3, r0
    626c:	4313      	orrs	r3, r2
    626e:	2203      	movs	r2, #3
    6270:	4022      	ands	r2, r4
    6272:	0212      	lsls	r2, r2, #8
    6274:	4803      	ldr	r0, [pc, #12]	; (6284 <system_clock_source_osc8m_set_config+0x38>)
    6276:	4003      	ands	r3, r0
    6278:	4313      	orrs	r3, r2
    627a:	620b      	str	r3, [r1, #32]
    627c:	bd70      	pop	{r4, r5, r6, pc}
    627e:	46c0      	nop			; (mov r8, r8)
    6280:	40000800 	.word	0x40000800
    6284:	fffffcff 	.word	0xfffffcff

00006288 <system_clock_source_enable>:
    6288:	2807      	cmp	r0, #7
    628a:	d803      	bhi.n	6294 <system_clock_source_enable+0xc>
    628c:	0080      	lsls	r0, r0, #2
    628e:	4b1e      	ldr	r3, [pc, #120]	; (6308 <system_clock_source_enable+0x80>)
    6290:	581b      	ldr	r3, [r3, r0]
    6292:	469f      	mov	pc, r3
    6294:	2017      	movs	r0, #23
    6296:	e036      	b.n	6306 <system_clock_source_enable+0x7e>
    6298:	4a1c      	ldr	r2, [pc, #112]	; (630c <system_clock_source_enable+0x84>)
    629a:	6a13      	ldr	r3, [r2, #32]
    629c:	2102      	movs	r1, #2
    629e:	430b      	orrs	r3, r1
    62a0:	6213      	str	r3, [r2, #32]
    62a2:	2000      	movs	r0, #0
    62a4:	e02f      	b.n	6306 <system_clock_source_enable+0x7e>
    62a6:	4a19      	ldr	r2, [pc, #100]	; (630c <system_clock_source_enable+0x84>)
    62a8:	6993      	ldr	r3, [r2, #24]
    62aa:	2102      	movs	r1, #2
    62ac:	430b      	orrs	r3, r1
    62ae:	6193      	str	r3, [r2, #24]
    62b0:	2000      	movs	r0, #0
    62b2:	e028      	b.n	6306 <system_clock_source_enable+0x7e>
    62b4:	4a15      	ldr	r2, [pc, #84]	; (630c <system_clock_source_enable+0x84>)
    62b6:	8a13      	ldrh	r3, [r2, #16]
    62b8:	2102      	movs	r1, #2
    62ba:	430b      	orrs	r3, r1
    62bc:	8213      	strh	r3, [r2, #16]
    62be:	2000      	movs	r0, #0
    62c0:	e021      	b.n	6306 <system_clock_source_enable+0x7e>
    62c2:	4a12      	ldr	r2, [pc, #72]	; (630c <system_clock_source_enable+0x84>)
    62c4:	8a93      	ldrh	r3, [r2, #20]
    62c6:	2102      	movs	r1, #2
    62c8:	430b      	orrs	r3, r1
    62ca:	8293      	strh	r3, [r2, #20]
    62cc:	2000      	movs	r0, #0
    62ce:	e01a      	b.n	6306 <system_clock_source_enable+0x7e>
    62d0:	4b0f      	ldr	r3, [pc, #60]	; (6310 <system_clock_source_enable+0x88>)
    62d2:	681a      	ldr	r2, [r3, #0]
    62d4:	2102      	movs	r1, #2
    62d6:	430a      	orrs	r2, r1
    62d8:	601a      	str	r2, [r3, #0]
    62da:	681b      	ldr	r3, [r3, #0]
    62dc:	4a0d      	ldr	r2, [pc, #52]	; (6314 <system_clock_source_enable+0x8c>)
    62de:	4013      	ands	r3, r2
    62e0:	4a0a      	ldr	r2, [pc, #40]	; (630c <system_clock_source_enable+0x84>)
    62e2:	8493      	strh	r3, [r2, #36]	; 0x24
    62e4:	0011      	movs	r1, r2
    62e6:	2210      	movs	r2, #16
    62e8:	68cb      	ldr	r3, [r1, #12]
    62ea:	421a      	tst	r2, r3
    62ec:	d0fc      	beq.n	62e8 <system_clock_source_enable+0x60>
    62ee:	4a08      	ldr	r2, [pc, #32]	; (6310 <system_clock_source_enable+0x88>)
    62f0:	6891      	ldr	r1, [r2, #8]
    62f2:	4b06      	ldr	r3, [pc, #24]	; (630c <system_clock_source_enable+0x84>)
    62f4:	62d9      	str	r1, [r3, #44]	; 0x2c
    62f6:	6851      	ldr	r1, [r2, #4]
    62f8:	6299      	str	r1, [r3, #40]	; 0x28
    62fa:	6812      	ldr	r2, [r2, #0]
    62fc:	b292      	uxth	r2, r2
    62fe:	849a      	strh	r2, [r3, #36]	; 0x24
    6300:	2000      	movs	r0, #0
    6302:	e000      	b.n	6306 <system_clock_source_enable+0x7e>
    6304:	2000      	movs	r0, #0
    6306:	4770      	bx	lr
    6308:	00008d48 	.word	0x00008d48
    630c:	40000800 	.word	0x40000800
    6310:	20000270 	.word	0x20000270
    6314:	0000ff7f 	.word	0x0000ff7f

00006318 <system_clock_init>:
    6318:	b5f0      	push	{r4, r5, r6, r7, lr}
    631a:	46c6      	mov	lr, r8
    631c:	b500      	push	{lr}
    631e:	b084      	sub	sp, #16
    6320:	22c2      	movs	r2, #194	; 0xc2
    6322:	00d2      	lsls	r2, r2, #3
    6324:	4b28      	ldr	r3, [pc, #160]	; (63c8 <system_clock_init+0xb0>)
    6326:	609a      	str	r2, [r3, #8]
    6328:	4a28      	ldr	r2, [pc, #160]	; (63cc <system_clock_init+0xb4>)
    632a:	6853      	ldr	r3, [r2, #4]
    632c:	211e      	movs	r1, #30
    632e:	438b      	bics	r3, r1
    6330:	6053      	str	r3, [r2, #4]
    6332:	2302      	movs	r3, #2
    6334:	466a      	mov	r2, sp
    6336:	7013      	strb	r3, [r2, #0]
    6338:	2400      	movs	r4, #0
    633a:	4d25      	ldr	r5, [pc, #148]	; (63d0 <system_clock_init+0xb8>)
    633c:	b2e0      	uxtb	r0, r4
    633e:	4669      	mov	r1, sp
    6340:	47a8      	blx	r5
    6342:	3401      	adds	r4, #1
    6344:	2c1c      	cmp	r4, #28
    6346:	d1f9      	bne.n	633c <system_clock_init+0x24>
    6348:	a803      	add	r0, sp, #12
    634a:	2400      	movs	r4, #0
    634c:	7044      	strb	r4, [r0, #1]
    634e:	2301      	movs	r3, #1
    6350:	4698      	mov	r8, r3
    6352:	7083      	strb	r3, [r0, #2]
    6354:	7004      	strb	r4, [r0, #0]
    6356:	4b1f      	ldr	r3, [pc, #124]	; (63d4 <system_clock_init+0xbc>)
    6358:	4798      	blx	r3
    635a:	2006      	movs	r0, #6
    635c:	4b1e      	ldr	r3, [pc, #120]	; (63d8 <system_clock_init+0xc0>)
    635e:	4798      	blx	r3
    6360:	4b1e      	ldr	r3, [pc, #120]	; (63dc <system_clock_init+0xc4>)
    6362:	4798      	blx	r3
    6364:	466b      	mov	r3, sp
    6366:	705c      	strb	r4, [r3, #1]
    6368:	2706      	movs	r7, #6
    636a:	701f      	strb	r7, [r3, #0]
    636c:	721c      	strb	r4, [r3, #8]
    636e:	725c      	strb	r4, [r3, #9]
    6370:	2308      	movs	r3, #8
    6372:	9301      	str	r3, [sp, #4]
    6374:	4669      	mov	r1, sp
    6376:	2001      	movs	r0, #1
    6378:	4e19      	ldr	r6, [pc, #100]	; (63e0 <system_clock_init+0xc8>)
    637a:	47b0      	blx	r6
    637c:	2001      	movs	r0, #1
    637e:	4d19      	ldr	r5, [pc, #100]	; (63e4 <system_clock_init+0xcc>)
    6380:	47a8      	blx	r5
    6382:	466b      	mov	r3, sp
    6384:	705c      	strb	r4, [r3, #1]
    6386:	721c      	strb	r4, [r3, #8]
    6388:	725c      	strb	r4, [r3, #9]
    638a:	2303      	movs	r3, #3
    638c:	466a      	mov	r2, sp
    638e:	7013      	strb	r3, [r2, #0]
    6390:	331d      	adds	r3, #29
    6392:	9301      	str	r3, [sp, #4]
    6394:	4669      	mov	r1, sp
    6396:	2004      	movs	r0, #4
    6398:	47b0      	blx	r6
    639a:	2004      	movs	r0, #4
    639c:	47a8      	blx	r5
    639e:	4b12      	ldr	r3, [pc, #72]	; (63e8 <system_clock_init+0xd0>)
    63a0:	721c      	strb	r4, [r3, #8]
    63a2:	725c      	strb	r4, [r3, #9]
    63a4:	729c      	strb	r4, [r3, #10]
    63a6:	72dc      	strb	r4, [r3, #11]
    63a8:	4643      	mov	r3, r8
    63aa:	9301      	str	r3, [sp, #4]
    63ac:	466b      	mov	r3, sp
    63ae:	705c      	strb	r4, [r3, #1]
    63b0:	701f      	strb	r7, [r3, #0]
    63b2:	721c      	strb	r4, [r3, #8]
    63b4:	725c      	strb	r4, [r3, #9]
    63b6:	4669      	mov	r1, sp
    63b8:	2000      	movs	r0, #0
    63ba:	47b0      	blx	r6
    63bc:	2000      	movs	r0, #0
    63be:	47a8      	blx	r5
    63c0:	b004      	add	sp, #16
    63c2:	bc04      	pop	{r2}
    63c4:	4690      	mov	r8, r2
    63c6:	bdf0      	pop	{r4, r5, r6, r7, pc}
    63c8:	40000800 	.word	0x40000800
    63cc:	41004000 	.word	0x41004000
    63d0:	00006625 	.word	0x00006625
    63d4:	0000624d 	.word	0x0000624d
    63d8:	00006289 	.word	0x00006289
    63dc:	000063ed 	.word	0x000063ed
    63e0:	00006411 	.word	0x00006411
    63e4:	000064c9 	.word	0x000064c9
    63e8:	40000400 	.word	0x40000400

000063ec <system_gclk_init>:
    63ec:	4a06      	ldr	r2, [pc, #24]	; (6408 <system_gclk_init+0x1c>)
    63ee:	6993      	ldr	r3, [r2, #24]
    63f0:	2108      	movs	r1, #8
    63f2:	430b      	orrs	r3, r1
    63f4:	6193      	str	r3, [r2, #24]
    63f6:	2201      	movs	r2, #1
    63f8:	4b04      	ldr	r3, [pc, #16]	; (640c <system_gclk_init+0x20>)
    63fa:	701a      	strb	r2, [r3, #0]
    63fc:	0019      	movs	r1, r3
    63fe:	780b      	ldrb	r3, [r1, #0]
    6400:	4213      	tst	r3, r2
    6402:	d1fc      	bne.n	63fe <system_gclk_init+0x12>
    6404:	4770      	bx	lr
    6406:	46c0      	nop			; (mov r8, r8)
    6408:	40000400 	.word	0x40000400
    640c:	40000c00 	.word	0x40000c00

00006410 <system_gclk_gen_set_config>:
    6410:	b570      	push	{r4, r5, r6, lr}
    6412:	0006      	movs	r6, r0
    6414:	0004      	movs	r4, r0
    6416:	780d      	ldrb	r5, [r1, #0]
    6418:	022d      	lsls	r5, r5, #8
    641a:	4305      	orrs	r5, r0
    641c:	784b      	ldrb	r3, [r1, #1]
    641e:	2b00      	cmp	r3, #0
    6420:	d002      	beq.n	6428 <system_gclk_gen_set_config+0x18>
    6422:	2380      	movs	r3, #128	; 0x80
    6424:	02db      	lsls	r3, r3, #11
    6426:	431d      	orrs	r5, r3
    6428:	7a4b      	ldrb	r3, [r1, #9]
    642a:	2b00      	cmp	r3, #0
    642c:	d002      	beq.n	6434 <system_gclk_gen_set_config+0x24>
    642e:	2380      	movs	r3, #128	; 0x80
    6430:	031b      	lsls	r3, r3, #12
    6432:	431d      	orrs	r5, r3
    6434:	6848      	ldr	r0, [r1, #4]
    6436:	2801      	cmp	r0, #1
    6438:	d910      	bls.n	645c <system_gclk_gen_set_config+0x4c>
    643a:	1e43      	subs	r3, r0, #1
    643c:	4218      	tst	r0, r3
    643e:	d134      	bne.n	64aa <system_gclk_gen_set_config+0x9a>
    6440:	2802      	cmp	r0, #2
    6442:	d930      	bls.n	64a6 <system_gclk_gen_set_config+0x96>
    6444:	2302      	movs	r3, #2
    6446:	2200      	movs	r2, #0
    6448:	3201      	adds	r2, #1
    644a:	005b      	lsls	r3, r3, #1
    644c:	4298      	cmp	r0, r3
    644e:	d8fb      	bhi.n	6448 <system_gclk_gen_set_config+0x38>
    6450:	0212      	lsls	r2, r2, #8
    6452:	4332      	orrs	r2, r6
    6454:	0014      	movs	r4, r2
    6456:	2380      	movs	r3, #128	; 0x80
    6458:	035b      	lsls	r3, r3, #13
    645a:	431d      	orrs	r5, r3
    645c:	7a0b      	ldrb	r3, [r1, #8]
    645e:	2b00      	cmp	r3, #0
    6460:	d002      	beq.n	6468 <system_gclk_gen_set_config+0x58>
    6462:	2380      	movs	r3, #128	; 0x80
    6464:	039b      	lsls	r3, r3, #14
    6466:	431d      	orrs	r5, r3
    6468:	4a13      	ldr	r2, [pc, #76]	; (64b8 <system_gclk_gen_set_config+0xa8>)
    646a:	7853      	ldrb	r3, [r2, #1]
    646c:	b25b      	sxtb	r3, r3
    646e:	2b00      	cmp	r3, #0
    6470:	dbfb      	blt.n	646a <system_gclk_gen_set_config+0x5a>
    6472:	4b12      	ldr	r3, [pc, #72]	; (64bc <system_gclk_gen_set_config+0xac>)
    6474:	4798      	blx	r3
    6476:	4b12      	ldr	r3, [pc, #72]	; (64c0 <system_gclk_gen_set_config+0xb0>)
    6478:	701e      	strb	r6, [r3, #0]
    647a:	4a0f      	ldr	r2, [pc, #60]	; (64b8 <system_gclk_gen_set_config+0xa8>)
    647c:	7853      	ldrb	r3, [r2, #1]
    647e:	b25b      	sxtb	r3, r3
    6480:	2b00      	cmp	r3, #0
    6482:	dbfb      	blt.n	647c <system_gclk_gen_set_config+0x6c>
    6484:	4b0c      	ldr	r3, [pc, #48]	; (64b8 <system_gclk_gen_set_config+0xa8>)
    6486:	609c      	str	r4, [r3, #8]
    6488:	001a      	movs	r2, r3
    648a:	7853      	ldrb	r3, [r2, #1]
    648c:	b25b      	sxtb	r3, r3
    648e:	2b00      	cmp	r3, #0
    6490:	dbfb      	blt.n	648a <system_gclk_gen_set_config+0x7a>
    6492:	4a09      	ldr	r2, [pc, #36]	; (64b8 <system_gclk_gen_set_config+0xa8>)
    6494:	6853      	ldr	r3, [r2, #4]
    6496:	2180      	movs	r1, #128	; 0x80
    6498:	0249      	lsls	r1, r1, #9
    649a:	400b      	ands	r3, r1
    649c:	431d      	orrs	r5, r3
    649e:	6055      	str	r5, [r2, #4]
    64a0:	4b08      	ldr	r3, [pc, #32]	; (64c4 <system_gclk_gen_set_config+0xb4>)
    64a2:	4798      	blx	r3
    64a4:	bd70      	pop	{r4, r5, r6, pc}
    64a6:	2200      	movs	r2, #0
    64a8:	e7d2      	b.n	6450 <system_gclk_gen_set_config+0x40>
    64aa:	0204      	lsls	r4, r0, #8
    64ac:	4334      	orrs	r4, r6
    64ae:	2380      	movs	r3, #128	; 0x80
    64b0:	029b      	lsls	r3, r3, #10
    64b2:	431d      	orrs	r5, r3
    64b4:	e7d2      	b.n	645c <system_gclk_gen_set_config+0x4c>
    64b6:	46c0      	nop			; (mov r8, r8)
    64b8:	40000c00 	.word	0x40000c00
    64bc:	0000596d 	.word	0x0000596d
    64c0:	40000c08 	.word	0x40000c08
    64c4:	000059ad 	.word	0x000059ad

000064c8 <system_gclk_gen_enable>:
    64c8:	b510      	push	{r4, lr}
    64ca:	0004      	movs	r4, r0
    64cc:	4a0b      	ldr	r2, [pc, #44]	; (64fc <system_gclk_gen_enable+0x34>)
    64ce:	7853      	ldrb	r3, [r2, #1]
    64d0:	b25b      	sxtb	r3, r3
    64d2:	2b00      	cmp	r3, #0
    64d4:	dbfb      	blt.n	64ce <system_gclk_gen_enable+0x6>
    64d6:	4b0a      	ldr	r3, [pc, #40]	; (6500 <system_gclk_gen_enable+0x38>)
    64d8:	4798      	blx	r3
    64da:	4b0a      	ldr	r3, [pc, #40]	; (6504 <system_gclk_gen_enable+0x3c>)
    64dc:	701c      	strb	r4, [r3, #0]
    64de:	4a07      	ldr	r2, [pc, #28]	; (64fc <system_gclk_gen_enable+0x34>)
    64e0:	7853      	ldrb	r3, [r2, #1]
    64e2:	b25b      	sxtb	r3, r3
    64e4:	2b00      	cmp	r3, #0
    64e6:	dbfb      	blt.n	64e0 <system_gclk_gen_enable+0x18>
    64e8:	4a04      	ldr	r2, [pc, #16]	; (64fc <system_gclk_gen_enable+0x34>)
    64ea:	6851      	ldr	r1, [r2, #4]
    64ec:	2380      	movs	r3, #128	; 0x80
    64ee:	025b      	lsls	r3, r3, #9
    64f0:	430b      	orrs	r3, r1
    64f2:	6053      	str	r3, [r2, #4]
    64f4:	4b04      	ldr	r3, [pc, #16]	; (6508 <system_gclk_gen_enable+0x40>)
    64f6:	4798      	blx	r3
    64f8:	bd10      	pop	{r4, pc}
    64fa:	46c0      	nop			; (mov r8, r8)
    64fc:	40000c00 	.word	0x40000c00
    6500:	0000596d 	.word	0x0000596d
    6504:	40000c04 	.word	0x40000c04
    6508:	000059ad 	.word	0x000059ad

0000650c <system_gclk_gen_get_hz>:
    650c:	b570      	push	{r4, r5, r6, lr}
    650e:	0004      	movs	r4, r0
    6510:	4a1a      	ldr	r2, [pc, #104]	; (657c <system_gclk_gen_get_hz+0x70>)
    6512:	7853      	ldrb	r3, [r2, #1]
    6514:	b25b      	sxtb	r3, r3
    6516:	2b00      	cmp	r3, #0
    6518:	dbfb      	blt.n	6512 <system_gclk_gen_get_hz+0x6>
    651a:	4b19      	ldr	r3, [pc, #100]	; (6580 <system_gclk_gen_get_hz+0x74>)
    651c:	4798      	blx	r3
    651e:	4b19      	ldr	r3, [pc, #100]	; (6584 <system_gclk_gen_get_hz+0x78>)
    6520:	701c      	strb	r4, [r3, #0]
    6522:	4a16      	ldr	r2, [pc, #88]	; (657c <system_gclk_gen_get_hz+0x70>)
    6524:	7853      	ldrb	r3, [r2, #1]
    6526:	b25b      	sxtb	r3, r3
    6528:	2b00      	cmp	r3, #0
    652a:	dbfb      	blt.n	6524 <system_gclk_gen_get_hz+0x18>
    652c:	4e13      	ldr	r6, [pc, #76]	; (657c <system_gclk_gen_get_hz+0x70>)
    652e:	6870      	ldr	r0, [r6, #4]
    6530:	04c0      	lsls	r0, r0, #19
    6532:	0ec0      	lsrs	r0, r0, #27
    6534:	4b14      	ldr	r3, [pc, #80]	; (6588 <system_gclk_gen_get_hz+0x7c>)
    6536:	4798      	blx	r3
    6538:	0005      	movs	r5, r0
    653a:	4b12      	ldr	r3, [pc, #72]	; (6584 <system_gclk_gen_get_hz+0x78>)
    653c:	701c      	strb	r4, [r3, #0]
    653e:	6876      	ldr	r6, [r6, #4]
    6540:	02f6      	lsls	r6, r6, #11
    6542:	0ff6      	lsrs	r6, r6, #31
    6544:	4b11      	ldr	r3, [pc, #68]	; (658c <system_gclk_gen_get_hz+0x80>)
    6546:	701c      	strb	r4, [r3, #0]
    6548:	4a0c      	ldr	r2, [pc, #48]	; (657c <system_gclk_gen_get_hz+0x70>)
    654a:	7853      	ldrb	r3, [r2, #1]
    654c:	b25b      	sxtb	r3, r3
    654e:	2b00      	cmp	r3, #0
    6550:	dbfb      	blt.n	654a <system_gclk_gen_get_hz+0x3e>
    6552:	4b0a      	ldr	r3, [pc, #40]	; (657c <system_gclk_gen_get_hz+0x70>)
    6554:	689c      	ldr	r4, [r3, #8]
    6556:	0224      	lsls	r4, r4, #8
    6558:	0c24      	lsrs	r4, r4, #16
    655a:	4b0d      	ldr	r3, [pc, #52]	; (6590 <system_gclk_gen_get_hz+0x84>)
    655c:	4798      	blx	r3
    655e:	2e00      	cmp	r6, #0
    6560:	d107      	bne.n	6572 <system_gclk_gen_get_hz+0x66>
    6562:	2c01      	cmp	r4, #1
    6564:	d907      	bls.n	6576 <system_gclk_gen_get_hz+0x6a>
    6566:	0021      	movs	r1, r4
    6568:	0028      	movs	r0, r5
    656a:	4b0a      	ldr	r3, [pc, #40]	; (6594 <system_gclk_gen_get_hz+0x88>)
    656c:	4798      	blx	r3
    656e:	0005      	movs	r5, r0
    6570:	e001      	b.n	6576 <system_gclk_gen_get_hz+0x6a>
    6572:	3401      	adds	r4, #1
    6574:	40e5      	lsrs	r5, r4
    6576:	0028      	movs	r0, r5
    6578:	bd70      	pop	{r4, r5, r6, pc}
    657a:	46c0      	nop			; (mov r8, r8)
    657c:	40000c00 	.word	0x40000c00
    6580:	0000596d 	.word	0x0000596d
    6584:	40000c04 	.word	0x40000c04
    6588:	000061d1 	.word	0x000061d1
    658c:	40000c08 	.word	0x40000c08
    6590:	000059ad 	.word	0x000059ad
    6594:	000071f9 	.word	0x000071f9

00006598 <system_gclk_chan_enable>:
    6598:	b510      	push	{r4, lr}
    659a:	0004      	movs	r4, r0
    659c:	4b06      	ldr	r3, [pc, #24]	; (65b8 <system_gclk_chan_enable+0x20>)
    659e:	4798      	blx	r3
    65a0:	4b06      	ldr	r3, [pc, #24]	; (65bc <system_gclk_chan_enable+0x24>)
    65a2:	701c      	strb	r4, [r3, #0]
    65a4:	4a06      	ldr	r2, [pc, #24]	; (65c0 <system_gclk_chan_enable+0x28>)
    65a6:	8853      	ldrh	r3, [r2, #2]
    65a8:	2180      	movs	r1, #128	; 0x80
    65aa:	01c9      	lsls	r1, r1, #7
    65ac:	430b      	orrs	r3, r1
    65ae:	8053      	strh	r3, [r2, #2]
    65b0:	4b04      	ldr	r3, [pc, #16]	; (65c4 <system_gclk_chan_enable+0x2c>)
    65b2:	4798      	blx	r3
    65b4:	bd10      	pop	{r4, pc}
    65b6:	46c0      	nop			; (mov r8, r8)
    65b8:	0000596d 	.word	0x0000596d
    65bc:	40000c02 	.word	0x40000c02
    65c0:	40000c00 	.word	0x40000c00
    65c4:	000059ad 	.word	0x000059ad

000065c8 <system_gclk_chan_disable>:
    65c8:	b510      	push	{r4, lr}
    65ca:	0004      	movs	r4, r0
    65cc:	4b0f      	ldr	r3, [pc, #60]	; (660c <system_gclk_chan_disable+0x44>)
    65ce:	4798      	blx	r3
    65d0:	4b0f      	ldr	r3, [pc, #60]	; (6610 <system_gclk_chan_disable+0x48>)
    65d2:	701c      	strb	r4, [r3, #0]
    65d4:	4a0f      	ldr	r2, [pc, #60]	; (6614 <system_gclk_chan_disable+0x4c>)
    65d6:	8853      	ldrh	r3, [r2, #2]
    65d8:	051b      	lsls	r3, r3, #20
    65da:	0f18      	lsrs	r0, r3, #28
    65dc:	8853      	ldrh	r3, [r2, #2]
    65de:	490e      	ldr	r1, [pc, #56]	; (6618 <system_gclk_chan_disable+0x50>)
    65e0:	400b      	ands	r3, r1
    65e2:	8053      	strh	r3, [r2, #2]
    65e4:	8853      	ldrh	r3, [r2, #2]
    65e6:	490d      	ldr	r1, [pc, #52]	; (661c <system_gclk_chan_disable+0x54>)
    65e8:	400b      	ands	r3, r1
    65ea:	8053      	strh	r3, [r2, #2]
    65ec:	0011      	movs	r1, r2
    65ee:	2280      	movs	r2, #128	; 0x80
    65f0:	01d2      	lsls	r2, r2, #7
    65f2:	884b      	ldrh	r3, [r1, #2]
    65f4:	4213      	tst	r3, r2
    65f6:	d1fc      	bne.n	65f2 <system_gclk_chan_disable+0x2a>
    65f8:	4906      	ldr	r1, [pc, #24]	; (6614 <system_gclk_chan_disable+0x4c>)
    65fa:	884a      	ldrh	r2, [r1, #2]
    65fc:	0203      	lsls	r3, r0, #8
    65fe:	4806      	ldr	r0, [pc, #24]	; (6618 <system_gclk_chan_disable+0x50>)
    6600:	4002      	ands	r2, r0
    6602:	4313      	orrs	r3, r2
    6604:	804b      	strh	r3, [r1, #2]
    6606:	4b06      	ldr	r3, [pc, #24]	; (6620 <system_gclk_chan_disable+0x58>)
    6608:	4798      	blx	r3
    660a:	bd10      	pop	{r4, pc}
    660c:	0000596d 	.word	0x0000596d
    6610:	40000c02 	.word	0x40000c02
    6614:	40000c00 	.word	0x40000c00
    6618:	fffff0ff 	.word	0xfffff0ff
    661c:	ffffbfff 	.word	0xffffbfff
    6620:	000059ad 	.word	0x000059ad

00006624 <system_gclk_chan_set_config>:
    6624:	b510      	push	{r4, lr}
    6626:	780c      	ldrb	r4, [r1, #0]
    6628:	0224      	lsls	r4, r4, #8
    662a:	4304      	orrs	r4, r0
    662c:	4b02      	ldr	r3, [pc, #8]	; (6638 <system_gclk_chan_set_config+0x14>)
    662e:	4798      	blx	r3
    6630:	b2a4      	uxth	r4, r4
    6632:	4b02      	ldr	r3, [pc, #8]	; (663c <system_gclk_chan_set_config+0x18>)
    6634:	805c      	strh	r4, [r3, #2]
    6636:	bd10      	pop	{r4, pc}
    6638:	000065c9 	.word	0x000065c9
    663c:	40000c00 	.word	0x40000c00

00006640 <system_gclk_chan_lock>:
    6640:	b510      	push	{r4, lr}
    6642:	0004      	movs	r4, r0
    6644:	4b06      	ldr	r3, [pc, #24]	; (6660 <system_gclk_chan_lock+0x20>)
    6646:	4798      	blx	r3
    6648:	4b06      	ldr	r3, [pc, #24]	; (6664 <system_gclk_chan_lock+0x24>)
    664a:	701c      	strb	r4, [r3, #0]
    664c:	4a06      	ldr	r2, [pc, #24]	; (6668 <system_gclk_chan_lock+0x28>)
    664e:	8853      	ldrh	r3, [r2, #2]
    6650:	21c0      	movs	r1, #192	; 0xc0
    6652:	0209      	lsls	r1, r1, #8
    6654:	430b      	orrs	r3, r1
    6656:	8053      	strh	r3, [r2, #2]
    6658:	4b04      	ldr	r3, [pc, #16]	; (666c <system_gclk_chan_lock+0x2c>)
    665a:	4798      	blx	r3
    665c:	bd10      	pop	{r4, pc}
    665e:	46c0      	nop			; (mov r8, r8)
    6660:	0000596d 	.word	0x0000596d
    6664:	40000c02 	.word	0x40000c02
    6668:	40000c00 	.word	0x40000c00
    666c:	000059ad 	.word	0x000059ad

00006670 <system_gclk_chan_get_hz>:
    6670:	b510      	push	{r4, lr}
    6672:	0004      	movs	r4, r0
    6674:	4b06      	ldr	r3, [pc, #24]	; (6690 <system_gclk_chan_get_hz+0x20>)
    6676:	4798      	blx	r3
    6678:	4b06      	ldr	r3, [pc, #24]	; (6694 <system_gclk_chan_get_hz+0x24>)
    667a:	701c      	strb	r4, [r3, #0]
    667c:	4b06      	ldr	r3, [pc, #24]	; (6698 <system_gclk_chan_get_hz+0x28>)
    667e:	885c      	ldrh	r4, [r3, #2]
    6680:	0524      	lsls	r4, r4, #20
    6682:	0f24      	lsrs	r4, r4, #28
    6684:	4b05      	ldr	r3, [pc, #20]	; (669c <system_gclk_chan_get_hz+0x2c>)
    6686:	4798      	blx	r3
    6688:	0020      	movs	r0, r4
    668a:	4b05      	ldr	r3, [pc, #20]	; (66a0 <system_gclk_chan_get_hz+0x30>)
    668c:	4798      	blx	r3
    668e:	bd10      	pop	{r4, pc}
    6690:	0000596d 	.word	0x0000596d
    6694:	40000c02 	.word	0x40000c02
    6698:	40000c00 	.word	0x40000c00
    669c:	000059ad 	.word	0x000059ad
    66a0:	0000650d 	.word	0x0000650d

000066a4 <_system_pinmux_config>:
    66a4:	b530      	push	{r4, r5, lr}
    66a6:	78d3      	ldrb	r3, [r2, #3]
    66a8:	2b00      	cmp	r3, #0
    66aa:	d135      	bne.n	6718 <_system_pinmux_config+0x74>
    66ac:	7813      	ldrb	r3, [r2, #0]
    66ae:	2b80      	cmp	r3, #128	; 0x80
    66b0:	d029      	beq.n	6706 <_system_pinmux_config+0x62>
    66b2:	061b      	lsls	r3, r3, #24
    66b4:	2480      	movs	r4, #128	; 0x80
    66b6:	0264      	lsls	r4, r4, #9
    66b8:	4323      	orrs	r3, r4
    66ba:	7854      	ldrb	r4, [r2, #1]
    66bc:	2502      	movs	r5, #2
    66be:	43ac      	bics	r4, r5
    66c0:	d106      	bne.n	66d0 <_system_pinmux_config+0x2c>
    66c2:	7894      	ldrb	r4, [r2, #2]
    66c4:	2c00      	cmp	r4, #0
    66c6:	d120      	bne.n	670a <_system_pinmux_config+0x66>
    66c8:	2480      	movs	r4, #128	; 0x80
    66ca:	02a4      	lsls	r4, r4, #10
    66cc:	4323      	orrs	r3, r4
    66ce:	6041      	str	r1, [r0, #4]
    66d0:	7854      	ldrb	r4, [r2, #1]
    66d2:	3c01      	subs	r4, #1
    66d4:	2c01      	cmp	r4, #1
    66d6:	d91c      	bls.n	6712 <_system_pinmux_config+0x6e>
    66d8:	040d      	lsls	r5, r1, #16
    66da:	0c2d      	lsrs	r5, r5, #16
    66dc:	24a0      	movs	r4, #160	; 0xa0
    66de:	05e4      	lsls	r4, r4, #23
    66e0:	432c      	orrs	r4, r5
    66e2:	431c      	orrs	r4, r3
    66e4:	6284      	str	r4, [r0, #40]	; 0x28
    66e6:	0c0d      	lsrs	r5, r1, #16
    66e8:	24d0      	movs	r4, #208	; 0xd0
    66ea:	0624      	lsls	r4, r4, #24
    66ec:	432c      	orrs	r4, r5
    66ee:	431c      	orrs	r4, r3
    66f0:	6284      	str	r4, [r0, #40]	; 0x28
    66f2:	78d4      	ldrb	r4, [r2, #3]
    66f4:	2c00      	cmp	r4, #0
    66f6:	d122      	bne.n	673e <_system_pinmux_config+0x9a>
    66f8:	035b      	lsls	r3, r3, #13
    66fa:	d51c      	bpl.n	6736 <_system_pinmux_config+0x92>
    66fc:	7893      	ldrb	r3, [r2, #2]
    66fe:	2b01      	cmp	r3, #1
    6700:	d01e      	beq.n	6740 <_system_pinmux_config+0x9c>
    6702:	6141      	str	r1, [r0, #20]
    6704:	e017      	b.n	6736 <_system_pinmux_config+0x92>
    6706:	2300      	movs	r3, #0
    6708:	e7d7      	b.n	66ba <_system_pinmux_config+0x16>
    670a:	24c0      	movs	r4, #192	; 0xc0
    670c:	02e4      	lsls	r4, r4, #11
    670e:	4323      	orrs	r3, r4
    6710:	e7dd      	b.n	66ce <_system_pinmux_config+0x2a>
    6712:	4c0d      	ldr	r4, [pc, #52]	; (6748 <_system_pinmux_config+0xa4>)
    6714:	4023      	ands	r3, r4
    6716:	e7df      	b.n	66d8 <_system_pinmux_config+0x34>
    6718:	6041      	str	r1, [r0, #4]
    671a:	040c      	lsls	r4, r1, #16
    671c:	0c24      	lsrs	r4, r4, #16
    671e:	23a0      	movs	r3, #160	; 0xa0
    6720:	05db      	lsls	r3, r3, #23
    6722:	4323      	orrs	r3, r4
    6724:	6283      	str	r3, [r0, #40]	; 0x28
    6726:	0c0c      	lsrs	r4, r1, #16
    6728:	23d0      	movs	r3, #208	; 0xd0
    672a:	061b      	lsls	r3, r3, #24
    672c:	4323      	orrs	r3, r4
    672e:	6283      	str	r3, [r0, #40]	; 0x28
    6730:	78d3      	ldrb	r3, [r2, #3]
    6732:	2b00      	cmp	r3, #0
    6734:	d103      	bne.n	673e <_system_pinmux_config+0x9a>
    6736:	7853      	ldrb	r3, [r2, #1]
    6738:	3b01      	subs	r3, #1
    673a:	2b01      	cmp	r3, #1
    673c:	d902      	bls.n	6744 <_system_pinmux_config+0xa0>
    673e:	bd30      	pop	{r4, r5, pc}
    6740:	6181      	str	r1, [r0, #24]
    6742:	e7f8      	b.n	6736 <_system_pinmux_config+0x92>
    6744:	6081      	str	r1, [r0, #8]
    6746:	e7fa      	b.n	673e <_system_pinmux_config+0x9a>
    6748:	fffbffff 	.word	0xfffbffff

0000674c <system_pinmux_pin_set_config>:
    674c:	b510      	push	{r4, lr}
    674e:	000a      	movs	r2, r1
    6750:	09c1      	lsrs	r1, r0, #7
    6752:	2300      	movs	r3, #0
    6754:	2900      	cmp	r1, #0
    6756:	d104      	bne.n	6762 <system_pinmux_pin_set_config+0x16>
    6758:	0943      	lsrs	r3, r0, #5
    675a:	01db      	lsls	r3, r3, #7
    675c:	4905      	ldr	r1, [pc, #20]	; (6774 <system_pinmux_pin_set_config+0x28>)
    675e:	468c      	mov	ip, r1
    6760:	4463      	add	r3, ip
    6762:	241f      	movs	r4, #31
    6764:	4020      	ands	r0, r4
    6766:	2101      	movs	r1, #1
    6768:	4081      	lsls	r1, r0
    676a:	0018      	movs	r0, r3
    676c:	4b02      	ldr	r3, [pc, #8]	; (6778 <system_pinmux_pin_set_config+0x2c>)
    676e:	4798      	blx	r3
    6770:	bd10      	pop	{r4, pc}
    6772:	46c0      	nop			; (mov r8, r8)
    6774:	41004400 	.word	0x41004400
    6778:	000066a5 	.word	0x000066a5

0000677c <_system_dummy_init>:
    677c:	4770      	bx	lr
	...

00006780 <system_init>:
    6780:	b510      	push	{r4, lr}
    6782:	4b05      	ldr	r3, [pc, #20]	; (6798 <system_init+0x18>)
    6784:	4798      	blx	r3
    6786:	4b05      	ldr	r3, [pc, #20]	; (679c <system_init+0x1c>)
    6788:	4798      	blx	r3
    678a:	4b05      	ldr	r3, [pc, #20]	; (67a0 <system_init+0x20>)
    678c:	4798      	blx	r3
    678e:	4b05      	ldr	r3, [pc, #20]	; (67a4 <system_init+0x24>)
    6790:	4798      	blx	r3
    6792:	4b05      	ldr	r3, [pc, #20]	; (67a8 <system_init+0x28>)
    6794:	4798      	blx	r3
    6796:	bd10      	pop	{r4, pc}
    6798:	00006319 	.word	0x00006319
    679c:	000059dd 	.word	0x000059dd
    67a0:	0000677d 	.word	0x0000677d
    67a4:	00003929 	.word	0x00003929
    67a8:	0000677d 	.word	0x0000677d

000067ac <Dummy_Handler>:
    67ac:	e7fe      	b.n	67ac <Dummy_Handler>
	...

000067b0 <Reset_Handler>:
    67b0:	b510      	push	{r4, lr}
    67b2:	4a1a      	ldr	r2, [pc, #104]	; (681c <Reset_Handler+0x6c>)
    67b4:	4b1a      	ldr	r3, [pc, #104]	; (6820 <Reset_Handler+0x70>)
    67b6:	429a      	cmp	r2, r3
    67b8:	d011      	beq.n	67de <Reset_Handler+0x2e>
    67ba:	001a      	movs	r2, r3
    67bc:	4b19      	ldr	r3, [pc, #100]	; (6824 <Reset_Handler+0x74>)
    67be:	429a      	cmp	r2, r3
    67c0:	d20d      	bcs.n	67de <Reset_Handler+0x2e>
    67c2:	4a19      	ldr	r2, [pc, #100]	; (6828 <Reset_Handler+0x78>)
    67c4:	3303      	adds	r3, #3
    67c6:	1a9b      	subs	r3, r3, r2
    67c8:	089b      	lsrs	r3, r3, #2
    67ca:	3301      	adds	r3, #1
    67cc:	009b      	lsls	r3, r3, #2
    67ce:	2200      	movs	r2, #0
    67d0:	4813      	ldr	r0, [pc, #76]	; (6820 <Reset_Handler+0x70>)
    67d2:	4912      	ldr	r1, [pc, #72]	; (681c <Reset_Handler+0x6c>)
    67d4:	588c      	ldr	r4, [r1, r2]
    67d6:	5084      	str	r4, [r0, r2]
    67d8:	3204      	adds	r2, #4
    67da:	429a      	cmp	r2, r3
    67dc:	d1fa      	bne.n	67d4 <Reset_Handler+0x24>
    67de:	4a13      	ldr	r2, [pc, #76]	; (682c <Reset_Handler+0x7c>)
    67e0:	4b13      	ldr	r3, [pc, #76]	; (6830 <Reset_Handler+0x80>)
    67e2:	429a      	cmp	r2, r3
    67e4:	d20a      	bcs.n	67fc <Reset_Handler+0x4c>
    67e6:	43d3      	mvns	r3, r2
    67e8:	4911      	ldr	r1, [pc, #68]	; (6830 <Reset_Handler+0x80>)
    67ea:	185b      	adds	r3, r3, r1
    67ec:	2103      	movs	r1, #3
    67ee:	438b      	bics	r3, r1
    67f0:	3304      	adds	r3, #4
    67f2:	189b      	adds	r3, r3, r2
    67f4:	2100      	movs	r1, #0
    67f6:	c202      	stmia	r2!, {r1}
    67f8:	4293      	cmp	r3, r2
    67fa:	d1fc      	bne.n	67f6 <Reset_Handler+0x46>
    67fc:	4a0d      	ldr	r2, [pc, #52]	; (6834 <Reset_Handler+0x84>)
    67fe:	21ff      	movs	r1, #255	; 0xff
    6800:	4b0d      	ldr	r3, [pc, #52]	; (6838 <Reset_Handler+0x88>)
    6802:	438b      	bics	r3, r1
    6804:	6093      	str	r3, [r2, #8]
    6806:	4a0d      	ldr	r2, [pc, #52]	; (683c <Reset_Handler+0x8c>)
    6808:	6853      	ldr	r3, [r2, #4]
    680a:	397f      	subs	r1, #127	; 0x7f
    680c:	430b      	orrs	r3, r1
    680e:	6053      	str	r3, [r2, #4]
    6810:	4b0b      	ldr	r3, [pc, #44]	; (6840 <Reset_Handler+0x90>)
    6812:	4798      	blx	r3
    6814:	4b0b      	ldr	r3, [pc, #44]	; (6844 <Reset_Handler+0x94>)
    6816:	4798      	blx	r3
    6818:	e7fe      	b.n	6818 <Reset_Handler+0x68>
    681a:	46c0      	nop			; (mov r8, r8)
    681c:	00008e50 	.word	0x00008e50
    6820:	20000000 	.word	0x20000000
    6824:	20000230 	.word	0x20000230
    6828:	20000004 	.word	0x20000004
    682c:	20000230 	.word	0x20000230
    6830:	20003260 	.word	0x20003260
    6834:	e000ed00 	.word	0xe000ed00
    6838:	00000000 	.word	0x00000000
    683c:	41004000 	.word	0x41004000
    6840:	000085f5 	.word	0x000085f5
    6844:	00006a05 	.word	0x00006a05

00006848 <LORA01_MAIN_FUNCTION>:
#include "myDefine.h"



void LORA01_MAIN_FUNCTION(volatile LORA_DEFINE_t *tmp_LORA, volatile LORA_Dev_List_t *tmp_LORA_Dev_List_Index)
{
    6848:	b5f8      	push	{r3, r4, r5, r6, r7, lr}
    684a:	0005      	movs	r5, r0
		Response_LORA(LORA01, tmp_LORA_Dev_List_Index);
		return;
	#endif
	
	#ifndef Dev_Repeater
		Target.byte[0] = tmp_LORA->MyLoRaID[0];
    684c:	7843      	ldrb	r3, [r0, #1]
		Target.byte[1] = tmp_LORA->MyLoRaID[1];
    684e:	7880      	ldrb	r0, [r0, #2]
    6850:	0200      	lsls	r0, r0, #8
		Target.byte[2] = tmp_LORA->MyLoRaID[2];
    6852:	78ea      	ldrb	r2, [r5, #3]
    6854:	0412      	lsls	r2, r2, #16
    6856:	4303      	orrs	r3, r0
		Target.byte[3] = tmp_LORA->MyLoRaID[3];
    6858:	792f      	ldrb	r7, [r5, #4]
    685a:	063f      	lsls	r7, r7, #24
    685c:	4313      	orrs	r3, r2
    685e:	431f      	orrs	r7, r3

		Source.byte[0] = tmp_LORA->MyBuffer[3];
    6860:	2322      	movs	r3, #34	; 0x22
    6862:	5ceb      	ldrb	r3, [r5, r3]
		Source.byte[1] = tmp_LORA->MyBuffer[4];
    6864:	2223      	movs	r2, #35	; 0x23
    6866:	5ca8      	ldrb	r0, [r5, r2]
    6868:	0200      	lsls	r0, r0, #8
		Source.byte[2] = tmp_LORA->MyBuffer[5];
    686a:	3201      	adds	r2, #1
    686c:	5caa      	ldrb	r2, [r5, r2]
    686e:	0412      	lsls	r2, r2, #16
    6870:	4303      	orrs	r3, r0
		Source.byte[3] = tmp_LORA->MyBuffer[6];
    6872:	2025      	movs	r0, #37	; 0x25
    6874:	5c2e      	ldrb	r6, [r5, r0]
    6876:	0636      	lsls	r6, r6, #24
    6878:	4313      	orrs	r3, r2
    687a:	431e      	orrs	r6, r3
    687c:	2309      	movs	r3, #9
		
		for(unsigned char i = 0; i < 18; i++)
		{
			WriteBufferHex[i] = tmp_LORA->MyBuffer[9+i];
    687e:	482f      	ldr	r0, [pc, #188]	; (693c <LORA01_MAIN_FUNCTION+0xf4>)
    6880:	18ea      	adds	r2, r5, r3
    6882:	7fd4      	ldrb	r4, [r2, #31]
    6884:	001a      	movs	r2, r3
    6886:	3a09      	subs	r2, #9
    6888:	5484      	strb	r4, [r0, r2]
    688a:	3301      	adds	r3, #1
		for(unsigned char i = 0; i < 18; i++)
    688c:	2b1b      	cmp	r3, #27
    688e:	d1f7      	bne.n	6880 <LORA01_MAIN_FUNCTION+0x38>
		}

		switch(tmp_LORA->NowStatus)
    6890:	4b2b      	ldr	r3, [pc, #172]	; (6940 <LORA01_MAIN_FUNCTION+0xf8>)
    6892:	5ceb      	ldrb	r3, [r5, r3]
    6894:	2b74      	cmp	r3, #116	; 0x74
    6896:	d10c      	bne.n	68b2 <LORA01_MAIN_FUNCTION+0x6a>
		{
			case Lora_Rx_Data_Ready_Index:
				if(Target.dword == Source.dword)
    6898:	42b7      	cmp	r7, r6
    689a:	d00b      	beq.n	68b4 <LORA01_MAIN_FUNCTION+0x6c>
				{
					Response_LORA(tmp_LORA, tmp_LORA_Dev_List_Index);
				}
				else
				{
					if(LORA01->Lora_Show_Flag == true)
    689c:	4b29      	ldr	r3, [pc, #164]	; (6944 <LORA01_MAIN_FUNCTION+0xfc>)
    689e:	681a      	ldr	r2, [r3, #0]
    68a0:	4b29      	ldr	r3, [pc, #164]	; (6948 <LORA01_MAIN_FUNCTION+0x100>)
    68a2:	5cd3      	ldrb	r3, [r2, r3]
    68a4:	2b01      	cmp	r3, #1
    68a6:	d009      	beq.n	68bc <LORA01_MAIN_FUNCTION+0x74>
						uart_send_ascii_byte(Debug_COM, tmp_LORA->MyBuffer[6]);
						uTXByte(Debug_COM, 0x09);
						Print_Write_Buffer();
						uTXByte(Debug_COM, 0x0d);
					}
					change_and_check(&(tmp_LORA->NowStatus), Wait_RX_IRQ_Index);
    68a8:	4b25      	ldr	r3, [pc, #148]	; (6940 <LORA01_MAIN_FUNCTION+0xf8>)
    68aa:	18e8      	adds	r0, r5, r3
    68ac:	2173      	movs	r1, #115	; 0x73
    68ae:	4b27      	ldr	r3, [pc, #156]	; (694c <LORA01_MAIN_FUNCTION+0x104>)
    68b0:	4798      	blx	r3
				}
				break;
		}
	#endif
}
    68b2:	bdf8      	pop	{r3, r4, r5, r6, r7, pc}
					Response_LORA(tmp_LORA, tmp_LORA_Dev_List_Index);
    68b4:	0028      	movs	r0, r5
    68b6:	4b26      	ldr	r3, [pc, #152]	; (6950 <LORA01_MAIN_FUNCTION+0x108>)
    68b8:	4798      	blx	r3
    68ba:	e7fa      	b.n	68b2 <LORA01_MAIN_FUNCTION+0x6a>
						uTXByte(Debug_COM, 0x0d);
    68bc:	4c25      	ldr	r4, [pc, #148]	; (6954 <LORA01_MAIN_FUNCTION+0x10c>)
    68be:	210d      	movs	r1, #13
    68c0:	0020      	movs	r0, r4
    68c2:	4f25      	ldr	r7, [pc, #148]	; (6958 <LORA01_MAIN_FUNCTION+0x110>)
    68c4:	47b8      	blx	r7
						uTXByte(Debug_COM, 'N');
    68c6:	214e      	movs	r1, #78	; 0x4e
    68c8:	0020      	movs	r0, r4
    68ca:	47b8      	blx	r7
						uTXByte(Debug_COM, 'o');
    68cc:	216f      	movs	r1, #111	; 0x6f
    68ce:	0020      	movs	r0, r4
    68d0:	47b8      	blx	r7
						uTXByte(Debug_COM, ' ');
    68d2:	2120      	movs	r1, #32
    68d4:	0020      	movs	r0, r4
    68d6:	47b8      	blx	r7
						uart_send_ascii_byte(Debug_COM, tmp_LORA->MyLoRaID[0]);
    68d8:	7869      	ldrb	r1, [r5, #1]
    68da:	b2c9      	uxtb	r1, r1
    68dc:	0020      	movs	r0, r4
    68de:	4e1f      	ldr	r6, [pc, #124]	; (695c <LORA01_MAIN_FUNCTION+0x114>)
    68e0:	47b0      	blx	r6
						uart_send_ascii_byte(Debug_COM, tmp_LORA->MyLoRaID[1]);
    68e2:	78a9      	ldrb	r1, [r5, #2]
    68e4:	b2c9      	uxtb	r1, r1
    68e6:	0020      	movs	r0, r4
    68e8:	47b0      	blx	r6
						uart_send_ascii_byte(Debug_COM, tmp_LORA->MyLoRaID[2]);
    68ea:	78e9      	ldrb	r1, [r5, #3]
    68ec:	b2c9      	uxtb	r1, r1
    68ee:	0020      	movs	r0, r4
    68f0:	47b0      	blx	r6
						uart_send_ascii_byte(Debug_COM, tmp_LORA->MyLoRaID[3]);
    68f2:	7929      	ldrb	r1, [r5, #4]
    68f4:	b2c9      	uxtb	r1, r1
    68f6:	0020      	movs	r0, r4
    68f8:	47b0      	blx	r6
						uTXByte(Debug_COM, ' ');
    68fa:	2120      	movs	r1, #32
    68fc:	0020      	movs	r0, r4
    68fe:	47b8      	blx	r7
						uart_send_ascii_byte(Debug_COM, tmp_LORA->MyBuffer[3]);
    6900:	2322      	movs	r3, #34	; 0x22
    6902:	5ce9      	ldrb	r1, [r5, r3]
    6904:	b2c9      	uxtb	r1, r1
    6906:	0020      	movs	r0, r4
    6908:	47b0      	blx	r6
						uart_send_ascii_byte(Debug_COM, tmp_LORA->MyBuffer[4]);
    690a:	2323      	movs	r3, #35	; 0x23
    690c:	5ce9      	ldrb	r1, [r5, r3]
    690e:	b2c9      	uxtb	r1, r1
    6910:	0020      	movs	r0, r4
    6912:	47b0      	blx	r6
						uart_send_ascii_byte(Debug_COM, tmp_LORA->MyBuffer[5]);
    6914:	2324      	movs	r3, #36	; 0x24
    6916:	5ce9      	ldrb	r1, [r5, r3]
    6918:	b2c9      	uxtb	r1, r1
    691a:	0020      	movs	r0, r4
    691c:	47b0      	blx	r6
						uart_send_ascii_byte(Debug_COM, tmp_LORA->MyBuffer[6]);
    691e:	2325      	movs	r3, #37	; 0x25
    6920:	5ce9      	ldrb	r1, [r5, r3]
    6922:	b2c9      	uxtb	r1, r1
    6924:	0020      	movs	r0, r4
    6926:	47b0      	blx	r6
						uTXByte(Debug_COM, 0x09);
    6928:	2109      	movs	r1, #9
    692a:	0020      	movs	r0, r4
    692c:	47b8      	blx	r7
						Print_Write_Buffer();
    692e:	4b0c      	ldr	r3, [pc, #48]	; (6960 <LORA01_MAIN_FUNCTION+0x118>)
    6930:	4798      	blx	r3
						uTXByte(Debug_COM, 0x0d);
    6932:	210d      	movs	r1, #13
    6934:	0020      	movs	r0, r4
    6936:	47b8      	blx	r7
    6938:	e7b6      	b.n	68a8 <LORA01_MAIN_FUNCTION+0x60>
    693a:	46c0      	nop			; (mov r8, r8)
    693c:	2000281c 	.word	0x2000281c
    6940:	0000021d 	.word	0x0000021d
    6944:	20001944 	.word	0x20001944
    6948:	00000226 	.word	0x00000226
    694c:	000040f9 	.word	0x000040f9
    6950:	00002795 	.word	0x00002795
    6954:	200002f0 	.word	0x200002f0
    6958:	00005535 	.word	0x00005535
    695c:	00005555 	.word	0x00005555
    6960:	00005581 	.word	0x00005581

00006964 <Run_LoRA_Function>:


void Run_LoRA_Function(volatile LORA_Dev_List_t *tmp_LORA_Dev_List_Index, volatile Write_PLC_List_t *tmp_Write_PLC_List_Index)
{
    6964:	b570      	push	{r4, r5, r6, lr}
    6966:	0005      	movs	r5, r0
	Lora_CMD_Func(LORA01);
    6968:	4c04      	ldr	r4, [pc, #16]	; (697c <Run_LoRA_Function+0x18>)
    696a:	6820      	ldr	r0, [r4, #0]
    696c:	4b04      	ldr	r3, [pc, #16]	; (6980 <Run_LoRA_Function+0x1c>)
    696e:	4798      	blx	r3
	LORA01_MAIN_FUNCTION(LORA01, tmp_LORA_Dev_List_Index);
    6970:	6820      	ldr	r0, [r4, #0]
    6972:	0029      	movs	r1, r5
    6974:	4b03      	ldr	r3, [pc, #12]	; (6984 <Run_LoRA_Function+0x20>)
    6976:	4798      	blx	r3
	#ifdef Dev_Repeater
		Lora_CMD_Func(LORA02);
		LORA02_MAIN_FUNCTION(LORA02, tmp_LORA_Dev_List_Index);
		//pG}PLC\AN@PPLCiPB@~
	#endif
}
    6978:	bd70      	pop	{r4, r5, r6, pc}
    697a:	46c0      	nop			; (mov r8, r8)
    697c:	20001944 	.word	0x20001944
    6980:	00004561 	.word	0x00004561
    6984:	00006849 	.word	0x00006849

00006988 <LoRA_Timeout_Func>:


void LoRA_Timeout_Func(volatile LORA_DEFINE_t *tmp_LORA)
{
    6988:	b570      	push	{r4, r5, r6, lr}
    698a:	0004      	movs	r4, r0
	if(tmp_LORA->f_count == Timer_Timeout)
    698c:	238f      	movs	r3, #143	; 0x8f
    698e:	009b      	lsls	r3, r3, #2
    6990:	58c2      	ldr	r2, [r0, r3]
    6992:	4b13      	ldr	r3, [pc, #76]	; (69e0 <LoRA_Timeout_Func+0x58>)
    6994:	429a      	cmp	r2, r3
    6996:	d000      	beq.n	699a <LoRA_Timeout_Func+0x12>
		uTXByte(Debug_COM, ' ');
		uart_send_word(Debug_COM, tmp_LORA->f_count);
		Reset_LoRa_Func(tmp_LORA);
		uTXByte(Debug_COM, ' ');
	}
}
    6998:	bd70      	pop	{r4, r5, r6, pc}
		wdt_reset_count();
    699a:	4b12      	ldr	r3, [pc, #72]	; (69e4 <LoRA_Timeout_Func+0x5c>)
    699c:	4798      	blx	r3
		Print_LoRA_Time_Out_Msg(tmp_LORA);
    699e:	0020      	movs	r0, r4
    69a0:	4b11      	ldr	r3, [pc, #68]	; (69e8 <LoRA_Timeout_Func+0x60>)
    69a2:	4798      	blx	r3
		uTXByte(Debug_COM, '(');
    69a4:	4d11      	ldr	r5, [pc, #68]	; (69ec <LoRA_Timeout_Func+0x64>)
    69a6:	2128      	movs	r1, #40	; 0x28
    69a8:	0028      	movs	r0, r5
    69aa:	4e11      	ldr	r6, [pc, #68]	; (69f0 <LoRA_Timeout_Func+0x68>)
    69ac:	47b0      	blx	r6
		uart_send_ascii_byte(Debug_COM, tmp_LORA->NowStatus);
    69ae:	4b11      	ldr	r3, [pc, #68]	; (69f4 <LoRA_Timeout_Func+0x6c>)
    69b0:	5ce1      	ldrb	r1, [r4, r3]
    69b2:	b2c9      	uxtb	r1, r1
    69b4:	0028      	movs	r0, r5
    69b6:	4b10      	ldr	r3, [pc, #64]	; (69f8 <LoRA_Timeout_Func+0x70>)
    69b8:	4798      	blx	r3
		uTXByte(Debug_COM, ')');
    69ba:	2129      	movs	r1, #41	; 0x29
    69bc:	0028      	movs	r0, r5
    69be:	47b0      	blx	r6
		uTXByte(Debug_COM, ' ');
    69c0:	2120      	movs	r1, #32
    69c2:	0028      	movs	r0, r5
    69c4:	47b0      	blx	r6
		uart_send_word(Debug_COM, tmp_LORA->f_count);
    69c6:	238f      	movs	r3, #143	; 0x8f
    69c8:	009b      	lsls	r3, r3, #2
    69ca:	58e1      	ldr	r1, [r4, r3]
    69cc:	0028      	movs	r0, r5
    69ce:	4b0b      	ldr	r3, [pc, #44]	; (69fc <LoRA_Timeout_Func+0x74>)
    69d0:	4798      	blx	r3
		Reset_LoRa_Func(tmp_LORA);
    69d2:	0020      	movs	r0, r4
    69d4:	4b0a      	ldr	r3, [pc, #40]	; (6a00 <LoRA_Timeout_Func+0x78>)
    69d6:	4798      	blx	r3
		uTXByte(Debug_COM, ' ');
    69d8:	2120      	movs	r1, #32
    69da:	0028      	movs	r0, r5
    69dc:	47b0      	blx	r6
}
    69de:	e7db      	b.n	6998 <LoRA_Timeout_Func+0x10>
    69e0:	00004e20 	.word	0x00004e20
    69e4:	00003ea1 	.word	0x00003ea1
    69e8:	00004bc5 	.word	0x00004bc5
    69ec:	200002f0 	.word	0x200002f0
    69f0:	00005535 	.word	0x00005535
    69f4:	0000021d 	.word	0x0000021d
    69f8:	00005555 	.word	0x00005555
    69fc:	000055c9 	.word	0x000055c9
    6a00:	00003fd5 	.word	0x00003fd5

00006a04 <main>:



int main(void)
{
    6a04:	b5f8      	push	{r3, r4, r5, r6, r7, lr}
    6a06:	46de      	mov	lr, fp
    6a08:	4657      	mov	r7, sl
    6a0a:	464e      	mov	r6, r9
    6a0c:	4645      	mov	r5, r8
    6a0e:	b5e0      	push	{r5, r6, r7, lr}

	//UINT16u_t tmp16;
	volatile Write_PLC_List_t *Write_PLC_List_Index = Write_PLC_List_In_RAM;
	volatile LORA_Dev_List_t *LORA_Dev_List_Index = LORA_Dev_List_In_RAM;

	system_init();
    6a10:	4b92      	ldr	r3, [pc, #584]	; (6c5c <main+0x258>)
    6a12:	4798      	blx	r3
	delay_init();
    6a14:	4b92      	ldr	r3, [pc, #584]	; (6c60 <main+0x25c>)
    6a16:	4798      	blx	r3
	IO_init();
    6a18:	4b92      	ldr	r3, [pc, #584]	; (6c64 <main+0x260>)
    6a1a:	4798      	blx	r3
	
	configure_usart();
    6a1c:	4b92      	ldr	r3, [pc, #584]	; (6c68 <main+0x264>)
    6a1e:	4798      	blx	r3
	configure_usart_callbacks();
    6a20:	4b92      	ldr	r3, [pc, #584]	; (6c6c <main+0x268>)
    6a22:	4798      	blx	r3
	
	configure_adc();
    6a24:	4b92      	ldr	r3, [pc, #584]	; (6c70 <main+0x26c>)
    6a26:	4798      	blx	r3
	
	timer_configure();
    6a28:	4b92      	ldr	r3, [pc, #584]	; (6c74 <main+0x270>)
    6a2a:	4798      	blx	r3
	configure_extint_channel();
    6a2c:	4b92      	ldr	r3, [pc, #584]	; (6c78 <main+0x274>)
    6a2e:	4798      	blx	r3
	configure_extint_callbacks();
    6a30:	4b92      	ldr	r3, [pc, #584]	; (6c7c <main+0x278>)
    6a32:	4798      	blx	r3
	
	configure_wdt();
    6a34:	4b92      	ldr	r3, [pc, #584]	; (6c80 <main+0x27c>)
    6a36:	4798      	blx	r3
	configure_wdt_callbacks();
    6a38:	4b92      	ldr	r3, [pc, #584]	; (6c84 <main+0x280>)
    6a3a:	4798      	blx	r3
	
	configure_nvm();
    6a3c:	4b92      	ldr	r3, [pc, #584]	; (6c88 <main+0x284>)
    6a3e:	4798      	blx	r3
	cpu_irq_enable();
    6a40:	2201      	movs	r2, #1
    6a42:	4b92      	ldr	r3, [pc, #584]	; (6c8c <main+0x288>)
    6a44:	701a      	strb	r2, [r3, #0]
    This function ensures the apparent order of the explicit memory operations before
    and after the instruction, without ensuring their completion.
 */
__attribute__( ( always_inline ) ) __STATIC_INLINE void __DMB(void)
{
  __ASM volatile ("dmb");
    6a46:	f3bf 8f5f 	dmb	sy
  This function enables IRQ interrupts by clearing the I-bit in the CPSR.
  Can only be executed in Privileged modes.
 */
__attribute__( ( always_inline ) ) __STATIC_INLINE void __enable_irq(void)
{
  __ASM volatile ("cpsie i" : : : "memory");
    6a4a:	b662      	cpsie	i
	
	system_interrupt_enable_global();
	wdt_reset_count();
    6a4c:	4d90      	ldr	r5, [pc, #576]	; (6c90 <main+0x28c>)
    6a4e:	47a8      	blx	r5
			//wdt_reset_count();
		//}


	// LORA OFF
	LORA01_Reset_Func(false);
    6a50:	2000      	movs	r0, #0
    6a52:	4e90      	ldr	r6, [pc, #576]	; (6c94 <main+0x290>)
    6a54:	47b0      	blx	r6
	LORA02_Reset_Func(false);
    6a56:	2000      	movs	r0, #0
    6a58:	4f8f      	ldr	r7, [pc, #572]	; (6c98 <main+0x294>)
    6a5a:	47b8      	blx	r7
	delay_ms(500);
    6a5c:	20fa      	movs	r0, #250	; 0xfa
    6a5e:	0040      	lsls	r0, r0, #1
    6a60:	4c8e      	ldr	r4, [pc, #568]	; (6c9c <main+0x298>)
    6a62:	47a0      	blx	r4
	
	// LORA ON
	LORA01_Reset_Func(true);
    6a64:	2001      	movs	r0, #1
    6a66:	47b0      	blx	r6
	LORA02_Reset_Func(true);
    6a68:	2001      	movs	r0, #1
    6a6a:	47b8      	blx	r7
	delay_ms(500);
    6a6c:	20fa      	movs	r0, #250	; 0xfa
    6a6e:	0040      	lsls	r0, r0, #1
    6a70:	47a0      	blx	r4
	wdt_reset_count();
    6a72:	47a8      	blx	r5

	LORA01_inital();
    6a74:	4b8a      	ldr	r3, [pc, #552]	; (6ca0 <main+0x29c>)
    6a76:	4798      	blx	r3
	LORA02_inital();
    6a78:	4b8a      	ldr	r3, [pc, #552]	; (6ca4 <main+0x2a0>)
    6a7a:	4798      	blx	r3
	
	Define_Profile_COPY_TO_RAM();
    6a7c:	4b8a      	ldr	r3, [pc, #552]	; (6ca8 <main+0x2a4>)
    6a7e:	4798      	blx	r3
		
	Define_Dev_List_Func(LORA_Dev_List_Index);
    6a80:	4c8a      	ldr	r4, [pc, #552]	; (6cac <main+0x2a8>)
    6a82:	0020      	movs	r0, r4
    6a84:	4b8a      	ldr	r3, [pc, #552]	; (6cb0 <main+0x2ac>)
    6a86:	4798      	blx	r3
	Define_Dev_Time_Func(LORA_Dev_List_Index);
    6a88:	0020      	movs	r0, r4
    6a8a:	4b8a      	ldr	r3, [pc, #552]	; (6cb4 <main+0x2b0>)
    6a8c:	4798      	blx	r3
	
	Load_List_Form_NVM(LORA_Dev_List_Index);
    6a8e:	0020      	movs	r0, r4
    6a90:	4b89      	ldr	r3, [pc, #548]	; (6cb8 <main+0x2b4>)
    6a92:	4798      	blx	r3
	Load_Dev_Time_Form_NVM(LORA_Dev_List_Index);
    6a94:	0020      	movs	r0, r4
    6a96:	4b89      	ldr	r3, [pc, #548]	; (6cbc <main+0x2b8>)
    6a98:	4798      	blx	r3
	Load_Write_PLC_List_in_NVM(Write_PLC_List_Index);
    6a9a:	4889      	ldr	r0, [pc, #548]	; (6cc0 <main+0x2bc>)
    6a9c:	4b89      	ldr	r3, [pc, #548]	; (6cc4 <main+0x2c0>)
    6a9e:	4798      	blx	r3
	
	wdt_reset_count();
    6aa0:	47a8      	blx	r5
	
	Print_Start_Msg();
    6aa2:	4b89      	ldr	r3, [pc, #548]	; (6cc8 <main+0x2c4>)
    6aa4:	4798      	blx	r3
	Find_Now_And_Next_Enable_Func(LORA01, LORA_Dev_List_Index);
    6aa6:	4f89      	ldr	r7, [pc, #548]	; (6ccc <main+0x2c8>)
    6aa8:	0021      	movs	r1, r4
    6aaa:	6838      	ldr	r0, [r7, #0]
    6aac:	4b88      	ldr	r3, [pc, #544]	; (6cd0 <main+0x2cc>)
    6aae:	4798      	blx	r3
	Find_Now_And_Next_Wait_Upload_Func(LORA02);
    6ab0:	4e88      	ldr	r6, [pc, #544]	; (6cd4 <main+0x2d0>)
    6ab2:	6830      	ldr	r0, [r6, #0]
    6ab4:	4b88      	ldr	r3, [pc, #544]	; (6cd8 <main+0x2d4>)
    6ab6:	4798      	blx	r3
	Load_LoRa_Profile_in_NVM(LORA01);
    6ab8:	6838      	ldr	r0, [r7, #0]
    6aba:	4c88      	ldr	r4, [pc, #544]	; (6cdc <main+0x2d8>)
    6abc:	47a0      	blx	r4
	Load_LoRa_Profile_in_NVM(LORA02);
    6abe:	6830      	ldr	r0, [r6, #0]
    6ac0:	47a0      	blx	r4
	
	UserKeyInStauts = NOP;
    6ac2:	2400      	movs	r4, #0
    6ac4:	4b86      	ldr	r3, [pc, #536]	; (6ce0 <main+0x2dc>)
    6ac6:	701c      	strb	r4, [r3, #0]
	CMD_Index = CMD_NOP_Index;	
    6ac8:	4b86      	ldr	r3, [pc, #536]	; (6ce4 <main+0x2e0>)
    6aca:	701c      	strb	r4, [r3, #0]

	Dev_Value_inital();
    6acc:	4b86      	ldr	r3, [pc, #536]	; (6ce8 <main+0x2e4>)
    6ace:	4798      	blx	r3

	wdt_reset_count();
    6ad0:	47a8      	blx	r5
	LORA01->f_count = 0;
    6ad2:	683a      	ldr	r2, [r7, #0]
    6ad4:	238f      	movs	r3, #143	; 0x8f
    6ad6:	009b      	lsls	r3, r3, #2
    6ad8:	50d4      	str	r4, [r2, r3]
	LORA02->f_count = 0;
    6ada:	6832      	ldr	r2, [r6, #0]
    6adc:	50d4      	str	r4, [r2, r3]
	

	
	while (true) 
	{		
		wdt_reset_count();
    6ade:	4b6c      	ldr	r3, [pc, #432]	; (6c90 <main+0x28c>)
    6ae0:	4698      	mov	r8, r3
			Polling_RS485();
		#endif



		LoRA_Timeout_Func(LORA01);
    6ae2:	4f7a      	ldr	r7, [pc, #488]	; (6ccc <main+0x2c8>)
		{
			case UserKeyInEnterIndex:
				Print_Line_Msg();
				for(unsigned char k = 0; k < UserKeyInBufCount; k++)
				{
					if(UserKeyInBuf[k] != 0x0d && ascii_to_hex(UserKeyInBuf[k]) != KEYZ) 
    6ae4:	4b81      	ldr	r3, [pc, #516]	; (6cec <main+0x2e8>)
    6ae6:	469b      	mov	fp, r3
						uTXByte(Debug_COM, UserKeyInBuf[k]);	
    6ae8:	4b81      	ldr	r3, [pc, #516]	; (6cf0 <main+0x2ec>)
    6aea:	4699      	mov	r9, r3
    6aec:	e01d      	b.n	6b2a <main+0x126>
			ADC_LVD_Temp = (ADC_LVD_Temp + ADC_LVD_Raw) / 2;
    6aee:	18c0      	adds	r0, r0, r3
    6af0:	0840      	lsrs	r0, r0, #1
    6af2:	4b80      	ldr	r3, [pc, #512]	; (6cf4 <main+0x2f0>)
    6af4:	6018      	str	r0, [r3, #0]
    6af6:	e027      	b.n	6b48 <main+0x144>
				sensor_main_func();								
    6af8:	4b7f      	ldr	r3, [pc, #508]	; (6cf8 <main+0x2f4>)
    6afa:	4798      	blx	r3
			Run_LoRA_Function(LORA_Dev_List_Index, Write_PLC_List_Index);
    6afc:	4d70      	ldr	r5, [pc, #448]	; (6cc0 <main+0x2bc>)
    6afe:	4c6b      	ldr	r4, [pc, #428]	; (6cac <main+0x2a8>)
    6b00:	0029      	movs	r1, r5
    6b02:	0020      	movs	r0, r4
    6b04:	4e7d      	ldr	r6, [pc, #500]	; (6cfc <main+0x2f8>)
    6b06:	47b0      	blx	r6
			Run_LoRA_Function(LORA_Dev_List_Index, Write_PLC_List_Index);
    6b08:	0029      	movs	r1, r5
    6b0a:	0020      	movs	r0, r4
    6b0c:	47b0      	blx	r6
			Run_LoRA_Function(LORA_Dev_List_Index, Write_PLC_List_Index);
    6b0e:	0029      	movs	r1, r5
    6b10:	0020      	movs	r0, r4
    6b12:	47b0      	blx	r6
		Fill_Dev_Time_into_dev_value(LORA01, LORA_Dev_List_Index);		
    6b14:	4b6d      	ldr	r3, [pc, #436]	; (6ccc <main+0x2c8>)
    6b16:	6818      	ldr	r0, [r3, #0]
    6b18:	4964      	ldr	r1, [pc, #400]	; (6cac <main+0x2a8>)
    6b1a:	4b79      	ldr	r3, [pc, #484]	; (6d00 <main+0x2fc>)
    6b1c:	4798      	blx	r3
		switch(UserKeyInStauts)
    6b1e:	4b70      	ldr	r3, [pc, #448]	; (6ce0 <main+0x2dc>)
    6b20:	781b      	ldrb	r3, [r3, #0]
    6b22:	2b01      	cmp	r3, #1
    6b24:	d037      	beq.n	6b96 <main+0x192>
				
			case NOP:

				break;
		}
		CMD_Func();
    6b26:	4b77      	ldr	r3, [pc, #476]	; (6d04 <main+0x300>)
    6b28:	4798      	blx	r3
		wdt_reset_count();
    6b2a:	47c0      	blx	r8
		LoRA_Timeout_Func(LORA01);
    6b2c:	6838      	ldr	r0, [r7, #0]
    6b2e:	4b76      	ldr	r3, [pc, #472]	; (6d08 <main+0x304>)
    6b30:	4798      	blx	r3
		ADC_LVD_Raw = adc_get_val(ADC_LVD);
    6b32:	2012      	movs	r0, #18
    6b34:	4b75      	ldr	r3, [pc, #468]	; (6d0c <main+0x308>)
    6b36:	4798      	blx	r3
    6b38:	4b75      	ldr	r3, [pc, #468]	; (6d10 <main+0x30c>)
    6b3a:	6018      	str	r0, [r3, #0]
		if(ADC_LVD_Temp == 0)
    6b3c:	4b6d      	ldr	r3, [pc, #436]	; (6cf4 <main+0x2f0>)
    6b3e:	681b      	ldr	r3, [r3, #0]
    6b40:	2b00      	cmp	r3, #0
    6b42:	d1d4      	bne.n	6aee <main+0xea>
			ADC_LVD_Temp = ADC_LVD_Raw;
    6b44:	4b6b      	ldr	r3, [pc, #428]	; (6cf4 <main+0x2f0>)
    6b46:	6018      	str	r0, [r3, #0]
		if(ADC_LVD_Temp > 430) //C3.0VHUʧ@
    6b48:	23d7      	movs	r3, #215	; 0xd7
    6b4a:	005b      	lsls	r3, r3, #1
    6b4c:	4a69      	ldr	r2, [pc, #420]	; (6cf4 <main+0x2f0>)
    6b4e:	6812      	ldr	r2, [r2, #0]
    6b50:	429a      	cmp	r2, r3
    6b52:	d918      	bls.n	6b86 <main+0x182>
			Run_LoRA_Function(LORA_Dev_List_Index, Write_PLC_List_Index);
    6b54:	4d5a      	ldr	r5, [pc, #360]	; (6cc0 <main+0x2bc>)
    6b56:	4c55      	ldr	r4, [pc, #340]	; (6cac <main+0x2a8>)
    6b58:	0029      	movs	r1, r5
    6b5a:	0020      	movs	r0, r4
    6b5c:	4e67      	ldr	r6, [pc, #412]	; (6cfc <main+0x2f8>)
    6b5e:	47b0      	blx	r6
			Run_LoRA_Function(LORA_Dev_List_Index, Write_PLC_List_Index);
    6b60:	0029      	movs	r1, r5
    6b62:	0020      	movs	r0, r4
    6b64:	47b0      	blx	r6
			Run_LoRA_Function(LORA_Dev_List_Index, Write_PLC_List_Index);
    6b66:	0029      	movs	r1, r5
    6b68:	0020      	movs	r0, r4
    6b6a:	47b0      	blx	r6
			if(	LORA01->LoRa_TxRx_Mode_Flag != SetTx 
    6b6c:	4b57      	ldr	r3, [pc, #348]	; (6ccc <main+0x2c8>)
    6b6e:	681b      	ldr	r3, [r3, #0]
    6b70:	4a68      	ldr	r2, [pc, #416]	; (6d14 <main+0x310>)
    6b72:	5c9a      	ldrb	r2, [r3, r2]
    6b74:	2a02      	cmp	r2, #2
    6b76:	d1bf      	bne.n	6af8 <main+0xf4>
				|| LORA01->NowStatus != Write_LoRa_Mode_FQ_Index
    6b78:	4a67      	ldr	r2, [pc, #412]	; (6d18 <main+0x314>)
    6b7a:	5c9a      	ldrb	r2, [r3, r2]
    6b7c:	2a03      	cmp	r2, #3
    6b7e:	d1bb      	bne.n	6af8 <main+0xf4>
				|| LORA01->NowStatus != Wait_RX_IRQ_Index)	
    6b80:	4a65      	ldr	r2, [pc, #404]	; (6d18 <main+0x314>)
    6b82:	5c9b      	ldrb	r3, [r3, r2]
    6b84:	e7b8      	b.n	6af8 <main+0xf4>
			Print_LowPower_Msg(LORA01);
    6b86:	4b51      	ldr	r3, [pc, #324]	; (6ccc <main+0x2c8>)
    6b88:	6818      	ldr	r0, [r3, #0]
    6b8a:	4b64      	ldr	r3, [pc, #400]	; (6d1c <main+0x318>)
    6b8c:	4798      	blx	r3
			delay_ms(100);
    6b8e:	2064      	movs	r0, #100	; 0x64
    6b90:	4b42      	ldr	r3, [pc, #264]	; (6c9c <main+0x298>)
    6b92:	4798      	blx	r3
    6b94:	e7be      	b.n	6b14 <main+0x110>
				Print_Line_Msg();
    6b96:	4b62      	ldr	r3, [pc, #392]	; (6d20 <main+0x31c>)
    6b98:	4798      	blx	r3
				for(unsigned char k = 0; k < UserKeyInBufCount; k++)
    6b9a:	4b62      	ldr	r3, [pc, #392]	; (6d24 <main+0x320>)
    6b9c:	781b      	ldrb	r3, [r3, #0]
    6b9e:	2b00      	cmp	r3, #0
    6ba0:	d020      	beq.n	6be4 <main+0x1e0>
    6ba2:	2400      	movs	r4, #0
					if(UserKeyInBuf[k] != 0x0d && ascii_to_hex(UserKeyInBuf[k]) != KEYZ) 
    6ba4:	4e52      	ldr	r6, [pc, #328]	; (6cf0 <main+0x2ec>)
    6ba6:	e00b      	b.n	6bc0 <main+0x1bc>
					if(ascii_to_hex(UserKeyInBuf[k]) == KEYZ)	
    6ba8:	4b51      	ldr	r3, [pc, #324]	; (6cf0 <main+0x2ec>)
    6baa:	5d58      	ldrb	r0, [r3, r5]
    6bac:	4b4f      	ldr	r3, [pc, #316]	; (6cec <main+0x2e8>)
    6bae:	4798      	blx	r3
    6bb0:	2823      	cmp	r0, #35	; 0x23
    6bb2:	d012      	beq.n	6bda <main+0x1d6>
				for(unsigned char k = 0; k < UserKeyInBufCount; k++)
    6bb4:	3401      	adds	r4, #1
    6bb6:	b2e4      	uxtb	r4, r4
    6bb8:	4b5a      	ldr	r3, [pc, #360]	; (6d24 <main+0x320>)
    6bba:	781b      	ldrb	r3, [r3, #0]
    6bbc:	42a3      	cmp	r3, r4
    6bbe:	d911      	bls.n	6be4 <main+0x1e0>
					if(UserKeyInBuf[k] != 0x0d && ascii_to_hex(UserKeyInBuf[k]) != KEYZ) 
    6bc0:	0025      	movs	r5, r4
    6bc2:	5d30      	ldrb	r0, [r6, r4]
    6bc4:	280d      	cmp	r0, #13
    6bc6:	d0ef      	beq.n	6ba8 <main+0x1a4>
    6bc8:	47d8      	blx	fp
    6bca:	2823      	cmp	r0, #35	; 0x23
    6bcc:	d0ec      	beq.n	6ba8 <main+0x1a4>
						uTXByte(Debug_COM, UserKeyInBuf[k]);	
    6bce:	464b      	mov	r3, r9
    6bd0:	5d19      	ldrb	r1, [r3, r4]
    6bd2:	4855      	ldr	r0, [pc, #340]	; (6d28 <main+0x324>)
    6bd4:	4b55      	ldr	r3, [pc, #340]	; (6d2c <main+0x328>)
    6bd6:	4798      	blx	r3
    6bd8:	e7e6      	b.n	6ba8 <main+0x1a4>
						uTXByte(Debug_COM, 'P');	//קKPC COM PORT~{
    6bda:	2150      	movs	r1, #80	; 0x50
    6bdc:	4852      	ldr	r0, [pc, #328]	; (6d28 <main+0x324>)
    6bde:	4b53      	ldr	r3, [pc, #332]	; (6d2c <main+0x328>)
    6be0:	4798      	blx	r3
    6be2:	e7e7      	b.n	6bb4 <main+0x1b0>
				uTXByte(Debug_COM, 0x09);
    6be4:	4c50      	ldr	r4, [pc, #320]	; (6d28 <main+0x324>)
    6be6:	2109      	movs	r1, #9
    6be8:	0020      	movs	r0, r4
    6bea:	4d50      	ldr	r5, [pc, #320]	; (6d2c <main+0x328>)
    6bec:	47a8      	blx	r5
				uTXByte(Debug_COM, '-');
    6bee:	212d      	movs	r1, #45	; 0x2d
    6bf0:	0020      	movs	r0, r4
    6bf2:	47a8      	blx	r5
				uart_send_word(Debug_COM, hex_to_bcd(UserKeyInBufCount));
    6bf4:	4b4b      	ldr	r3, [pc, #300]	; (6d24 <main+0x320>)
    6bf6:	469a      	mov	sl, r3
    6bf8:	7818      	ldrb	r0, [r3, #0]
    6bfa:	4b4d      	ldr	r3, [pc, #308]	; (6d30 <main+0x32c>)
    6bfc:	4798      	blx	r3
    6bfe:	0001      	movs	r1, r0
    6c00:	0020      	movs	r0, r4
    6c02:	4b4c      	ldr	r3, [pc, #304]	; (6d34 <main+0x330>)
    6c04:	4798      	blx	r3
				uTXByte(Debug_COM, 0x0d);
    6c06:	210d      	movs	r1, #13
    6c08:	0020      	movs	r0, r4
    6c0a:	47a8      	blx	r5
				Print_Line_Msg();
    6c0c:	4b44      	ldr	r3, [pc, #272]	; (6d20 <main+0x31c>)
    6c0e:	4798      	blx	r3
				Judg_KEY_D();
    6c10:	4b49      	ldr	r3, [pc, #292]	; (6d38 <main+0x334>)
    6c12:	4798      	blx	r3
				Judg_KEY_S();
    6c14:	4b49      	ldr	r3, [pc, #292]	; (6d3c <main+0x338>)
    6c16:	4798      	blx	r3
				Judg_KEY_L(LORA_Dev_List_Index);
    6c18:	4c24      	ldr	r4, [pc, #144]	; (6cac <main+0x2a8>)
    6c1a:	0020      	movs	r0, r4
    6c1c:	4b48      	ldr	r3, [pc, #288]	; (6d40 <main+0x33c>)
    6c1e:	4798      	blx	r3
				Judg_KEY_E(LORA_Dev_List_Index);
    6c20:	0020      	movs	r0, r4
    6c22:	4b48      	ldr	r3, [pc, #288]	; (6d44 <main+0x340>)
    6c24:	4798      	blx	r3
				Judg_KEY_ADD(LORA_Dev_List_Index);
    6c26:	0020      	movs	r0, r4
    6c28:	4b47      	ldr	r3, [pc, #284]	; (6d48 <main+0x344>)
    6c2a:	4798      	blx	r3
				Judg_KEY_DL(LORA_Dev_List_Index);
    6c2c:	0020      	movs	r0, r4
    6c2e:	4b47      	ldr	r3, [pc, #284]	; (6d4c <main+0x348>)
    6c30:	4798      	blx	r3
				Judg_KEY_SHOW();
    6c32:	4b47      	ldr	r3, [pc, #284]	; (6d50 <main+0x34c>)
    6c34:	4798      	blx	r3
				Judg_KEY_PSHOW();
    6c36:	4b47      	ldr	r3, [pc, #284]	; (6d54 <main+0x350>)
    6c38:	4798      	blx	r3
				Judg_KEY_T(LORA_Dev_List_Index);
    6c3a:	0020      	movs	r0, r4
    6c3c:	4b46      	ldr	r3, [pc, #280]	; (6d58 <main+0x354>)
    6c3e:	4798      	blx	r3
				Judg_KEY_W();							// PC Write DATA TO PCB
    6c40:	4b46      	ldr	r3, [pc, #280]	; (6d5c <main+0x358>)
    6c42:	4798      	blx	r3
				Judg_KEY_P();
    6c44:	4b46      	ldr	r3, [pc, #280]	; (6d60 <main+0x35c>)
    6c46:	4798      	blx	r3
				Judg_KEY_PDL();
    6c48:	4b46      	ldr	r3, [pc, #280]	; (6d64 <main+0x360>)
    6c4a:	4798      	blx	r3
				Judg_KEY_CH();
    6c4c:	4b46      	ldr	r3, [pc, #280]	; (6d68 <main+0x364>)
    6c4e:	4798      	blx	r3
				UserKeyInStauts = NOP;
    6c50:	2300      	movs	r3, #0
    6c52:	4a23      	ldr	r2, [pc, #140]	; (6ce0 <main+0x2dc>)
    6c54:	7013      	strb	r3, [r2, #0]
				UserKeyInBufCount = 0;
    6c56:	4652      	mov	r2, sl
    6c58:	7013      	strb	r3, [r2, #0]
				break;
    6c5a:	e764      	b.n	6b26 <main+0x122>
    6c5c:	00006781 	.word	0x00006781
    6c60:	00005901 	.word	0x00005901
    6c64:	00001a65 	.word	0x00001a65
    6c68:	00005379 	.word	0x00005379
    6c6c:	000054dd 	.word	0x000054dd
    6c70:	00003315 	.word	0x00003315
    6c74:	00005261 	.word	0x00005261
    6c78:	00003f61 	.word	0x00003f61
    6c7c:	00003fa1 	.word	0x00003fa1
    6c80:	000032c9 	.word	0x000032c9
    6c84:	000032f5 	.word	0x000032f5
    6c88:	00002119 	.word	0x00002119
    6c8c:	200001c8 	.word	0x200001c8
    6c90:	00003ea1 	.word	0x00003ea1
    6c94:	0000191d 	.word	0x0000191d
    6c98:	00001939 	.word	0x00001939
    6c9c:	00005941 	.word	0x00005941
    6ca0:	00001955 	.word	0x00001955
    6ca4:	000019ed 	.word	0x000019ed
    6ca8:	00001c2d 	.word	0x00001c2d
    6cac:	20000f70 	.word	0x20000f70
    6cb0:	00001ee9 	.word	0x00001ee9
    6cb4:	00001eb1 	.word	0x00001eb1
    6cb8:	000026e1 	.word	0x000026e1
    6cbc:	0000266d 	.word	0x0000266d
    6cc0:	200003ac 	.word	0x200003ac
    6cc4:	00002085 	.word	0x00002085
    6cc8:	00003165 	.word	0x00003165
    6ccc:	20001944 	.word	0x20001944
    6cd0:	00001e35 	.word	0x00001e35
    6cd4:	20000d18 	.word	0x20000d18
    6cd8:	00001cc9 	.word	0x00001cc9
    6cdc:	00002149 	.word	0x00002149
    6ce0:	20000d1c 	.word	0x20000d1c
    6ce4:	20002818 	.word	0x20002818
    6ce8:	00001919 	.word	0x00001919
    6cec:	0000564d 	.word	0x0000564d
    6cf0:	20000358 	.word	0x20000358
    6cf4:	20001980 	.word	0x20001980
    6cf8:	00002da5 	.word	0x00002da5
    6cfc:	00006965 	.word	0x00006965
    6d00:	00001f59 	.word	0x00001f59
    6d04:	00001bb5 	.word	0x00001bb5
    6d08:	00006989 	.word	0x00006989
    6d0c:	00003365 	.word	0x00003365
    6d10:	20000d14 	.word	0x20000d14
    6d14:	0000022a 	.word	0x0000022a
    6d18:	0000021d 	.word	0x0000021d
    6d1c:	00004bf1 	.word	0x00004bf1
    6d20:	00003151 	.word	0x00003151
    6d24:	200003a6 	.word	0x200003a6
    6d28:	200002f0 	.word	0x200002f0
    6d2c:	00005535 	.word	0x00005535
    6d30:	000057f5 	.word	0x000057f5
    6d34:	000055c9 	.word	0x000055c9
    6d38:	00000791 	.word	0x00000791
    6d3c:	000015d1 	.word	0x000015d1
    6d40:	00000e29 	.word	0x00000e29
    6d44:	00000d29 	.word	0x00000d29
    6d48:	0000039d 	.word	0x0000039d
    6d4c:	00000805 	.word	0x00000805
    6d50:	00001785 	.word	0x00001785
    6d54:	000012f9 	.word	0x000012f9
    6d58:	00001809 	.word	0x00001809
    6d5c:	00001fa1 	.word	0x00001fa1
    6d60:	00000ff5 	.word	0x00000ff5
    6d64:	00001219 	.word	0x00001219
    6d68:	000004c9 	.word	0x000004c9

00006d6c <log10f>:
    6d6c:	b5f0      	push	{r4, r5, r6, r7, lr}
    6d6e:	2500      	movs	r5, #0
    6d70:	b08d      	sub	sp, #52	; 0x34
    6d72:	1c04      	adds	r4, r0, #0
    6d74:	f000 f876 	bl	6e64 <__ieee754_log10f>
    6d78:	4b35      	ldr	r3, [pc, #212]	; (6e50 <log10f+0xe4>)
    6d7a:	1c06      	adds	r6, r0, #0
    6d7c:	575d      	ldrsb	r5, [r3, r5]
    6d7e:	1c6b      	adds	r3, r5, #1
    6d80:	d00b      	beq.n	6d9a <log10f+0x2e>
    6d82:	1c21      	adds	r1, r4, #0
    6d84:	1c20      	adds	r0, r4, #0
    6d86:	f001 fa67 	bl	8258 <__aeabi_fcmpun>
    6d8a:	1e07      	subs	r7, r0, #0
    6d8c:	d105      	bne.n	6d9a <log10f+0x2e>
    6d8e:	2100      	movs	r1, #0
    6d90:	1c20      	adds	r0, r4, #0
    6d92:	f000 fbc3 	bl	751c <__aeabi_fcmple>
    6d96:	2800      	cmp	r0, #0
    6d98:	d102      	bne.n	6da0 <log10f+0x34>
    6d9a:	1c30      	adds	r0, r6, #0
    6d9c:	b00d      	add	sp, #52	; 0x34
    6d9e:	bdf0      	pop	{r4, r5, r6, r7, pc}
    6da0:	4b2c      	ldr	r3, [pc, #176]	; (6e54 <log10f+0xe8>)
    6da2:	1c20      	adds	r0, r4, #0
    6da4:	9303      	str	r3, [sp, #12]
    6da6:	970a      	str	r7, [sp, #40]	; 0x28
    6da8:	f001 fb24 	bl	83f4 <__aeabi_f2d>
    6dac:	9006      	str	r0, [sp, #24]
    6dae:	9107      	str	r1, [sp, #28]
    6db0:	9004      	str	r0, [sp, #16]
    6db2:	9105      	str	r1, [sp, #20]
    6db4:	2d00      	cmp	r5, #0
    6db6:	d11b      	bne.n	6df0 <log10f+0x84>
    6db8:	22e0      	movs	r2, #224	; 0xe0
    6dba:	4b27      	ldr	r3, [pc, #156]	; (6e58 <log10f+0xec>)
    6dbc:	0612      	lsls	r2, r2, #24
    6dbe:	2100      	movs	r1, #0
    6dc0:	1c20      	adds	r0, r4, #0
    6dc2:	9208      	str	r2, [sp, #32]
    6dc4:	9309      	str	r3, [sp, #36]	; 0x24
    6dc6:	f000 fb99 	bl	74fc <__aeabi_fcmpeq>
    6dca:	2800      	cmp	r0, #0
    6dcc:	d037      	beq.n	6e3e <log10f+0xd2>
    6dce:	2302      	movs	r3, #2
    6dd0:	9302      	str	r3, [sp, #8]
    6dd2:	a802      	add	r0, sp, #8
    6dd4:	f000 f89e 	bl	6f14 <matherr>
    6dd8:	2800      	cmp	r0, #0
    6dda:	d017      	beq.n	6e0c <log10f+0xa0>
    6ddc:	9b0a      	ldr	r3, [sp, #40]	; 0x28
    6dde:	9301      	str	r3, [sp, #4]
    6de0:	2b00      	cmp	r3, #0
    6de2:	d118      	bne.n	6e16 <log10f+0xaa>
    6de4:	9808      	ldr	r0, [sp, #32]
    6de6:	9909      	ldr	r1, [sp, #36]	; 0x24
    6de8:	f001 fb56 	bl	8498 <__aeabi_d2f>
    6dec:	1c06      	adds	r6, r0, #0
    6dee:	e7d4      	b.n	6d9a <log10f+0x2e>
    6df0:	2200      	movs	r2, #0
    6df2:	4b1a      	ldr	r3, [pc, #104]	; (6e5c <log10f+0xf0>)
    6df4:	2100      	movs	r1, #0
    6df6:	1c20      	adds	r0, r4, #0
    6df8:	9208      	str	r2, [sp, #32]
    6dfa:	9309      	str	r3, [sp, #36]	; 0x24
    6dfc:	f000 fb7e 	bl	74fc <__aeabi_fcmpeq>
    6e00:	2800      	cmp	r0, #0
    6e02:	d00e      	beq.n	6e22 <log10f+0xb6>
    6e04:	2302      	movs	r3, #2
    6e06:	9302      	str	r3, [sp, #8]
    6e08:	2d02      	cmp	r5, #2
    6e0a:	d1e2      	bne.n	6dd2 <log10f+0x66>
    6e0c:	f001 fbec 	bl	85e8 <__errno>
    6e10:	2322      	movs	r3, #34	; 0x22
    6e12:	6003      	str	r3, [r0, #0]
    6e14:	e7e2      	b.n	6ddc <log10f+0x70>
    6e16:	f001 fbe7 	bl	85e8 <__errno>
    6e1a:	9b0a      	ldr	r3, [sp, #40]	; 0x28
    6e1c:	9301      	str	r3, [sp, #4]
    6e1e:	6003      	str	r3, [r0, #0]
    6e20:	e7e0      	b.n	6de4 <log10f+0x78>
    6e22:	2301      	movs	r3, #1
    6e24:	9302      	str	r3, [sp, #8]
    6e26:	2d02      	cmp	r5, #2
    6e28:	d10b      	bne.n	6e42 <log10f+0xd6>
    6e2a:	f001 fbdd 	bl	85e8 <__errno>
    6e2e:	2321      	movs	r3, #33	; 0x21
    6e30:	6003      	str	r3, [r0, #0]
    6e32:	480b      	ldr	r0, [pc, #44]	; (6e60 <log10f+0xf4>)
    6e34:	f000 f870 	bl	6f18 <nan>
    6e38:	9008      	str	r0, [sp, #32]
    6e3a:	9109      	str	r1, [sp, #36]	; 0x24
    6e3c:	e7ce      	b.n	6ddc <log10f+0x70>
    6e3e:	2301      	movs	r3, #1
    6e40:	9302      	str	r3, [sp, #8]
    6e42:	a802      	add	r0, sp, #8
    6e44:	f000 f866 	bl	6f14 <matherr>
    6e48:	2800      	cmp	r0, #0
    6e4a:	d1f2      	bne.n	6e32 <log10f+0xc6>
    6e4c:	e7ed      	b.n	6e2a <log10f+0xbe>
    6e4e:	46c0      	nop			; (mov r8, r8)
    6e50:	200001c9 	.word	0x200001c9
    6e54:	00008d68 	.word	0x00008d68
    6e58:	c7efffff 	.word	0xc7efffff
    6e5c:	fff00000 	.word	0xfff00000
    6e60:	00008800 	.word	0x00008800

00006e64 <__ieee754_log10f>:
    6e64:	b570      	push	{r4, r5, r6, lr}
    6e66:	0003      	movs	r3, r0
    6e68:	0042      	lsls	r2, r0, #1
    6e6a:	d030      	beq.n	6ece <__ieee754_log10f+0x6a>
    6e6c:	2800      	cmp	r0, #0
    6e6e:	db3c      	blt.n	6eea <__ieee754_log10f+0x86>
    6e70:	4a23      	ldr	r2, [pc, #140]	; (6f00 <__ieee754_log10f+0x9c>)
    6e72:	4290      	cmp	r0, r2
    6e74:	dc40      	bgt.n	6ef8 <__ieee754_log10f+0x94>
    6e76:	4923      	ldr	r1, [pc, #140]	; (6f04 <__ieee754_log10f+0xa0>)
    6e78:	2200      	movs	r2, #0
    6e7a:	4288      	cmp	r0, r1
    6e7c:	dd2d      	ble.n	6eda <__ieee754_log10f+0x76>
    6e7e:	15d8      	asrs	r0, r3, #23
    6e80:	387f      	subs	r0, #127	; 0x7f
    6e82:	1880      	adds	r0, r0, r2
    6e84:	0fc6      	lsrs	r6, r0, #31
    6e86:	025b      	lsls	r3, r3, #9
    6e88:	1980      	adds	r0, r0, r6
    6e8a:	0a5c      	lsrs	r4, r3, #9
    6e8c:	f001 fa1c 	bl	82c8 <__aeabi_i2f>
    6e90:	1c05      	adds	r5, r0, #0
    6e92:	207f      	movs	r0, #127	; 0x7f
    6e94:	1b80      	subs	r0, r0, r6
    6e96:	05c0      	lsls	r0, r0, #23
    6e98:	4320      	orrs	r0, r4
    6e9a:	f000 f843 	bl	6f24 <__ieee754_logf>
    6e9e:	491a      	ldr	r1, [pc, #104]	; (6f08 <__ieee754_log10f+0xa4>)
    6ea0:	1c06      	adds	r6, r0, #0
    6ea2:	1c28      	adds	r0, r5, #0
    6ea4:	f000 ff1c 	bl	7ce0 <__aeabi_fmul>
    6ea8:	4918      	ldr	r1, [pc, #96]	; (6f0c <__ieee754_log10f+0xa8>)
    6eaa:	1c04      	adds	r4, r0, #0
    6eac:	1c30      	adds	r0, r6, #0
    6eae:	f000 ff17 	bl	7ce0 <__aeabi_fmul>
    6eb2:	1c01      	adds	r1, r0, #0
    6eb4:	1c20      	adds	r0, r4, #0
    6eb6:	f000 fb91 	bl	75dc <__aeabi_fadd>
    6eba:	4915      	ldr	r1, [pc, #84]	; (6f10 <__ieee754_log10f+0xac>)
    6ebc:	1c04      	adds	r4, r0, #0
    6ebe:	1c28      	adds	r0, r5, #0
    6ec0:	f000 ff0e 	bl	7ce0 <__aeabi_fmul>
    6ec4:	1c01      	adds	r1, r0, #0
    6ec6:	1c20      	adds	r0, r4, #0
    6ec8:	f000 fb88 	bl	75dc <__aeabi_fadd>
    6ecc:	bd70      	pop	{r4, r5, r6, pc}
    6ece:	20cc      	movs	r0, #204	; 0xcc
    6ed0:	2100      	movs	r1, #0
    6ed2:	0600      	lsls	r0, r0, #24
    6ed4:	f000 fd14 	bl	7900 <__aeabi_fdiv>
    6ed8:	e7f8      	b.n	6ecc <__ieee754_log10f+0x68>
    6eda:	2198      	movs	r1, #152	; 0x98
    6edc:	05c9      	lsls	r1, r1, #23
    6ede:	f000 feff 	bl	7ce0 <__aeabi_fmul>
    6ee2:	2219      	movs	r2, #25
    6ee4:	0003      	movs	r3, r0
    6ee6:	4252      	negs	r2, r2
    6ee8:	e7c9      	b.n	6e7e <__ieee754_log10f+0x1a>
    6eea:	1c01      	adds	r1, r0, #0
    6eec:	f001 f818 	bl	7f20 <__aeabi_fsub>
    6ef0:	2100      	movs	r1, #0
    6ef2:	f000 fd05 	bl	7900 <__aeabi_fdiv>
    6ef6:	e7e9      	b.n	6ecc <__ieee754_log10f+0x68>
    6ef8:	1c01      	adds	r1, r0, #0
    6efa:	f000 fb6f 	bl	75dc <__aeabi_fadd>
    6efe:	e7e5      	b.n	6ecc <__ieee754_log10f+0x68>
    6f00:	7f7fffff 	.word	0x7f7fffff
    6f04:	007fffff 	.word	0x007fffff
    6f08:	355427db 	.word	0x355427db
    6f0c:	3ede5bd9 	.word	0x3ede5bd9
    6f10:	3e9a2080 	.word	0x3e9a2080

00006f14 <matherr>:
    6f14:	2000      	movs	r0, #0
    6f16:	4770      	bx	lr

00006f18 <nan>:
    6f18:	2000      	movs	r0, #0
    6f1a:	4901      	ldr	r1, [pc, #4]	; (6f20 <nan+0x8>)
    6f1c:	4770      	bx	lr
    6f1e:	46c0      	nop			; (mov r8, r8)
    6f20:	7ff80000 	.word	0x7ff80000

00006f24 <__ieee754_logf>:
    6f24:	b5f8      	push	{r3, r4, r5, r6, r7, lr}
    6f26:	46de      	mov	lr, fp
    6f28:	4657      	mov	r7, sl
    6f2a:	464e      	mov	r6, r9
    6f2c:	4645      	mov	r5, r8
    6f2e:	0003      	movs	r3, r0
    6f30:	b5e0      	push	{r5, r6, r7, lr}
    6f32:	0042      	lsls	r2, r0, #1
    6f34:	d100      	bne.n	6f38 <__ieee754_logf+0x14>
    6f36:	e093      	b.n	7060 <__ieee754_logf+0x13c>
    6f38:	2800      	cmp	r0, #0
    6f3a:	da00      	bge.n	6f3e <__ieee754_logf+0x1a>
    6f3c:	e0b4      	b.n	70a8 <__ieee754_logf+0x184>
    6f3e:	4a9f      	ldr	r2, [pc, #636]	; (71bc <__ieee754_logf+0x298>)
    6f40:	4290      	cmp	r0, r2
    6f42:	dd00      	ble.n	6f46 <__ieee754_logf+0x22>
    6f44:	e0b7      	b.n	70b6 <__ieee754_logf+0x192>
    6f46:	4a9e      	ldr	r2, [pc, #632]	; (71c0 <__ieee754_logf+0x29c>)
    6f48:	2100      	movs	r1, #0
    6f4a:	4290      	cmp	r0, r2
    6f4c:	dc06      	bgt.n	6f5c <__ieee754_logf+0x38>
    6f4e:	2198      	movs	r1, #152	; 0x98
    6f50:	05c9      	lsls	r1, r1, #23
    6f52:	f000 fec5 	bl	7ce0 <__aeabi_fmul>
    6f56:	2119      	movs	r1, #25
    6f58:	0003      	movs	r3, r0
    6f5a:	4249      	negs	r1, r1
    6f5c:	15da      	asrs	r2, r3, #23
    6f5e:	025b      	lsls	r3, r3, #9
    6f60:	0a5c      	lsrs	r4, r3, #9
    6f62:	4b98      	ldr	r3, [pc, #608]	; (71c4 <__ieee754_logf+0x2a0>)
    6f64:	3a7f      	subs	r2, #127	; 0x7f
    6f66:	18e0      	adds	r0, r4, r3
    6f68:	2380      	movs	r3, #128	; 0x80
    6f6a:	041b      	lsls	r3, r3, #16
    6f6c:	4003      	ands	r3, r0
    6f6e:	20fe      	movs	r0, #254	; 0xfe
    6f70:	1852      	adds	r2, r2, r1
    6f72:	21fe      	movs	r1, #254	; 0xfe
    6f74:	0580      	lsls	r0, r0, #22
    6f76:	4058      	eors	r0, r3
    6f78:	15dd      	asrs	r5, r3, #23
    6f7a:	4320      	orrs	r0, r4
    6f7c:	0589      	lsls	r1, r1, #22
    6f7e:	18ad      	adds	r5, r5, r2
    6f80:	f000 ffce 	bl	7f20 <__aeabi_fsub>
    6f84:	0023      	movs	r3, r4
    6f86:	330f      	adds	r3, #15
    6f88:	025b      	lsls	r3, r3, #9
    6f8a:	1c06      	adds	r6, r0, #0
    6f8c:	0a5b      	lsrs	r3, r3, #9
    6f8e:	2b0f      	cmp	r3, #15
    6f90:	dc00      	bgt.n	6f94 <__ieee754_logf+0x70>
    6f92:	e070      	b.n	7076 <__ieee754_logf+0x152>
    6f94:	2180      	movs	r1, #128	; 0x80
    6f96:	05c9      	lsls	r1, r1, #23
    6f98:	f000 fb20 	bl	75dc <__aeabi_fadd>
    6f9c:	1c01      	adds	r1, r0, #0
    6f9e:	1c30      	adds	r0, r6, #0
    6fa0:	f000 fcae 	bl	7900 <__aeabi_fdiv>
    6fa4:	4680      	mov	r8, r0
    6fa6:	0028      	movs	r0, r5
    6fa8:	f001 f98e 	bl	82c8 <__aeabi_i2f>
    6fac:	4641      	mov	r1, r8
    6fae:	4681      	mov	r9, r0
    6fb0:	4640      	mov	r0, r8
    6fb2:	f000 fe95 	bl	7ce0 <__aeabi_fmul>
    6fb6:	4b84      	ldr	r3, [pc, #528]	; (71c8 <__ieee754_logf+0x2a4>)
    6fb8:	1c01      	adds	r1, r0, #0
    6fba:	469a      	mov	sl, r3
    6fbc:	4683      	mov	fp, r0
    6fbe:	f000 fe8f 	bl	7ce0 <__aeabi_fmul>
    6fc2:	4982      	ldr	r1, [pc, #520]	; (71cc <__ieee754_logf+0x2a8>)
    6fc4:	1c07      	adds	r7, r0, #0
    6fc6:	f000 fe8b 	bl	7ce0 <__aeabi_fmul>
    6fca:	4981      	ldr	r1, [pc, #516]	; (71d0 <__ieee754_logf+0x2ac>)
    6fcc:	f000 fb06 	bl	75dc <__aeabi_fadd>
    6fd0:	1c39      	adds	r1, r7, #0
    6fd2:	f000 fe85 	bl	7ce0 <__aeabi_fmul>
    6fd6:	497f      	ldr	r1, [pc, #508]	; (71d4 <__ieee754_logf+0x2b0>)
    6fd8:	f000 fb00 	bl	75dc <__aeabi_fadd>
    6fdc:	1c39      	adds	r1, r7, #0
    6fde:	f000 fe7f 	bl	7ce0 <__aeabi_fmul>
    6fe2:	497d      	ldr	r1, [pc, #500]	; (71d8 <__ieee754_logf+0x2b4>)
    6fe4:	f000 fafa 	bl	75dc <__aeabi_fadd>
    6fe8:	4659      	mov	r1, fp
    6fea:	f000 fe79 	bl	7ce0 <__aeabi_fmul>
    6fee:	497b      	ldr	r1, [pc, #492]	; (71dc <__ieee754_logf+0x2b8>)
    6ff0:	4683      	mov	fp, r0
    6ff2:	1c38      	adds	r0, r7, #0
    6ff4:	f000 fe74 	bl	7ce0 <__aeabi_fmul>
    6ff8:	4979      	ldr	r1, [pc, #484]	; (71e0 <__ieee754_logf+0x2bc>)
    6ffa:	f000 faef 	bl	75dc <__aeabi_fadd>
    6ffe:	1c39      	adds	r1, r7, #0
    7000:	f000 fe6e 	bl	7ce0 <__aeabi_fmul>
    7004:	4977      	ldr	r1, [pc, #476]	; (71e4 <__ieee754_logf+0x2c0>)
    7006:	f000 fae9 	bl	75dc <__aeabi_fadd>
    700a:	1c39      	adds	r1, r7, #0
    700c:	f000 fe68 	bl	7ce0 <__aeabi_fmul>
    7010:	1c01      	adds	r1, r0, #0
    7012:	4658      	mov	r0, fp
    7014:	f000 fae2 	bl	75dc <__aeabi_fadd>
    7018:	4b73      	ldr	r3, [pc, #460]	; (71e8 <__ieee754_logf+0x2c4>)
    701a:	44a2      	add	sl, r4
    701c:	1b1c      	subs	r4, r3, r4
    701e:	4653      	mov	r3, sl
    7020:	1c07      	adds	r7, r0, #0
    7022:	431c      	orrs	r4, r3
    7024:	2c00      	cmp	r4, #0
    7026:	dc00      	bgt.n	702a <__ieee754_logf+0x106>
    7028:	e09c      	b.n	7164 <__ieee754_logf+0x240>
    702a:	21fc      	movs	r1, #252	; 0xfc
    702c:	1c30      	adds	r0, r6, #0
    702e:	0589      	lsls	r1, r1, #22
    7030:	f000 fe56 	bl	7ce0 <__aeabi_fmul>
    7034:	1c31      	adds	r1, r6, #0
    7036:	f000 fe53 	bl	7ce0 <__aeabi_fmul>
    703a:	1c04      	adds	r4, r0, #0
    703c:	2d00      	cmp	r5, #0
    703e:	d158      	bne.n	70f2 <__ieee754_logf+0x1ce>
    7040:	1c01      	adds	r1, r0, #0
    7042:	1c38      	adds	r0, r7, #0
    7044:	f000 faca 	bl	75dc <__aeabi_fadd>
    7048:	4641      	mov	r1, r8
    704a:	f000 fe49 	bl	7ce0 <__aeabi_fmul>
    704e:	1c01      	adds	r1, r0, #0
    7050:	1c20      	adds	r0, r4, #0
    7052:	f000 ff65 	bl	7f20 <__aeabi_fsub>
    7056:	1c01      	adds	r1, r0, #0
    7058:	1c30      	adds	r0, r6, #0
    705a:	f000 ff61 	bl	7f20 <__aeabi_fsub>
    705e:	e004      	b.n	706a <__ieee754_logf+0x146>
    7060:	20cc      	movs	r0, #204	; 0xcc
    7062:	2100      	movs	r1, #0
    7064:	0600      	lsls	r0, r0, #24
    7066:	f000 fc4b 	bl	7900 <__aeabi_fdiv>
    706a:	bc3c      	pop	{r2, r3, r4, r5}
    706c:	4690      	mov	r8, r2
    706e:	4699      	mov	r9, r3
    7070:	46a2      	mov	sl, r4
    7072:	46ab      	mov	fp, r5
    7074:	bdf8      	pop	{r3, r4, r5, r6, r7, pc}
    7076:	2100      	movs	r1, #0
    7078:	f000 fa40 	bl	74fc <__aeabi_fcmpeq>
    707c:	2800      	cmp	r0, #0
    707e:	d01e      	beq.n	70be <__ieee754_logf+0x19a>
    7080:	2000      	movs	r0, #0
    7082:	2d00      	cmp	r5, #0
    7084:	d0f1      	beq.n	706a <__ieee754_logf+0x146>
    7086:	0028      	movs	r0, r5
    7088:	f001 f91e 	bl	82c8 <__aeabi_i2f>
    708c:	4957      	ldr	r1, [pc, #348]	; (71ec <__ieee754_logf+0x2c8>)
    708e:	1c04      	adds	r4, r0, #0
    7090:	f000 fe26 	bl	7ce0 <__aeabi_fmul>
    7094:	4956      	ldr	r1, [pc, #344]	; (71f0 <__ieee754_logf+0x2cc>)
    7096:	1c05      	adds	r5, r0, #0
    7098:	1c20      	adds	r0, r4, #0
    709a:	f000 fe21 	bl	7ce0 <__aeabi_fmul>
    709e:	1c01      	adds	r1, r0, #0
    70a0:	1c28      	adds	r0, r5, #0
    70a2:	f000 fa9b 	bl	75dc <__aeabi_fadd>
    70a6:	e7e0      	b.n	706a <__ieee754_logf+0x146>
    70a8:	1c01      	adds	r1, r0, #0
    70aa:	f000 ff39 	bl	7f20 <__aeabi_fsub>
    70ae:	2100      	movs	r1, #0
    70b0:	f000 fc26 	bl	7900 <__aeabi_fdiv>
    70b4:	e7d9      	b.n	706a <__ieee754_logf+0x146>
    70b6:	1c01      	adds	r1, r0, #0
    70b8:	f000 fa90 	bl	75dc <__aeabi_fadd>
    70bc:	e7d5      	b.n	706a <__ieee754_logf+0x146>
    70be:	494d      	ldr	r1, [pc, #308]	; (71f4 <__ieee754_logf+0x2d0>)
    70c0:	1c30      	adds	r0, r6, #0
    70c2:	f000 fe0d 	bl	7ce0 <__aeabi_fmul>
    70c6:	1c01      	adds	r1, r0, #0
    70c8:	20fc      	movs	r0, #252	; 0xfc
    70ca:	0580      	lsls	r0, r0, #22
    70cc:	f000 ff28 	bl	7f20 <__aeabi_fsub>
    70d0:	1c31      	adds	r1, r6, #0
    70d2:	1c04      	adds	r4, r0, #0
    70d4:	1c30      	adds	r0, r6, #0
    70d6:	f000 fe03 	bl	7ce0 <__aeabi_fmul>
    70da:	1c01      	adds	r1, r0, #0
    70dc:	1c20      	adds	r0, r4, #0
    70de:	f000 fdff 	bl	7ce0 <__aeabi_fmul>
    70e2:	1c04      	adds	r4, r0, #0
    70e4:	2d00      	cmp	r5, #0
    70e6:	d125      	bne.n	7134 <__ieee754_logf+0x210>
    70e8:	1c01      	adds	r1, r0, #0
    70ea:	1c30      	adds	r0, r6, #0
    70ec:	f000 ff18 	bl	7f20 <__aeabi_fsub>
    70f0:	e7bb      	b.n	706a <__ieee754_logf+0x146>
    70f2:	493e      	ldr	r1, [pc, #248]	; (71ec <__ieee754_logf+0x2c8>)
    70f4:	4648      	mov	r0, r9
    70f6:	f000 fdf3 	bl	7ce0 <__aeabi_fmul>
    70fa:	1c21      	adds	r1, r4, #0
    70fc:	1c05      	adds	r5, r0, #0
    70fe:	1c38      	adds	r0, r7, #0
    7100:	f000 fa6c 	bl	75dc <__aeabi_fadd>
    7104:	4641      	mov	r1, r8
    7106:	f000 fdeb 	bl	7ce0 <__aeabi_fmul>
    710a:	4939      	ldr	r1, [pc, #228]	; (71f0 <__ieee754_logf+0x2cc>)
    710c:	1c07      	adds	r7, r0, #0
    710e:	4648      	mov	r0, r9
    7110:	f000 fde6 	bl	7ce0 <__aeabi_fmul>
    7114:	1c01      	adds	r1, r0, #0
    7116:	1c38      	adds	r0, r7, #0
    7118:	f000 fa60 	bl	75dc <__aeabi_fadd>
    711c:	1c01      	adds	r1, r0, #0
    711e:	1c20      	adds	r0, r4, #0
    7120:	f000 fefe 	bl	7f20 <__aeabi_fsub>
    7124:	1c31      	adds	r1, r6, #0
    7126:	f000 fefb 	bl	7f20 <__aeabi_fsub>
    712a:	1c01      	adds	r1, r0, #0
    712c:	1c28      	adds	r0, r5, #0
    712e:	f000 fef7 	bl	7f20 <__aeabi_fsub>
    7132:	e79a      	b.n	706a <__ieee754_logf+0x146>
    7134:	0028      	movs	r0, r5
    7136:	f001 f8c7 	bl	82c8 <__aeabi_i2f>
    713a:	492c      	ldr	r1, [pc, #176]	; (71ec <__ieee754_logf+0x2c8>)
    713c:	1c05      	adds	r5, r0, #0
    713e:	f000 fdcf 	bl	7ce0 <__aeabi_fmul>
    7142:	492b      	ldr	r1, [pc, #172]	; (71f0 <__ieee754_logf+0x2cc>)
    7144:	1c07      	adds	r7, r0, #0
    7146:	1c28      	adds	r0, r5, #0
    7148:	f000 fdca 	bl	7ce0 <__aeabi_fmul>
    714c:	1c01      	adds	r1, r0, #0
    714e:	1c20      	adds	r0, r4, #0
    7150:	f000 fee6 	bl	7f20 <__aeabi_fsub>
    7154:	1c31      	adds	r1, r6, #0
    7156:	f000 fee3 	bl	7f20 <__aeabi_fsub>
    715a:	1c01      	adds	r1, r0, #0
    715c:	1c38      	adds	r0, r7, #0
    715e:	f000 fedf 	bl	7f20 <__aeabi_fsub>
    7162:	e782      	b.n	706a <__ieee754_logf+0x146>
    7164:	2d00      	cmp	r5, #0
    7166:	d01c      	beq.n	71a2 <__ieee754_logf+0x27e>
    7168:	4920      	ldr	r1, [pc, #128]	; (71ec <__ieee754_logf+0x2c8>)
    716a:	4648      	mov	r0, r9
    716c:	f000 fdb8 	bl	7ce0 <__aeabi_fmul>
    7170:	1c39      	adds	r1, r7, #0
    7172:	1c04      	adds	r4, r0, #0
    7174:	1c30      	adds	r0, r6, #0
    7176:	f000 fed3 	bl	7f20 <__aeabi_fsub>
    717a:	4641      	mov	r1, r8
    717c:	f000 fdb0 	bl	7ce0 <__aeabi_fmul>
    7180:	491b      	ldr	r1, [pc, #108]	; (71f0 <__ieee754_logf+0x2cc>)
    7182:	1c05      	adds	r5, r0, #0
    7184:	4648      	mov	r0, r9
    7186:	f000 fdab 	bl	7ce0 <__aeabi_fmul>
    718a:	1c01      	adds	r1, r0, #0
    718c:	1c28      	adds	r0, r5, #0
    718e:	f000 fec7 	bl	7f20 <__aeabi_fsub>
    7192:	1c31      	adds	r1, r6, #0
    7194:	f000 fec4 	bl	7f20 <__aeabi_fsub>
    7198:	1c01      	adds	r1, r0, #0
    719a:	1c20      	adds	r0, r4, #0
    719c:	f000 fec0 	bl	7f20 <__aeabi_fsub>
    71a0:	e763      	b.n	706a <__ieee754_logf+0x146>
    71a2:	1c01      	adds	r1, r0, #0
    71a4:	1c30      	adds	r0, r6, #0
    71a6:	f000 febb 	bl	7f20 <__aeabi_fsub>
    71aa:	4641      	mov	r1, r8
    71ac:	f000 fd98 	bl	7ce0 <__aeabi_fmul>
    71b0:	1c01      	adds	r1, r0, #0
    71b2:	1c30      	adds	r0, r6, #0
    71b4:	f000 feb4 	bl	7f20 <__aeabi_fsub>
    71b8:	e757      	b.n	706a <__ieee754_logf+0x146>
    71ba:	46c0      	nop			; (mov r8, r8)
    71bc:	7f7fffff 	.word	0x7f7fffff
    71c0:	007fffff 	.word	0x007fffff
    71c4:	004afb20 	.word	0x004afb20
    71c8:	ffcf5c30 	.word	0xffcf5c30
    71cc:	3e178897 	.word	0x3e178897
    71d0:	3e3a3325 	.word	0x3e3a3325
    71d4:	3e924925 	.word	0x3e924925
    71d8:	3f2aaaab 	.word	0x3f2aaaab
    71dc:	3e1cd04f 	.word	0x3e1cd04f
    71e0:	3e638e29 	.word	0x3e638e29
    71e4:	3ecccccd 	.word	0x3ecccccd
    71e8:	0035c288 	.word	0x0035c288
    71ec:	3f317180 	.word	0x3f317180
    71f0:	3717f7d1 	.word	0x3717f7d1
    71f4:	3eaaaaab 	.word	0x3eaaaaab

000071f8 <__udivsi3>:
    71f8:	2200      	movs	r2, #0
    71fa:	0843      	lsrs	r3, r0, #1
    71fc:	428b      	cmp	r3, r1
    71fe:	d374      	bcc.n	72ea <__udivsi3+0xf2>
    7200:	0903      	lsrs	r3, r0, #4
    7202:	428b      	cmp	r3, r1
    7204:	d35f      	bcc.n	72c6 <__udivsi3+0xce>
    7206:	0a03      	lsrs	r3, r0, #8
    7208:	428b      	cmp	r3, r1
    720a:	d344      	bcc.n	7296 <__udivsi3+0x9e>
    720c:	0b03      	lsrs	r3, r0, #12
    720e:	428b      	cmp	r3, r1
    7210:	d328      	bcc.n	7264 <__udivsi3+0x6c>
    7212:	0c03      	lsrs	r3, r0, #16
    7214:	428b      	cmp	r3, r1
    7216:	d30d      	bcc.n	7234 <__udivsi3+0x3c>
    7218:	22ff      	movs	r2, #255	; 0xff
    721a:	0209      	lsls	r1, r1, #8
    721c:	ba12      	rev	r2, r2
    721e:	0c03      	lsrs	r3, r0, #16
    7220:	428b      	cmp	r3, r1
    7222:	d302      	bcc.n	722a <__udivsi3+0x32>
    7224:	1212      	asrs	r2, r2, #8
    7226:	0209      	lsls	r1, r1, #8
    7228:	d065      	beq.n	72f6 <__udivsi3+0xfe>
    722a:	0b03      	lsrs	r3, r0, #12
    722c:	428b      	cmp	r3, r1
    722e:	d319      	bcc.n	7264 <__udivsi3+0x6c>
    7230:	e000      	b.n	7234 <__udivsi3+0x3c>
    7232:	0a09      	lsrs	r1, r1, #8
    7234:	0bc3      	lsrs	r3, r0, #15
    7236:	428b      	cmp	r3, r1
    7238:	d301      	bcc.n	723e <__udivsi3+0x46>
    723a:	03cb      	lsls	r3, r1, #15
    723c:	1ac0      	subs	r0, r0, r3
    723e:	4152      	adcs	r2, r2
    7240:	0b83      	lsrs	r3, r0, #14
    7242:	428b      	cmp	r3, r1
    7244:	d301      	bcc.n	724a <__udivsi3+0x52>
    7246:	038b      	lsls	r3, r1, #14
    7248:	1ac0      	subs	r0, r0, r3
    724a:	4152      	adcs	r2, r2
    724c:	0b43      	lsrs	r3, r0, #13
    724e:	428b      	cmp	r3, r1
    7250:	d301      	bcc.n	7256 <__udivsi3+0x5e>
    7252:	034b      	lsls	r3, r1, #13
    7254:	1ac0      	subs	r0, r0, r3
    7256:	4152      	adcs	r2, r2
    7258:	0b03      	lsrs	r3, r0, #12
    725a:	428b      	cmp	r3, r1
    725c:	d301      	bcc.n	7262 <__udivsi3+0x6a>
    725e:	030b      	lsls	r3, r1, #12
    7260:	1ac0      	subs	r0, r0, r3
    7262:	4152      	adcs	r2, r2
    7264:	0ac3      	lsrs	r3, r0, #11
    7266:	428b      	cmp	r3, r1
    7268:	d301      	bcc.n	726e <__udivsi3+0x76>
    726a:	02cb      	lsls	r3, r1, #11
    726c:	1ac0      	subs	r0, r0, r3
    726e:	4152      	adcs	r2, r2
    7270:	0a83      	lsrs	r3, r0, #10
    7272:	428b      	cmp	r3, r1
    7274:	d301      	bcc.n	727a <__udivsi3+0x82>
    7276:	028b      	lsls	r3, r1, #10
    7278:	1ac0      	subs	r0, r0, r3
    727a:	4152      	adcs	r2, r2
    727c:	0a43      	lsrs	r3, r0, #9
    727e:	428b      	cmp	r3, r1
    7280:	d301      	bcc.n	7286 <__udivsi3+0x8e>
    7282:	024b      	lsls	r3, r1, #9
    7284:	1ac0      	subs	r0, r0, r3
    7286:	4152      	adcs	r2, r2
    7288:	0a03      	lsrs	r3, r0, #8
    728a:	428b      	cmp	r3, r1
    728c:	d301      	bcc.n	7292 <__udivsi3+0x9a>
    728e:	020b      	lsls	r3, r1, #8
    7290:	1ac0      	subs	r0, r0, r3
    7292:	4152      	adcs	r2, r2
    7294:	d2cd      	bcs.n	7232 <__udivsi3+0x3a>
    7296:	09c3      	lsrs	r3, r0, #7
    7298:	428b      	cmp	r3, r1
    729a:	d301      	bcc.n	72a0 <__udivsi3+0xa8>
    729c:	01cb      	lsls	r3, r1, #7
    729e:	1ac0      	subs	r0, r0, r3
    72a0:	4152      	adcs	r2, r2
    72a2:	0983      	lsrs	r3, r0, #6
    72a4:	428b      	cmp	r3, r1
    72a6:	d301      	bcc.n	72ac <__udivsi3+0xb4>
    72a8:	018b      	lsls	r3, r1, #6
    72aa:	1ac0      	subs	r0, r0, r3
    72ac:	4152      	adcs	r2, r2
    72ae:	0943      	lsrs	r3, r0, #5
    72b0:	428b      	cmp	r3, r1
    72b2:	d301      	bcc.n	72b8 <__udivsi3+0xc0>
    72b4:	014b      	lsls	r3, r1, #5
    72b6:	1ac0      	subs	r0, r0, r3
    72b8:	4152      	adcs	r2, r2
    72ba:	0903      	lsrs	r3, r0, #4
    72bc:	428b      	cmp	r3, r1
    72be:	d301      	bcc.n	72c4 <__udivsi3+0xcc>
    72c0:	010b      	lsls	r3, r1, #4
    72c2:	1ac0      	subs	r0, r0, r3
    72c4:	4152      	adcs	r2, r2
    72c6:	08c3      	lsrs	r3, r0, #3
    72c8:	428b      	cmp	r3, r1
    72ca:	d301      	bcc.n	72d0 <__udivsi3+0xd8>
    72cc:	00cb      	lsls	r3, r1, #3
    72ce:	1ac0      	subs	r0, r0, r3
    72d0:	4152      	adcs	r2, r2
    72d2:	0883      	lsrs	r3, r0, #2
    72d4:	428b      	cmp	r3, r1
    72d6:	d301      	bcc.n	72dc <__udivsi3+0xe4>
    72d8:	008b      	lsls	r3, r1, #2
    72da:	1ac0      	subs	r0, r0, r3
    72dc:	4152      	adcs	r2, r2
    72de:	0843      	lsrs	r3, r0, #1
    72e0:	428b      	cmp	r3, r1
    72e2:	d301      	bcc.n	72e8 <__udivsi3+0xf0>
    72e4:	004b      	lsls	r3, r1, #1
    72e6:	1ac0      	subs	r0, r0, r3
    72e8:	4152      	adcs	r2, r2
    72ea:	1a41      	subs	r1, r0, r1
    72ec:	d200      	bcs.n	72f0 <__udivsi3+0xf8>
    72ee:	4601      	mov	r1, r0
    72f0:	4152      	adcs	r2, r2
    72f2:	4610      	mov	r0, r2
    72f4:	4770      	bx	lr
    72f6:	e7ff      	b.n	72f8 <__udivsi3+0x100>
    72f8:	b501      	push	{r0, lr}
    72fa:	2000      	movs	r0, #0
    72fc:	f000 f8f0 	bl	74e0 <__aeabi_idiv0>
    7300:	bd02      	pop	{r1, pc}
    7302:	46c0      	nop			; (mov r8, r8)

00007304 <__aeabi_uidivmod>:
    7304:	2900      	cmp	r1, #0
    7306:	d0f7      	beq.n	72f8 <__udivsi3+0x100>
    7308:	e776      	b.n	71f8 <__udivsi3>
    730a:	4770      	bx	lr

0000730c <__divsi3>:
    730c:	4603      	mov	r3, r0
    730e:	430b      	orrs	r3, r1
    7310:	d47f      	bmi.n	7412 <__divsi3+0x106>
    7312:	2200      	movs	r2, #0
    7314:	0843      	lsrs	r3, r0, #1
    7316:	428b      	cmp	r3, r1
    7318:	d374      	bcc.n	7404 <__divsi3+0xf8>
    731a:	0903      	lsrs	r3, r0, #4
    731c:	428b      	cmp	r3, r1
    731e:	d35f      	bcc.n	73e0 <__divsi3+0xd4>
    7320:	0a03      	lsrs	r3, r0, #8
    7322:	428b      	cmp	r3, r1
    7324:	d344      	bcc.n	73b0 <__divsi3+0xa4>
    7326:	0b03      	lsrs	r3, r0, #12
    7328:	428b      	cmp	r3, r1
    732a:	d328      	bcc.n	737e <__divsi3+0x72>
    732c:	0c03      	lsrs	r3, r0, #16
    732e:	428b      	cmp	r3, r1
    7330:	d30d      	bcc.n	734e <__divsi3+0x42>
    7332:	22ff      	movs	r2, #255	; 0xff
    7334:	0209      	lsls	r1, r1, #8
    7336:	ba12      	rev	r2, r2
    7338:	0c03      	lsrs	r3, r0, #16
    733a:	428b      	cmp	r3, r1
    733c:	d302      	bcc.n	7344 <__divsi3+0x38>
    733e:	1212      	asrs	r2, r2, #8
    7340:	0209      	lsls	r1, r1, #8
    7342:	d065      	beq.n	7410 <__divsi3+0x104>
    7344:	0b03      	lsrs	r3, r0, #12
    7346:	428b      	cmp	r3, r1
    7348:	d319      	bcc.n	737e <__divsi3+0x72>
    734a:	e000      	b.n	734e <__divsi3+0x42>
    734c:	0a09      	lsrs	r1, r1, #8
    734e:	0bc3      	lsrs	r3, r0, #15
    7350:	428b      	cmp	r3, r1
    7352:	d301      	bcc.n	7358 <__divsi3+0x4c>
    7354:	03cb      	lsls	r3, r1, #15
    7356:	1ac0      	subs	r0, r0, r3
    7358:	4152      	adcs	r2, r2
    735a:	0b83      	lsrs	r3, r0, #14
    735c:	428b      	cmp	r3, r1
    735e:	d301      	bcc.n	7364 <__divsi3+0x58>
    7360:	038b      	lsls	r3, r1, #14
    7362:	1ac0      	subs	r0, r0, r3
    7364:	4152      	adcs	r2, r2
    7366:	0b43      	lsrs	r3, r0, #13
    7368:	428b      	cmp	r3, r1
    736a:	d301      	bcc.n	7370 <__divsi3+0x64>
    736c:	034b      	lsls	r3, r1, #13
    736e:	1ac0      	subs	r0, r0, r3
    7370:	4152      	adcs	r2, r2
    7372:	0b03      	lsrs	r3, r0, #12
    7374:	428b      	cmp	r3, r1
    7376:	d301      	bcc.n	737c <__divsi3+0x70>
    7378:	030b      	lsls	r3, r1, #12
    737a:	1ac0      	subs	r0, r0, r3
    737c:	4152      	adcs	r2, r2
    737e:	0ac3      	lsrs	r3, r0, #11
    7380:	428b      	cmp	r3, r1
    7382:	d301      	bcc.n	7388 <__divsi3+0x7c>
    7384:	02cb      	lsls	r3, r1, #11
    7386:	1ac0      	subs	r0, r0, r3
    7388:	4152      	adcs	r2, r2
    738a:	0a83      	lsrs	r3, r0, #10
    738c:	428b      	cmp	r3, r1
    738e:	d301      	bcc.n	7394 <__divsi3+0x88>
    7390:	028b      	lsls	r3, r1, #10
    7392:	1ac0      	subs	r0, r0, r3
    7394:	4152      	adcs	r2, r2
    7396:	0a43      	lsrs	r3, r0, #9
    7398:	428b      	cmp	r3, r1
    739a:	d301      	bcc.n	73a0 <__divsi3+0x94>
    739c:	024b      	lsls	r3, r1, #9
    739e:	1ac0      	subs	r0, r0, r3
    73a0:	4152      	adcs	r2, r2
    73a2:	0a03      	lsrs	r3, r0, #8
    73a4:	428b      	cmp	r3, r1
    73a6:	d301      	bcc.n	73ac <__divsi3+0xa0>
    73a8:	020b      	lsls	r3, r1, #8
    73aa:	1ac0      	subs	r0, r0, r3
    73ac:	4152      	adcs	r2, r2
    73ae:	d2cd      	bcs.n	734c <__divsi3+0x40>
    73b0:	09c3      	lsrs	r3, r0, #7
    73b2:	428b      	cmp	r3, r1
    73b4:	d301      	bcc.n	73ba <__divsi3+0xae>
    73b6:	01cb      	lsls	r3, r1, #7
    73b8:	1ac0      	subs	r0, r0, r3
    73ba:	4152      	adcs	r2, r2
    73bc:	0983      	lsrs	r3, r0, #6
    73be:	428b      	cmp	r3, r1
    73c0:	d301      	bcc.n	73c6 <__divsi3+0xba>
    73c2:	018b      	lsls	r3, r1, #6
    73c4:	1ac0      	subs	r0, r0, r3
    73c6:	4152      	adcs	r2, r2
    73c8:	0943      	lsrs	r3, r0, #5
    73ca:	428b      	cmp	r3, r1
    73cc:	d301      	bcc.n	73d2 <__divsi3+0xc6>
    73ce:	014b      	lsls	r3, r1, #5
    73d0:	1ac0      	subs	r0, r0, r3
    73d2:	4152      	adcs	r2, r2
    73d4:	0903      	lsrs	r3, r0, #4
    73d6:	428b      	cmp	r3, r1
    73d8:	d301      	bcc.n	73de <__divsi3+0xd2>
    73da:	010b      	lsls	r3, r1, #4
    73dc:	1ac0      	subs	r0, r0, r3
    73de:	4152      	adcs	r2, r2
    73e0:	08c3      	lsrs	r3, r0, #3
    73e2:	428b      	cmp	r3, r1
    73e4:	d301      	bcc.n	73ea <__divsi3+0xde>
    73e6:	00cb      	lsls	r3, r1, #3
    73e8:	1ac0      	subs	r0, r0, r3
    73ea:	4152      	adcs	r2, r2
    73ec:	0883      	lsrs	r3, r0, #2
    73ee:	428b      	cmp	r3, r1
    73f0:	d301      	bcc.n	73f6 <__divsi3+0xea>
    73f2:	008b      	lsls	r3, r1, #2
    73f4:	1ac0      	subs	r0, r0, r3
    73f6:	4152      	adcs	r2, r2
    73f8:	0843      	lsrs	r3, r0, #1
    73fa:	428b      	cmp	r3, r1
    73fc:	d301      	bcc.n	7402 <__divsi3+0xf6>
    73fe:	004b      	lsls	r3, r1, #1
    7400:	1ac0      	subs	r0, r0, r3
    7402:	4152      	adcs	r2, r2
    7404:	1a41      	subs	r1, r0, r1
    7406:	d200      	bcs.n	740a <__divsi3+0xfe>
    7408:	4601      	mov	r1, r0
    740a:	4152      	adcs	r2, r2
    740c:	4610      	mov	r0, r2
    740e:	4770      	bx	lr
    7410:	e05d      	b.n	74ce <__divsi3+0x1c2>
    7412:	0fca      	lsrs	r2, r1, #31
    7414:	d000      	beq.n	7418 <__divsi3+0x10c>
    7416:	4249      	negs	r1, r1
    7418:	1003      	asrs	r3, r0, #32
    741a:	d300      	bcc.n	741e <__divsi3+0x112>
    741c:	4240      	negs	r0, r0
    741e:	4053      	eors	r3, r2
    7420:	2200      	movs	r2, #0
    7422:	469c      	mov	ip, r3
    7424:	0903      	lsrs	r3, r0, #4
    7426:	428b      	cmp	r3, r1
    7428:	d32d      	bcc.n	7486 <__divsi3+0x17a>
    742a:	0a03      	lsrs	r3, r0, #8
    742c:	428b      	cmp	r3, r1
    742e:	d312      	bcc.n	7456 <__divsi3+0x14a>
    7430:	22fc      	movs	r2, #252	; 0xfc
    7432:	0189      	lsls	r1, r1, #6
    7434:	ba12      	rev	r2, r2
    7436:	0a03      	lsrs	r3, r0, #8
    7438:	428b      	cmp	r3, r1
    743a:	d30c      	bcc.n	7456 <__divsi3+0x14a>
    743c:	0189      	lsls	r1, r1, #6
    743e:	1192      	asrs	r2, r2, #6
    7440:	428b      	cmp	r3, r1
    7442:	d308      	bcc.n	7456 <__divsi3+0x14a>
    7444:	0189      	lsls	r1, r1, #6
    7446:	1192      	asrs	r2, r2, #6
    7448:	428b      	cmp	r3, r1
    744a:	d304      	bcc.n	7456 <__divsi3+0x14a>
    744c:	0189      	lsls	r1, r1, #6
    744e:	d03a      	beq.n	74c6 <__divsi3+0x1ba>
    7450:	1192      	asrs	r2, r2, #6
    7452:	e000      	b.n	7456 <__divsi3+0x14a>
    7454:	0989      	lsrs	r1, r1, #6
    7456:	09c3      	lsrs	r3, r0, #7
    7458:	428b      	cmp	r3, r1
    745a:	d301      	bcc.n	7460 <__divsi3+0x154>
    745c:	01cb      	lsls	r3, r1, #7
    745e:	1ac0      	subs	r0, r0, r3
    7460:	4152      	adcs	r2, r2
    7462:	0983      	lsrs	r3, r0, #6
    7464:	428b      	cmp	r3, r1
    7466:	d301      	bcc.n	746c <__divsi3+0x160>
    7468:	018b      	lsls	r3, r1, #6
    746a:	1ac0      	subs	r0, r0, r3
    746c:	4152      	adcs	r2, r2
    746e:	0943      	lsrs	r3, r0, #5
    7470:	428b      	cmp	r3, r1
    7472:	d301      	bcc.n	7478 <__divsi3+0x16c>
    7474:	014b      	lsls	r3, r1, #5
    7476:	1ac0      	subs	r0, r0, r3
    7478:	4152      	adcs	r2, r2
    747a:	0903      	lsrs	r3, r0, #4
    747c:	428b      	cmp	r3, r1
    747e:	d301      	bcc.n	7484 <__divsi3+0x178>
    7480:	010b      	lsls	r3, r1, #4
    7482:	1ac0      	subs	r0, r0, r3
    7484:	4152      	adcs	r2, r2
    7486:	08c3      	lsrs	r3, r0, #3
    7488:	428b      	cmp	r3, r1
    748a:	d301      	bcc.n	7490 <__divsi3+0x184>
    748c:	00cb      	lsls	r3, r1, #3
    748e:	1ac0      	subs	r0, r0, r3
    7490:	4152      	adcs	r2, r2
    7492:	0883      	lsrs	r3, r0, #2
    7494:	428b      	cmp	r3, r1
    7496:	d301      	bcc.n	749c <__divsi3+0x190>
    7498:	008b      	lsls	r3, r1, #2
    749a:	1ac0      	subs	r0, r0, r3
    749c:	4152      	adcs	r2, r2
    749e:	d2d9      	bcs.n	7454 <__divsi3+0x148>
    74a0:	0843      	lsrs	r3, r0, #1
    74a2:	428b      	cmp	r3, r1
    74a4:	d301      	bcc.n	74aa <__divsi3+0x19e>
    74a6:	004b      	lsls	r3, r1, #1
    74a8:	1ac0      	subs	r0, r0, r3
    74aa:	4152      	adcs	r2, r2
    74ac:	1a41      	subs	r1, r0, r1
    74ae:	d200      	bcs.n	74b2 <__divsi3+0x1a6>
    74b0:	4601      	mov	r1, r0
    74b2:	4663      	mov	r3, ip
    74b4:	4152      	adcs	r2, r2
    74b6:	105b      	asrs	r3, r3, #1
    74b8:	4610      	mov	r0, r2
    74ba:	d301      	bcc.n	74c0 <__divsi3+0x1b4>
    74bc:	4240      	negs	r0, r0
    74be:	2b00      	cmp	r3, #0
    74c0:	d500      	bpl.n	74c4 <__divsi3+0x1b8>
    74c2:	4249      	negs	r1, r1
    74c4:	4770      	bx	lr
    74c6:	4663      	mov	r3, ip
    74c8:	105b      	asrs	r3, r3, #1
    74ca:	d300      	bcc.n	74ce <__divsi3+0x1c2>
    74cc:	4240      	negs	r0, r0
    74ce:	b501      	push	{r0, lr}
    74d0:	2000      	movs	r0, #0
    74d2:	f000 f805 	bl	74e0 <__aeabi_idiv0>
    74d6:	bd02      	pop	{r1, pc}

000074d8 <__aeabi_idivmod>:
    74d8:	2900      	cmp	r1, #0
    74da:	d0f8      	beq.n	74ce <__divsi3+0x1c2>
    74dc:	e716      	b.n	730c <__divsi3>
    74de:	4770      	bx	lr

000074e0 <__aeabi_idiv0>:
    74e0:	4770      	bx	lr
    74e2:	46c0      	nop			; (mov r8, r8)

000074e4 <__aeabi_cfrcmple>:
    74e4:	4684      	mov	ip, r0
    74e6:	1c08      	adds	r0, r1, #0
    74e8:	4661      	mov	r1, ip
    74ea:	e7ff      	b.n	74ec <__aeabi_cfcmpeq>

000074ec <__aeabi_cfcmpeq>:
    74ec:	b51f      	push	{r0, r1, r2, r3, r4, lr}
    74ee:	f000 fbb5 	bl	7c5c <__lesf2>
    74f2:	2800      	cmp	r0, #0
    74f4:	d401      	bmi.n	74fa <__aeabi_cfcmpeq+0xe>
    74f6:	2100      	movs	r1, #0
    74f8:	42c8      	cmn	r0, r1
    74fa:	bd1f      	pop	{r0, r1, r2, r3, r4, pc}

000074fc <__aeabi_fcmpeq>:
    74fc:	b510      	push	{r4, lr}
    74fe:	f000 fb47 	bl	7b90 <__eqsf2>
    7502:	4240      	negs	r0, r0
    7504:	3001      	adds	r0, #1
    7506:	bd10      	pop	{r4, pc}

00007508 <__aeabi_fcmplt>:
    7508:	b510      	push	{r4, lr}
    750a:	f000 fba7 	bl	7c5c <__lesf2>
    750e:	2800      	cmp	r0, #0
    7510:	db01      	blt.n	7516 <__aeabi_fcmplt+0xe>
    7512:	2000      	movs	r0, #0
    7514:	bd10      	pop	{r4, pc}
    7516:	2001      	movs	r0, #1
    7518:	bd10      	pop	{r4, pc}
    751a:	46c0      	nop			; (mov r8, r8)

0000751c <__aeabi_fcmple>:
    751c:	b510      	push	{r4, lr}
    751e:	f000 fb9d 	bl	7c5c <__lesf2>
    7522:	2800      	cmp	r0, #0
    7524:	dd01      	ble.n	752a <__aeabi_fcmple+0xe>
    7526:	2000      	movs	r0, #0
    7528:	bd10      	pop	{r4, pc}
    752a:	2001      	movs	r0, #1
    752c:	bd10      	pop	{r4, pc}
    752e:	46c0      	nop			; (mov r8, r8)

00007530 <__aeabi_fcmpgt>:
    7530:	b510      	push	{r4, lr}
    7532:	f000 fb53 	bl	7bdc <__gesf2>
    7536:	2800      	cmp	r0, #0
    7538:	dc01      	bgt.n	753e <__aeabi_fcmpgt+0xe>
    753a:	2000      	movs	r0, #0
    753c:	bd10      	pop	{r4, pc}
    753e:	2001      	movs	r0, #1
    7540:	bd10      	pop	{r4, pc}
    7542:	46c0      	nop			; (mov r8, r8)

00007544 <__aeabi_fcmpge>:
    7544:	b510      	push	{r4, lr}
    7546:	f000 fb49 	bl	7bdc <__gesf2>
    754a:	2800      	cmp	r0, #0
    754c:	da01      	bge.n	7552 <__aeabi_fcmpge+0xe>
    754e:	2000      	movs	r0, #0
    7550:	bd10      	pop	{r4, pc}
    7552:	2001      	movs	r0, #1
    7554:	bd10      	pop	{r4, pc}
    7556:	46c0      	nop			; (mov r8, r8)

00007558 <__aeabi_lmul>:
    7558:	b5f0      	push	{r4, r5, r6, r7, lr}
    755a:	46ce      	mov	lr, r9
    755c:	4647      	mov	r7, r8
    755e:	0415      	lsls	r5, r2, #16
    7560:	0c2d      	lsrs	r5, r5, #16
    7562:	002e      	movs	r6, r5
    7564:	b580      	push	{r7, lr}
    7566:	0407      	lsls	r7, r0, #16
    7568:	0c14      	lsrs	r4, r2, #16
    756a:	0c3f      	lsrs	r7, r7, #16
    756c:	4699      	mov	r9, r3
    756e:	0c03      	lsrs	r3, r0, #16
    7570:	437e      	muls	r6, r7
    7572:	435d      	muls	r5, r3
    7574:	4367      	muls	r7, r4
    7576:	4363      	muls	r3, r4
    7578:	197f      	adds	r7, r7, r5
    757a:	0c34      	lsrs	r4, r6, #16
    757c:	19e4      	adds	r4, r4, r7
    757e:	469c      	mov	ip, r3
    7580:	42a5      	cmp	r5, r4
    7582:	d903      	bls.n	758c <__aeabi_lmul+0x34>
    7584:	2380      	movs	r3, #128	; 0x80
    7586:	025b      	lsls	r3, r3, #9
    7588:	4698      	mov	r8, r3
    758a:	44c4      	add	ip, r8
    758c:	464b      	mov	r3, r9
    758e:	4351      	muls	r1, r2
    7590:	4343      	muls	r3, r0
    7592:	0436      	lsls	r6, r6, #16
    7594:	0c36      	lsrs	r6, r6, #16
    7596:	0c25      	lsrs	r5, r4, #16
    7598:	0424      	lsls	r4, r4, #16
    759a:	4465      	add	r5, ip
    759c:	19a4      	adds	r4, r4, r6
    759e:	1859      	adds	r1, r3, r1
    75a0:	1949      	adds	r1, r1, r5
    75a2:	0020      	movs	r0, r4
    75a4:	bc0c      	pop	{r2, r3}
    75a6:	4690      	mov	r8, r2
    75a8:	4699      	mov	r9, r3
    75aa:	bdf0      	pop	{r4, r5, r6, r7, pc}

000075ac <__aeabi_f2uiz>:
    75ac:	219e      	movs	r1, #158	; 0x9e
    75ae:	b510      	push	{r4, lr}
    75b0:	05c9      	lsls	r1, r1, #23
    75b2:	1c04      	adds	r4, r0, #0
    75b4:	f7ff ffc6 	bl	7544 <__aeabi_fcmpge>
    75b8:	2800      	cmp	r0, #0
    75ba:	d103      	bne.n	75c4 <__aeabi_f2uiz+0x18>
    75bc:	1c20      	adds	r0, r4, #0
    75be:	f000 fe63 	bl	8288 <__aeabi_f2iz>
    75c2:	bd10      	pop	{r4, pc}
    75c4:	219e      	movs	r1, #158	; 0x9e
    75c6:	1c20      	adds	r0, r4, #0
    75c8:	05c9      	lsls	r1, r1, #23
    75ca:	f000 fca9 	bl	7f20 <__aeabi_fsub>
    75ce:	f000 fe5b 	bl	8288 <__aeabi_f2iz>
    75d2:	2380      	movs	r3, #128	; 0x80
    75d4:	061b      	lsls	r3, r3, #24
    75d6:	469c      	mov	ip, r3
    75d8:	4460      	add	r0, ip
    75da:	e7f2      	b.n	75c2 <__aeabi_f2uiz+0x16>

000075dc <__aeabi_fadd>:
    75dc:	b5f0      	push	{r4, r5, r6, r7, lr}
    75de:	46c6      	mov	lr, r8
    75e0:	024e      	lsls	r6, r1, #9
    75e2:	0247      	lsls	r7, r0, #9
    75e4:	0a76      	lsrs	r6, r6, #9
    75e6:	0a7b      	lsrs	r3, r7, #9
    75e8:	0044      	lsls	r4, r0, #1
    75ea:	0fc5      	lsrs	r5, r0, #31
    75ec:	00f7      	lsls	r7, r6, #3
    75ee:	0048      	lsls	r0, r1, #1
    75f0:	4698      	mov	r8, r3
    75f2:	b500      	push	{lr}
    75f4:	0e24      	lsrs	r4, r4, #24
    75f6:	002a      	movs	r2, r5
    75f8:	00db      	lsls	r3, r3, #3
    75fa:	0e00      	lsrs	r0, r0, #24
    75fc:	0fc9      	lsrs	r1, r1, #31
    75fe:	46bc      	mov	ip, r7
    7600:	428d      	cmp	r5, r1
    7602:	d067      	beq.n	76d4 <__aeabi_fadd+0xf8>
    7604:	1a22      	subs	r2, r4, r0
    7606:	2a00      	cmp	r2, #0
    7608:	dc00      	bgt.n	760c <__aeabi_fadd+0x30>
    760a:	e0a5      	b.n	7758 <__aeabi_fadd+0x17c>
    760c:	2800      	cmp	r0, #0
    760e:	d13a      	bne.n	7686 <__aeabi_fadd+0xaa>
    7610:	2f00      	cmp	r7, #0
    7612:	d100      	bne.n	7616 <__aeabi_fadd+0x3a>
    7614:	e093      	b.n	773e <__aeabi_fadd+0x162>
    7616:	1e51      	subs	r1, r2, #1
    7618:	2900      	cmp	r1, #0
    761a:	d000      	beq.n	761e <__aeabi_fadd+0x42>
    761c:	e0bc      	b.n	7798 <__aeabi_fadd+0x1bc>
    761e:	2401      	movs	r4, #1
    7620:	1bdb      	subs	r3, r3, r7
    7622:	015a      	lsls	r2, r3, #5
    7624:	d546      	bpl.n	76b4 <__aeabi_fadd+0xd8>
    7626:	019b      	lsls	r3, r3, #6
    7628:	099e      	lsrs	r6, r3, #6
    762a:	0030      	movs	r0, r6
    762c:	f000 ffbe 	bl	85ac <__clzsi2>
    7630:	3805      	subs	r0, #5
    7632:	4086      	lsls	r6, r0
    7634:	4284      	cmp	r4, r0
    7636:	dd00      	ble.n	763a <__aeabi_fadd+0x5e>
    7638:	e09d      	b.n	7776 <__aeabi_fadd+0x19a>
    763a:	1b04      	subs	r4, r0, r4
    763c:	0032      	movs	r2, r6
    763e:	2020      	movs	r0, #32
    7640:	3401      	adds	r4, #1
    7642:	40e2      	lsrs	r2, r4
    7644:	1b04      	subs	r4, r0, r4
    7646:	40a6      	lsls	r6, r4
    7648:	0033      	movs	r3, r6
    764a:	1e5e      	subs	r6, r3, #1
    764c:	41b3      	sbcs	r3, r6
    764e:	2400      	movs	r4, #0
    7650:	4313      	orrs	r3, r2
    7652:	075a      	lsls	r2, r3, #29
    7654:	d004      	beq.n	7660 <__aeabi_fadd+0x84>
    7656:	220f      	movs	r2, #15
    7658:	401a      	ands	r2, r3
    765a:	2a04      	cmp	r2, #4
    765c:	d000      	beq.n	7660 <__aeabi_fadd+0x84>
    765e:	3304      	adds	r3, #4
    7660:	015a      	lsls	r2, r3, #5
    7662:	d529      	bpl.n	76b8 <__aeabi_fadd+0xdc>
    7664:	3401      	adds	r4, #1
    7666:	2cff      	cmp	r4, #255	; 0xff
    7668:	d100      	bne.n	766c <__aeabi_fadd+0x90>
    766a:	e081      	b.n	7770 <__aeabi_fadd+0x194>
    766c:	002a      	movs	r2, r5
    766e:	019b      	lsls	r3, r3, #6
    7670:	0a5b      	lsrs	r3, r3, #9
    7672:	b2e4      	uxtb	r4, r4
    7674:	025b      	lsls	r3, r3, #9
    7676:	05e4      	lsls	r4, r4, #23
    7678:	0a58      	lsrs	r0, r3, #9
    767a:	07d2      	lsls	r2, r2, #31
    767c:	4320      	orrs	r0, r4
    767e:	4310      	orrs	r0, r2
    7680:	bc04      	pop	{r2}
    7682:	4690      	mov	r8, r2
    7684:	bdf0      	pop	{r4, r5, r6, r7, pc}
    7686:	2cff      	cmp	r4, #255	; 0xff
    7688:	d0e3      	beq.n	7652 <__aeabi_fadd+0x76>
    768a:	2180      	movs	r1, #128	; 0x80
    768c:	0038      	movs	r0, r7
    768e:	04c9      	lsls	r1, r1, #19
    7690:	4308      	orrs	r0, r1
    7692:	4684      	mov	ip, r0
    7694:	2a1b      	cmp	r2, #27
    7696:	dd00      	ble.n	769a <__aeabi_fadd+0xbe>
    7698:	e082      	b.n	77a0 <__aeabi_fadd+0x1c4>
    769a:	2020      	movs	r0, #32
    769c:	4661      	mov	r1, ip
    769e:	40d1      	lsrs	r1, r2
    76a0:	1a82      	subs	r2, r0, r2
    76a2:	4660      	mov	r0, ip
    76a4:	4090      	lsls	r0, r2
    76a6:	0002      	movs	r2, r0
    76a8:	1e50      	subs	r0, r2, #1
    76aa:	4182      	sbcs	r2, r0
    76ac:	430a      	orrs	r2, r1
    76ae:	1a9b      	subs	r3, r3, r2
    76b0:	015a      	lsls	r2, r3, #5
    76b2:	d4b8      	bmi.n	7626 <__aeabi_fadd+0x4a>
    76b4:	075a      	lsls	r2, r3, #29
    76b6:	d1ce      	bne.n	7656 <__aeabi_fadd+0x7a>
    76b8:	08de      	lsrs	r6, r3, #3
    76ba:	002a      	movs	r2, r5
    76bc:	2cff      	cmp	r4, #255	; 0xff
    76be:	d13a      	bne.n	7736 <__aeabi_fadd+0x15a>
    76c0:	2e00      	cmp	r6, #0
    76c2:	d100      	bne.n	76c6 <__aeabi_fadd+0xea>
    76c4:	e0ae      	b.n	7824 <__aeabi_fadd+0x248>
    76c6:	2380      	movs	r3, #128	; 0x80
    76c8:	03db      	lsls	r3, r3, #15
    76ca:	4333      	orrs	r3, r6
    76cc:	025b      	lsls	r3, r3, #9
    76ce:	0a5b      	lsrs	r3, r3, #9
    76d0:	24ff      	movs	r4, #255	; 0xff
    76d2:	e7cf      	b.n	7674 <__aeabi_fadd+0x98>
    76d4:	1a21      	subs	r1, r4, r0
    76d6:	2900      	cmp	r1, #0
    76d8:	dd52      	ble.n	7780 <__aeabi_fadd+0x1a4>
    76da:	2800      	cmp	r0, #0
    76dc:	d031      	beq.n	7742 <__aeabi_fadd+0x166>
    76de:	2cff      	cmp	r4, #255	; 0xff
    76e0:	d0b7      	beq.n	7652 <__aeabi_fadd+0x76>
    76e2:	2080      	movs	r0, #128	; 0x80
    76e4:	003e      	movs	r6, r7
    76e6:	04c0      	lsls	r0, r0, #19
    76e8:	4306      	orrs	r6, r0
    76ea:	46b4      	mov	ip, r6
    76ec:	291b      	cmp	r1, #27
    76ee:	dd00      	ble.n	76f2 <__aeabi_fadd+0x116>
    76f0:	e0aa      	b.n	7848 <__aeabi_fadd+0x26c>
    76f2:	2620      	movs	r6, #32
    76f4:	4660      	mov	r0, ip
    76f6:	40c8      	lsrs	r0, r1
    76f8:	1a71      	subs	r1, r6, r1
    76fa:	4666      	mov	r6, ip
    76fc:	408e      	lsls	r6, r1
    76fe:	0031      	movs	r1, r6
    7700:	1e4e      	subs	r6, r1, #1
    7702:	41b1      	sbcs	r1, r6
    7704:	4301      	orrs	r1, r0
    7706:	185b      	adds	r3, r3, r1
    7708:	0159      	lsls	r1, r3, #5
    770a:	d5d3      	bpl.n	76b4 <__aeabi_fadd+0xd8>
    770c:	3401      	adds	r4, #1
    770e:	2cff      	cmp	r4, #255	; 0xff
    7710:	d100      	bne.n	7714 <__aeabi_fadd+0x138>
    7712:	e087      	b.n	7824 <__aeabi_fadd+0x248>
    7714:	2201      	movs	r2, #1
    7716:	4978      	ldr	r1, [pc, #480]	; (78f8 <__aeabi_fadd+0x31c>)
    7718:	401a      	ands	r2, r3
    771a:	085b      	lsrs	r3, r3, #1
    771c:	400b      	ands	r3, r1
    771e:	4313      	orrs	r3, r2
    7720:	e797      	b.n	7652 <__aeabi_fadd+0x76>
    7722:	2c00      	cmp	r4, #0
    7724:	d000      	beq.n	7728 <__aeabi_fadd+0x14c>
    7726:	e0a7      	b.n	7878 <__aeabi_fadd+0x29c>
    7728:	2b00      	cmp	r3, #0
    772a:	d000      	beq.n	772e <__aeabi_fadd+0x152>
    772c:	e0b6      	b.n	789c <__aeabi_fadd+0x2c0>
    772e:	1e3b      	subs	r3, r7, #0
    7730:	d162      	bne.n	77f8 <__aeabi_fadd+0x21c>
    7732:	2600      	movs	r6, #0
    7734:	2200      	movs	r2, #0
    7736:	0273      	lsls	r3, r6, #9
    7738:	0a5b      	lsrs	r3, r3, #9
    773a:	b2e4      	uxtb	r4, r4
    773c:	e79a      	b.n	7674 <__aeabi_fadd+0x98>
    773e:	0014      	movs	r4, r2
    7740:	e787      	b.n	7652 <__aeabi_fadd+0x76>
    7742:	2f00      	cmp	r7, #0
    7744:	d04d      	beq.n	77e2 <__aeabi_fadd+0x206>
    7746:	1e48      	subs	r0, r1, #1
    7748:	2800      	cmp	r0, #0
    774a:	d157      	bne.n	77fc <__aeabi_fadd+0x220>
    774c:	4463      	add	r3, ip
    774e:	2401      	movs	r4, #1
    7750:	015a      	lsls	r2, r3, #5
    7752:	d5af      	bpl.n	76b4 <__aeabi_fadd+0xd8>
    7754:	2402      	movs	r4, #2
    7756:	e7dd      	b.n	7714 <__aeabi_fadd+0x138>
    7758:	2a00      	cmp	r2, #0
    775a:	d124      	bne.n	77a6 <__aeabi_fadd+0x1ca>
    775c:	1c62      	adds	r2, r4, #1
    775e:	b2d2      	uxtb	r2, r2
    7760:	2a01      	cmp	r2, #1
    7762:	ddde      	ble.n	7722 <__aeabi_fadd+0x146>
    7764:	1bde      	subs	r6, r3, r7
    7766:	0172      	lsls	r2, r6, #5
    7768:	d535      	bpl.n	77d6 <__aeabi_fadd+0x1fa>
    776a:	1afe      	subs	r6, r7, r3
    776c:	000d      	movs	r5, r1
    776e:	e75c      	b.n	762a <__aeabi_fadd+0x4e>
    7770:	002a      	movs	r2, r5
    7772:	2300      	movs	r3, #0
    7774:	e77e      	b.n	7674 <__aeabi_fadd+0x98>
    7776:	0033      	movs	r3, r6
    7778:	4a60      	ldr	r2, [pc, #384]	; (78fc <__aeabi_fadd+0x320>)
    777a:	1a24      	subs	r4, r4, r0
    777c:	4013      	ands	r3, r2
    777e:	e768      	b.n	7652 <__aeabi_fadd+0x76>
    7780:	2900      	cmp	r1, #0
    7782:	d163      	bne.n	784c <__aeabi_fadd+0x270>
    7784:	1c61      	adds	r1, r4, #1
    7786:	b2c8      	uxtb	r0, r1
    7788:	2801      	cmp	r0, #1
    778a:	dd4e      	ble.n	782a <__aeabi_fadd+0x24e>
    778c:	29ff      	cmp	r1, #255	; 0xff
    778e:	d049      	beq.n	7824 <__aeabi_fadd+0x248>
    7790:	4463      	add	r3, ip
    7792:	085b      	lsrs	r3, r3, #1
    7794:	000c      	movs	r4, r1
    7796:	e75c      	b.n	7652 <__aeabi_fadd+0x76>
    7798:	2aff      	cmp	r2, #255	; 0xff
    779a:	d041      	beq.n	7820 <__aeabi_fadd+0x244>
    779c:	000a      	movs	r2, r1
    779e:	e779      	b.n	7694 <__aeabi_fadd+0xb8>
    77a0:	2201      	movs	r2, #1
    77a2:	1a9b      	subs	r3, r3, r2
    77a4:	e784      	b.n	76b0 <__aeabi_fadd+0xd4>
    77a6:	2c00      	cmp	r4, #0
    77a8:	d01d      	beq.n	77e6 <__aeabi_fadd+0x20a>
    77aa:	28ff      	cmp	r0, #255	; 0xff
    77ac:	d022      	beq.n	77f4 <__aeabi_fadd+0x218>
    77ae:	2480      	movs	r4, #128	; 0x80
    77b0:	04e4      	lsls	r4, r4, #19
    77b2:	4252      	negs	r2, r2
    77b4:	4323      	orrs	r3, r4
    77b6:	2a1b      	cmp	r2, #27
    77b8:	dd00      	ble.n	77bc <__aeabi_fadd+0x1e0>
    77ba:	e08a      	b.n	78d2 <__aeabi_fadd+0x2f6>
    77bc:	001c      	movs	r4, r3
    77be:	2520      	movs	r5, #32
    77c0:	40d4      	lsrs	r4, r2
    77c2:	1aaa      	subs	r2, r5, r2
    77c4:	4093      	lsls	r3, r2
    77c6:	1e5a      	subs	r2, r3, #1
    77c8:	4193      	sbcs	r3, r2
    77ca:	4323      	orrs	r3, r4
    77cc:	4662      	mov	r2, ip
    77ce:	0004      	movs	r4, r0
    77d0:	1ad3      	subs	r3, r2, r3
    77d2:	000d      	movs	r5, r1
    77d4:	e725      	b.n	7622 <__aeabi_fadd+0x46>
    77d6:	2e00      	cmp	r6, #0
    77d8:	d000      	beq.n	77dc <__aeabi_fadd+0x200>
    77da:	e726      	b.n	762a <__aeabi_fadd+0x4e>
    77dc:	2200      	movs	r2, #0
    77de:	2400      	movs	r4, #0
    77e0:	e7a9      	b.n	7736 <__aeabi_fadd+0x15a>
    77e2:	000c      	movs	r4, r1
    77e4:	e735      	b.n	7652 <__aeabi_fadd+0x76>
    77e6:	2b00      	cmp	r3, #0
    77e8:	d04d      	beq.n	7886 <__aeabi_fadd+0x2aa>
    77ea:	43d2      	mvns	r2, r2
    77ec:	2a00      	cmp	r2, #0
    77ee:	d0ed      	beq.n	77cc <__aeabi_fadd+0x1f0>
    77f0:	28ff      	cmp	r0, #255	; 0xff
    77f2:	d1e0      	bne.n	77b6 <__aeabi_fadd+0x1da>
    77f4:	4663      	mov	r3, ip
    77f6:	24ff      	movs	r4, #255	; 0xff
    77f8:	000d      	movs	r5, r1
    77fa:	e72a      	b.n	7652 <__aeabi_fadd+0x76>
    77fc:	29ff      	cmp	r1, #255	; 0xff
    77fe:	d00f      	beq.n	7820 <__aeabi_fadd+0x244>
    7800:	0001      	movs	r1, r0
    7802:	e773      	b.n	76ec <__aeabi_fadd+0x110>
    7804:	2b00      	cmp	r3, #0
    7806:	d061      	beq.n	78cc <__aeabi_fadd+0x2f0>
    7808:	24ff      	movs	r4, #255	; 0xff
    780a:	2f00      	cmp	r7, #0
    780c:	d100      	bne.n	7810 <__aeabi_fadd+0x234>
    780e:	e720      	b.n	7652 <__aeabi_fadd+0x76>
    7810:	2280      	movs	r2, #128	; 0x80
    7812:	4641      	mov	r1, r8
    7814:	03d2      	lsls	r2, r2, #15
    7816:	4211      	tst	r1, r2
    7818:	d002      	beq.n	7820 <__aeabi_fadd+0x244>
    781a:	4216      	tst	r6, r2
    781c:	d100      	bne.n	7820 <__aeabi_fadd+0x244>
    781e:	003b      	movs	r3, r7
    7820:	24ff      	movs	r4, #255	; 0xff
    7822:	e716      	b.n	7652 <__aeabi_fadd+0x76>
    7824:	24ff      	movs	r4, #255	; 0xff
    7826:	2300      	movs	r3, #0
    7828:	e724      	b.n	7674 <__aeabi_fadd+0x98>
    782a:	2c00      	cmp	r4, #0
    782c:	d1ea      	bne.n	7804 <__aeabi_fadd+0x228>
    782e:	2b00      	cmp	r3, #0
    7830:	d058      	beq.n	78e4 <__aeabi_fadd+0x308>
    7832:	2f00      	cmp	r7, #0
    7834:	d100      	bne.n	7838 <__aeabi_fadd+0x25c>
    7836:	e70c      	b.n	7652 <__aeabi_fadd+0x76>
    7838:	4463      	add	r3, ip
    783a:	015a      	lsls	r2, r3, #5
    783c:	d400      	bmi.n	7840 <__aeabi_fadd+0x264>
    783e:	e739      	b.n	76b4 <__aeabi_fadd+0xd8>
    7840:	4a2e      	ldr	r2, [pc, #184]	; (78fc <__aeabi_fadd+0x320>)
    7842:	000c      	movs	r4, r1
    7844:	4013      	ands	r3, r2
    7846:	e704      	b.n	7652 <__aeabi_fadd+0x76>
    7848:	2101      	movs	r1, #1
    784a:	e75c      	b.n	7706 <__aeabi_fadd+0x12a>
    784c:	2c00      	cmp	r4, #0
    784e:	d11e      	bne.n	788e <__aeabi_fadd+0x2b2>
    7850:	2b00      	cmp	r3, #0
    7852:	d040      	beq.n	78d6 <__aeabi_fadd+0x2fa>
    7854:	43c9      	mvns	r1, r1
    7856:	2900      	cmp	r1, #0
    7858:	d00b      	beq.n	7872 <__aeabi_fadd+0x296>
    785a:	28ff      	cmp	r0, #255	; 0xff
    785c:	d036      	beq.n	78cc <__aeabi_fadd+0x2f0>
    785e:	291b      	cmp	r1, #27
    7860:	dc47      	bgt.n	78f2 <__aeabi_fadd+0x316>
    7862:	001c      	movs	r4, r3
    7864:	2620      	movs	r6, #32
    7866:	40cc      	lsrs	r4, r1
    7868:	1a71      	subs	r1, r6, r1
    786a:	408b      	lsls	r3, r1
    786c:	1e59      	subs	r1, r3, #1
    786e:	418b      	sbcs	r3, r1
    7870:	4323      	orrs	r3, r4
    7872:	4463      	add	r3, ip
    7874:	0004      	movs	r4, r0
    7876:	e747      	b.n	7708 <__aeabi_fadd+0x12c>
    7878:	2b00      	cmp	r3, #0
    787a:	d118      	bne.n	78ae <__aeabi_fadd+0x2d2>
    787c:	1e3b      	subs	r3, r7, #0
    787e:	d02d      	beq.n	78dc <__aeabi_fadd+0x300>
    7880:	000d      	movs	r5, r1
    7882:	24ff      	movs	r4, #255	; 0xff
    7884:	e6e5      	b.n	7652 <__aeabi_fadd+0x76>
    7886:	003b      	movs	r3, r7
    7888:	0004      	movs	r4, r0
    788a:	000d      	movs	r5, r1
    788c:	e6e1      	b.n	7652 <__aeabi_fadd+0x76>
    788e:	28ff      	cmp	r0, #255	; 0xff
    7890:	d01c      	beq.n	78cc <__aeabi_fadd+0x2f0>
    7892:	2480      	movs	r4, #128	; 0x80
    7894:	04e4      	lsls	r4, r4, #19
    7896:	4249      	negs	r1, r1
    7898:	4323      	orrs	r3, r4
    789a:	e7e0      	b.n	785e <__aeabi_fadd+0x282>
    789c:	2f00      	cmp	r7, #0
    789e:	d100      	bne.n	78a2 <__aeabi_fadd+0x2c6>
    78a0:	e6d7      	b.n	7652 <__aeabi_fadd+0x76>
    78a2:	1bde      	subs	r6, r3, r7
    78a4:	0172      	lsls	r2, r6, #5
    78a6:	d51f      	bpl.n	78e8 <__aeabi_fadd+0x30c>
    78a8:	1afb      	subs	r3, r7, r3
    78aa:	000d      	movs	r5, r1
    78ac:	e6d1      	b.n	7652 <__aeabi_fadd+0x76>
    78ae:	24ff      	movs	r4, #255	; 0xff
    78b0:	2f00      	cmp	r7, #0
    78b2:	d100      	bne.n	78b6 <__aeabi_fadd+0x2da>
    78b4:	e6cd      	b.n	7652 <__aeabi_fadd+0x76>
    78b6:	2280      	movs	r2, #128	; 0x80
    78b8:	4640      	mov	r0, r8
    78ba:	03d2      	lsls	r2, r2, #15
    78bc:	4210      	tst	r0, r2
    78be:	d0af      	beq.n	7820 <__aeabi_fadd+0x244>
    78c0:	4216      	tst	r6, r2
    78c2:	d1ad      	bne.n	7820 <__aeabi_fadd+0x244>
    78c4:	003b      	movs	r3, r7
    78c6:	000d      	movs	r5, r1
    78c8:	24ff      	movs	r4, #255	; 0xff
    78ca:	e6c2      	b.n	7652 <__aeabi_fadd+0x76>
    78cc:	4663      	mov	r3, ip
    78ce:	24ff      	movs	r4, #255	; 0xff
    78d0:	e6bf      	b.n	7652 <__aeabi_fadd+0x76>
    78d2:	2301      	movs	r3, #1
    78d4:	e77a      	b.n	77cc <__aeabi_fadd+0x1f0>
    78d6:	003b      	movs	r3, r7
    78d8:	0004      	movs	r4, r0
    78da:	e6ba      	b.n	7652 <__aeabi_fadd+0x76>
    78dc:	2680      	movs	r6, #128	; 0x80
    78de:	2200      	movs	r2, #0
    78e0:	03f6      	lsls	r6, r6, #15
    78e2:	e6f0      	b.n	76c6 <__aeabi_fadd+0xea>
    78e4:	003b      	movs	r3, r7
    78e6:	e6b4      	b.n	7652 <__aeabi_fadd+0x76>
    78e8:	1e33      	subs	r3, r6, #0
    78ea:	d000      	beq.n	78ee <__aeabi_fadd+0x312>
    78ec:	e6e2      	b.n	76b4 <__aeabi_fadd+0xd8>
    78ee:	2200      	movs	r2, #0
    78f0:	e721      	b.n	7736 <__aeabi_fadd+0x15a>
    78f2:	2301      	movs	r3, #1
    78f4:	e7bd      	b.n	7872 <__aeabi_fadd+0x296>
    78f6:	46c0      	nop			; (mov r8, r8)
    78f8:	7dffffff 	.word	0x7dffffff
    78fc:	fbffffff 	.word	0xfbffffff

00007900 <__aeabi_fdiv>:
    7900:	b5f0      	push	{r4, r5, r6, r7, lr}
    7902:	4657      	mov	r7, sl
    7904:	464e      	mov	r6, r9
    7906:	46de      	mov	lr, fp
    7908:	4645      	mov	r5, r8
    790a:	b5e0      	push	{r5, r6, r7, lr}
    790c:	0244      	lsls	r4, r0, #9
    790e:	0043      	lsls	r3, r0, #1
    7910:	0fc6      	lsrs	r6, r0, #31
    7912:	b083      	sub	sp, #12
    7914:	1c0f      	adds	r7, r1, #0
    7916:	0a64      	lsrs	r4, r4, #9
    7918:	0e1b      	lsrs	r3, r3, #24
    791a:	46b2      	mov	sl, r6
    791c:	d053      	beq.n	79c6 <__aeabi_fdiv+0xc6>
    791e:	2bff      	cmp	r3, #255	; 0xff
    7920:	d027      	beq.n	7972 <__aeabi_fdiv+0x72>
    7922:	2280      	movs	r2, #128	; 0x80
    7924:	00e4      	lsls	r4, r4, #3
    7926:	04d2      	lsls	r2, r2, #19
    7928:	4314      	orrs	r4, r2
    792a:	227f      	movs	r2, #127	; 0x7f
    792c:	4252      	negs	r2, r2
    792e:	4690      	mov	r8, r2
    7930:	4498      	add	r8, r3
    7932:	2300      	movs	r3, #0
    7934:	4699      	mov	r9, r3
    7936:	469b      	mov	fp, r3
    7938:	027d      	lsls	r5, r7, #9
    793a:	0078      	lsls	r0, r7, #1
    793c:	0ffb      	lsrs	r3, r7, #31
    793e:	0a6d      	lsrs	r5, r5, #9
    7940:	0e00      	lsrs	r0, r0, #24
    7942:	9300      	str	r3, [sp, #0]
    7944:	d024      	beq.n	7990 <__aeabi_fdiv+0x90>
    7946:	28ff      	cmp	r0, #255	; 0xff
    7948:	d046      	beq.n	79d8 <__aeabi_fdiv+0xd8>
    794a:	2380      	movs	r3, #128	; 0x80
    794c:	2100      	movs	r1, #0
    794e:	00ed      	lsls	r5, r5, #3
    7950:	04db      	lsls	r3, r3, #19
    7952:	431d      	orrs	r5, r3
    7954:	387f      	subs	r0, #127	; 0x7f
    7956:	4647      	mov	r7, r8
    7958:	1a38      	subs	r0, r7, r0
    795a:	464f      	mov	r7, r9
    795c:	430f      	orrs	r7, r1
    795e:	00bf      	lsls	r7, r7, #2
    7960:	46b9      	mov	r9, r7
    7962:	0033      	movs	r3, r6
    7964:	9a00      	ldr	r2, [sp, #0]
    7966:	4f87      	ldr	r7, [pc, #540]	; (7b84 <__aeabi_fdiv+0x284>)
    7968:	4053      	eors	r3, r2
    796a:	464a      	mov	r2, r9
    796c:	58ba      	ldr	r2, [r7, r2]
    796e:	9301      	str	r3, [sp, #4]
    7970:	4697      	mov	pc, r2
    7972:	2c00      	cmp	r4, #0
    7974:	d14e      	bne.n	7a14 <__aeabi_fdiv+0x114>
    7976:	2308      	movs	r3, #8
    7978:	4699      	mov	r9, r3
    797a:	33f7      	adds	r3, #247	; 0xf7
    797c:	4698      	mov	r8, r3
    797e:	3bfd      	subs	r3, #253	; 0xfd
    7980:	469b      	mov	fp, r3
    7982:	027d      	lsls	r5, r7, #9
    7984:	0078      	lsls	r0, r7, #1
    7986:	0ffb      	lsrs	r3, r7, #31
    7988:	0a6d      	lsrs	r5, r5, #9
    798a:	0e00      	lsrs	r0, r0, #24
    798c:	9300      	str	r3, [sp, #0]
    798e:	d1da      	bne.n	7946 <__aeabi_fdiv+0x46>
    7990:	2d00      	cmp	r5, #0
    7992:	d126      	bne.n	79e2 <__aeabi_fdiv+0xe2>
    7994:	2000      	movs	r0, #0
    7996:	2101      	movs	r1, #1
    7998:	0033      	movs	r3, r6
    799a:	9a00      	ldr	r2, [sp, #0]
    799c:	4f7a      	ldr	r7, [pc, #488]	; (7b88 <__aeabi_fdiv+0x288>)
    799e:	4053      	eors	r3, r2
    79a0:	4642      	mov	r2, r8
    79a2:	1a10      	subs	r0, r2, r0
    79a4:	464a      	mov	r2, r9
    79a6:	430a      	orrs	r2, r1
    79a8:	0092      	lsls	r2, r2, #2
    79aa:	58ba      	ldr	r2, [r7, r2]
    79ac:	001d      	movs	r5, r3
    79ae:	4697      	mov	pc, r2
    79b0:	9b00      	ldr	r3, [sp, #0]
    79b2:	002c      	movs	r4, r5
    79b4:	469a      	mov	sl, r3
    79b6:	468b      	mov	fp, r1
    79b8:	465b      	mov	r3, fp
    79ba:	2b02      	cmp	r3, #2
    79bc:	d131      	bne.n	7a22 <__aeabi_fdiv+0x122>
    79be:	4653      	mov	r3, sl
    79c0:	21ff      	movs	r1, #255	; 0xff
    79c2:	2400      	movs	r4, #0
    79c4:	e038      	b.n	7a38 <__aeabi_fdiv+0x138>
    79c6:	2c00      	cmp	r4, #0
    79c8:	d117      	bne.n	79fa <__aeabi_fdiv+0xfa>
    79ca:	2304      	movs	r3, #4
    79cc:	4699      	mov	r9, r3
    79ce:	2300      	movs	r3, #0
    79d0:	4698      	mov	r8, r3
    79d2:	3301      	adds	r3, #1
    79d4:	469b      	mov	fp, r3
    79d6:	e7af      	b.n	7938 <__aeabi_fdiv+0x38>
    79d8:	20ff      	movs	r0, #255	; 0xff
    79da:	2d00      	cmp	r5, #0
    79dc:	d10b      	bne.n	79f6 <__aeabi_fdiv+0xf6>
    79de:	2102      	movs	r1, #2
    79e0:	e7da      	b.n	7998 <__aeabi_fdiv+0x98>
    79e2:	0028      	movs	r0, r5
    79e4:	f000 fde2 	bl	85ac <__clzsi2>
    79e8:	1f43      	subs	r3, r0, #5
    79ea:	409d      	lsls	r5, r3
    79ec:	2376      	movs	r3, #118	; 0x76
    79ee:	425b      	negs	r3, r3
    79f0:	1a18      	subs	r0, r3, r0
    79f2:	2100      	movs	r1, #0
    79f4:	e7af      	b.n	7956 <__aeabi_fdiv+0x56>
    79f6:	2103      	movs	r1, #3
    79f8:	e7ad      	b.n	7956 <__aeabi_fdiv+0x56>
    79fa:	0020      	movs	r0, r4
    79fc:	f000 fdd6 	bl	85ac <__clzsi2>
    7a00:	1f43      	subs	r3, r0, #5
    7a02:	409c      	lsls	r4, r3
    7a04:	2376      	movs	r3, #118	; 0x76
    7a06:	425b      	negs	r3, r3
    7a08:	1a1b      	subs	r3, r3, r0
    7a0a:	4698      	mov	r8, r3
    7a0c:	2300      	movs	r3, #0
    7a0e:	4699      	mov	r9, r3
    7a10:	469b      	mov	fp, r3
    7a12:	e791      	b.n	7938 <__aeabi_fdiv+0x38>
    7a14:	230c      	movs	r3, #12
    7a16:	4699      	mov	r9, r3
    7a18:	33f3      	adds	r3, #243	; 0xf3
    7a1a:	4698      	mov	r8, r3
    7a1c:	3bfc      	subs	r3, #252	; 0xfc
    7a1e:	469b      	mov	fp, r3
    7a20:	e78a      	b.n	7938 <__aeabi_fdiv+0x38>
    7a22:	2b03      	cmp	r3, #3
    7a24:	d100      	bne.n	7a28 <__aeabi_fdiv+0x128>
    7a26:	e0a5      	b.n	7b74 <__aeabi_fdiv+0x274>
    7a28:	4655      	mov	r5, sl
    7a2a:	2b01      	cmp	r3, #1
    7a2c:	d000      	beq.n	7a30 <__aeabi_fdiv+0x130>
    7a2e:	e081      	b.n	7b34 <__aeabi_fdiv+0x234>
    7a30:	2301      	movs	r3, #1
    7a32:	2100      	movs	r1, #0
    7a34:	2400      	movs	r4, #0
    7a36:	402b      	ands	r3, r5
    7a38:	0264      	lsls	r4, r4, #9
    7a3a:	05c9      	lsls	r1, r1, #23
    7a3c:	0a60      	lsrs	r0, r4, #9
    7a3e:	07db      	lsls	r3, r3, #31
    7a40:	4308      	orrs	r0, r1
    7a42:	4318      	orrs	r0, r3
    7a44:	b003      	add	sp, #12
    7a46:	bc3c      	pop	{r2, r3, r4, r5}
    7a48:	4690      	mov	r8, r2
    7a4a:	4699      	mov	r9, r3
    7a4c:	46a2      	mov	sl, r4
    7a4e:	46ab      	mov	fp, r5
    7a50:	bdf0      	pop	{r4, r5, r6, r7, pc}
    7a52:	2480      	movs	r4, #128	; 0x80
    7a54:	2300      	movs	r3, #0
    7a56:	03e4      	lsls	r4, r4, #15
    7a58:	21ff      	movs	r1, #255	; 0xff
    7a5a:	e7ed      	b.n	7a38 <__aeabi_fdiv+0x138>
    7a5c:	21ff      	movs	r1, #255	; 0xff
    7a5e:	2400      	movs	r4, #0
    7a60:	e7ea      	b.n	7a38 <__aeabi_fdiv+0x138>
    7a62:	2301      	movs	r3, #1
    7a64:	1a59      	subs	r1, r3, r1
    7a66:	291b      	cmp	r1, #27
    7a68:	dd66      	ble.n	7b38 <__aeabi_fdiv+0x238>
    7a6a:	9a01      	ldr	r2, [sp, #4]
    7a6c:	4013      	ands	r3, r2
    7a6e:	2100      	movs	r1, #0
    7a70:	2400      	movs	r4, #0
    7a72:	e7e1      	b.n	7a38 <__aeabi_fdiv+0x138>
    7a74:	2380      	movs	r3, #128	; 0x80
    7a76:	03db      	lsls	r3, r3, #15
    7a78:	421c      	tst	r4, r3
    7a7a:	d038      	beq.n	7aee <__aeabi_fdiv+0x1ee>
    7a7c:	421d      	tst	r5, r3
    7a7e:	d051      	beq.n	7b24 <__aeabi_fdiv+0x224>
    7a80:	431c      	orrs	r4, r3
    7a82:	0264      	lsls	r4, r4, #9
    7a84:	0a64      	lsrs	r4, r4, #9
    7a86:	0033      	movs	r3, r6
    7a88:	21ff      	movs	r1, #255	; 0xff
    7a8a:	e7d5      	b.n	7a38 <__aeabi_fdiv+0x138>
    7a8c:	0163      	lsls	r3, r4, #5
    7a8e:	016c      	lsls	r4, r5, #5
    7a90:	42a3      	cmp	r3, r4
    7a92:	d23b      	bcs.n	7b0c <__aeabi_fdiv+0x20c>
    7a94:	261b      	movs	r6, #27
    7a96:	2100      	movs	r1, #0
    7a98:	3801      	subs	r0, #1
    7a9a:	2501      	movs	r5, #1
    7a9c:	001f      	movs	r7, r3
    7a9e:	0049      	lsls	r1, r1, #1
    7aa0:	005b      	lsls	r3, r3, #1
    7aa2:	2f00      	cmp	r7, #0
    7aa4:	db01      	blt.n	7aaa <__aeabi_fdiv+0x1aa>
    7aa6:	429c      	cmp	r4, r3
    7aa8:	d801      	bhi.n	7aae <__aeabi_fdiv+0x1ae>
    7aaa:	1b1b      	subs	r3, r3, r4
    7aac:	4329      	orrs	r1, r5
    7aae:	3e01      	subs	r6, #1
    7ab0:	2e00      	cmp	r6, #0
    7ab2:	d1f3      	bne.n	7a9c <__aeabi_fdiv+0x19c>
    7ab4:	001c      	movs	r4, r3
    7ab6:	1e63      	subs	r3, r4, #1
    7ab8:	419c      	sbcs	r4, r3
    7aba:	430c      	orrs	r4, r1
    7abc:	0001      	movs	r1, r0
    7abe:	317f      	adds	r1, #127	; 0x7f
    7ac0:	2900      	cmp	r1, #0
    7ac2:	ddce      	ble.n	7a62 <__aeabi_fdiv+0x162>
    7ac4:	0763      	lsls	r3, r4, #29
    7ac6:	d004      	beq.n	7ad2 <__aeabi_fdiv+0x1d2>
    7ac8:	230f      	movs	r3, #15
    7aca:	4023      	ands	r3, r4
    7acc:	2b04      	cmp	r3, #4
    7ace:	d000      	beq.n	7ad2 <__aeabi_fdiv+0x1d2>
    7ad0:	3404      	adds	r4, #4
    7ad2:	0123      	lsls	r3, r4, #4
    7ad4:	d503      	bpl.n	7ade <__aeabi_fdiv+0x1de>
    7ad6:	0001      	movs	r1, r0
    7ad8:	4b2c      	ldr	r3, [pc, #176]	; (7b8c <__aeabi_fdiv+0x28c>)
    7ada:	3180      	adds	r1, #128	; 0x80
    7adc:	401c      	ands	r4, r3
    7ade:	29fe      	cmp	r1, #254	; 0xfe
    7ae0:	dd0d      	ble.n	7afe <__aeabi_fdiv+0x1fe>
    7ae2:	2301      	movs	r3, #1
    7ae4:	9a01      	ldr	r2, [sp, #4]
    7ae6:	21ff      	movs	r1, #255	; 0xff
    7ae8:	4013      	ands	r3, r2
    7aea:	2400      	movs	r4, #0
    7aec:	e7a4      	b.n	7a38 <__aeabi_fdiv+0x138>
    7aee:	2380      	movs	r3, #128	; 0x80
    7af0:	03db      	lsls	r3, r3, #15
    7af2:	431c      	orrs	r4, r3
    7af4:	0264      	lsls	r4, r4, #9
    7af6:	0a64      	lsrs	r4, r4, #9
    7af8:	0033      	movs	r3, r6
    7afa:	21ff      	movs	r1, #255	; 0xff
    7afc:	e79c      	b.n	7a38 <__aeabi_fdiv+0x138>
    7afe:	2301      	movs	r3, #1
    7b00:	9a01      	ldr	r2, [sp, #4]
    7b02:	01a4      	lsls	r4, r4, #6
    7b04:	0a64      	lsrs	r4, r4, #9
    7b06:	b2c9      	uxtb	r1, r1
    7b08:	4013      	ands	r3, r2
    7b0a:	e795      	b.n	7a38 <__aeabi_fdiv+0x138>
    7b0c:	1b1b      	subs	r3, r3, r4
    7b0e:	261a      	movs	r6, #26
    7b10:	2101      	movs	r1, #1
    7b12:	e7c2      	b.n	7a9a <__aeabi_fdiv+0x19a>
    7b14:	9b00      	ldr	r3, [sp, #0]
    7b16:	468b      	mov	fp, r1
    7b18:	469a      	mov	sl, r3
    7b1a:	2400      	movs	r4, #0
    7b1c:	e74c      	b.n	79b8 <__aeabi_fdiv+0xb8>
    7b1e:	0263      	lsls	r3, r4, #9
    7b20:	d5e5      	bpl.n	7aee <__aeabi_fdiv+0x1ee>
    7b22:	2500      	movs	r5, #0
    7b24:	2480      	movs	r4, #128	; 0x80
    7b26:	03e4      	lsls	r4, r4, #15
    7b28:	432c      	orrs	r4, r5
    7b2a:	0264      	lsls	r4, r4, #9
    7b2c:	0a64      	lsrs	r4, r4, #9
    7b2e:	9b00      	ldr	r3, [sp, #0]
    7b30:	21ff      	movs	r1, #255	; 0xff
    7b32:	e781      	b.n	7a38 <__aeabi_fdiv+0x138>
    7b34:	9501      	str	r5, [sp, #4]
    7b36:	e7c1      	b.n	7abc <__aeabi_fdiv+0x1bc>
    7b38:	0023      	movs	r3, r4
    7b3a:	2020      	movs	r0, #32
    7b3c:	40cb      	lsrs	r3, r1
    7b3e:	1a41      	subs	r1, r0, r1
    7b40:	408c      	lsls	r4, r1
    7b42:	1e61      	subs	r1, r4, #1
    7b44:	418c      	sbcs	r4, r1
    7b46:	431c      	orrs	r4, r3
    7b48:	0763      	lsls	r3, r4, #29
    7b4a:	d004      	beq.n	7b56 <__aeabi_fdiv+0x256>
    7b4c:	230f      	movs	r3, #15
    7b4e:	4023      	ands	r3, r4
    7b50:	2b04      	cmp	r3, #4
    7b52:	d000      	beq.n	7b56 <__aeabi_fdiv+0x256>
    7b54:	3404      	adds	r4, #4
    7b56:	0163      	lsls	r3, r4, #5
    7b58:	d505      	bpl.n	7b66 <__aeabi_fdiv+0x266>
    7b5a:	2301      	movs	r3, #1
    7b5c:	9a01      	ldr	r2, [sp, #4]
    7b5e:	2101      	movs	r1, #1
    7b60:	4013      	ands	r3, r2
    7b62:	2400      	movs	r4, #0
    7b64:	e768      	b.n	7a38 <__aeabi_fdiv+0x138>
    7b66:	2301      	movs	r3, #1
    7b68:	9a01      	ldr	r2, [sp, #4]
    7b6a:	01a4      	lsls	r4, r4, #6
    7b6c:	0a64      	lsrs	r4, r4, #9
    7b6e:	4013      	ands	r3, r2
    7b70:	2100      	movs	r1, #0
    7b72:	e761      	b.n	7a38 <__aeabi_fdiv+0x138>
    7b74:	2380      	movs	r3, #128	; 0x80
    7b76:	03db      	lsls	r3, r3, #15
    7b78:	431c      	orrs	r4, r3
    7b7a:	0264      	lsls	r4, r4, #9
    7b7c:	0a64      	lsrs	r4, r4, #9
    7b7e:	4653      	mov	r3, sl
    7b80:	21ff      	movs	r1, #255	; 0xff
    7b82:	e759      	b.n	7a38 <__aeabi_fdiv+0x138>
    7b84:	00008d70 	.word	0x00008d70
    7b88:	00008db0 	.word	0x00008db0
    7b8c:	f7ffffff 	.word	0xf7ffffff

00007b90 <__eqsf2>:
    7b90:	b570      	push	{r4, r5, r6, lr}
    7b92:	0042      	lsls	r2, r0, #1
    7b94:	0245      	lsls	r5, r0, #9
    7b96:	024e      	lsls	r6, r1, #9
    7b98:	004c      	lsls	r4, r1, #1
    7b9a:	0fc3      	lsrs	r3, r0, #31
    7b9c:	0a6d      	lsrs	r5, r5, #9
    7b9e:	0e12      	lsrs	r2, r2, #24
    7ba0:	0a76      	lsrs	r6, r6, #9
    7ba2:	0e24      	lsrs	r4, r4, #24
    7ba4:	0fc9      	lsrs	r1, r1, #31
    7ba6:	2001      	movs	r0, #1
    7ba8:	2aff      	cmp	r2, #255	; 0xff
    7baa:	d006      	beq.n	7bba <__eqsf2+0x2a>
    7bac:	2cff      	cmp	r4, #255	; 0xff
    7bae:	d003      	beq.n	7bb8 <__eqsf2+0x28>
    7bb0:	42a2      	cmp	r2, r4
    7bb2:	d101      	bne.n	7bb8 <__eqsf2+0x28>
    7bb4:	42b5      	cmp	r5, r6
    7bb6:	d006      	beq.n	7bc6 <__eqsf2+0x36>
    7bb8:	bd70      	pop	{r4, r5, r6, pc}
    7bba:	2d00      	cmp	r5, #0
    7bbc:	d1fc      	bne.n	7bb8 <__eqsf2+0x28>
    7bbe:	2cff      	cmp	r4, #255	; 0xff
    7bc0:	d1fa      	bne.n	7bb8 <__eqsf2+0x28>
    7bc2:	2e00      	cmp	r6, #0
    7bc4:	d1f8      	bne.n	7bb8 <__eqsf2+0x28>
    7bc6:	428b      	cmp	r3, r1
    7bc8:	d006      	beq.n	7bd8 <__eqsf2+0x48>
    7bca:	2001      	movs	r0, #1
    7bcc:	2a00      	cmp	r2, #0
    7bce:	d1f3      	bne.n	7bb8 <__eqsf2+0x28>
    7bd0:	0028      	movs	r0, r5
    7bd2:	1e45      	subs	r5, r0, #1
    7bd4:	41a8      	sbcs	r0, r5
    7bd6:	e7ef      	b.n	7bb8 <__eqsf2+0x28>
    7bd8:	2000      	movs	r0, #0
    7bda:	e7ed      	b.n	7bb8 <__eqsf2+0x28>

00007bdc <__gesf2>:
    7bdc:	b5f0      	push	{r4, r5, r6, r7, lr}
    7bde:	0042      	lsls	r2, r0, #1
    7be0:	0245      	lsls	r5, r0, #9
    7be2:	024c      	lsls	r4, r1, #9
    7be4:	0fc3      	lsrs	r3, r0, #31
    7be6:	0048      	lsls	r0, r1, #1
    7be8:	0a6d      	lsrs	r5, r5, #9
    7bea:	0e12      	lsrs	r2, r2, #24
    7bec:	0a64      	lsrs	r4, r4, #9
    7bee:	0e00      	lsrs	r0, r0, #24
    7bf0:	0fc9      	lsrs	r1, r1, #31
    7bf2:	2aff      	cmp	r2, #255	; 0xff
    7bf4:	d01e      	beq.n	7c34 <__gesf2+0x58>
    7bf6:	28ff      	cmp	r0, #255	; 0xff
    7bf8:	d021      	beq.n	7c3e <__gesf2+0x62>
    7bfa:	2a00      	cmp	r2, #0
    7bfc:	d10a      	bne.n	7c14 <__gesf2+0x38>
    7bfe:	426e      	negs	r6, r5
    7c00:	416e      	adcs	r6, r5
    7c02:	b2f6      	uxtb	r6, r6
    7c04:	2800      	cmp	r0, #0
    7c06:	d10f      	bne.n	7c28 <__gesf2+0x4c>
    7c08:	2c00      	cmp	r4, #0
    7c0a:	d10d      	bne.n	7c28 <__gesf2+0x4c>
    7c0c:	2000      	movs	r0, #0
    7c0e:	2d00      	cmp	r5, #0
    7c10:	d009      	beq.n	7c26 <__gesf2+0x4a>
    7c12:	e005      	b.n	7c20 <__gesf2+0x44>
    7c14:	2800      	cmp	r0, #0
    7c16:	d101      	bne.n	7c1c <__gesf2+0x40>
    7c18:	2c00      	cmp	r4, #0
    7c1a:	d001      	beq.n	7c20 <__gesf2+0x44>
    7c1c:	428b      	cmp	r3, r1
    7c1e:	d011      	beq.n	7c44 <__gesf2+0x68>
    7c20:	2101      	movs	r1, #1
    7c22:	4258      	negs	r0, r3
    7c24:	4308      	orrs	r0, r1
    7c26:	bdf0      	pop	{r4, r5, r6, r7, pc}
    7c28:	2e00      	cmp	r6, #0
    7c2a:	d0f7      	beq.n	7c1c <__gesf2+0x40>
    7c2c:	2001      	movs	r0, #1
    7c2e:	3901      	subs	r1, #1
    7c30:	4308      	orrs	r0, r1
    7c32:	e7f8      	b.n	7c26 <__gesf2+0x4a>
    7c34:	2d00      	cmp	r5, #0
    7c36:	d0de      	beq.n	7bf6 <__gesf2+0x1a>
    7c38:	2002      	movs	r0, #2
    7c3a:	4240      	negs	r0, r0
    7c3c:	e7f3      	b.n	7c26 <__gesf2+0x4a>
    7c3e:	2c00      	cmp	r4, #0
    7c40:	d0db      	beq.n	7bfa <__gesf2+0x1e>
    7c42:	e7f9      	b.n	7c38 <__gesf2+0x5c>
    7c44:	4282      	cmp	r2, r0
    7c46:	dceb      	bgt.n	7c20 <__gesf2+0x44>
    7c48:	db04      	blt.n	7c54 <__gesf2+0x78>
    7c4a:	42a5      	cmp	r5, r4
    7c4c:	d8e8      	bhi.n	7c20 <__gesf2+0x44>
    7c4e:	2000      	movs	r0, #0
    7c50:	42a5      	cmp	r5, r4
    7c52:	d2e8      	bcs.n	7c26 <__gesf2+0x4a>
    7c54:	2101      	movs	r1, #1
    7c56:	1e58      	subs	r0, r3, #1
    7c58:	4308      	orrs	r0, r1
    7c5a:	e7e4      	b.n	7c26 <__gesf2+0x4a>

00007c5c <__lesf2>:
    7c5c:	b5f0      	push	{r4, r5, r6, r7, lr}
    7c5e:	0042      	lsls	r2, r0, #1
    7c60:	024d      	lsls	r5, r1, #9
    7c62:	004c      	lsls	r4, r1, #1
    7c64:	0246      	lsls	r6, r0, #9
    7c66:	0a76      	lsrs	r6, r6, #9
    7c68:	0e12      	lsrs	r2, r2, #24
    7c6a:	0fc3      	lsrs	r3, r0, #31
    7c6c:	0a6d      	lsrs	r5, r5, #9
    7c6e:	0e24      	lsrs	r4, r4, #24
    7c70:	0fc9      	lsrs	r1, r1, #31
    7c72:	2aff      	cmp	r2, #255	; 0xff
    7c74:	d016      	beq.n	7ca4 <__lesf2+0x48>
    7c76:	2cff      	cmp	r4, #255	; 0xff
    7c78:	d018      	beq.n	7cac <__lesf2+0x50>
    7c7a:	2a00      	cmp	r2, #0
    7c7c:	d10a      	bne.n	7c94 <__lesf2+0x38>
    7c7e:	4270      	negs	r0, r6
    7c80:	4170      	adcs	r0, r6
    7c82:	b2c0      	uxtb	r0, r0
    7c84:	2c00      	cmp	r4, #0
    7c86:	d015      	beq.n	7cb4 <__lesf2+0x58>
    7c88:	2800      	cmp	r0, #0
    7c8a:	d005      	beq.n	7c98 <__lesf2+0x3c>
    7c8c:	2001      	movs	r0, #1
    7c8e:	3901      	subs	r1, #1
    7c90:	4308      	orrs	r0, r1
    7c92:	bdf0      	pop	{r4, r5, r6, r7, pc}
    7c94:	2c00      	cmp	r4, #0
    7c96:	d013      	beq.n	7cc0 <__lesf2+0x64>
    7c98:	4299      	cmp	r1, r3
    7c9a:	d014      	beq.n	7cc6 <__lesf2+0x6a>
    7c9c:	2001      	movs	r0, #1
    7c9e:	425b      	negs	r3, r3
    7ca0:	4318      	orrs	r0, r3
    7ca2:	e7f6      	b.n	7c92 <__lesf2+0x36>
    7ca4:	2002      	movs	r0, #2
    7ca6:	2e00      	cmp	r6, #0
    7ca8:	d1f3      	bne.n	7c92 <__lesf2+0x36>
    7caa:	e7e4      	b.n	7c76 <__lesf2+0x1a>
    7cac:	2002      	movs	r0, #2
    7cae:	2d00      	cmp	r5, #0
    7cb0:	d1ef      	bne.n	7c92 <__lesf2+0x36>
    7cb2:	e7e2      	b.n	7c7a <__lesf2+0x1e>
    7cb4:	2d00      	cmp	r5, #0
    7cb6:	d1e7      	bne.n	7c88 <__lesf2+0x2c>
    7cb8:	2000      	movs	r0, #0
    7cba:	2e00      	cmp	r6, #0
    7cbc:	d0e9      	beq.n	7c92 <__lesf2+0x36>
    7cbe:	e7ed      	b.n	7c9c <__lesf2+0x40>
    7cc0:	2d00      	cmp	r5, #0
    7cc2:	d1e9      	bne.n	7c98 <__lesf2+0x3c>
    7cc4:	e7ea      	b.n	7c9c <__lesf2+0x40>
    7cc6:	42a2      	cmp	r2, r4
    7cc8:	dc06      	bgt.n	7cd8 <__lesf2+0x7c>
    7cca:	dbdf      	blt.n	7c8c <__lesf2+0x30>
    7ccc:	42ae      	cmp	r6, r5
    7cce:	d803      	bhi.n	7cd8 <__lesf2+0x7c>
    7cd0:	2000      	movs	r0, #0
    7cd2:	42ae      	cmp	r6, r5
    7cd4:	d3da      	bcc.n	7c8c <__lesf2+0x30>
    7cd6:	e7dc      	b.n	7c92 <__lesf2+0x36>
    7cd8:	2001      	movs	r0, #1
    7cda:	4249      	negs	r1, r1
    7cdc:	4308      	orrs	r0, r1
    7cde:	e7d8      	b.n	7c92 <__lesf2+0x36>

00007ce0 <__aeabi_fmul>:
    7ce0:	b5f8      	push	{r3, r4, r5, r6, r7, lr}
    7ce2:	4657      	mov	r7, sl
    7ce4:	464e      	mov	r6, r9
    7ce6:	4645      	mov	r5, r8
    7ce8:	46de      	mov	lr, fp
    7cea:	b5e0      	push	{r5, r6, r7, lr}
    7cec:	0247      	lsls	r7, r0, #9
    7cee:	0046      	lsls	r6, r0, #1
    7cf0:	4688      	mov	r8, r1
    7cf2:	0a7f      	lsrs	r7, r7, #9
    7cf4:	0e36      	lsrs	r6, r6, #24
    7cf6:	0fc4      	lsrs	r4, r0, #31
    7cf8:	2e00      	cmp	r6, #0
    7cfa:	d047      	beq.n	7d8c <__aeabi_fmul+0xac>
    7cfc:	2eff      	cmp	r6, #255	; 0xff
    7cfe:	d024      	beq.n	7d4a <__aeabi_fmul+0x6a>
    7d00:	00fb      	lsls	r3, r7, #3
    7d02:	2780      	movs	r7, #128	; 0x80
    7d04:	04ff      	lsls	r7, r7, #19
    7d06:	431f      	orrs	r7, r3
    7d08:	2300      	movs	r3, #0
    7d0a:	4699      	mov	r9, r3
    7d0c:	469a      	mov	sl, r3
    7d0e:	3e7f      	subs	r6, #127	; 0x7f
    7d10:	4643      	mov	r3, r8
    7d12:	025d      	lsls	r5, r3, #9
    7d14:	0058      	lsls	r0, r3, #1
    7d16:	0fdb      	lsrs	r3, r3, #31
    7d18:	0a6d      	lsrs	r5, r5, #9
    7d1a:	0e00      	lsrs	r0, r0, #24
    7d1c:	4698      	mov	r8, r3
    7d1e:	d043      	beq.n	7da8 <__aeabi_fmul+0xc8>
    7d20:	28ff      	cmp	r0, #255	; 0xff
    7d22:	d03b      	beq.n	7d9c <__aeabi_fmul+0xbc>
    7d24:	00eb      	lsls	r3, r5, #3
    7d26:	2580      	movs	r5, #128	; 0x80
    7d28:	2200      	movs	r2, #0
    7d2a:	04ed      	lsls	r5, r5, #19
    7d2c:	431d      	orrs	r5, r3
    7d2e:	387f      	subs	r0, #127	; 0x7f
    7d30:	1836      	adds	r6, r6, r0
    7d32:	1c73      	adds	r3, r6, #1
    7d34:	4641      	mov	r1, r8
    7d36:	469b      	mov	fp, r3
    7d38:	464b      	mov	r3, r9
    7d3a:	4061      	eors	r1, r4
    7d3c:	4313      	orrs	r3, r2
    7d3e:	2b0f      	cmp	r3, #15
    7d40:	d864      	bhi.n	7e0c <__aeabi_fmul+0x12c>
    7d42:	4875      	ldr	r0, [pc, #468]	; (7f18 <__aeabi_fmul+0x238>)
    7d44:	009b      	lsls	r3, r3, #2
    7d46:	58c3      	ldr	r3, [r0, r3]
    7d48:	469f      	mov	pc, r3
    7d4a:	2f00      	cmp	r7, #0
    7d4c:	d142      	bne.n	7dd4 <__aeabi_fmul+0xf4>
    7d4e:	2308      	movs	r3, #8
    7d50:	4699      	mov	r9, r3
    7d52:	3b06      	subs	r3, #6
    7d54:	26ff      	movs	r6, #255	; 0xff
    7d56:	469a      	mov	sl, r3
    7d58:	e7da      	b.n	7d10 <__aeabi_fmul+0x30>
    7d5a:	4641      	mov	r1, r8
    7d5c:	2a02      	cmp	r2, #2
    7d5e:	d028      	beq.n	7db2 <__aeabi_fmul+0xd2>
    7d60:	2a03      	cmp	r2, #3
    7d62:	d100      	bne.n	7d66 <__aeabi_fmul+0x86>
    7d64:	e0ce      	b.n	7f04 <__aeabi_fmul+0x224>
    7d66:	2a01      	cmp	r2, #1
    7d68:	d000      	beq.n	7d6c <__aeabi_fmul+0x8c>
    7d6a:	e0ac      	b.n	7ec6 <__aeabi_fmul+0x1e6>
    7d6c:	4011      	ands	r1, r2
    7d6e:	2000      	movs	r0, #0
    7d70:	2200      	movs	r2, #0
    7d72:	b2cc      	uxtb	r4, r1
    7d74:	0240      	lsls	r0, r0, #9
    7d76:	05d2      	lsls	r2, r2, #23
    7d78:	0a40      	lsrs	r0, r0, #9
    7d7a:	07e4      	lsls	r4, r4, #31
    7d7c:	4310      	orrs	r0, r2
    7d7e:	4320      	orrs	r0, r4
    7d80:	bc3c      	pop	{r2, r3, r4, r5}
    7d82:	4690      	mov	r8, r2
    7d84:	4699      	mov	r9, r3
    7d86:	46a2      	mov	sl, r4
    7d88:	46ab      	mov	fp, r5
    7d8a:	bdf8      	pop	{r3, r4, r5, r6, r7, pc}
    7d8c:	2f00      	cmp	r7, #0
    7d8e:	d115      	bne.n	7dbc <__aeabi_fmul+0xdc>
    7d90:	2304      	movs	r3, #4
    7d92:	4699      	mov	r9, r3
    7d94:	3b03      	subs	r3, #3
    7d96:	2600      	movs	r6, #0
    7d98:	469a      	mov	sl, r3
    7d9a:	e7b9      	b.n	7d10 <__aeabi_fmul+0x30>
    7d9c:	20ff      	movs	r0, #255	; 0xff
    7d9e:	2202      	movs	r2, #2
    7da0:	2d00      	cmp	r5, #0
    7da2:	d0c5      	beq.n	7d30 <__aeabi_fmul+0x50>
    7da4:	2203      	movs	r2, #3
    7da6:	e7c3      	b.n	7d30 <__aeabi_fmul+0x50>
    7da8:	2d00      	cmp	r5, #0
    7daa:	d119      	bne.n	7de0 <__aeabi_fmul+0x100>
    7dac:	2000      	movs	r0, #0
    7dae:	2201      	movs	r2, #1
    7db0:	e7be      	b.n	7d30 <__aeabi_fmul+0x50>
    7db2:	2401      	movs	r4, #1
    7db4:	22ff      	movs	r2, #255	; 0xff
    7db6:	400c      	ands	r4, r1
    7db8:	2000      	movs	r0, #0
    7dba:	e7db      	b.n	7d74 <__aeabi_fmul+0x94>
    7dbc:	0038      	movs	r0, r7
    7dbe:	f000 fbf5 	bl	85ac <__clzsi2>
    7dc2:	2676      	movs	r6, #118	; 0x76
    7dc4:	1f43      	subs	r3, r0, #5
    7dc6:	409f      	lsls	r7, r3
    7dc8:	2300      	movs	r3, #0
    7dca:	4276      	negs	r6, r6
    7dcc:	1a36      	subs	r6, r6, r0
    7dce:	4699      	mov	r9, r3
    7dd0:	469a      	mov	sl, r3
    7dd2:	e79d      	b.n	7d10 <__aeabi_fmul+0x30>
    7dd4:	230c      	movs	r3, #12
    7dd6:	4699      	mov	r9, r3
    7dd8:	3b09      	subs	r3, #9
    7dda:	26ff      	movs	r6, #255	; 0xff
    7ddc:	469a      	mov	sl, r3
    7dde:	e797      	b.n	7d10 <__aeabi_fmul+0x30>
    7de0:	0028      	movs	r0, r5
    7de2:	f000 fbe3 	bl	85ac <__clzsi2>
    7de6:	1f43      	subs	r3, r0, #5
    7de8:	409d      	lsls	r5, r3
    7dea:	2376      	movs	r3, #118	; 0x76
    7dec:	425b      	negs	r3, r3
    7dee:	1a18      	subs	r0, r3, r0
    7df0:	2200      	movs	r2, #0
    7df2:	e79d      	b.n	7d30 <__aeabi_fmul+0x50>
    7df4:	2080      	movs	r0, #128	; 0x80
    7df6:	2400      	movs	r4, #0
    7df8:	03c0      	lsls	r0, r0, #15
    7dfa:	22ff      	movs	r2, #255	; 0xff
    7dfc:	e7ba      	b.n	7d74 <__aeabi_fmul+0x94>
    7dfe:	003d      	movs	r5, r7
    7e00:	4652      	mov	r2, sl
    7e02:	e7ab      	b.n	7d5c <__aeabi_fmul+0x7c>
    7e04:	003d      	movs	r5, r7
    7e06:	0021      	movs	r1, r4
    7e08:	4652      	mov	r2, sl
    7e0a:	e7a7      	b.n	7d5c <__aeabi_fmul+0x7c>
    7e0c:	0c3b      	lsrs	r3, r7, #16
    7e0e:	469c      	mov	ip, r3
    7e10:	042a      	lsls	r2, r5, #16
    7e12:	0c12      	lsrs	r2, r2, #16
    7e14:	0c2b      	lsrs	r3, r5, #16
    7e16:	0014      	movs	r4, r2
    7e18:	4660      	mov	r0, ip
    7e1a:	4665      	mov	r5, ip
    7e1c:	043f      	lsls	r7, r7, #16
    7e1e:	0c3f      	lsrs	r7, r7, #16
    7e20:	437c      	muls	r4, r7
    7e22:	4342      	muls	r2, r0
    7e24:	435d      	muls	r5, r3
    7e26:	437b      	muls	r3, r7
    7e28:	0c27      	lsrs	r7, r4, #16
    7e2a:	189b      	adds	r3, r3, r2
    7e2c:	18ff      	adds	r7, r7, r3
    7e2e:	42ba      	cmp	r2, r7
    7e30:	d903      	bls.n	7e3a <__aeabi_fmul+0x15a>
    7e32:	2380      	movs	r3, #128	; 0x80
    7e34:	025b      	lsls	r3, r3, #9
    7e36:	469c      	mov	ip, r3
    7e38:	4465      	add	r5, ip
    7e3a:	0424      	lsls	r4, r4, #16
    7e3c:	043a      	lsls	r2, r7, #16
    7e3e:	0c24      	lsrs	r4, r4, #16
    7e40:	1912      	adds	r2, r2, r4
    7e42:	0193      	lsls	r3, r2, #6
    7e44:	1e5c      	subs	r4, r3, #1
    7e46:	41a3      	sbcs	r3, r4
    7e48:	0c3f      	lsrs	r7, r7, #16
    7e4a:	0e92      	lsrs	r2, r2, #26
    7e4c:	197d      	adds	r5, r7, r5
    7e4e:	431a      	orrs	r2, r3
    7e50:	01ad      	lsls	r5, r5, #6
    7e52:	4315      	orrs	r5, r2
    7e54:	012b      	lsls	r3, r5, #4
    7e56:	d504      	bpl.n	7e62 <__aeabi_fmul+0x182>
    7e58:	2301      	movs	r3, #1
    7e5a:	465e      	mov	r6, fp
    7e5c:	086a      	lsrs	r2, r5, #1
    7e5e:	401d      	ands	r5, r3
    7e60:	4315      	orrs	r5, r2
    7e62:	0032      	movs	r2, r6
    7e64:	327f      	adds	r2, #127	; 0x7f
    7e66:	2a00      	cmp	r2, #0
    7e68:	dd25      	ble.n	7eb6 <__aeabi_fmul+0x1d6>
    7e6a:	076b      	lsls	r3, r5, #29
    7e6c:	d004      	beq.n	7e78 <__aeabi_fmul+0x198>
    7e6e:	230f      	movs	r3, #15
    7e70:	402b      	ands	r3, r5
    7e72:	2b04      	cmp	r3, #4
    7e74:	d000      	beq.n	7e78 <__aeabi_fmul+0x198>
    7e76:	3504      	adds	r5, #4
    7e78:	012b      	lsls	r3, r5, #4
    7e7a:	d503      	bpl.n	7e84 <__aeabi_fmul+0x1a4>
    7e7c:	0032      	movs	r2, r6
    7e7e:	4b27      	ldr	r3, [pc, #156]	; (7f1c <__aeabi_fmul+0x23c>)
    7e80:	3280      	adds	r2, #128	; 0x80
    7e82:	401d      	ands	r5, r3
    7e84:	2afe      	cmp	r2, #254	; 0xfe
    7e86:	dc94      	bgt.n	7db2 <__aeabi_fmul+0xd2>
    7e88:	2401      	movs	r4, #1
    7e8a:	01a8      	lsls	r0, r5, #6
    7e8c:	0a40      	lsrs	r0, r0, #9
    7e8e:	b2d2      	uxtb	r2, r2
    7e90:	400c      	ands	r4, r1
    7e92:	e76f      	b.n	7d74 <__aeabi_fmul+0x94>
    7e94:	2080      	movs	r0, #128	; 0x80
    7e96:	03c0      	lsls	r0, r0, #15
    7e98:	4207      	tst	r7, r0
    7e9a:	d007      	beq.n	7eac <__aeabi_fmul+0x1cc>
    7e9c:	4205      	tst	r5, r0
    7e9e:	d105      	bne.n	7eac <__aeabi_fmul+0x1cc>
    7ea0:	4328      	orrs	r0, r5
    7ea2:	0240      	lsls	r0, r0, #9
    7ea4:	0a40      	lsrs	r0, r0, #9
    7ea6:	4644      	mov	r4, r8
    7ea8:	22ff      	movs	r2, #255	; 0xff
    7eaa:	e763      	b.n	7d74 <__aeabi_fmul+0x94>
    7eac:	4338      	orrs	r0, r7
    7eae:	0240      	lsls	r0, r0, #9
    7eb0:	0a40      	lsrs	r0, r0, #9
    7eb2:	22ff      	movs	r2, #255	; 0xff
    7eb4:	e75e      	b.n	7d74 <__aeabi_fmul+0x94>
    7eb6:	2401      	movs	r4, #1
    7eb8:	1aa3      	subs	r3, r4, r2
    7eba:	2b1b      	cmp	r3, #27
    7ebc:	dd05      	ble.n	7eca <__aeabi_fmul+0x1ea>
    7ebe:	400c      	ands	r4, r1
    7ec0:	2200      	movs	r2, #0
    7ec2:	2000      	movs	r0, #0
    7ec4:	e756      	b.n	7d74 <__aeabi_fmul+0x94>
    7ec6:	465e      	mov	r6, fp
    7ec8:	e7cb      	b.n	7e62 <__aeabi_fmul+0x182>
    7eca:	002a      	movs	r2, r5
    7ecc:	2020      	movs	r0, #32
    7ece:	40da      	lsrs	r2, r3
    7ed0:	1ac3      	subs	r3, r0, r3
    7ed2:	409d      	lsls	r5, r3
    7ed4:	002b      	movs	r3, r5
    7ed6:	1e5d      	subs	r5, r3, #1
    7ed8:	41ab      	sbcs	r3, r5
    7eda:	4313      	orrs	r3, r2
    7edc:	075a      	lsls	r2, r3, #29
    7ede:	d004      	beq.n	7eea <__aeabi_fmul+0x20a>
    7ee0:	220f      	movs	r2, #15
    7ee2:	401a      	ands	r2, r3
    7ee4:	2a04      	cmp	r2, #4
    7ee6:	d000      	beq.n	7eea <__aeabi_fmul+0x20a>
    7ee8:	3304      	adds	r3, #4
    7eea:	015a      	lsls	r2, r3, #5
    7eec:	d504      	bpl.n	7ef8 <__aeabi_fmul+0x218>
    7eee:	2401      	movs	r4, #1
    7ef0:	2201      	movs	r2, #1
    7ef2:	400c      	ands	r4, r1
    7ef4:	2000      	movs	r0, #0
    7ef6:	e73d      	b.n	7d74 <__aeabi_fmul+0x94>
    7ef8:	2401      	movs	r4, #1
    7efa:	019b      	lsls	r3, r3, #6
    7efc:	0a58      	lsrs	r0, r3, #9
    7efe:	400c      	ands	r4, r1
    7f00:	2200      	movs	r2, #0
    7f02:	e737      	b.n	7d74 <__aeabi_fmul+0x94>
    7f04:	2080      	movs	r0, #128	; 0x80
    7f06:	2401      	movs	r4, #1
    7f08:	03c0      	lsls	r0, r0, #15
    7f0a:	4328      	orrs	r0, r5
    7f0c:	0240      	lsls	r0, r0, #9
    7f0e:	0a40      	lsrs	r0, r0, #9
    7f10:	400c      	ands	r4, r1
    7f12:	22ff      	movs	r2, #255	; 0xff
    7f14:	e72e      	b.n	7d74 <__aeabi_fmul+0x94>
    7f16:	46c0      	nop			; (mov r8, r8)
    7f18:	00008df0 	.word	0x00008df0
    7f1c:	f7ffffff 	.word	0xf7ffffff

00007f20 <__aeabi_fsub>:
    7f20:	b5f0      	push	{r4, r5, r6, r7, lr}
    7f22:	464f      	mov	r7, r9
    7f24:	46d6      	mov	lr, sl
    7f26:	4646      	mov	r6, r8
    7f28:	0044      	lsls	r4, r0, #1
    7f2a:	b5c0      	push	{r6, r7, lr}
    7f2c:	0fc2      	lsrs	r2, r0, #31
    7f2e:	0247      	lsls	r7, r0, #9
    7f30:	0248      	lsls	r0, r1, #9
    7f32:	0a40      	lsrs	r0, r0, #9
    7f34:	4684      	mov	ip, r0
    7f36:	4666      	mov	r6, ip
    7f38:	0a7b      	lsrs	r3, r7, #9
    7f3a:	0048      	lsls	r0, r1, #1
    7f3c:	0fc9      	lsrs	r1, r1, #31
    7f3e:	469a      	mov	sl, r3
    7f40:	0e24      	lsrs	r4, r4, #24
    7f42:	0015      	movs	r5, r2
    7f44:	00db      	lsls	r3, r3, #3
    7f46:	0e00      	lsrs	r0, r0, #24
    7f48:	4689      	mov	r9, r1
    7f4a:	00f6      	lsls	r6, r6, #3
    7f4c:	28ff      	cmp	r0, #255	; 0xff
    7f4e:	d100      	bne.n	7f52 <__aeabi_fsub+0x32>
    7f50:	e08f      	b.n	8072 <__aeabi_fsub+0x152>
    7f52:	2101      	movs	r1, #1
    7f54:	464f      	mov	r7, r9
    7f56:	404f      	eors	r7, r1
    7f58:	0039      	movs	r1, r7
    7f5a:	4291      	cmp	r1, r2
    7f5c:	d066      	beq.n	802c <__aeabi_fsub+0x10c>
    7f5e:	1a22      	subs	r2, r4, r0
    7f60:	2a00      	cmp	r2, #0
    7f62:	dc00      	bgt.n	7f66 <__aeabi_fsub+0x46>
    7f64:	e09d      	b.n	80a2 <__aeabi_fsub+0x182>
    7f66:	2800      	cmp	r0, #0
    7f68:	d13d      	bne.n	7fe6 <__aeabi_fsub+0xc6>
    7f6a:	2e00      	cmp	r6, #0
    7f6c:	d100      	bne.n	7f70 <__aeabi_fsub+0x50>
    7f6e:	e08b      	b.n	8088 <__aeabi_fsub+0x168>
    7f70:	1e51      	subs	r1, r2, #1
    7f72:	2900      	cmp	r1, #0
    7f74:	d000      	beq.n	7f78 <__aeabi_fsub+0x58>
    7f76:	e0b5      	b.n	80e4 <__aeabi_fsub+0x1c4>
    7f78:	2401      	movs	r4, #1
    7f7a:	1b9b      	subs	r3, r3, r6
    7f7c:	015a      	lsls	r2, r3, #5
    7f7e:	d544      	bpl.n	800a <__aeabi_fsub+0xea>
    7f80:	019b      	lsls	r3, r3, #6
    7f82:	099f      	lsrs	r7, r3, #6
    7f84:	0038      	movs	r0, r7
    7f86:	f000 fb11 	bl	85ac <__clzsi2>
    7f8a:	3805      	subs	r0, #5
    7f8c:	4087      	lsls	r7, r0
    7f8e:	4284      	cmp	r4, r0
    7f90:	dd00      	ble.n	7f94 <__aeabi_fsub+0x74>
    7f92:	e096      	b.n	80c2 <__aeabi_fsub+0x1a2>
    7f94:	1b04      	subs	r4, r0, r4
    7f96:	003a      	movs	r2, r7
    7f98:	2020      	movs	r0, #32
    7f9a:	3401      	adds	r4, #1
    7f9c:	40e2      	lsrs	r2, r4
    7f9e:	1b04      	subs	r4, r0, r4
    7fa0:	40a7      	lsls	r7, r4
    7fa2:	003b      	movs	r3, r7
    7fa4:	1e5f      	subs	r7, r3, #1
    7fa6:	41bb      	sbcs	r3, r7
    7fa8:	2400      	movs	r4, #0
    7faa:	4313      	orrs	r3, r2
    7fac:	075a      	lsls	r2, r3, #29
    7fae:	d004      	beq.n	7fba <__aeabi_fsub+0x9a>
    7fb0:	220f      	movs	r2, #15
    7fb2:	401a      	ands	r2, r3
    7fb4:	2a04      	cmp	r2, #4
    7fb6:	d000      	beq.n	7fba <__aeabi_fsub+0x9a>
    7fb8:	3304      	adds	r3, #4
    7fba:	015a      	lsls	r2, r3, #5
    7fbc:	d527      	bpl.n	800e <__aeabi_fsub+0xee>
    7fbe:	3401      	adds	r4, #1
    7fc0:	2cff      	cmp	r4, #255	; 0xff
    7fc2:	d100      	bne.n	7fc6 <__aeabi_fsub+0xa6>
    7fc4:	e079      	b.n	80ba <__aeabi_fsub+0x19a>
    7fc6:	2201      	movs	r2, #1
    7fc8:	019b      	lsls	r3, r3, #6
    7fca:	0a5b      	lsrs	r3, r3, #9
    7fcc:	b2e4      	uxtb	r4, r4
    7fce:	402a      	ands	r2, r5
    7fd0:	025b      	lsls	r3, r3, #9
    7fd2:	05e4      	lsls	r4, r4, #23
    7fd4:	0a58      	lsrs	r0, r3, #9
    7fd6:	07d2      	lsls	r2, r2, #31
    7fd8:	4320      	orrs	r0, r4
    7fda:	4310      	orrs	r0, r2
    7fdc:	bc1c      	pop	{r2, r3, r4}
    7fde:	4690      	mov	r8, r2
    7fe0:	4699      	mov	r9, r3
    7fe2:	46a2      	mov	sl, r4
    7fe4:	bdf0      	pop	{r4, r5, r6, r7, pc}
    7fe6:	2cff      	cmp	r4, #255	; 0xff
    7fe8:	d0e0      	beq.n	7fac <__aeabi_fsub+0x8c>
    7fea:	2180      	movs	r1, #128	; 0x80
    7fec:	04c9      	lsls	r1, r1, #19
    7fee:	430e      	orrs	r6, r1
    7ff0:	2a1b      	cmp	r2, #27
    7ff2:	dc7b      	bgt.n	80ec <__aeabi_fsub+0x1cc>
    7ff4:	0031      	movs	r1, r6
    7ff6:	2020      	movs	r0, #32
    7ff8:	40d1      	lsrs	r1, r2
    7ffa:	1a82      	subs	r2, r0, r2
    7ffc:	4096      	lsls	r6, r2
    7ffe:	1e72      	subs	r2, r6, #1
    8000:	4196      	sbcs	r6, r2
    8002:	430e      	orrs	r6, r1
    8004:	1b9b      	subs	r3, r3, r6
    8006:	015a      	lsls	r2, r3, #5
    8008:	d4ba      	bmi.n	7f80 <__aeabi_fsub+0x60>
    800a:	075a      	lsls	r2, r3, #29
    800c:	d1d0      	bne.n	7fb0 <__aeabi_fsub+0x90>
    800e:	2201      	movs	r2, #1
    8010:	08df      	lsrs	r7, r3, #3
    8012:	402a      	ands	r2, r5
    8014:	2cff      	cmp	r4, #255	; 0xff
    8016:	d133      	bne.n	8080 <__aeabi_fsub+0x160>
    8018:	2f00      	cmp	r7, #0
    801a:	d100      	bne.n	801e <__aeabi_fsub+0xfe>
    801c:	e0a8      	b.n	8170 <__aeabi_fsub+0x250>
    801e:	2380      	movs	r3, #128	; 0x80
    8020:	03db      	lsls	r3, r3, #15
    8022:	433b      	orrs	r3, r7
    8024:	025b      	lsls	r3, r3, #9
    8026:	0a5b      	lsrs	r3, r3, #9
    8028:	24ff      	movs	r4, #255	; 0xff
    802a:	e7d1      	b.n	7fd0 <__aeabi_fsub+0xb0>
    802c:	1a21      	subs	r1, r4, r0
    802e:	2900      	cmp	r1, #0
    8030:	dd4c      	ble.n	80cc <__aeabi_fsub+0x1ac>
    8032:	2800      	cmp	r0, #0
    8034:	d02a      	beq.n	808c <__aeabi_fsub+0x16c>
    8036:	2cff      	cmp	r4, #255	; 0xff
    8038:	d0b8      	beq.n	7fac <__aeabi_fsub+0x8c>
    803a:	2080      	movs	r0, #128	; 0x80
    803c:	04c0      	lsls	r0, r0, #19
    803e:	4306      	orrs	r6, r0
    8040:	291b      	cmp	r1, #27
    8042:	dd00      	ble.n	8046 <__aeabi_fsub+0x126>
    8044:	e0af      	b.n	81a6 <__aeabi_fsub+0x286>
    8046:	0030      	movs	r0, r6
    8048:	2720      	movs	r7, #32
    804a:	40c8      	lsrs	r0, r1
    804c:	1a79      	subs	r1, r7, r1
    804e:	408e      	lsls	r6, r1
    8050:	1e71      	subs	r1, r6, #1
    8052:	418e      	sbcs	r6, r1
    8054:	4306      	orrs	r6, r0
    8056:	199b      	adds	r3, r3, r6
    8058:	0159      	lsls	r1, r3, #5
    805a:	d5d6      	bpl.n	800a <__aeabi_fsub+0xea>
    805c:	3401      	adds	r4, #1
    805e:	2cff      	cmp	r4, #255	; 0xff
    8060:	d100      	bne.n	8064 <__aeabi_fsub+0x144>
    8062:	e085      	b.n	8170 <__aeabi_fsub+0x250>
    8064:	2201      	movs	r2, #1
    8066:	497a      	ldr	r1, [pc, #488]	; (8250 <__aeabi_fsub+0x330>)
    8068:	401a      	ands	r2, r3
    806a:	085b      	lsrs	r3, r3, #1
    806c:	400b      	ands	r3, r1
    806e:	4313      	orrs	r3, r2
    8070:	e79c      	b.n	7fac <__aeabi_fsub+0x8c>
    8072:	2e00      	cmp	r6, #0
    8074:	d000      	beq.n	8078 <__aeabi_fsub+0x158>
    8076:	e770      	b.n	7f5a <__aeabi_fsub+0x3a>
    8078:	e76b      	b.n	7f52 <__aeabi_fsub+0x32>
    807a:	1e3b      	subs	r3, r7, #0
    807c:	d1c5      	bne.n	800a <__aeabi_fsub+0xea>
    807e:	2200      	movs	r2, #0
    8080:	027b      	lsls	r3, r7, #9
    8082:	0a5b      	lsrs	r3, r3, #9
    8084:	b2e4      	uxtb	r4, r4
    8086:	e7a3      	b.n	7fd0 <__aeabi_fsub+0xb0>
    8088:	0014      	movs	r4, r2
    808a:	e78f      	b.n	7fac <__aeabi_fsub+0x8c>
    808c:	2e00      	cmp	r6, #0
    808e:	d04d      	beq.n	812c <__aeabi_fsub+0x20c>
    8090:	1e48      	subs	r0, r1, #1
    8092:	2800      	cmp	r0, #0
    8094:	d157      	bne.n	8146 <__aeabi_fsub+0x226>
    8096:	199b      	adds	r3, r3, r6
    8098:	2401      	movs	r4, #1
    809a:	015a      	lsls	r2, r3, #5
    809c:	d5b5      	bpl.n	800a <__aeabi_fsub+0xea>
    809e:	2402      	movs	r4, #2
    80a0:	e7e0      	b.n	8064 <__aeabi_fsub+0x144>
    80a2:	2a00      	cmp	r2, #0
    80a4:	d125      	bne.n	80f2 <__aeabi_fsub+0x1d2>
    80a6:	1c62      	adds	r2, r4, #1
    80a8:	b2d2      	uxtb	r2, r2
    80aa:	2a01      	cmp	r2, #1
    80ac:	dd72      	ble.n	8194 <__aeabi_fsub+0x274>
    80ae:	1b9f      	subs	r7, r3, r6
    80b0:	017a      	lsls	r2, r7, #5
    80b2:	d535      	bpl.n	8120 <__aeabi_fsub+0x200>
    80b4:	1af7      	subs	r7, r6, r3
    80b6:	000d      	movs	r5, r1
    80b8:	e764      	b.n	7f84 <__aeabi_fsub+0x64>
    80ba:	2201      	movs	r2, #1
    80bc:	2300      	movs	r3, #0
    80be:	402a      	ands	r2, r5
    80c0:	e786      	b.n	7fd0 <__aeabi_fsub+0xb0>
    80c2:	003b      	movs	r3, r7
    80c4:	4a63      	ldr	r2, [pc, #396]	; (8254 <__aeabi_fsub+0x334>)
    80c6:	1a24      	subs	r4, r4, r0
    80c8:	4013      	ands	r3, r2
    80ca:	e76f      	b.n	7fac <__aeabi_fsub+0x8c>
    80cc:	2900      	cmp	r1, #0
    80ce:	d16c      	bne.n	81aa <__aeabi_fsub+0x28a>
    80d0:	1c61      	adds	r1, r4, #1
    80d2:	b2c8      	uxtb	r0, r1
    80d4:	2801      	cmp	r0, #1
    80d6:	dd4e      	ble.n	8176 <__aeabi_fsub+0x256>
    80d8:	29ff      	cmp	r1, #255	; 0xff
    80da:	d049      	beq.n	8170 <__aeabi_fsub+0x250>
    80dc:	199b      	adds	r3, r3, r6
    80de:	085b      	lsrs	r3, r3, #1
    80e0:	000c      	movs	r4, r1
    80e2:	e763      	b.n	7fac <__aeabi_fsub+0x8c>
    80e4:	2aff      	cmp	r2, #255	; 0xff
    80e6:	d041      	beq.n	816c <__aeabi_fsub+0x24c>
    80e8:	000a      	movs	r2, r1
    80ea:	e781      	b.n	7ff0 <__aeabi_fsub+0xd0>
    80ec:	2601      	movs	r6, #1
    80ee:	1b9b      	subs	r3, r3, r6
    80f0:	e789      	b.n	8006 <__aeabi_fsub+0xe6>
    80f2:	2c00      	cmp	r4, #0
    80f4:	d01c      	beq.n	8130 <__aeabi_fsub+0x210>
    80f6:	28ff      	cmp	r0, #255	; 0xff
    80f8:	d021      	beq.n	813e <__aeabi_fsub+0x21e>
    80fa:	2480      	movs	r4, #128	; 0x80
    80fc:	04e4      	lsls	r4, r4, #19
    80fe:	4252      	negs	r2, r2
    8100:	4323      	orrs	r3, r4
    8102:	2a1b      	cmp	r2, #27
    8104:	dd00      	ble.n	8108 <__aeabi_fsub+0x1e8>
    8106:	e096      	b.n	8236 <__aeabi_fsub+0x316>
    8108:	001c      	movs	r4, r3
    810a:	2520      	movs	r5, #32
    810c:	40d4      	lsrs	r4, r2
    810e:	1aaa      	subs	r2, r5, r2
    8110:	4093      	lsls	r3, r2
    8112:	1e5a      	subs	r2, r3, #1
    8114:	4193      	sbcs	r3, r2
    8116:	4323      	orrs	r3, r4
    8118:	1af3      	subs	r3, r6, r3
    811a:	0004      	movs	r4, r0
    811c:	000d      	movs	r5, r1
    811e:	e72d      	b.n	7f7c <__aeabi_fsub+0x5c>
    8120:	2f00      	cmp	r7, #0
    8122:	d000      	beq.n	8126 <__aeabi_fsub+0x206>
    8124:	e72e      	b.n	7f84 <__aeabi_fsub+0x64>
    8126:	2200      	movs	r2, #0
    8128:	2400      	movs	r4, #0
    812a:	e7a9      	b.n	8080 <__aeabi_fsub+0x160>
    812c:	000c      	movs	r4, r1
    812e:	e73d      	b.n	7fac <__aeabi_fsub+0x8c>
    8130:	2b00      	cmp	r3, #0
    8132:	d058      	beq.n	81e6 <__aeabi_fsub+0x2c6>
    8134:	43d2      	mvns	r2, r2
    8136:	2a00      	cmp	r2, #0
    8138:	d0ee      	beq.n	8118 <__aeabi_fsub+0x1f8>
    813a:	28ff      	cmp	r0, #255	; 0xff
    813c:	d1e1      	bne.n	8102 <__aeabi_fsub+0x1e2>
    813e:	0033      	movs	r3, r6
    8140:	24ff      	movs	r4, #255	; 0xff
    8142:	000d      	movs	r5, r1
    8144:	e732      	b.n	7fac <__aeabi_fsub+0x8c>
    8146:	29ff      	cmp	r1, #255	; 0xff
    8148:	d010      	beq.n	816c <__aeabi_fsub+0x24c>
    814a:	0001      	movs	r1, r0
    814c:	e778      	b.n	8040 <__aeabi_fsub+0x120>
    814e:	2b00      	cmp	r3, #0
    8150:	d06e      	beq.n	8230 <__aeabi_fsub+0x310>
    8152:	24ff      	movs	r4, #255	; 0xff
    8154:	2e00      	cmp	r6, #0
    8156:	d100      	bne.n	815a <__aeabi_fsub+0x23a>
    8158:	e728      	b.n	7fac <__aeabi_fsub+0x8c>
    815a:	2280      	movs	r2, #128	; 0x80
    815c:	4651      	mov	r1, sl
    815e:	03d2      	lsls	r2, r2, #15
    8160:	4211      	tst	r1, r2
    8162:	d003      	beq.n	816c <__aeabi_fsub+0x24c>
    8164:	4661      	mov	r1, ip
    8166:	4211      	tst	r1, r2
    8168:	d100      	bne.n	816c <__aeabi_fsub+0x24c>
    816a:	0033      	movs	r3, r6
    816c:	24ff      	movs	r4, #255	; 0xff
    816e:	e71d      	b.n	7fac <__aeabi_fsub+0x8c>
    8170:	24ff      	movs	r4, #255	; 0xff
    8172:	2300      	movs	r3, #0
    8174:	e72c      	b.n	7fd0 <__aeabi_fsub+0xb0>
    8176:	2c00      	cmp	r4, #0
    8178:	d1e9      	bne.n	814e <__aeabi_fsub+0x22e>
    817a:	2b00      	cmp	r3, #0
    817c:	d063      	beq.n	8246 <__aeabi_fsub+0x326>
    817e:	2e00      	cmp	r6, #0
    8180:	d100      	bne.n	8184 <__aeabi_fsub+0x264>
    8182:	e713      	b.n	7fac <__aeabi_fsub+0x8c>
    8184:	199b      	adds	r3, r3, r6
    8186:	015a      	lsls	r2, r3, #5
    8188:	d400      	bmi.n	818c <__aeabi_fsub+0x26c>
    818a:	e73e      	b.n	800a <__aeabi_fsub+0xea>
    818c:	4a31      	ldr	r2, [pc, #196]	; (8254 <__aeabi_fsub+0x334>)
    818e:	000c      	movs	r4, r1
    8190:	4013      	ands	r3, r2
    8192:	e70b      	b.n	7fac <__aeabi_fsub+0x8c>
    8194:	2c00      	cmp	r4, #0
    8196:	d11e      	bne.n	81d6 <__aeabi_fsub+0x2b6>
    8198:	2b00      	cmp	r3, #0
    819a:	d12f      	bne.n	81fc <__aeabi_fsub+0x2dc>
    819c:	2e00      	cmp	r6, #0
    819e:	d04f      	beq.n	8240 <__aeabi_fsub+0x320>
    81a0:	0033      	movs	r3, r6
    81a2:	000d      	movs	r5, r1
    81a4:	e702      	b.n	7fac <__aeabi_fsub+0x8c>
    81a6:	2601      	movs	r6, #1
    81a8:	e755      	b.n	8056 <__aeabi_fsub+0x136>
    81aa:	2c00      	cmp	r4, #0
    81ac:	d11f      	bne.n	81ee <__aeabi_fsub+0x2ce>
    81ae:	2b00      	cmp	r3, #0
    81b0:	d043      	beq.n	823a <__aeabi_fsub+0x31a>
    81b2:	43c9      	mvns	r1, r1
    81b4:	2900      	cmp	r1, #0
    81b6:	d00b      	beq.n	81d0 <__aeabi_fsub+0x2b0>
    81b8:	28ff      	cmp	r0, #255	; 0xff
    81ba:	d039      	beq.n	8230 <__aeabi_fsub+0x310>
    81bc:	291b      	cmp	r1, #27
    81be:	dc44      	bgt.n	824a <__aeabi_fsub+0x32a>
    81c0:	001c      	movs	r4, r3
    81c2:	2720      	movs	r7, #32
    81c4:	40cc      	lsrs	r4, r1
    81c6:	1a79      	subs	r1, r7, r1
    81c8:	408b      	lsls	r3, r1
    81ca:	1e59      	subs	r1, r3, #1
    81cc:	418b      	sbcs	r3, r1
    81ce:	4323      	orrs	r3, r4
    81d0:	199b      	adds	r3, r3, r6
    81d2:	0004      	movs	r4, r0
    81d4:	e740      	b.n	8058 <__aeabi_fsub+0x138>
    81d6:	2b00      	cmp	r3, #0
    81d8:	d11a      	bne.n	8210 <__aeabi_fsub+0x2f0>
    81da:	2e00      	cmp	r6, #0
    81dc:	d124      	bne.n	8228 <__aeabi_fsub+0x308>
    81de:	2780      	movs	r7, #128	; 0x80
    81e0:	2200      	movs	r2, #0
    81e2:	03ff      	lsls	r7, r7, #15
    81e4:	e71b      	b.n	801e <__aeabi_fsub+0xfe>
    81e6:	0033      	movs	r3, r6
    81e8:	0004      	movs	r4, r0
    81ea:	000d      	movs	r5, r1
    81ec:	e6de      	b.n	7fac <__aeabi_fsub+0x8c>
    81ee:	28ff      	cmp	r0, #255	; 0xff
    81f0:	d01e      	beq.n	8230 <__aeabi_fsub+0x310>
    81f2:	2480      	movs	r4, #128	; 0x80
    81f4:	04e4      	lsls	r4, r4, #19
    81f6:	4249      	negs	r1, r1
    81f8:	4323      	orrs	r3, r4
    81fa:	e7df      	b.n	81bc <__aeabi_fsub+0x29c>
    81fc:	2e00      	cmp	r6, #0
    81fe:	d100      	bne.n	8202 <__aeabi_fsub+0x2e2>
    8200:	e6d4      	b.n	7fac <__aeabi_fsub+0x8c>
    8202:	1b9f      	subs	r7, r3, r6
    8204:	017a      	lsls	r2, r7, #5
    8206:	d400      	bmi.n	820a <__aeabi_fsub+0x2ea>
    8208:	e737      	b.n	807a <__aeabi_fsub+0x15a>
    820a:	1af3      	subs	r3, r6, r3
    820c:	000d      	movs	r5, r1
    820e:	e6cd      	b.n	7fac <__aeabi_fsub+0x8c>
    8210:	24ff      	movs	r4, #255	; 0xff
    8212:	2e00      	cmp	r6, #0
    8214:	d100      	bne.n	8218 <__aeabi_fsub+0x2f8>
    8216:	e6c9      	b.n	7fac <__aeabi_fsub+0x8c>
    8218:	2280      	movs	r2, #128	; 0x80
    821a:	4650      	mov	r0, sl
    821c:	03d2      	lsls	r2, r2, #15
    821e:	4210      	tst	r0, r2
    8220:	d0a4      	beq.n	816c <__aeabi_fsub+0x24c>
    8222:	4660      	mov	r0, ip
    8224:	4210      	tst	r0, r2
    8226:	d1a1      	bne.n	816c <__aeabi_fsub+0x24c>
    8228:	0033      	movs	r3, r6
    822a:	000d      	movs	r5, r1
    822c:	24ff      	movs	r4, #255	; 0xff
    822e:	e6bd      	b.n	7fac <__aeabi_fsub+0x8c>
    8230:	0033      	movs	r3, r6
    8232:	24ff      	movs	r4, #255	; 0xff
    8234:	e6ba      	b.n	7fac <__aeabi_fsub+0x8c>
    8236:	2301      	movs	r3, #1
    8238:	e76e      	b.n	8118 <__aeabi_fsub+0x1f8>
    823a:	0033      	movs	r3, r6
    823c:	0004      	movs	r4, r0
    823e:	e6b5      	b.n	7fac <__aeabi_fsub+0x8c>
    8240:	2700      	movs	r7, #0
    8242:	2200      	movs	r2, #0
    8244:	e71c      	b.n	8080 <__aeabi_fsub+0x160>
    8246:	0033      	movs	r3, r6
    8248:	e6b0      	b.n	7fac <__aeabi_fsub+0x8c>
    824a:	2301      	movs	r3, #1
    824c:	e7c0      	b.n	81d0 <__aeabi_fsub+0x2b0>
    824e:	46c0      	nop			; (mov r8, r8)
    8250:	7dffffff 	.word	0x7dffffff
    8254:	fbffffff 	.word	0xfbffffff

00008258 <__aeabi_fcmpun>:
    8258:	0242      	lsls	r2, r0, #9
    825a:	024b      	lsls	r3, r1, #9
    825c:	0040      	lsls	r0, r0, #1
    825e:	0049      	lsls	r1, r1, #1
    8260:	0a52      	lsrs	r2, r2, #9
    8262:	0e00      	lsrs	r0, r0, #24
    8264:	0a5b      	lsrs	r3, r3, #9
    8266:	0e09      	lsrs	r1, r1, #24
    8268:	28ff      	cmp	r0, #255	; 0xff
    826a:	d003      	beq.n	8274 <__aeabi_fcmpun+0x1c>
    826c:	2000      	movs	r0, #0
    826e:	29ff      	cmp	r1, #255	; 0xff
    8270:	d006      	beq.n	8280 <__aeabi_fcmpun+0x28>
    8272:	4770      	bx	lr
    8274:	38fe      	subs	r0, #254	; 0xfe
    8276:	2a00      	cmp	r2, #0
    8278:	d1fb      	bne.n	8272 <__aeabi_fcmpun+0x1a>
    827a:	2000      	movs	r0, #0
    827c:	29ff      	cmp	r1, #255	; 0xff
    827e:	d1f8      	bne.n	8272 <__aeabi_fcmpun+0x1a>
    8280:	0018      	movs	r0, r3
    8282:	1e43      	subs	r3, r0, #1
    8284:	4198      	sbcs	r0, r3
    8286:	e7f4      	b.n	8272 <__aeabi_fcmpun+0x1a>

00008288 <__aeabi_f2iz>:
    8288:	0241      	lsls	r1, r0, #9
    828a:	0043      	lsls	r3, r0, #1
    828c:	0fc2      	lsrs	r2, r0, #31
    828e:	0a49      	lsrs	r1, r1, #9
    8290:	0e1b      	lsrs	r3, r3, #24
    8292:	2000      	movs	r0, #0
    8294:	2b7e      	cmp	r3, #126	; 0x7e
    8296:	dd0d      	ble.n	82b4 <__aeabi_f2iz+0x2c>
    8298:	2b9d      	cmp	r3, #157	; 0x9d
    829a:	dc0c      	bgt.n	82b6 <__aeabi_f2iz+0x2e>
    829c:	2080      	movs	r0, #128	; 0x80
    829e:	0400      	lsls	r0, r0, #16
    82a0:	4301      	orrs	r1, r0
    82a2:	2b95      	cmp	r3, #149	; 0x95
    82a4:	dc0a      	bgt.n	82bc <__aeabi_f2iz+0x34>
    82a6:	2096      	movs	r0, #150	; 0x96
    82a8:	1ac3      	subs	r3, r0, r3
    82aa:	40d9      	lsrs	r1, r3
    82ac:	4248      	negs	r0, r1
    82ae:	2a00      	cmp	r2, #0
    82b0:	d100      	bne.n	82b4 <__aeabi_f2iz+0x2c>
    82b2:	0008      	movs	r0, r1
    82b4:	4770      	bx	lr
    82b6:	4b03      	ldr	r3, [pc, #12]	; (82c4 <__aeabi_f2iz+0x3c>)
    82b8:	18d0      	adds	r0, r2, r3
    82ba:	e7fb      	b.n	82b4 <__aeabi_f2iz+0x2c>
    82bc:	3b96      	subs	r3, #150	; 0x96
    82be:	4099      	lsls	r1, r3
    82c0:	e7f4      	b.n	82ac <__aeabi_f2iz+0x24>
    82c2:	46c0      	nop			; (mov r8, r8)
    82c4:	7fffffff 	.word	0x7fffffff

000082c8 <__aeabi_i2f>:
    82c8:	b570      	push	{r4, r5, r6, lr}
    82ca:	2800      	cmp	r0, #0
    82cc:	d030      	beq.n	8330 <__aeabi_i2f+0x68>
    82ce:	17c3      	asrs	r3, r0, #31
    82d0:	18c4      	adds	r4, r0, r3
    82d2:	405c      	eors	r4, r3
    82d4:	0fc5      	lsrs	r5, r0, #31
    82d6:	0020      	movs	r0, r4
    82d8:	f000 f968 	bl	85ac <__clzsi2>
    82dc:	239e      	movs	r3, #158	; 0x9e
    82de:	1a1b      	subs	r3, r3, r0
    82e0:	2b96      	cmp	r3, #150	; 0x96
    82e2:	dc0d      	bgt.n	8300 <__aeabi_i2f+0x38>
    82e4:	2296      	movs	r2, #150	; 0x96
    82e6:	1ad2      	subs	r2, r2, r3
    82e8:	4094      	lsls	r4, r2
    82ea:	002a      	movs	r2, r5
    82ec:	0264      	lsls	r4, r4, #9
    82ee:	0a64      	lsrs	r4, r4, #9
    82f0:	b2db      	uxtb	r3, r3
    82f2:	0264      	lsls	r4, r4, #9
    82f4:	05db      	lsls	r3, r3, #23
    82f6:	0a60      	lsrs	r0, r4, #9
    82f8:	07d2      	lsls	r2, r2, #31
    82fa:	4318      	orrs	r0, r3
    82fc:	4310      	orrs	r0, r2
    82fe:	bd70      	pop	{r4, r5, r6, pc}
    8300:	2b99      	cmp	r3, #153	; 0x99
    8302:	dc19      	bgt.n	8338 <__aeabi_i2f+0x70>
    8304:	2299      	movs	r2, #153	; 0x99
    8306:	1ad2      	subs	r2, r2, r3
    8308:	2a00      	cmp	r2, #0
    830a:	dd29      	ble.n	8360 <__aeabi_i2f+0x98>
    830c:	4094      	lsls	r4, r2
    830e:	0022      	movs	r2, r4
    8310:	4c14      	ldr	r4, [pc, #80]	; (8364 <__aeabi_i2f+0x9c>)
    8312:	4014      	ands	r4, r2
    8314:	0751      	lsls	r1, r2, #29
    8316:	d004      	beq.n	8322 <__aeabi_i2f+0x5a>
    8318:	210f      	movs	r1, #15
    831a:	400a      	ands	r2, r1
    831c:	2a04      	cmp	r2, #4
    831e:	d000      	beq.n	8322 <__aeabi_i2f+0x5a>
    8320:	3404      	adds	r4, #4
    8322:	0162      	lsls	r2, r4, #5
    8324:	d413      	bmi.n	834e <__aeabi_i2f+0x86>
    8326:	01a4      	lsls	r4, r4, #6
    8328:	0a64      	lsrs	r4, r4, #9
    832a:	b2db      	uxtb	r3, r3
    832c:	002a      	movs	r2, r5
    832e:	e7e0      	b.n	82f2 <__aeabi_i2f+0x2a>
    8330:	2200      	movs	r2, #0
    8332:	2300      	movs	r3, #0
    8334:	2400      	movs	r4, #0
    8336:	e7dc      	b.n	82f2 <__aeabi_i2f+0x2a>
    8338:	2205      	movs	r2, #5
    833a:	0021      	movs	r1, r4
    833c:	1a12      	subs	r2, r2, r0
    833e:	40d1      	lsrs	r1, r2
    8340:	22b9      	movs	r2, #185	; 0xb9
    8342:	1ad2      	subs	r2, r2, r3
    8344:	4094      	lsls	r4, r2
    8346:	1e62      	subs	r2, r4, #1
    8348:	4194      	sbcs	r4, r2
    834a:	430c      	orrs	r4, r1
    834c:	e7da      	b.n	8304 <__aeabi_i2f+0x3c>
    834e:	4b05      	ldr	r3, [pc, #20]	; (8364 <__aeabi_i2f+0x9c>)
    8350:	002a      	movs	r2, r5
    8352:	401c      	ands	r4, r3
    8354:	239f      	movs	r3, #159	; 0x9f
    8356:	01a4      	lsls	r4, r4, #6
    8358:	1a1b      	subs	r3, r3, r0
    835a:	0a64      	lsrs	r4, r4, #9
    835c:	b2db      	uxtb	r3, r3
    835e:	e7c8      	b.n	82f2 <__aeabi_i2f+0x2a>
    8360:	0022      	movs	r2, r4
    8362:	e7d5      	b.n	8310 <__aeabi_i2f+0x48>
    8364:	fbffffff 	.word	0xfbffffff

00008368 <__aeabi_ui2f>:
    8368:	b510      	push	{r4, lr}
    836a:	1e04      	subs	r4, r0, #0
    836c:	d027      	beq.n	83be <__aeabi_ui2f+0x56>
    836e:	f000 f91d 	bl	85ac <__clzsi2>
    8372:	239e      	movs	r3, #158	; 0x9e
    8374:	1a1b      	subs	r3, r3, r0
    8376:	2b96      	cmp	r3, #150	; 0x96
    8378:	dc0a      	bgt.n	8390 <__aeabi_ui2f+0x28>
    837a:	2296      	movs	r2, #150	; 0x96
    837c:	1ad2      	subs	r2, r2, r3
    837e:	4094      	lsls	r4, r2
    8380:	0264      	lsls	r4, r4, #9
    8382:	0a64      	lsrs	r4, r4, #9
    8384:	b2db      	uxtb	r3, r3
    8386:	0264      	lsls	r4, r4, #9
    8388:	05db      	lsls	r3, r3, #23
    838a:	0a60      	lsrs	r0, r4, #9
    838c:	4318      	orrs	r0, r3
    838e:	bd10      	pop	{r4, pc}
    8390:	2b99      	cmp	r3, #153	; 0x99
    8392:	dc17      	bgt.n	83c4 <__aeabi_ui2f+0x5c>
    8394:	2299      	movs	r2, #153	; 0x99
    8396:	1ad2      	subs	r2, r2, r3
    8398:	2a00      	cmp	r2, #0
    839a:	dd27      	ble.n	83ec <__aeabi_ui2f+0x84>
    839c:	4094      	lsls	r4, r2
    839e:	0022      	movs	r2, r4
    83a0:	4c13      	ldr	r4, [pc, #76]	; (83f0 <__aeabi_ui2f+0x88>)
    83a2:	4014      	ands	r4, r2
    83a4:	0751      	lsls	r1, r2, #29
    83a6:	d004      	beq.n	83b2 <__aeabi_ui2f+0x4a>
    83a8:	210f      	movs	r1, #15
    83aa:	400a      	ands	r2, r1
    83ac:	2a04      	cmp	r2, #4
    83ae:	d000      	beq.n	83b2 <__aeabi_ui2f+0x4a>
    83b0:	3404      	adds	r4, #4
    83b2:	0162      	lsls	r2, r4, #5
    83b4:	d412      	bmi.n	83dc <__aeabi_ui2f+0x74>
    83b6:	01a4      	lsls	r4, r4, #6
    83b8:	0a64      	lsrs	r4, r4, #9
    83ba:	b2db      	uxtb	r3, r3
    83bc:	e7e3      	b.n	8386 <__aeabi_ui2f+0x1e>
    83be:	2300      	movs	r3, #0
    83c0:	2400      	movs	r4, #0
    83c2:	e7e0      	b.n	8386 <__aeabi_ui2f+0x1e>
    83c4:	22b9      	movs	r2, #185	; 0xb9
    83c6:	0021      	movs	r1, r4
    83c8:	1ad2      	subs	r2, r2, r3
    83ca:	4091      	lsls	r1, r2
    83cc:	000a      	movs	r2, r1
    83ce:	1e51      	subs	r1, r2, #1
    83d0:	418a      	sbcs	r2, r1
    83d2:	2105      	movs	r1, #5
    83d4:	1a09      	subs	r1, r1, r0
    83d6:	40cc      	lsrs	r4, r1
    83d8:	4314      	orrs	r4, r2
    83da:	e7db      	b.n	8394 <__aeabi_ui2f+0x2c>
    83dc:	4b04      	ldr	r3, [pc, #16]	; (83f0 <__aeabi_ui2f+0x88>)
    83de:	401c      	ands	r4, r3
    83e0:	239f      	movs	r3, #159	; 0x9f
    83e2:	01a4      	lsls	r4, r4, #6
    83e4:	1a1b      	subs	r3, r3, r0
    83e6:	0a64      	lsrs	r4, r4, #9
    83e8:	b2db      	uxtb	r3, r3
    83ea:	e7cc      	b.n	8386 <__aeabi_ui2f+0x1e>
    83ec:	0022      	movs	r2, r4
    83ee:	e7d7      	b.n	83a0 <__aeabi_ui2f+0x38>
    83f0:	fbffffff 	.word	0xfbffffff

000083f4 <__aeabi_f2d>:
    83f4:	0041      	lsls	r1, r0, #1
    83f6:	0e09      	lsrs	r1, r1, #24
    83f8:	1c4b      	adds	r3, r1, #1
    83fa:	b570      	push	{r4, r5, r6, lr}
    83fc:	b2db      	uxtb	r3, r3
    83fe:	0246      	lsls	r6, r0, #9
    8400:	0a75      	lsrs	r5, r6, #9
    8402:	0fc4      	lsrs	r4, r0, #31
    8404:	2b01      	cmp	r3, #1
    8406:	dd14      	ble.n	8432 <__aeabi_f2d+0x3e>
    8408:	23e0      	movs	r3, #224	; 0xe0
    840a:	009b      	lsls	r3, r3, #2
    840c:	076d      	lsls	r5, r5, #29
    840e:	0b36      	lsrs	r6, r6, #12
    8410:	18cb      	adds	r3, r1, r3
    8412:	2100      	movs	r1, #0
    8414:	0d0a      	lsrs	r2, r1, #20
    8416:	0028      	movs	r0, r5
    8418:	0512      	lsls	r2, r2, #20
    841a:	4d1c      	ldr	r5, [pc, #112]	; (848c <__aeabi_f2d+0x98>)
    841c:	4332      	orrs	r2, r6
    841e:	055b      	lsls	r3, r3, #21
    8420:	402a      	ands	r2, r5
    8422:	085b      	lsrs	r3, r3, #1
    8424:	4313      	orrs	r3, r2
    8426:	005b      	lsls	r3, r3, #1
    8428:	07e4      	lsls	r4, r4, #31
    842a:	085b      	lsrs	r3, r3, #1
    842c:	4323      	orrs	r3, r4
    842e:	0019      	movs	r1, r3
    8430:	bd70      	pop	{r4, r5, r6, pc}
    8432:	2900      	cmp	r1, #0
    8434:	d114      	bne.n	8460 <__aeabi_f2d+0x6c>
    8436:	2d00      	cmp	r5, #0
    8438:	d01e      	beq.n	8478 <__aeabi_f2d+0x84>
    843a:	0028      	movs	r0, r5
    843c:	f000 f8b6 	bl	85ac <__clzsi2>
    8440:	280a      	cmp	r0, #10
    8442:	dc1c      	bgt.n	847e <__aeabi_f2d+0x8a>
    8444:	230b      	movs	r3, #11
    8446:	002a      	movs	r2, r5
    8448:	1a1b      	subs	r3, r3, r0
    844a:	40da      	lsrs	r2, r3
    844c:	0003      	movs	r3, r0
    844e:	3315      	adds	r3, #21
    8450:	409d      	lsls	r5, r3
    8452:	4b0f      	ldr	r3, [pc, #60]	; (8490 <__aeabi_f2d+0x9c>)
    8454:	0312      	lsls	r2, r2, #12
    8456:	1a1b      	subs	r3, r3, r0
    8458:	055b      	lsls	r3, r3, #21
    845a:	0b16      	lsrs	r6, r2, #12
    845c:	0d5b      	lsrs	r3, r3, #21
    845e:	e7d8      	b.n	8412 <__aeabi_f2d+0x1e>
    8460:	2d00      	cmp	r5, #0
    8462:	d006      	beq.n	8472 <__aeabi_f2d+0x7e>
    8464:	0b32      	lsrs	r2, r6, #12
    8466:	2680      	movs	r6, #128	; 0x80
    8468:	0336      	lsls	r6, r6, #12
    846a:	076d      	lsls	r5, r5, #29
    846c:	4316      	orrs	r6, r2
    846e:	4b09      	ldr	r3, [pc, #36]	; (8494 <__aeabi_f2d+0xa0>)
    8470:	e7cf      	b.n	8412 <__aeabi_f2d+0x1e>
    8472:	4b08      	ldr	r3, [pc, #32]	; (8494 <__aeabi_f2d+0xa0>)
    8474:	2600      	movs	r6, #0
    8476:	e7cc      	b.n	8412 <__aeabi_f2d+0x1e>
    8478:	2300      	movs	r3, #0
    847a:	2600      	movs	r6, #0
    847c:	e7c9      	b.n	8412 <__aeabi_f2d+0x1e>
    847e:	0003      	movs	r3, r0
    8480:	002a      	movs	r2, r5
    8482:	3b0b      	subs	r3, #11
    8484:	409a      	lsls	r2, r3
    8486:	2500      	movs	r5, #0
    8488:	e7e3      	b.n	8452 <__aeabi_f2d+0x5e>
    848a:	46c0      	nop			; (mov r8, r8)
    848c:	800fffff 	.word	0x800fffff
    8490:	00000389 	.word	0x00000389
    8494:	000007ff 	.word	0x000007ff

00008498 <__aeabi_d2f>:
    8498:	b5f0      	push	{r4, r5, r6, r7, lr}
    849a:	004c      	lsls	r4, r1, #1
    849c:	0d64      	lsrs	r4, r4, #21
    849e:	030b      	lsls	r3, r1, #12
    84a0:	1c62      	adds	r2, r4, #1
    84a2:	0f45      	lsrs	r5, r0, #29
    84a4:	0a5b      	lsrs	r3, r3, #9
    84a6:	0552      	lsls	r2, r2, #21
    84a8:	432b      	orrs	r3, r5
    84aa:	0fc9      	lsrs	r1, r1, #31
    84ac:	00c5      	lsls	r5, r0, #3
    84ae:	0d52      	lsrs	r2, r2, #21
    84b0:	2a01      	cmp	r2, #1
    84b2:	dd28      	ble.n	8506 <__aeabi_d2f+0x6e>
    84b4:	4a3a      	ldr	r2, [pc, #232]	; (85a0 <__aeabi_d2f+0x108>)
    84b6:	18a6      	adds	r6, r4, r2
    84b8:	2efe      	cmp	r6, #254	; 0xfe
    84ba:	dc1b      	bgt.n	84f4 <__aeabi_d2f+0x5c>
    84bc:	2e00      	cmp	r6, #0
    84be:	dd3e      	ble.n	853e <__aeabi_d2f+0xa6>
    84c0:	0180      	lsls	r0, r0, #6
    84c2:	0002      	movs	r2, r0
    84c4:	1e50      	subs	r0, r2, #1
    84c6:	4182      	sbcs	r2, r0
    84c8:	0f6d      	lsrs	r5, r5, #29
    84ca:	432a      	orrs	r2, r5
    84cc:	00db      	lsls	r3, r3, #3
    84ce:	4313      	orrs	r3, r2
    84d0:	075a      	lsls	r2, r3, #29
    84d2:	d004      	beq.n	84de <__aeabi_d2f+0x46>
    84d4:	220f      	movs	r2, #15
    84d6:	401a      	ands	r2, r3
    84d8:	2a04      	cmp	r2, #4
    84da:	d000      	beq.n	84de <__aeabi_d2f+0x46>
    84dc:	3304      	adds	r3, #4
    84de:	2280      	movs	r2, #128	; 0x80
    84e0:	04d2      	lsls	r2, r2, #19
    84e2:	401a      	ands	r2, r3
    84e4:	d05a      	beq.n	859c <__aeabi_d2f+0x104>
    84e6:	3601      	adds	r6, #1
    84e8:	2eff      	cmp	r6, #255	; 0xff
    84ea:	d003      	beq.n	84f4 <__aeabi_d2f+0x5c>
    84ec:	019b      	lsls	r3, r3, #6
    84ee:	0a5b      	lsrs	r3, r3, #9
    84f0:	b2f4      	uxtb	r4, r6
    84f2:	e001      	b.n	84f8 <__aeabi_d2f+0x60>
    84f4:	24ff      	movs	r4, #255	; 0xff
    84f6:	2300      	movs	r3, #0
    84f8:	0258      	lsls	r0, r3, #9
    84fa:	05e4      	lsls	r4, r4, #23
    84fc:	0a40      	lsrs	r0, r0, #9
    84fe:	07c9      	lsls	r1, r1, #31
    8500:	4320      	orrs	r0, r4
    8502:	4308      	orrs	r0, r1
    8504:	bdf0      	pop	{r4, r5, r6, r7, pc}
    8506:	2c00      	cmp	r4, #0
    8508:	d007      	beq.n	851a <__aeabi_d2f+0x82>
    850a:	431d      	orrs	r5, r3
    850c:	d0f2      	beq.n	84f4 <__aeabi_d2f+0x5c>
    850e:	2080      	movs	r0, #128	; 0x80
    8510:	00db      	lsls	r3, r3, #3
    8512:	0480      	lsls	r0, r0, #18
    8514:	4303      	orrs	r3, r0
    8516:	26ff      	movs	r6, #255	; 0xff
    8518:	e7da      	b.n	84d0 <__aeabi_d2f+0x38>
    851a:	432b      	orrs	r3, r5
    851c:	d003      	beq.n	8526 <__aeabi_d2f+0x8e>
    851e:	2305      	movs	r3, #5
    8520:	08db      	lsrs	r3, r3, #3
    8522:	2cff      	cmp	r4, #255	; 0xff
    8524:	d003      	beq.n	852e <__aeabi_d2f+0x96>
    8526:	025b      	lsls	r3, r3, #9
    8528:	0a5b      	lsrs	r3, r3, #9
    852a:	b2e4      	uxtb	r4, r4
    852c:	e7e4      	b.n	84f8 <__aeabi_d2f+0x60>
    852e:	2b00      	cmp	r3, #0
    8530:	d032      	beq.n	8598 <__aeabi_d2f+0x100>
    8532:	2080      	movs	r0, #128	; 0x80
    8534:	03c0      	lsls	r0, r0, #15
    8536:	4303      	orrs	r3, r0
    8538:	025b      	lsls	r3, r3, #9
    853a:	0a5b      	lsrs	r3, r3, #9
    853c:	e7dc      	b.n	84f8 <__aeabi_d2f+0x60>
    853e:	0032      	movs	r2, r6
    8540:	3217      	adds	r2, #23
    8542:	db14      	blt.n	856e <__aeabi_d2f+0xd6>
    8544:	2280      	movs	r2, #128	; 0x80
    8546:	271e      	movs	r7, #30
    8548:	0412      	lsls	r2, r2, #16
    854a:	4313      	orrs	r3, r2
    854c:	1bbf      	subs	r7, r7, r6
    854e:	2f1f      	cmp	r7, #31
    8550:	dc0f      	bgt.n	8572 <__aeabi_d2f+0xda>
    8552:	4a14      	ldr	r2, [pc, #80]	; (85a4 <__aeabi_d2f+0x10c>)
    8554:	4694      	mov	ip, r2
    8556:	4464      	add	r4, ip
    8558:	002a      	movs	r2, r5
    855a:	40a5      	lsls	r5, r4
    855c:	002e      	movs	r6, r5
    855e:	40a3      	lsls	r3, r4
    8560:	1e75      	subs	r5, r6, #1
    8562:	41ae      	sbcs	r6, r5
    8564:	40fa      	lsrs	r2, r7
    8566:	4333      	orrs	r3, r6
    8568:	4313      	orrs	r3, r2
    856a:	2600      	movs	r6, #0
    856c:	e7b0      	b.n	84d0 <__aeabi_d2f+0x38>
    856e:	2400      	movs	r4, #0
    8570:	e7d5      	b.n	851e <__aeabi_d2f+0x86>
    8572:	2202      	movs	r2, #2
    8574:	4252      	negs	r2, r2
    8576:	1b96      	subs	r6, r2, r6
    8578:	001a      	movs	r2, r3
    857a:	40f2      	lsrs	r2, r6
    857c:	2f20      	cmp	r7, #32
    857e:	d009      	beq.n	8594 <__aeabi_d2f+0xfc>
    8580:	4809      	ldr	r0, [pc, #36]	; (85a8 <__aeabi_d2f+0x110>)
    8582:	4684      	mov	ip, r0
    8584:	4464      	add	r4, ip
    8586:	40a3      	lsls	r3, r4
    8588:	432b      	orrs	r3, r5
    858a:	1e5d      	subs	r5, r3, #1
    858c:	41ab      	sbcs	r3, r5
    858e:	2600      	movs	r6, #0
    8590:	4313      	orrs	r3, r2
    8592:	e79d      	b.n	84d0 <__aeabi_d2f+0x38>
    8594:	2300      	movs	r3, #0
    8596:	e7f7      	b.n	8588 <__aeabi_d2f+0xf0>
    8598:	2300      	movs	r3, #0
    859a:	e7ad      	b.n	84f8 <__aeabi_d2f+0x60>
    859c:	0034      	movs	r4, r6
    859e:	e7bf      	b.n	8520 <__aeabi_d2f+0x88>
    85a0:	fffffc80 	.word	0xfffffc80
    85a4:	fffffc82 	.word	0xfffffc82
    85a8:	fffffca2 	.word	0xfffffca2

000085ac <__clzsi2>:
    85ac:	211c      	movs	r1, #28
    85ae:	2301      	movs	r3, #1
    85b0:	041b      	lsls	r3, r3, #16
    85b2:	4298      	cmp	r0, r3
    85b4:	d301      	bcc.n	85ba <__clzsi2+0xe>
    85b6:	0c00      	lsrs	r0, r0, #16
    85b8:	3910      	subs	r1, #16
    85ba:	0a1b      	lsrs	r3, r3, #8
    85bc:	4298      	cmp	r0, r3
    85be:	d301      	bcc.n	85c4 <__clzsi2+0x18>
    85c0:	0a00      	lsrs	r0, r0, #8
    85c2:	3908      	subs	r1, #8
    85c4:	091b      	lsrs	r3, r3, #4
    85c6:	4298      	cmp	r0, r3
    85c8:	d301      	bcc.n	85ce <__clzsi2+0x22>
    85ca:	0900      	lsrs	r0, r0, #4
    85cc:	3904      	subs	r1, #4
    85ce:	a202      	add	r2, pc, #8	; (adr r2, 85d8 <__clzsi2+0x2c>)
    85d0:	5c10      	ldrb	r0, [r2, r0]
    85d2:	1840      	adds	r0, r0, r1
    85d4:	4770      	bx	lr
    85d6:	46c0      	nop			; (mov r8, r8)
    85d8:	02020304 	.word	0x02020304
    85dc:	01010101 	.word	0x01010101
	...

000085e8 <__errno>:
    85e8:	4b01      	ldr	r3, [pc, #4]	; (85f0 <__errno+0x8>)
    85ea:	6818      	ldr	r0, [r3, #0]
    85ec:	4770      	bx	lr
    85ee:	46c0      	nop			; (mov r8, r8)
    85f0:	200001cc 	.word	0x200001cc

000085f4 <__libc_init_array>:
    85f4:	b570      	push	{r4, r5, r6, lr}
    85f6:	2600      	movs	r6, #0
    85f8:	4d0c      	ldr	r5, [pc, #48]	; (862c <__libc_init_array+0x38>)
    85fa:	4c0d      	ldr	r4, [pc, #52]	; (8630 <__libc_init_array+0x3c>)
    85fc:	1b64      	subs	r4, r4, r5
    85fe:	10a4      	asrs	r4, r4, #2
    8600:	42a6      	cmp	r6, r4
    8602:	d109      	bne.n	8618 <__libc_init_array+0x24>
    8604:	2600      	movs	r6, #0
    8606:	f000 fc13 	bl	8e30 <_init>
    860a:	4d0a      	ldr	r5, [pc, #40]	; (8634 <__libc_init_array+0x40>)
    860c:	4c0a      	ldr	r4, [pc, #40]	; (8638 <__libc_init_array+0x44>)
    860e:	1b64      	subs	r4, r4, r5
    8610:	10a4      	asrs	r4, r4, #2
    8612:	42a6      	cmp	r6, r4
    8614:	d105      	bne.n	8622 <__libc_init_array+0x2e>
    8616:	bd70      	pop	{r4, r5, r6, pc}
    8618:	00b3      	lsls	r3, r6, #2
    861a:	58eb      	ldr	r3, [r5, r3]
    861c:	4798      	blx	r3
    861e:	3601      	adds	r6, #1
    8620:	e7ee      	b.n	8600 <__libc_init_array+0xc>
    8622:	00b3      	lsls	r3, r6, #2
    8624:	58eb      	ldr	r3, [r5, r3]
    8626:	4798      	blx	r3
    8628:	3601      	adds	r6, #1
    862a:	e7f2      	b.n	8612 <__libc_init_array+0x1e>
    862c:	00008e3c 	.word	0x00008e3c
    8630:	00008e3c 	.word	0x00008e3c
    8634:	00008e3c 	.word	0x00008e3c
    8638:	00008e40 	.word	0x00008e40

0000863c <memcpy>:
    863c:	2300      	movs	r3, #0
    863e:	b510      	push	{r4, lr}
    8640:	429a      	cmp	r2, r3
    8642:	d100      	bne.n	8646 <memcpy+0xa>
    8644:	bd10      	pop	{r4, pc}
    8646:	5ccc      	ldrb	r4, [r1, r3]
    8648:	54c4      	strb	r4, [r0, r3]
    864a:	3301      	adds	r3, #1
    864c:	e7f8      	b.n	8640 <memcpy+0x4>
    864e:	0000      	movs	r0, r0
    8650:	00000214 	.word	0x00000214
    8654:	00000214 	.word	0x00000214
    8658:	000001f0 	.word	0x000001f0
    865c:	00000214 	.word	0x00000214
    8660:	000001f0 	.word	0x000001f0
    8664:	000001d6 	.word	0x000001d6
    8668:	000001d6 	.word	0x000001d6
    866c:	00000214 	.word	0x00000214
    8670:	00000214 	.word	0x00000214
    8674:	00000214 	.word	0x00000214
    8678:	00000214 	.word	0x00000214
    867c:	00000214 	.word	0x00000214
    8680:	00000214 	.word	0x00000214
    8684:	00000214 	.word	0x00000214
    8688:	00000214 	.word	0x00000214
    868c:	00000214 	.word	0x00000214
    8690:	00000214 	.word	0x00000214
    8694:	00000214 	.word	0x00000214
    8698:	00000214 	.word	0x00000214
    869c:	00000214 	.word	0x00000214
    86a0:	00000214 	.word	0x00000214
    86a4:	00000214 	.word	0x00000214
    86a8:	00000214 	.word	0x00000214
    86ac:	00000214 	.word	0x00000214
    86b0:	00000214 	.word	0x00000214
    86b4:	00000214 	.word	0x00000214
    86b8:	00000214 	.word	0x00000214
    86bc:	00000214 	.word	0x00000214
    86c0:	00000214 	.word	0x00000214
    86c4:	00000214 	.word	0x00000214
    86c8:	00000214 	.word	0x00000214
    86cc:	00000214 	.word	0x00000214
    86d0:	00000214 	.word	0x00000214
    86d4:	00000214 	.word	0x00000214
    86d8:	00000214 	.word	0x00000214
    86dc:	00000214 	.word	0x00000214
    86e0:	00000214 	.word	0x00000214
    86e4:	00000214 	.word	0x00000214
    86e8:	00000214 	.word	0x00000214
    86ec:	00000214 	.word	0x00000214
    86f0:	00000214 	.word	0x00000214
    86f4:	00000214 	.word	0x00000214
    86f8:	00000214 	.word	0x00000214
    86fc:	00000214 	.word	0x00000214
    8700:	00000214 	.word	0x00000214
    8704:	00000214 	.word	0x00000214
    8708:	00000214 	.word	0x00000214
    870c:	00000214 	.word	0x00000214
    8710:	00000214 	.word	0x00000214
    8714:	00000214 	.word	0x00000214
    8718:	00000214 	.word	0x00000214
    871c:	00000214 	.word	0x00000214
    8720:	00000214 	.word	0x00000214
    8724:	00000214 	.word	0x00000214
    8728:	00000214 	.word	0x00000214
    872c:	00000214 	.word	0x00000214
    8730:	00000214 	.word	0x00000214
    8734:	00000214 	.word	0x00000214
    8738:	00000214 	.word	0x00000214
    873c:	00000214 	.word	0x00000214
    8740:	00000214 	.word	0x00000214
    8744:	00000214 	.word	0x00000214
    8748:	00000214 	.word	0x00000214
    874c:	00000214 	.word	0x00000214
    8750:	000001f0 	.word	0x000001f0
    8754:	000001f0 	.word	0x000001f0
    8758:	000001f8 	.word	0x000001f8
    875c:	000001f8 	.word	0x000001f8
    8760:	000001f8 	.word	0x000001f8
    8764:	000001f8 	.word	0x000001f8
    8768:	00004843 	.word	0x00004843
    876c:	00000009 	.word	0x00000009
    8770:	3a434c50 	.word	0x3a434c50
    8774:	00000020 	.word	0x00000020
    8778:	0046464f 	.word	0x0046464f
    877c:	00000000 	.word	0x00000000
    8780:	00004e4f 	.word	0x00004e4f
    8784:	002e6f4e 	.word	0x002e6f4e
    8788:	00000000 	.word	0x00000000
    878c:	000015de 	.word	0x000015de
    8790:	000015f4 	.word	0x000015f4
    8794:	0000160e 	.word	0x0000160e
    8798:	000015de 	.word	0x000015de
    879c:	000015de 	.word	0x000015de
    87a0:	000015de 	.word	0x000015de
    87a4:	000015de 	.word	0x000015de
    87a8:	000015de 	.word	0x000015de
    87ac:	000015de 	.word	0x000015de
    87b0:	000015de 	.word	0x000015de
    87b4:	000015de 	.word	0x000015de
    87b8:	000015de 	.word	0x000015de
    87bc:	000015de 	.word	0x000015de
    87c0:	000015de 	.word	0x000015de
    87c4:	000015de 	.word	0x000015de
    87c8:	000016b8 	.word	0x000016b8
    87cc:	000015de 	.word	0x000015de
    87d0:	000015de 	.word	0x000015de
    87d4:	00001706 	.word	0x00001706
    87d8:	000015de 	.word	0x000015de
    87dc:	000015de 	.word	0x000015de
    87e0:	000015de 	.word	0x000015de
    87e4:	000015de 	.word	0x000015de
    87e8:	000015de 	.word	0x000015de
    87ec:	000015de 	.word	0x000015de
    87f0:	00001670 	.word	0x00001670
    87f4:	000015de 	.word	0x000015de
    87f8:	000015de 	.word	0x000015de
    87fc:	00001628 	.word	0x00001628
    8800:	00000000 	.word	0x00000000
    8804:	50206f54 	.word	0x50206f54
    8808:	4f20434c 	.word	0x4f20434c
    880c:	00000d4b 	.word	0x00000d4b
    8810:	74737544 	.word	0x74737544
    8814:	6d695420 	.word	0x6d695420
    8818:	754f2065 	.word	0x754f2065
    881c:	00000d74 	.word	0x00000d74
    8820:	002e6f4e 	.word	0x002e6f4e
    8824:	00000000 	.word	0x00000000
    8828:	75716552 	.word	0x75716552
    882c:	3a747365 	.word	0x3a747365
    8830:	2e6f4e20 	.word	0x2e6f4e20
    8834:	00000000 	.word	0x00000000

00008838 <Msg_Arrow_Right>:
    8838:	3e2d2d09 00000009                       .-->....

00008840 <Msg_Desh>:
    8840:	202d202d 202d202d 202d202d 202d202d     - - - - - - - - 
    8850:	202d202d 0d2d202d 00000000              - - - -.....

0000885c <Msg_FoundIt>:
    885c:	6f46205b 20646e75 5d207469 0000000d     [ Found it ]....

0000886c <Msg_LoRA01>:
    886c:	30524c40 00000931                       @LR01...

00008874 <Msg_LoRA02>:
    8874:	30524c20 00000932                        LR02...

0000887c <Msg_Power_ON_START>:
    887c:	20484853 41526f4c 73795320 0d6d6574     SHH LoRA System.
    888c:	00000000 00003600 0000385e 0000385e     .....6..^8..^8..
    889c:	0000385e 0000385e 0000385e 0000385e     ^8..^8..^8..^8..
    88ac:	0000385e 0000385e 0000385e 0000385e     ^8..^8..^8..^8..
    88bc:	0000385e 0000385e 0000385e 0000385e     ^8..^8..^8..^8..
    88cc:	0000385e 000035e0 0000385e 0000385e     ^8...5..^8..^8..
    88dc:	0000385e 0000385e 0000385e 0000385e     ^8..^8..^8..^8..
    88ec:	0000385e 0000385e 0000385e 0000385e     ^8..^8..^8..^8..
    88fc:	0000385e 0000385e 0000385e 0000385e     ^8..^8..^8..^8..
    890c:	0000385e 000035f8 0000385e 0000385e     ^8...5..^8..^8..
    891c:	0000385e 0000385e 0000385e 0000385e     ^8..^8..^8..^8..
    892c:	0000385e 0000385e 0000385e 0000385e     ^8..^8..^8..^8..
    893c:	0000385e 0000385e 0000385e 0000385e     ^8..^8..^8..^8..
    894c:	0000385e 000035f0 00003608 000035c0     ^8...5...6...5..
    895c:	000035d0 000035c8 00000002 00000003     .5...5..........
    896c:	0000ffff 0000ffff 00000004 00000005     ................
    897c:	00000006 00000007 0000ffff 0000ffff     ................
    898c:	0000ffff 0000ffff 0000ffff 0000ffff     ................
    899c:	0000ffff 0000ffff 00000008 00000009     ................
    89ac:	0000000a 0000000b 42002000 42002400     ......... .B.$.B
    89bc:	42002800 42002c00 42003000 42003400     .(.B.,.B.0.B.4.B
    89cc:	02000100 08000400 20001000 000049f4     ........... .I..
    89dc:	00004604 00004652 00004728 000046d8     .F..RF..(G...F..
    89ec:	00004a98 0000469c 00004652 00004652     .J...F..RF..RF..
    89fc:	00004652 00004652 00004652 00004652     RF..RF..RF..RF..
    8a0c:	00004652 00004652 00004652 00004652     RF..RF..RF..RF..
    8a1c:	00004652 00004652 00004652 00004652     RF..RF..RF..RF..
    8a2c:	00004652 00004652 00004652 00004652     RF..RF..RF..RF..
    8a3c:	00004652 00004652 00004652 00004652     RF..RF..RF..RF..
    8a4c:	00004652 00004652 00004652 00004652     RF..RF..RF..RF..
    8a5c:	00004652 00004652 00004652 00004652     RF..RF..RF..RF..
    8a6c:	00004652 00004652 00004652 00004652     RF..RF..RF..RF..
    8a7c:	00004652 00004652 00004652 00004652     RF..RF..RF..RF..
    8a8c:	00004652 00004652 00004652 00004652     RF..RF..RF..RF..
    8a9c:	00004652 00004652 00004652 00004652     RF..RF..RF..RF..
    8aac:	00004652 00004652 00004652 00004652     RF..RF..RF..RF..
    8abc:	00004652 00004652 00004652 00004652     RF..RF..RF..RF..
    8acc:	00004652 00004652 00004652 00004652     RF..RF..RF..RF..
    8adc:	00004652 00004652 00004652 00004652     RF..RF..RF..RF..
    8aec:	00004652 00004652 00004652 00004652     RF..RF..RF..RF..
    8afc:	00004652 00004652 00004652 00004652     RF..RF..RF..RF..
    8b0c:	00004652 00004652 00004652 00004652     RF..RF..RF..RF..
    8b1c:	00004652 00004652 00004652 00004652     RF..RF..RF..RF..
    8b2c:	00004652 00004652 00004652 00004652     RF..RF..RF..RF..
    8b3c:	00004652 00004652 00004652 00004652     RF..RF..RF..RF..
    8b4c:	00004652 00004652 00004652 00004652     RF..RF..RF..RF..
    8b5c:	00004652 00004652 00004652 00004656     RF..RF..RF..VF..
    8b6c:	00004b28 00004652 00004652 000048d0     (K..RF..RF...H..
    8b7c:	000045d0 00004652 000047b6 00004adc     .E..RF...G...J..
    8b8c:	00004652 00004652 00004652 00004652     RF..RF..RF..RF..
    8b9c:	00004792 00004588 00004a90 00004e4f     .G...E...J..ON..
    8bac:	0046464f 00000000 00007854 00007852     OFF.....Tx..Rx..
    8bbc:	7a484d20 00000000 6d626420 00000000      MHz.... dbm....

00008bcc <Msg_CMDDelay>:
    8bcc:	20444d43 616c6544 00000d79              CMD Delay...

00008bd8 <Msg_CRCErr>:
    8bd8:	20435243 0d727245 00000000              CRC Err.....

00008be4 <Msg_CRCOK>:
    8be4:	20435243 000d4b4f 00000000              CRC OK......

00008bf0 <Msg_DebugMode>:
    8bf0:	44202020 67756265 646f4d20 00203a65        Debug Mode: .
    8c00:	00000000                                ....

00008c04 <Msg_FQ>:
    8c04:	465d665b 00203a51 00000000              [f]FQ: .....

00008c10 <Msg_FW>:
    8c10:	46202020 00203a57 00000000                 FW: .....

00008c1c <Msg_ID>:
    8c1c:	495d695b 00203a44 00000000              [i]ID: .....

00008c28 <Msg_LRRST>:
    8c28:	5220524c 00095453 00000000              LR RST......

00008c34 <Msg_LeaveTx>:
    8c34:	7661654c 78542065 0000000d              Leave Tx....

00008c40 <Msg_LoRA1_Time_Out>:
    8c40:	41526f4c 69542031 4f20656d 00207475     LoRA1 Time Out .
    8c50:	00000000                                ....

00008c54 <Msg_LoRA2_Time_Out>:
    8c54:	41526f4c 69542032 4f20656d 00207475     LoRA2 Time Out .
    8c64:	00000000                                ....

00008c68 <Msg_LoRAID>:
    8c68:	41526f4c 3a444920 00000020              LoRA ID: ...

00008c74 <Msg_LowPower>:
    8c74:	20776f4c 65776f50 00000d72              Low Power...

00008c80 <Msg_Mode>:
    8c80:	4d202020 3a65646f 00000020                 Mode: ...

00008c8c <Msg_PLC>:
    8c8c:	50202020 203a434c 00000000                 PLC: ....

00008c98 <Msg_Power>:
    8c98:	505d705b 7265776f 002b203a 00000000     [p]Power: +.....

00008ca8 <Msg_RSTIRQ>:
    8ca8:	20545352 09515249 00000000              RST IRQ.....

00008cb4 <Msg_RdBF>:
    8cb4:	42206452 00000946                       Rd BF...

00008cbc <Msg_RdID>:
    8cbc:	49206452 00000944                       Rd ID...

00008cc4 <Msg_SF>:
    8cc4:	535d735b 00203a46 00000000              [s]SF: .....

00008cd0 <Msg_TimeOut>:
    8cd0:	656d6954 74754f20 0000000d              Time Out....

00008cdc <Msg_UserID>:
    8cdc:	72657355 3a444920 00000020              User ID: ...

00008ce8 <Msg_WaitTXIRQ>:
    8ce8:	74696157 20585420 0d515249 00000000     Wait TX IRQ.....

00008cf8 <Msg_WrBF>:
    8cf8:	42207257 00000946                       Wr BF...

00008d00 <Msg_WrFQ>:
    8d00:	46207257 00000951                       Wr FQ...

00008d08 <Msg_WrSt>:
    8d08:	53207257 00000974                       Wr St...

00008d10 <tc_interrupt_vectors.10645>:
    8d10:	100f0e0d 00001211 42000800 42000c00     ...........B...B
    8d20:	42001000 42001400 000061e2 000061de     ...B...B.a...a..
    8d30:	000061de 0000622e 0000622e 000061f6     .a...b...b...a..
    8d40:	000061e8 000061fc 000062b4 00006294     .a...a...b...b..
    8d50:	00006294 00006304 000062a6 000062c2     .b...c...b...b..
    8d60:	00006298 000062d0 31676f6c 00006630     .b...b..log10f..
    8d70:	00007a8c 00007a5c 00007a6e 000079b0     .z..\z..nz...y..
    8d80:	00007a6e 00007a52 00007a6e 000079b0     nz..Rz..nz...y..
    8d90:	00007a5c 00007a5c 00007a52 000079b0     \z..\z..Rz...y..
    8da0:	000079b8 000079b8 000079b8 00007a74     .y...y...y..tz..
    8db0:	00007a5c 00007a5c 00007a30 00007b14     \z..\z..0z...{..
    8dc0:	00007a30 00007a52 00007a30 00007b14     0z..Rz..0z...{..
    8dd0:	00007a5c 00007a5c 00007a52 00007b14     \z..\z..Rz...{..
    8de0:	000079b8 000079b8 000079b8 00007b1e     .y...y...y...{..
    8df0:	00007e0c 00007d5c 00007d5c 00007d5a     .~..\}..\}..Z}..
    8e00:	00007dfe 00007dfe 00007df4 00007d5a     .}...}...}..Z}..
    8e10:	00007dfe 00007df4 00007dfe 00007d5a     .}...}...}..Z}..
    8e20:	00007e04 00007e04 00007e04 00007e94     .~...~...~...~..

00008e30 <_init>:
    8e30:	b5f8      	push	{r3, r4, r5, r6, r7, lr}
    8e32:	46c0      	nop			; (mov r8, r8)
    8e34:	bcf8      	pop	{r3, r4, r5, r6, r7}
    8e36:	bc08      	pop	{r3}
    8e38:	469e      	mov	lr, r3
    8e3a:	4770      	bx	lr

00008e3c <__init_array_start>:
    8e3c:	000000cd 	.word	0x000000cd

00008e40 <_fini>:
    8e40:	b5f8      	push	{r3, r4, r5, r6, r7, lr}
    8e42:	46c0      	nop			; (mov r8, r8)
    8e44:	bcf8      	pop	{r3, r4, r5, r6, r7}
    8e46:	bc08      	pop	{r3}
    8e48:	469e      	mov	lr, r3
    8e4a:	4770      	bx	lr

00008e4c <__fini_array_start>:
    8e4c:	000000a5 	.word	0x000000a5
